ARM GAS  C:\cygwin64\tmp\cc9MuVVj.s 			page 1


   1              		.cpu cortex-m4
   2              		.eabi_attribute 27, 1
   3              		.eabi_attribute 28, 1
   4              		.eabi_attribute 20, 1
   5              		.eabi_attribute 21, 1
   6              		.eabi_attribute 23, 3
   7              		.eabi_attribute 24, 1
   8              		.eabi_attribute 25, 1
   9              		.eabi_attribute 26, 1
  10              		.eabi_attribute 30, 4
  11              		.eabi_attribute 34, 1
  12              		.eabi_attribute 18, 4
  13              		.file	"board.c"
  14              		.text
  15              	.Ltext0:
  16              		.cfi_sections	.debug_frame
  17              		.section	.text.__early_init,"ax",%progbits
  18              		.align	1
  19              		.global	__early_init
  20              		.syntax unified
  21              		.thumb
  22              		.thumb_func
  23              		.fpu fpv4-sp-d16
  24              		.type	__early_init, %function
  25              	__early_init:
  26              	.LFB277:
  27              		.file 1 "../../libraries/AP_HAL_ChibiOS/hwdef/common/board.c"
  28              		.loc 1 61 0
  29              		.cfi_startproc
  30              		@ args = 0, pretend = 0, frame = 0
  31              		@ frame_needed = 0, uses_anonymous_args = 0
  32              		@ link register save eliminated.
  33              		.loc 1 62 0
  34 0000 FFF7FEBF 		b	stm32_clock_init
  35              	.LVL0:
  36              		.cfi_endproc
  37              	.LFE277:
  38              		.size	__early_init, .-__early_init
  39              		.section	.text.__late_init,"ax",%progbits
  40              		.align	1
  41              		.global	__late_init
  42              		.syntax unified
  43              		.thumb
  44              		.thumb_func
  45              		.fpu fpv4-sp-d16
  46              		.type	__late_init, %function
  47              	__late_init:
  48              	.LFB278:
  49              		.loc 1 65 0
  50              		.cfi_startproc
  51              		@ args = 0, pretend = 0, frame = 0
  52              		@ frame_needed = 0, uses_anonymous_args = 0
  53 0000 08B5     		push	{r3, lr}
  54              		.cfi_def_cfa_offset 8
  55              		.cfi_offset 3, -8
  56              		.cfi_offset 14, -4
  57              		.loc 1 66 0
ARM GAS  C:\cygwin64\tmp\cc9MuVVj.s 			page 2


  58 0002 FFF7FEFF 		bl	halInit
  59              	.LVL1:
  60              		.loc 1 67 0
  61 0006 FFF7FEFF 		bl	chSysInit
  62              	.LVL2:
  63              		.loc 1 69 0
  64 000a FFF7FEFF 		bl	malloc_init
  65              	.LVL3:
  66              		.loc 1 74 0
  67 000e BDE80840 		pop	{r3, lr}
  68              		.cfi_restore 14
  69              		.cfi_restore 3
  70              		.cfi_def_cfa_offset 0
  71              		.loc 1 72 0
  72 0012 FFF7FEBF 		b	setup_usb_strings
  73              	.LVL4:
  74              		.cfi_endproc
  75              	.LFE278:
  76              		.size	__late_init, .-__late_init
  77              		.section	.text.sdc_lld_is_card_inserted,"ax",%progbits
  78              		.align	1
  79              		.global	sdc_lld_is_card_inserted
  80              		.syntax unified
  81              		.thumb
  82              		.thumb_func
  83              		.fpu fpv4-sp-d16
  84              		.type	sdc_lld_is_card_inserted, %function
  85              	sdc_lld_is_card_inserted:
  86              	.LFB279:
  87              		.loc 1 80 0
  88              		.cfi_startproc
  89              		@ args = 0, pretend = 0, frame = 0
  90              		@ frame_needed = 0, uses_anonymous_args = 0
  91              		@ link register save eliminated.
  92              	.LVL5:
  93              		.loc 1 83 0
  94 0000 0120     		movs	r0, #1
  95              	.LVL6:
  96 0002 7047     		bx	lr
  97              		.cfi_endproc
  98              	.LFE279:
  99              		.size	sdc_lld_is_card_inserted, .-sdc_lld_is_card_inserted
 100              		.section	.text.sdc_lld_is_write_protected,"ax",%progbits
 101              		.align	1
 102              		.global	sdc_lld_is_write_protected
 103              		.syntax unified
 104              		.thumb
 105              		.thumb_func
 106              		.fpu fpv4-sp-d16
 107              		.type	sdc_lld_is_write_protected, %function
 108              	sdc_lld_is_write_protected:
 109              	.LFB280:
 110              		.loc 1 88 0
 111              		.cfi_startproc
 112              		@ args = 0, pretend = 0, frame = 0
 113              		@ frame_needed = 0, uses_anonymous_args = 0
 114              		@ link register save eliminated.
ARM GAS  C:\cygwin64\tmp\cc9MuVVj.s 			page 3


 115              	.LVL7:
 116              		.loc 1 92 0
 117 0000 0020     		movs	r0, #0
 118              	.LVL8:
 119 0002 7047     		bx	lr
 120              		.cfi_endproc
 121              	.LFE280:
 122              		.size	sdc_lld_is_write_protected, .-sdc_lld_is_write_protected
 123              		.section	.text.boardInit,"ax",%progbits
 124              		.align	1
 125              		.global	boardInit
 126              		.syntax unified
 127              		.thumb
 128              		.thumb_func
 129              		.fpu fpv4-sp-d16
 130              		.type	boardInit, %function
 131              	boardInit:
 132              	.LFB281:
 133              		.loc 1 119 0
 134              		.cfi_startproc
 135              		@ args = 0, pretend = 0, frame = 0
 136              		@ frame_needed = 0, uses_anonymous_args = 0
 137              		@ link register save eliminated.
 138 0000 7047     		bx	lr
 139              		.cfi_endproc
 140              	.LFE281:
 141              		.size	boardInit, .-boardInit
 142              		.global	pal_default_config
 143              		.section	.rodata.pal_default_config,"a",%progbits
 144              		.align	2
 145              		.type	pal_default_config, %object
 146              		.size	pal_default_config, 252
 147              	pal_default_config:
 148 0000 FAAB81AA 		.word	-1434342406
 149 0004 00020000 		.word	512
 150 0008 AAAAAAAA 		.word	-1431655766
 151 000c 05000000 		.word	5
 152 0010 FFFE0000 		.word	65279
 153 0014 88005055 		.word	1431306376
 154 0018 00A00A10 		.word	269131776
 155 001c 0520AAAA 		.word	-1431691259
 156 0020 000F0000 		.word	3840
 157 0024 AAAAAAAA 		.word	-1431655766
 158 0028 00440000 		.word	17408
 159 002c FFFF0000 		.word	65535
 160 0030 00000009 		.word	150994944
 161 0034 44445955 		.word	1431913540
 162 0038 D4AFAA56 		.word	1454026708
 163 003c 00000000 		.word	0
 164 0040 AAAAAAAA 		.word	-1431655766
 165 0044 14500054 		.word	1409306644
 166 0048 FFFF0000 		.word	65535
 167 004c 00000088 		.word	-2013265920
 168 0050 CCCC0C00 		.word	838860
 169 0054 AA699A29 		.word	697985450
 170 0058 00000000 		.word	0
 171 005c AAAA8AAA 		.word	-1433752918
ARM GAS  C:\cygwin64\tmp\cc9MuVVj.s 			page 4


 172 0060 40555501 		.word	22369600
 173 0064 FFFF0000 		.word	65535
 174 0068 997C7007 		.word	124812441
 175 006c 77702002 		.word	35680375
 176 0070 6AA98A29 		.word	696953194
 177 0074 00100000 		.word	4096
 178 0078 AAAAAAAA 		.word	-1431655766
 179 007c 05411140 		.word	1074872581
 180 0080 FFFF0000 		.word	65535
 181 0084 88055085 		.word	-2058353272
 182 0088 18101001 		.word	17829912
 183 008c 00000000 		.word	0
 184 0090 00000000 		.word	0
 185 0094 AAAAAAAA 		.word	-1431655766
 186 0098 00000000 		.word	0
 187 009c FFFF0000 		.word	65535
 188 00a0 00000000 		.word	0
 189 00a4 00000000 		.word	0
 190 00a8 00000000 		.word	0
 191 00ac 00000000 		.word	0
 192 00b0 AAAAAAAA 		.word	-1431655766
 193 00b4 00000000 		.word	0
 194 00b8 FFFF0000 		.word	65535
 195 00bc 00000000 		.word	0
 196 00c0 00000000 		.word	0
 197 00c4 00000000 		.word	0
 198 00c8 00000000 		.word	0
 199 00cc 0A000000 		.word	10
 200 00d0 00000000 		.word	0
 201 00d4 03000000 		.word	3
 202 00d8 00000000 		.word	0
 203 00dc 00000000 		.word	0
 204 00e0 00000000 		.word	0
 205 00e4 00000000 		.word	0
 206 00e8 00000000 		.word	0
 207 00ec 00000000 		.word	0
 208 00f0 00000000 		.word	0
 209 00f4 00000000 		.word	0
 210 00f8 00000000 		.word	0
 211              		.text
 212              	.Letext0:
 213              		.file 2 "c:\\program files (x86)\\gnu tools arm embedded\\6 2017-q2-update\\lib\\gcc\\arm-none-eab
 214              		.file 3 "c:\\program files (x86)\\gnu tools arm embedded\\6 2017-q2-update\\arm-none-eabi\\include
 215              		.file 4 "c:\\program files (x86)\\gnu tools arm embedded\\6 2017-q2-update\\arm-none-eabi\\include
 216              		.file 5 "../../modules/ChibiOS/os/common/ports/ARMCMx/compilers/GCC/chtypes.h"
 217              		.file 6 "../../modules/ChibiOS/os/rt/include/chsystypes.h"
 218              		.file 7 "../../modules/ChibiOS/os/rt/include/chschd.h"
 219              		.file 8 "../../modules/ChibiOS/os/common/ext/CMSIS/include/core_cm4.h"
 220              		.file 9 "../../modules/ChibiOS/os/common/ext/CMSIS/ST/STM32F4xx/system_stm32f4xx.h"
 221              		.file 10 "../../modules/ChibiOS/os/common/ext/CMSIS/ST/STM32F4xx/stm32f427xx.h"
 222              		.file 11 "../../modules/ChibiOS/os/common/ports/ARMCMx/chcore.h"
 223              		.file 12 "../../modules/ChibiOS/os/common/ports/ARMCMx/chcore_v7m.h"
 224              		.file 13 "../../modules/ChibiOS/os/hal/ports/STM32/LLD/TIMv1/stm32_tim.h"
 225              		.file 14 "../../modules/ChibiOS/os/rt/include/chtm.h"
 226              		.file 15 "../../modules/ChibiOS/os/rt/include/chstats.h"
 227              		.file 16 "../../modules/ChibiOS/os/rt/include/chsem.h"
 228              		.file 17 "../../modules/ChibiOS/os/rt/include/chmtx.h"
ARM GAS  C:\cygwin64\tmp\cc9MuVVj.s 			page 5


 229              		.file 18 "../../modules/ChibiOS/os/rt/include/chsys.h"
 230              		.file 19 "../../modules/ChibiOS/os/rt/include/chregistry.h"
 231              		.file 20 "../../modules/ChibiOS/os/rt/include/chevents.h"
 232              		.file 21 "../../modules/ChibiOS/os/hal/ports/STM32/LLD/DMAv2/stm32_dma.h"
 233              		.file 22 "../../modules/ChibiOS/os/hal/include/hal_ioblock.h"
 234              		.file 23 "../../modules/ChibiOS/os/hal/include/hal_buffers.h"
 235              		.file 24 "../../modules/ChibiOS/os/hal/include/hal_queues.h"
 236              		.file 25 "../../modules/ChibiOS/os/hal/ports/STM32/LLD/GPIOv2/hal_pal_lld.h"
 237              		.file 26 "../../modules/ChibiOS/os/hal/include/hal_adc.h"
 238              		.file 27 "../../modules/ChibiOS/os/hal/ports/STM32/LLD/ADCv2/hal_adc_lld.h"
 239              		.file 28 "../../modules/ChibiOS/os/hal/include/hal_ext.h"
 240              		.file 29 "../../modules/ChibiOS/os/hal/ports/STM32/LLD/EXTIv1/hal_ext_lld.h"
 241              		.file 30 "../../modules/ChibiOS/os/hal/include/hal_i2c.h"
 242              		.file 31 "../../modules/ChibiOS/os/hal/ports/STM32/LLD/I2Cv1/hal_i2c_lld.h"
 243              		.file 32 "../../modules/ChibiOS/os/hal/include/hal_pwm.h"
 244              		.file 33 "../../modules/ChibiOS/os/hal/ports/STM32/LLD/TIMv1/hal_pwm_lld.h"
 245              		.file 34 "../../modules/ChibiOS/os/hal/include/hal_serial.h"
 246              		.file 35 "../../modules/ChibiOS/os/hal/ports/STM32/LLD/USARTv1/hal_serial_lld.h"
 247              		.file 36 "../../modules/ChibiOS/os/hal/include/hal_sdc.h"
 248              		.file 37 "../../modules/ChibiOS/os/hal/ports/STM32/LLD/SDIOv1/hal_sdc_lld.h"
 249              		.file 38 "../../modules/ChibiOS/os/hal/include/hal_spi.h"
 250              		.file 39 "../../modules/ChibiOS/os/hal/ports/STM32/LLD/SPIv1/hal_spi_lld.h"
 251              		.file 40 "../../modules/ChibiOS/os/hal/include/hal_usb.h"
 252              		.file 41 "../../modules/ChibiOS/os/hal/ports/STM32/LLD/OTGv1/hal_usb_lld.h"
 253              		.file 42 "../../modules/ChibiOS/os/hal/ports/STM32/LLD/OTGv1/stm32_otg.h"
 254              		.file 43 "../../modules/ChibiOS/os/hal/include/hal_serial_usb.h"
 255              		.file 44 "../../libraries/AP_HAL_ChibiOS/hwdef/common/usbcfg.h"
 256              		.file 45 "../../modules/ChibiOS/os/hal/include/hal.h"
 257              		.file 46 "../../libraries/AP_HAL_ChibiOS/hwdef/common/stm32_util.h"
 258              		.file 47 "../../modules/ChibiOS/os/hal/ports/STM32/STM32F4xx/hal_lld.h"