ARM GAS  C:\cygwin64\tmp\ccPsjXbw.s 			page 1


   1              		.cpu cortex-m4
   2              		.eabi_attribute 27, 1
   3              		.eabi_attribute 28, 1
   4              		.eabi_attribute 20, 1
   5              		.eabi_attribute 21, 1
   6              		.eabi_attribute 23, 3
   7              		.eabi_attribute 24, 1
   8              		.eabi_attribute 25, 1
   9              		.eabi_attribute 26, 1
  10              		.eabi_attribute 30, 4
  11              		.eabi_attribute 34, 1
  12              		.eabi_attribute 18, 4
  13              		.file	"bouncebuffer.c"
  14              		.text
  15              	.Ltext0:
  16              		.cfi_sections	.debug_frame
  17              		.section	.text.bouncebuffer_init,"ax",%progbits
  18              		.align	1
  19              		.global	bouncebuffer_init
  20              		.syntax unified
  21              		.thumb
  22              		.thumb_func
  23              		.fpu fpv4-sp-d16
  24              		.type	bouncebuffer_init, %function
  25              	bouncebuffer_init:
  26              	.LFB277:
  27              		.file 1 "../../libraries/AP_HAL_ChibiOS/hwdef/common/bouncebuffer.c"
  28              		.loc 1 36 0
  29              		.cfi_startproc
  30              		@ args = 0, pretend = 0, frame = 0
  31              		@ frame_needed = 0, uses_anonymous_args = 0
  32              	.LVL0:
  33 0000 70B5     		push	{r4, r5, r6, lr}
  34              		.cfi_def_cfa_offset 16
  35              		.cfi_offset 4, -16
  36              		.cfi_offset 5, -12
  37              		.cfi_offset 6, -8
  38              		.cfi_offset 14, -4
  39              		.loc 1 36 0
  40 0002 0546     		mov	r5, r0
  41 0004 0C46     		mov	r4, r1
  42              		.loc 1 37 0
  43 0006 0120     		movs	r0, #1
  44              	.LVL1:
  45 0008 1021     		movs	r1, #16
  46              	.LVL2:
  47 000a FFF7FEFF 		bl	calloc
  48              	.LVL3:
  49 000e 0646     		mov	r6, r0
  50 0010 2860     		str	r0, [r5]
  51              		.loc 1 39 0
  52 0012 2CB1     		cbz	r4, .L1
  53              		.loc 1 40 0
  54 0014 2046     		mov	r0, r4
  55 0016 FFF7FEFF 		bl	malloc_dma
  56              	.LVL4:
  57              		.loc 1 42 0
ARM GAS  C:\cygwin64\tmp\ccPsjXbw.s 			page 2


  58 001a 2B68     		ldr	r3, [r5]
  59              		.loc 1 40 0
  60 001c 3060     		str	r0, [r6]
  61              		.loc 1 42 0
  62 001e 9C60     		str	r4, [r3, #8]
  63              	.L1:
  64 0020 70BD     		pop	{r4, r5, r6, pc}
  65              		.cfi_endproc
  66              	.LFE277:
  67              		.size	bouncebuffer_init, .-bouncebuffer_init
  68              		.section	.text.bouncebuffer_setup_read,"ax",%progbits
  69              		.align	1
  70              		.global	bouncebuffer_setup_read
  71              		.syntax unified
  72              		.thumb
  73              		.thumb_func
  74              		.fpu fpv4-sp-d16
  75              		.type	bouncebuffer_setup_read, %function
  76              	bouncebuffer_setup_read:
  77              	.LFB278:
  78              		.loc 1 50 0
  79              		.cfi_startproc
  80              		@ args = 0, pretend = 0, frame = 0
  81              		@ frame_needed = 0, uses_anonymous_args = 0
  82              	.LVL5:
  83 0000 70B5     		push	{r4, r5, r6, lr}
  84              		.cfi_def_cfa_offset 16
  85              		.cfi_offset 4, -16
  86              		.cfi_offset 5, -12
  87              		.cfi_offset 6, -8
  88              		.cfi_offset 14, -4
  89              		.loc 1 50 0
  90 0002 0E46     		mov	r6, r1
  91 0004 1546     		mov	r5, r2
  92              		.loc 1 51 0
  93 0006 0446     		mov	r4, r0
  94 0008 B0B1     		cbz	r0, .L6
  95              		.loc 1 51 0 is_stmt 0 discriminator 1
  96 000a 0B68     		ldr	r3, [r1]
  97 000c 0B4A     		ldr	r2, .L19
  98              	.LVL6:
  99 000e 1A40     		ands	r2, r2, r3
 100 0010 B2F1005F 		cmp	r2, #536870912
 101 0014 10D0     		beq	.L6
 102              		.loc 1 56 0 is_stmt 1
 103 0016 4360     		str	r3, [r0, #4]
 104              		.loc 1 57 0
 105 0018 8368     		ldr	r3, [r0, #8]
 106 001a AB42     		cmp	r3, r5
 107 001c 08D2     		bcs	.L8
 108              		.loc 1 58 0
 109 001e 13B1     		cbz	r3, .L9
 110              		.loc 1 59 0
 111 0020 0068     		ldr	r0, [r0]
 112              	.LVL7:
 113 0022 FFF7FEFF 		bl	free
 114              	.LVL8:
ARM GAS  C:\cygwin64\tmp\ccPsjXbw.s 			page 3


 115              	.L9:
 116              		.loc 1 61 0
 117 0026 2846     		mov	r0, r5
 118 0028 FFF7FEFF 		bl	malloc_dma
 119              	.LVL9:
 120              		.loc 1 63 0
 121 002c A560     		str	r5, [r4, #8]
 122              		.loc 1 61 0
 123 002e 2060     		str	r0, [r4]
 124              	.L8:
 125              		.loc 1 65 0
 126 0030 2368     		ldr	r3, [r4]
 127 0032 3360     		str	r3, [r6]
 128              		.loc 1 66 0
 129 0034 0123     		movs	r3, #1
 130 0036 2373     		strb	r3, [r4, #12]
 131              	.L6:
 132 0038 70BD     		pop	{r4, r5, r6, pc}
 133              	.LVL10:
 134              	.L20:
 135 003a 00BF     		.align	2
 136              	.L19:
 137 003c 010000F0 		.word	-268435455
 138              		.cfi_endproc
 139              	.LFE278:
 140              		.size	bouncebuffer_setup_read, .-bouncebuffer_setup_read
 141              		.section	.text.bouncebuffer_finish_read,"ax",%progbits
 142              		.align	1
 143              		.global	bouncebuffer_finish_read
 144              		.syntax unified
 145              		.thumb
 146              		.thumb_func
 147              		.fpu fpv4-sp-d16
 148              		.type	bouncebuffer_finish_read, %function
 149              	bouncebuffer_finish_read:
 150              	.LFB279:
 151              		.loc 1 73 0
 152              		.cfi_startproc
 153              		@ args = 0, pretend = 0, frame = 0
 154              		@ frame_needed = 0, uses_anonymous_args = 0
 155              	.LVL11:
 156 0000 10B5     		push	{r4, lr}
 157              		.cfi_def_cfa_offset 8
 158              		.cfi_offset 4, -8
 159              		.cfi_offset 14, -4
 160              		.loc 1 74 0
 161 0002 0446     		mov	r4, r0
 162 0004 38B1     		cbz	r0, .L21
 163              		.loc 1 74 0 is_stmt 0 discriminator 1
 164 0006 0068     		ldr	r0, [r0]
 165              	.LVL12:
 166 0008 8842     		cmp	r0, r1
 167 000a 04D1     		bne	.L21
 168              		.loc 1 76 0 is_stmt 1
 169 000c 6068     		ldr	r0, [r4, #4]
 170 000e FFF7FEFF 		bl	memcpy
 171              	.LVL13:
ARM GAS  C:\cygwin64\tmp\ccPsjXbw.s 			page 4


 172              		.loc 1 77 0
 173 0012 0023     		movs	r3, #0
 174 0014 2373     		strb	r3, [r4, #12]
 175              	.L21:
 176 0016 10BD     		pop	{r4, pc}
 177              		.cfi_endproc
 178              	.LFE279:
 179              		.size	bouncebuffer_finish_read, .-bouncebuffer_finish_read
 180              		.section	.text.bouncebuffer_setup_write,"ax",%progbits
 181              		.align	1
 182              		.global	bouncebuffer_setup_write
 183              		.syntax unified
 184              		.thumb
 185              		.thumb_func
 186              		.fpu fpv4-sp-d16
 187              		.type	bouncebuffer_setup_write, %function
 188              	bouncebuffer_setup_write:
 189              	.LFB280:
 190              		.loc 1 86 0
 191              		.cfi_startproc
 192              		@ args = 0, pretend = 0, frame = 0
 193              		@ frame_needed = 0, uses_anonymous_args = 0
 194              	.LVL14:
 195 0000 70B5     		push	{r4, r5, r6, lr}
 196              		.cfi_def_cfa_offset 16
 197              		.cfi_offset 4, -16
 198              		.cfi_offset 5, -12
 199              		.cfi_offset 6, -8
 200              		.cfi_offset 14, -4
 201              		.loc 1 86 0
 202 0002 0E46     		mov	r6, r1
 203 0004 1546     		mov	r5, r2
 204              		.loc 1 87 0
 205 0006 0446     		mov	r4, r0
 206 0008 00B3     		cbz	r0, .L26
 207              		.loc 1 87 0 is_stmt 0 discriminator 1
 208 000a 0B68     		ldr	r3, [r1]
 209 000c 23F07F63 		bic	r3, r3, #267386880
 210 0010 23F47F23 		bic	r3, r3, #1044480
 211 0014 23F47F63 		bic	r3, r3, #4080
 212 0018 23F00E03 		bic	r3, r3, #14
 213 001c B3F1005F 		cmp	r3, #536870912
 214 0020 14D0     		beq	.L26
 215              		.loc 1 92 0 is_stmt 1
 216 0022 8368     		ldr	r3, [r0, #8]
 217 0024 9342     		cmp	r3, r2
 218 0026 08D2     		bcs	.L28
 219              		.loc 1 93 0
 220 0028 13B1     		cbz	r3, .L29
 221              		.loc 1 94 0
 222 002a 0068     		ldr	r0, [r0]
 223              	.LVL15:
 224 002c FFF7FEFF 		bl	free
 225              	.LVL16:
 226              	.L29:
 227              		.loc 1 96 0
 228 0030 2846     		mov	r0, r5
ARM GAS  C:\cygwin64\tmp\ccPsjXbw.s 			page 5


 229 0032 FFF7FEFF 		bl	malloc_dma
 230              	.LVL17:
 231              		.loc 1 98 0
 232 0036 A560     		str	r5, [r4, #8]
 233              		.loc 1 96 0
 234 0038 2060     		str	r0, [r4]
 235              	.L28:
 236              		.loc 1 100 0
 237 003a 2A46     		mov	r2, r5
 238 003c 3168     		ldr	r1, [r6]
 239 003e 2068     		ldr	r0, [r4]
 240 0040 FFF7FEFF 		bl	memcpy
 241              	.LVL18:
 242              		.loc 1 101 0
 243 0044 2368     		ldr	r3, [r4]
 244 0046 3360     		str	r3, [r6]
 245              		.loc 1 102 0
 246 0048 0123     		movs	r3, #1
 247 004a 2373     		strb	r3, [r4, #12]
 248              	.L26:
 249 004c 70BD     		pop	{r4, r5, r6, pc}
 250              		.cfi_endproc
 251              	.LFE280:
 252              		.size	bouncebuffer_setup_write, .-bouncebuffer_setup_write
 253              		.section	.text.bouncebuffer_finish_write,"ax",%progbits
 254              		.align	1
 255              		.global	bouncebuffer_finish_write
 256              		.syntax unified
 257              		.thumb
 258              		.thumb_func
 259              		.fpu fpv4-sp-d16
 260              		.type	bouncebuffer_finish_write, %function
 261              	bouncebuffer_finish_write:
 262              	.LFB281:
 263              		.loc 1 110 0
 264              		.cfi_startproc
 265              		@ args = 0, pretend = 0, frame = 0
 266              		@ frame_needed = 0, uses_anonymous_args = 0
 267              		@ link register save eliminated.
 268              	.LVL19:
 269              		.loc 1 111 0
 270 0000 20B1     		cbz	r0, .L39
 271              		.loc 1 111 0 is_stmt 0 discriminator 1
 272 0002 0368     		ldr	r3, [r0]
 273 0004 8B42     		cmp	r3, r1
 274              		.loc 1 113 0 is_stmt 1 discriminator 1
 275 0006 04BF     		itt	eq
 276 0008 0023     		moveq	r3, #0
 277 000a 0373     		strbeq	r3, [r0, #12]
 278              	.L39:
 279 000c 7047     		bx	lr
 280              		.cfi_endproc
 281              	.LFE281:
 282              		.size	bouncebuffer_finish_write, .-bouncebuffer_finish_write
 283              		.text
 284              	.Letext0:
 285              		.file 2 "c:\\program files (x86)\\gnu tools arm embedded\\6 2017-q2-update\\lib\\gcc\\arm-none-eab
ARM GAS  C:\cygwin64\tmp\ccPsjXbw.s 			page 6


 286              		.file 3 "c:\\program files (x86)\\gnu tools arm embedded\\6 2017-q2-update\\arm-none-eabi\\include
 287              		.file 4 "c:\\program files (x86)\\gnu tools arm embedded\\6 2017-q2-update\\arm-none-eabi\\include
 288              		.file 5 "../../modules/ChibiOS/os/common/ports/ARMCMx/compilers/GCC/chtypes.h"
 289              		.file 6 "../../modules/ChibiOS/os/rt/include/chsystypes.h"
 290              		.file 7 "../../modules/ChibiOS/os/rt/include/chschd.h"
 291              		.file 8 "../../modules/ChibiOS/os/common/ext/CMSIS/include/core_cm4.h"
 292              		.file 9 "../../modules/ChibiOS/os/common/ext/CMSIS/ST/STM32F4xx/system_stm32f4xx.h"
 293              		.file 10 "../../modules/ChibiOS/os/common/ext/CMSIS/ST/STM32F4xx/stm32f427xx.h"
 294              		.file 11 "../../modules/ChibiOS/os/common/ports/ARMCMx/chcore.h"
 295              		.file 12 "../../modules/ChibiOS/os/common/ports/ARMCMx/chcore_v7m.h"
 296              		.file 13 "../../modules/ChibiOS/os/hal/ports/STM32/LLD/TIMv1/stm32_tim.h"
 297              		.file 14 "../../modules/ChibiOS/os/rt/include/chtm.h"
 298              		.file 15 "../../modules/ChibiOS/os/rt/include/chstats.h"
 299              		.file 16 "../../modules/ChibiOS/os/rt/include/chsem.h"
 300              		.file 17 "../../modules/ChibiOS/os/rt/include/chmtx.h"
 301              		.file 18 "../../modules/ChibiOS/os/rt/include/chsys.h"
 302              		.file 19 "../../modules/ChibiOS/os/rt/include/chregistry.h"
 303              		.file 20 "../../modules/ChibiOS/os/rt/include/chevents.h"
 304              		.file 21 "../../modules/ChibiOS/os/hal/ports/STM32/LLD/DMAv2/stm32_dma.h"
 305              		.file 22 "../../modules/ChibiOS/os/hal/include/hal_ioblock.h"
 306              		.file 23 "../../modules/ChibiOS/os/hal/include/hal_queues.h"
 307              		.file 24 "../../modules/ChibiOS/os/hal/ports/STM32/LLD/GPIOv2/hal_pal_lld.h"
 308              		.file 25 "../../modules/ChibiOS/os/hal/include/hal_adc.h"
 309              		.file 26 "../../modules/ChibiOS/os/hal/ports/STM32/LLD/ADCv2/hal_adc_lld.h"
 310              		.file 27 "../../modules/ChibiOS/os/hal/include/hal_ext.h"
 311              		.file 28 "../../modules/ChibiOS/os/hal/ports/STM32/LLD/EXTIv1/hal_ext_lld.h"
 312              		.file 29 "../../modules/ChibiOS/os/hal/include/hal_i2c.h"
 313              		.file 30 "../../modules/ChibiOS/os/hal/ports/STM32/LLD/I2Cv1/hal_i2c_lld.h"
 314              		.file 31 "../../modules/ChibiOS/os/hal/include/hal_pwm.h"
 315              		.file 32 "../../modules/ChibiOS/os/hal/ports/STM32/LLD/TIMv1/hal_pwm_lld.h"
 316              		.file 33 "../../modules/ChibiOS/os/hal/include/hal_serial.h"
 317              		.file 34 "../../modules/ChibiOS/os/hal/ports/STM32/LLD/USARTv1/hal_serial_lld.h"
 318              		.file 35 "../../modules/ChibiOS/os/hal/include/hal_sdc.h"
 319              		.file 36 "../../modules/ChibiOS/os/hal/ports/STM32/LLD/SDIOv1/hal_sdc_lld.h"
 320              		.file 37 "../../libraries/AP_HAL_ChibiOS/hwdef/common/bouncebuffer.h"
 321              		.file 38 "../../modules/ChibiOS/os/hal/include/hal_spi.h"
 322              		.file 39 "../../modules/ChibiOS/os/hal/ports/STM32/LLD/SPIv1/hal_spi_lld.h"
 323              		.file 40 "../../modules/ChibiOS/os/hal/include/hal_usb.h"
 324              		.file 41 "../../modules/ChibiOS/os/hal/ports/STM32/LLD/OTGv1/hal_usb_lld.h"
 325              		.file 42 "../../modules/ChibiOS/os/hal/ports/STM32/LLD/OTGv1/stm32_otg.h"
 326              		.file 43 "c:\\program files (x86)\\gnu tools arm embedded\\6 2017-q2-update\\arm-none-eabi\\includ
 327              		.file 44 "c:\\program files (x86)\\gnu tools arm embedded\\6 2017-q2-update\\arm-none-eabi\\includ
 328              		.file 45 "c:\\program files (x86)\\gnu tools arm embedded\\6 2017-q2-update\\arm-none-eabi\\includ
 329              		.file 46 "c:\\program files (x86)\\gnu tools arm embedded\\6 2017-q2-update\\lib\\gcc\\arm-none-ea
 330              		.file 47 "<built-in>"
 331              		.file 48 "c:\\program files (x86)\\gnu tools arm embedded\\6 2017-q2-update\\arm-none-eabi\\includ
 332              		.file 49 "../../libraries/AP_HAL_ChibiOS/hwdef/common/posix.h"
 333              		.file 50 "../../libraries/AP_HAL_ChibiOS/hwdef/common/stdio.h"
 334              		.file 51 "../../libraries/AP_HAL_ChibiOS/hwdef/common/stm32_util.h"