ARM GAS  C:\cygwin64\tmp\cc2miD45.s 			page 1


   1              		.cpu cortex-m4
   2              		.eabi_attribute 27, 1
   3              		.eabi_attribute 28, 1
   4              		.eabi_attribute 20, 1
   5              		.eabi_attribute 21, 1
   6              		.eabi_attribute 23, 3
   7              		.eabi_attribute 24, 1
   8              		.eabi_attribute 25, 1
   9              		.eabi_attribute 26, 1
  10              		.eabi_attribute 30, 4
  11              		.eabi_attribute 34, 1
  12              		.eabi_attribute 18, 4
  13              		.file	"ch.cpp"
  14              		.text
  15              	.Ltext0:
  16              		.cfi_sections	.debug_frame
  17              		.section	.text.startup._ZN10chibios_rt10BaseThread4mainEv,"ax",%progbits
  18              		.align	1
  19              		.global	_ZN10chibios_rt10BaseThread4mainEv
  20              		.syntax unified
  21              		.thumb
  22              		.thumb_func
  23              		.fpu fpv4-sp-d16
  24              		.type	_ZN10chibios_rt10BaseThread4mainEv, %function
  25              	_ZN10chibios_rt10BaseThread4mainEv:
  26              		.fnstart
  27              	.LFB298:
  28              		.file 1 "../../modules/ChibiOS/os/various/cpp_wrappers/ch.cpp"
  29              		.loc 1 163 0
  30              		.cfi_startproc
  31              		@ args = 0, pretend = 0, frame = 0
  32              		@ frame_needed = 0, uses_anonymous_args = 0
  33              		@ link register save eliminated.
  34              	.LVL0:
  35 0000 7047     		bx	lr
  36              		.cfi_endproc
  37              	.LFE298:
  38              		.cantunwind
  39              		.fnend
  40              		.size	_ZN10chibios_rt10BaseThread4mainEv, .-_ZN10chibios_rt10BaseThread4mainEv
  41              		.section	.text._ZN10chibios_rt10BaseThread5startEm,"ax",%progbits
  42              		.align	1
  43              		.global	_ZN10chibios_rt10BaseThread5startEm
  44              		.syntax unified
  45              		.thumb
  46              		.thumb_func
  47              		.fpu fpv4-sp-d16
  48              		.type	_ZN10chibios_rt10BaseThread5startEm, %function
  49              	_ZN10chibios_rt10BaseThread5startEm:
  50              		.fnstart
  51              	.LFB299:
  52              		.loc 1 167 0
  53              		.cfi_startproc
  54              		@ args = 0, pretend = 0, frame = 0
  55              		@ frame_needed = 0, uses_anonymous_args = 0
  56              		@ link register save eliminated.
  57              	.LVL1:
ARM GAS  C:\cygwin64\tmp\cc2miD45.s 			page 2


  58              	.LBB47:
  59              	.LBB48:
  60              		.file 2 "../../modules/ChibiOS/os/various/cpp_wrappers/ch.hpp"
  61              		.loc 2 397 0
  62 0000 024A     		ldr	r2, .L3
  63              	.LVL2:
  64 0002 0260     		str	r2, [r0]
  65 0004 4A68     		ldr	r2, [r1, #4]
  66 0006 4260     		str	r2, [r0, #4]
  67              	.LVL3:
  68              	.LBE48:
  69              	.LBE47:
  70              		.loc 1 172 0
  71 0008 7047     		bx	lr
  72              	.L4:
  73 000a 00BF     		.align	2
  74              	.L3:
  75 000c 08000000 		.word	.LANCHOR0+8
  76              		.cfi_endproc
  77              	.LFE299:
  78              		.cantunwind
  79              		.fnend
  80              		.size	_ZN10chibios_rt10BaseThread5startEm, .-_ZN10chibios_rt10BaseThread5startEm
  81              		.section	.text._ZN10chibios_rt15ThreadReference4stopEv,"ax",%progbits
  82              		.align	1
  83              		.global	_ZN10chibios_rt15ThreadReference4stopEv
  84              		.syntax unified
  85              		.thumb
  86              		.thumb_func
  87              		.fpu fpv4-sp-d16
  88              		.type	_ZN10chibios_rt15ThreadReference4stopEv, %function
  89              	_ZN10chibios_rt15ThreadReference4stopEv:
  90              		.fnstart
  91              	.LFB286:
  92              		.loc 1 76 0
  93              		.cfi_startproc
  94              		@ args = 0, pretend = 0, frame = 0
  95              		@ frame_needed = 0, uses_anonymous_args = 0
  96              		@ link register save eliminated.
  97              	.LVL4:
  98              		.loc 1 78 0
  99 0000 0148     		ldr	r0, .L6
 100              	.LVL5:
 101 0002 FFF7FEBF 		b	chSysHalt
 102              	.LVL6:
 103              	.L7:
 104 0006 00BF     		.align	2
 105              	.L6:
 106 0008 00000000 		.word	.LC0
 107              		.cfi_endproc
 108              	.LFE286:
 109              		.cantunwind
 110              		.fnend
 111              		.size	_ZN10chibios_rt15ThreadReference4stopEv, .-_ZN10chibios_rt15ThreadReference4stopEv
 112              		.section	.text._ZN10chibios_rt15ThreadReference16requestTerminateEv,"ax",%progbits
 113              		.align	1
 114              		.global	_ZN10chibios_rt15ThreadReference16requestTerminateEv
ARM GAS  C:\cygwin64\tmp\cc2miD45.s 			page 3


 115              		.syntax unified
 116              		.thumb
 117              		.thumb_func
 118              		.fpu fpv4-sp-d16
 119              		.type	_ZN10chibios_rt15ThreadReference16requestTerminateEv, %function
 120              	_ZN10chibios_rt15ThreadReference16requestTerminateEv:
 121              		.fnstart
 122              	.LFB287:
 123              		.loc 1 81 0
 124              		.cfi_startproc
 125              		@ args = 0, pretend = 0, frame = 0
 126              		@ frame_needed = 0, uses_anonymous_args = 0
 127              		@ link register save eliminated.
 128              	.LVL7:
 129              		.loc 1 86 0
 130 0000 4068     		ldr	r0, [r0, #4]
 131              	.LVL8:
 132 0002 FFF7FEBF 		b	chThdTerminate
 133              	.LVL9:
 134              		.cfi_endproc
 135              	.LFE287:
 136              		.cantunwind
 137              		.fnend
 138              		.size	_ZN10chibios_rt15ThreadReference16requestTerminateEv, .-_ZN10chibios_rt15ThreadReference16re
 139              		.section	.text._ZN10chibios_rt15ThreadReference4waitEv,"ax",%progbits
 140              		.align	1
 141              		.global	_ZN10chibios_rt15ThreadReference4waitEv
 142              		.syntax unified
 143              		.thumb
 144              		.thumb_func
 145              		.fpu fpv4-sp-d16
 146              		.type	_ZN10chibios_rt15ThreadReference4waitEv, %function
 147              	_ZN10chibios_rt15ThreadReference4waitEv:
 148              		.fnstart
 149              	.LFB288:
 150              		.loc 1 90 0
 151              		.cfi_startproc
 152              		@ args = 0, pretend = 0, frame = 0
 153              		@ frame_needed = 0, uses_anonymous_args = 0
 154              	.LVL10:
 155 0000 10B5     		push	{r4, lr}
 156              		.save {r4, lr}
 157              		.cfi_def_cfa_offset 8
 158              		.cfi_offset 4, -8
 159              		.cfi_offset 14, -4
 160              		.loc 1 90 0
 161 0002 0446     		mov	r4, r0
 162              		.loc 1 95 0
 163 0004 4068     		ldr	r0, [r0, #4]
 164              	.LVL11:
 165 0006 FFF7FEFF 		bl	chThdWait
 166              	.LVL12:
 167              		.loc 1 96 0
 168 000a 0023     		movs	r3, #0
 169 000c 6360     		str	r3, [r4, #4]
 170              		.loc 1 98 0
 171 000e 10BD     		pop	{r4, pc}
ARM GAS  C:\cygwin64\tmp\cc2miD45.s 			page 4


 172              		.cfi_endproc
 173              	.LFE288:
 174              		.fnend
 175              		.size	_ZN10chibios_rt15ThreadReference4waitEv, .-_ZN10chibios_rt15ThreadReference4waitEv
 176              		.section	.text._ZN10chibios_rt15ThreadReference11sendMessageEl,"ax",%progbits
 177              		.align	1
 178              		.global	_ZN10chibios_rt15ThreadReference11sendMessageEl
 179              		.syntax unified
 180              		.thumb
 181              		.thumb_func
 182              		.fpu fpv4-sp-d16
 183              		.type	_ZN10chibios_rt15ThreadReference11sendMessageEl, %function
 184              	_ZN10chibios_rt15ThreadReference11sendMessageEl:
 185              		.fnstart
 186              	.LFB289:
 187              		.loc 1 102 0
 188              		.cfi_startproc
 189              		@ args = 0, pretend = 0, frame = 0
 190              		@ frame_needed = 0, uses_anonymous_args = 0
 191              		@ link register save eliminated.
 192              	.LVL13:
 193              		.loc 1 107 0
 194 0000 4068     		ldr	r0, [r0, #4]
 195              	.LVL14:
 196 0002 FFF7FEBF 		b	chMsgSend
 197              	.LVL15:
 198              		.cfi_endproc
 199              	.LFE289:
 200              		.cantunwind
 201              		.fnend
 202              		.size	_ZN10chibios_rt15ThreadReference11sendMessageEl, .-_ZN10chibios_rt15ThreadReference11sendMes
 203              		.section	.text._ZN10chibios_rt15ThreadReference16isPendingMessageEv,"ax",%progbits
 204              		.align	1
 205              		.global	_ZN10chibios_rt15ThreadReference16isPendingMessageEv
 206              		.syntax unified
 207              		.thumb
 208              		.thumb_func
 209              		.fpu fpv4-sp-d16
 210              		.type	_ZN10chibios_rt15ThreadReference16isPendingMessageEv, %function
 211              	_ZN10chibios_rt15ThreadReference16isPendingMessageEv:
 212              		.fnstart
 213              	.LFB290:
 214              		.loc 1 110 0
 215              		.cfi_startproc
 216              		@ args = 0, pretend = 0, frame = 0
 217              		@ frame_needed = 0, uses_anonymous_args = 0
 218              		@ link register save eliminated.
 219              	.LVL16:
 220              		.loc 1 115 0
 221 0000 4368     		ldr	r3, [r0, #4]
 222              	.LBB49:
 223              	.LBB50:
 224              		.file 3 "../../modules/ChibiOS/os/rt/include/chmsg.h"
 225              		.loc 3 83 0
 226 0002 D86A     		ldr	r0, [r3, #44]
 227              	.LVL17:
 228 0004 03F12C02 		add	r2, r3, #44
ARM GAS  C:\cygwin64\tmp\cc2miD45.s 			page 5


 229              	.LBE50:
 230              	.LBE49:
 231              		.loc 1 116 0
 232 0008 801A     		subs	r0, r0, r2
 233 000a 18BF     		it	ne
 234 000c 0120     		movne	r0, #1
 235 000e 7047     		bx	lr
 236              		.cfi_endproc
 237              	.LFE290:
 238              		.cantunwind
 239              		.fnend
 240              		.size	_ZN10chibios_rt15ThreadReference16isPendingMessageEv, .-_ZN10chibios_rt15ThreadReference16is
 241              		.section	.text._ZN10chibios_rt15ThreadReference10getMessageEv,"ax",%progbits
 242              		.align	1
 243              		.global	_ZN10chibios_rt15ThreadReference10getMessageEv
 244              		.syntax unified
 245              		.thumb
 246              		.thumb_func
 247              		.fpu fpv4-sp-d16
 248              		.type	_ZN10chibios_rt15ThreadReference10getMessageEv, %function
 249              	_ZN10chibios_rt15ThreadReference10getMessageEv:
 250              		.fnstart
 251              	.LFB291:
 252              		.loc 1 118 0
 253              		.cfi_startproc
 254              		@ args = 0, pretend = 0, frame = 0
 255              		@ frame_needed = 0, uses_anonymous_args = 0
 256              		@ link register save eliminated.
 257              	.LVL18:
 258              		.loc 1 123 0
 259 0000 4368     		ldr	r3, [r0, #4]
 260              		.loc 1 124 0
 261 0002 586A     		ldr	r0, [r3, #36]
 262              	.LVL19:
 263 0004 7047     		bx	lr
 264              		.cfi_endproc
 265              	.LFE291:
 266              		.cantunwind
 267              		.fnend
 268              		.size	_ZN10chibios_rt15ThreadReference10getMessageEv, .-_ZN10chibios_rt15ThreadReference10getMessa
 269              		.section	.text._ZN10chibios_rt15ThreadReference14releaseMessageEl,"ax",%progbits
 270              		.align	1
 271              		.global	_ZN10chibios_rt15ThreadReference14releaseMessageEl
 272              		.syntax unified
 273              		.thumb
 274              		.thumb_func
 275              		.fpu fpv4-sp-d16
 276              		.type	_ZN10chibios_rt15ThreadReference14releaseMessageEl, %function
 277              	_ZN10chibios_rt15ThreadReference14releaseMessageEl:
 278              		.fnstart
 279              	.LFB292:
 280              		.loc 1 126 0
 281              		.cfi_startproc
 282              		@ args = 0, pretend = 0, frame = 0
 283              		@ frame_needed = 0, uses_anonymous_args = 0
 284              		@ link register save eliminated.
 285              	.LVL20:
ARM GAS  C:\cygwin64\tmp\cc2miD45.s 			page 6


 286              		.loc 1 131 0
 287 0000 4068     		ldr	r0, [r0, #4]
 288              	.LVL21:
 289 0002 FFF7FEBF 		b	chMsgRelease
 290              	.LVL22:
 291              		.cfi_endproc
 292              	.LFE292:
 293              		.cantunwind
 294              		.fnend
 295              		.size	_ZN10chibios_rt15ThreadReference14releaseMessageEl, .-_ZN10chibios_rt15ThreadReference14rele
 296              		.section	.text._ZN10chibios_rt15ThreadReference12signalEventsEm,"ax",%progbits
 297              		.align	1
 298              		.global	_ZN10chibios_rt15ThreadReference12signalEventsEm
 299              		.syntax unified
 300              		.thumb
 301              		.thumb_func
 302              		.fpu fpv4-sp-d16
 303              		.type	_ZN10chibios_rt15ThreadReference12signalEventsEm, %function
 304              	_ZN10chibios_rt15ThreadReference12signalEventsEm:
 305              		.fnstart
 306              	.LFB293:
 307              		.loc 1 136 0
 308              		.cfi_startproc
 309              		@ args = 0, pretend = 0, frame = 0
 310              		@ frame_needed = 0, uses_anonymous_args = 0
 311              		@ link register save eliminated.
 312              	.LVL23:
 313              		.loc 1 141 0
 314 0000 4068     		ldr	r0, [r0, #4]
 315              	.LVL24:
 316 0002 FFF7FEBF 		b	chEvtSignal
 317              	.LVL25:
 318              		.cfi_endproc
 319              	.LFE293:
 320              		.cantunwind
 321              		.fnend
 322              		.size	_ZN10chibios_rt15ThreadReference12signalEventsEm, .-_ZN10chibios_rt15ThreadReference12signal
 323              		.section	.text._ZN10chibios_rt15ThreadReference13signalEventsIEm,"ax",%progbits
 324              		.align	1
 325              		.global	_ZN10chibios_rt15ThreadReference13signalEventsIEm
 326              		.syntax unified
 327              		.thumb
 328              		.thumb_func
 329              		.fpu fpv4-sp-d16
 330              		.type	_ZN10chibios_rt15ThreadReference13signalEventsIEm, %function
 331              	_ZN10chibios_rt15ThreadReference13signalEventsIEm:
 332              		.fnstart
 333              	.LFB294:
 334              		.loc 1 144 0
 335              		.cfi_startproc
 336              		@ args = 0, pretend = 0, frame = 0
 337              		@ frame_needed = 0, uses_anonymous_args = 0
 338              		@ link register save eliminated.
 339              	.LVL26:
 340              		.loc 1 149 0
 341 0000 4068     		ldr	r0, [r0, #4]
 342              	.LVL27:
ARM GAS  C:\cygwin64\tmp\cc2miD45.s 			page 7


 343 0002 FFF7FEBF 		b	chEvtSignalI
 344              	.LVL28:
 345              		.cfi_endproc
 346              	.LFE294:
 347              		.cantunwind
 348              		.fnend
 349              		.size	_ZN10chibios_rt15ThreadReference13signalEventsIEm, .-_ZN10chibios_rt15ThreadReference13signa
 350              		.section	.text._ZN10chibios_rt10BaseThreadC2Ev,"ax",%progbits
 351              		.align	1
 352              		.global	_ZN10chibios_rt10BaseThreadC2Ev
 353              		.syntax unified
 354              		.thumb
 355              		.thumb_func
 356              		.fpu fpv4-sp-d16
 357              		.type	_ZN10chibios_rt10BaseThreadC2Ev, %function
 358              	_ZN10chibios_rt10BaseThreadC2Ev:
 359              		.fnstart
 360              	.LFB296:
 361              		.loc 1 159 0
 362              		.cfi_startproc
 363              		@ args = 0, pretend = 0, frame = 0
 364              		@ frame_needed = 0, uses_anonymous_args = 0
 365              		@ link register save eliminated.
 366              	.LVL29:
 367              	.LBB51:
 368              	.LBB52:
 369              	.LBB53:
 370              		.loc 2 413 0
 371 0000 0022     		movs	r2, #0
 372 0002 4260     		str	r2, [r0, #4]
 373              	.LVL30:
 374              	.LBE53:
 375              	.LBE52:
 376              		.loc 1 159 0
 377 0004 014A     		ldr	r2, .L17
 378 0006 0260     		str	r2, [r0]
 379              	.LBE51:
 380              		.loc 1 161 0
 381 0008 7047     		bx	lr
 382              	.L18:
 383 000a 00BF     		.align	2
 384              	.L17:
 385 000c 08000000 		.word	.LANCHOR1+8
 386              		.cfi_endproc
 387              	.LFE296:
 388              		.cantunwind
 389              		.fnend
 390              		.size	_ZN10chibios_rt10BaseThreadC2Ev, .-_ZN10chibios_rt10BaseThreadC2Ev
 391              		.global	_ZN10chibios_rt10BaseThreadC1Ev
 392              		.thumb_set _ZN10chibios_rt10BaseThreadC1Ev,_ZN10chibios_rt10BaseThreadC2Ev
 393              		.section	.text._ZN10chibios_rt10_thd_startEPv,"ax",%progbits
 394              		.align	1
 395              		.global	_ZN10chibios_rt10_thd_startEPv
 396              		.syntax unified
 397              		.thumb
 398              		.thumb_func
 399              		.fpu fpv4-sp-d16
ARM GAS  C:\cygwin64\tmp\cc2miD45.s 			page 8


 400              		.type	_ZN10chibios_rt10_thd_startEPv, %function
 401              	_ZN10chibios_rt10_thd_startEPv:
 402              		.fnstart
 403              	.LFB303:
 404              		.loc 1 174 0
 405              		.cfi_startproc
 406              		@ args = 0, pretend = 0, frame = 0
 407              		@ frame_needed = 0, uses_anonymous_args = 0
 408              		@ link register save eliminated.
 409              	.LVL31:
 410              		.loc 1 176 0
 411 0000 0368     		ldr	r3, [r0]
 412 0002 5B68     		ldr	r3, [r3, #4]
 413 0004 1847     		bx	r3	@ indirect register sibling call
 414              	.LVL32:
 415              		.cfi_endproc
 416              	.LFE303:
 417              		.cantunwind
 418              		.fnend
 419              		.size	_ZN10chibios_rt10_thd_startEPv, .-_ZN10chibios_rt10_thd_startEPv
 420              		.section	.text._ZN10chibios_rt10BaseThread7setNameEPKc,"ax",%progbits
 421              		.align	1
 422              		.global	_ZN10chibios_rt10BaseThread7setNameEPKc
 423              		.syntax unified
 424              		.thumb
 425              		.thumb_func
 426              		.fpu fpv4-sp-d16
 427              		.type	_ZN10chibios_rt10BaseThread7setNameEPKc, %function
 428              	_ZN10chibios_rt10BaseThread7setNameEPKc:
 429              		.fnstart
 430              	.LFB304:
 431              		.loc 1 179 0
 432              		.cfi_startproc
 433              		@ args = 0, pretend = 0, frame = 0
 434              		@ frame_needed = 0, uses_anonymous_args = 0
 435              		@ link register save eliminated.
 436              	.LVL33:
 437              	.LBB54:
 438              	.LBB55:
 439              		.file 4 "../../modules/ChibiOS/os/rt/include/chregistry.h"
 440              		.loc 4 136 0
 441 0000 014B     		ldr	r3, .L21
 442 0002 9B69     		ldr	r3, [r3, #24]
 443 0004 9861     		str	r0, [r3, #24]
 444              	.LVL34:
 445 0006 7047     		bx	lr
 446              	.L22:
 447              		.align	2
 448              	.L21:
 449 0008 00000000 		.word	ch
 450              	.LBE55:
 451              	.LBE54:
 452              		.cfi_endproc
 453              	.LFE304:
 454              		.cantunwind
 455              		.fnend
 456              		.size	_ZN10chibios_rt10BaseThread7setNameEPKc, .-_ZN10chibios_rt10BaseThread7setNameEPKc
ARM GAS  C:\cygwin64\tmp\cc2miD45.s 			page 9


 457              		.section	.text._ZN10chibios_rt10BaseThread11setPriorityEm,"ax",%progbits
 458              		.align	1
 459              		.global	_ZN10chibios_rt10BaseThread11setPriorityEm
 460              		.syntax unified
 461              		.thumb
 462              		.thumb_func
 463              		.fpu fpv4-sp-d16
 464              		.type	_ZN10chibios_rt10BaseThread11setPriorityEm, %function
 465              	_ZN10chibios_rt10BaseThread11setPriorityEm:
 466              		.fnstart
 467              	.LFB305:
 468              		.loc 1 184 0
 469              		.cfi_startproc
 470              		@ args = 0, pretend = 0, frame = 0
 471              		@ frame_needed = 0, uses_anonymous_args = 0
 472              		@ link register save eliminated.
 473              	.LVL35:
 474              		.loc 1 186 0
 475 0000 FFF7FEBF 		b	chThdSetPriority
 476              	.LVL36:
 477              		.cfi_endproc
 478              	.LFE305:
 479              		.cantunwind
 480              		.fnend
 481              		.size	_ZN10chibios_rt10BaseThread11setPriorityEm, .-_ZN10chibios_rt10BaseThread11setPriorityEm
 482              		.section	.text._ZN10chibios_rt10BaseThread4exitEl,"ax",%progbits
 483              		.align	1
 484              		.global	_ZN10chibios_rt10BaseThread4exitEl
 485              		.syntax unified
 486              		.thumb
 487              		.thumb_func
 488              		.fpu fpv4-sp-d16
 489              		.type	_ZN10chibios_rt10BaseThread4exitEl, %function
 490              	_ZN10chibios_rt10BaseThread4exitEl:
 491              		.fnstart
 492              	.LFB306:
 493              		.loc 1 189 0
 494              		.cfi_startproc
 495              		@ args = 0, pretend = 0, frame = 0
 496              		@ frame_needed = 0, uses_anonymous_args = 0
 497              		@ link register save eliminated.
 498              	.LVL37:
 499              		.loc 1 191 0
 500 0000 FFF7FEBF 		b	chThdExit
 501              	.LVL38:
 502              		.cfi_endproc
 503              	.LFE306:
 504              		.cantunwind
 505              		.fnend
 506              		.size	_ZN10chibios_rt10BaseThread4exitEl, .-_ZN10chibios_rt10BaseThread4exitEl
 507              		.section	.text._ZN10chibios_rt10BaseThread5exitSEl,"ax",%progbits
 508              		.align	1
 509              		.global	_ZN10chibios_rt10BaseThread5exitSEl
 510              		.syntax unified
 511              		.thumb
 512              		.thumb_func
 513              		.fpu fpv4-sp-d16
ARM GAS  C:\cygwin64\tmp\cc2miD45.s 			page 10


 514              		.type	_ZN10chibios_rt10BaseThread5exitSEl, %function
 515              	_ZN10chibios_rt10BaseThread5exitSEl:
 516              		.fnstart
 517              	.LFB307:
 518              		.loc 1 194 0
 519              		.cfi_startproc
 520              		@ args = 0, pretend = 0, frame = 0
 521              		@ frame_needed = 0, uses_anonymous_args = 0
 522              		@ link register save eliminated.
 523              	.LVL39:
 524              		.loc 1 196 0
 525 0000 FFF7FEBF 		b	chThdExitS
 526              	.LVL40:
 527              		.cfi_endproc
 528              	.LFE307:
 529              		.cantunwind
 530              		.fnend
 531              		.size	_ZN10chibios_rt10BaseThread5exitSEl, .-_ZN10chibios_rt10BaseThread5exitSEl
 532              		.section	.text._ZN10chibios_rt10BaseThread15shouldTerminateEv,"ax",%progbits
 533              		.align	1
 534              		.global	_ZN10chibios_rt10BaseThread15shouldTerminateEv
 535              		.syntax unified
 536              		.thumb
 537              		.thumb_func
 538              		.fpu fpv4-sp-d16
 539              		.type	_ZN10chibios_rt10BaseThread15shouldTerminateEv, %function
 540              	_ZN10chibios_rt10BaseThread15shouldTerminateEv:
 541              		.fnstart
 542              	.LFB308:
 543              		.loc 1 199 0
 544              		.cfi_startproc
 545              		@ args = 0, pretend = 0, frame = 0
 546              		@ frame_needed = 0, uses_anonymous_args = 0
 547              		@ link register save eliminated.
 548              	.LBB60:
 549              	.LBB61:
 550              	.LBB62:
 551              	.LBB63:
 552              		.file 5 "../../modules/ChibiOS/os/rt/include/chthreads.h"
 553              		.loc 5 286 0
 554 0000 034B     		ldr	r3, .L27
 555              	.LBE63:
 556              	.LBE62:
 557              		.loc 5 359 0
 558 0002 9B69     		ldr	r3, [r3, #24]
 559 0004 93F82100 		ldrb	r0, [r3, #33]	@ zero_extendqisi2
 560              	.LBE61:
 561              	.LBE60:
 562              		.loc 1 202 0
 563 0008 C0F38000 		ubfx	r0, r0, #2, #1
 564 000c 7047     		bx	lr
 565              	.L28:
 566 000e 00BF     		.align	2
 567              	.L27:
 568 0010 00000000 		.word	ch
 569              		.cfi_endproc
 570              	.LFE308:
ARM GAS  C:\cygwin64\tmp\cc2miD45.s 			page 11


 571              		.cantunwind
 572              		.fnend
 573              		.size	_ZN10chibios_rt10BaseThread15shouldTerminateEv, .-_ZN10chibios_rt10BaseThread15shouldTermina
 574              		.section	.text._ZN10chibios_rt10BaseThread5sleepEm,"ax",%progbits
 575              		.align	1
 576              		.global	_ZN10chibios_rt10BaseThread5sleepEm
 577              		.syntax unified
 578              		.thumb
 579              		.thumb_func
 580              		.fpu fpv4-sp-d16
 581              		.type	_ZN10chibios_rt10BaseThread5sleepEm, %function
 582              	_ZN10chibios_rt10BaseThread5sleepEm:
 583              		.fnstart
 584              	.LFB309:
 585              		.loc 1 204 0
 586              		.cfi_startproc
 587              		@ args = 0, pretend = 0, frame = 0
 588              		@ frame_needed = 0, uses_anonymous_args = 0
 589              		@ link register save eliminated.
 590              	.LVL41:
 591              		.loc 1 206 0
 592 0000 FFF7FEBF 		b	chThdSleep
 593              	.LVL42:
 594              		.cfi_endproc
 595              	.LFE309:
 596              		.cantunwind
 597              		.fnend
 598              		.size	_ZN10chibios_rt10BaseThread5sleepEm, .-_ZN10chibios_rt10BaseThread5sleepEm
 599              		.section	.text._ZN10chibios_rt10BaseThread10sleepUntilEm,"ax",%progbits
 600              		.align	1
 601              		.global	_ZN10chibios_rt10BaseThread10sleepUntilEm
 602              		.syntax unified
 603              		.thumb
 604              		.thumb_func
 605              		.fpu fpv4-sp-d16
 606              		.type	_ZN10chibios_rt10BaseThread10sleepUntilEm, %function
 607              	_ZN10chibios_rt10BaseThread10sleepUntilEm:
 608              		.fnstart
 609              	.LFB310:
 610              		.loc 1 209 0
 611              		.cfi_startproc
 612              		@ args = 0, pretend = 0, frame = 0
 613              		@ frame_needed = 0, uses_anonymous_args = 0
 614              		@ link register save eliminated.
 615              	.LVL43:
 616              		.loc 1 211 0
 617 0000 FFF7FEBF 		b	chThdSleepUntil
 618              	.LVL44:
 619              		.cfi_endproc
 620              	.LFE310:
 621              		.cantunwind
 622              		.fnend
 623              		.size	_ZN10chibios_rt10BaseThread10sleepUntilEm, .-_ZN10chibios_rt10BaseThread10sleepUntilEm
 624              		.section	.text._ZN10chibios_rt10BaseThread5yieldEv,"ax",%progbits
 625              		.align	1
 626              		.global	_ZN10chibios_rt10BaseThread5yieldEv
 627              		.syntax unified
ARM GAS  C:\cygwin64\tmp\cc2miD45.s 			page 12


 628              		.thumb
 629              		.thumb_func
 630              		.fpu fpv4-sp-d16
 631              		.type	_ZN10chibios_rt10BaseThread5yieldEv, %function
 632              	_ZN10chibios_rt10BaseThread5yieldEv:
 633              		.fnstart
 634              	.LFB311:
 635              		.loc 1 214 0
 636              		.cfi_startproc
 637              		@ args = 0, pretend = 0, frame = 0
 638              		@ frame_needed = 0, uses_anonymous_args = 0
 639              		@ link register save eliminated.
 640              		.loc 1 216 0
 641 0000 FFF7FEBF 		b	chThdYield
 642              	.LVL45:
 643              		.cfi_endproc
 644              	.LFE311:
 645              		.cantunwind
 646              		.fnend
 647              		.size	_ZN10chibios_rt10BaseThread5yieldEv, .-_ZN10chibios_rt10BaseThread5yieldEv
 648              		.section	.text._ZN10chibios_rt10BaseThread11waitMessageEv,"ax",%progbits
 649              		.align	1
 650              		.global	_ZN10chibios_rt10BaseThread11waitMessageEv
 651              		.syntax unified
 652              		.thumb
 653              		.thumb_func
 654              		.fpu fpv4-sp-d16
 655              		.type	_ZN10chibios_rt10BaseThread11waitMessageEv, %function
 656              	_ZN10chibios_rt10BaseThread11waitMessageEv:
 657              		.fnstart
 658              	.LFB312:
 659              		.loc 1 220 0
 660              		.cfi_startproc
 661              		@ args = 0, pretend = 0, frame = 0
 662              		@ frame_needed = 0, uses_anonymous_args = 0
 663              	.LVL46:
 664 0000 10B5     		push	{r4, lr}
 665              		.save {r4, lr}
 666              		.cfi_def_cfa_offset 8
 667              		.cfi_offset 4, -8
 668              		.cfi_offset 14, -4
 669              		.loc 1 220 0
 670 0002 0446     		mov	r4, r0
 671              		.loc 1 222 0
 672 0004 FFF7FEFF 		bl	chMsgWait
 673              	.LVL47:
 674              	.LBB64:
 675              	.LBB65:
 676              		.loc 2 413 0
 677 0008 024B     		ldr	r3, .L33
 678 000a 6060     		str	r0, [r4, #4]
 679              	.LVL48:
 680 000c 2360     		str	r3, [r4]
 681              	.LBE65:
 682              	.LBE64:
 683              		.loc 1 224 0
 684 000e 2046     		mov	r0, r4
ARM GAS  C:\cygwin64\tmp\cc2miD45.s 			page 13


 685 0010 10BD     		pop	{r4, pc}
 686              	.LVL49:
 687              	.L34:
 688 0012 00BF     		.align	2
 689              	.L33:
 690 0014 08000000 		.word	.LANCHOR0+8
 691              		.cfi_endproc
 692              	.LFE312:
 693              		.fnend
 694              		.size	_ZN10chibios_rt10BaseThread11waitMessageEv, .-_ZN10chibios_rt10BaseThread11waitMessageEv
 695              		.section	.text._ZN10chibios_rt10BaseThread17getAndClearEventsEm,"ax",%progbits
 696              		.align	1
 697              		.global	_ZN10chibios_rt10BaseThread17getAndClearEventsEm
 698              		.syntax unified
 699              		.thumb
 700              		.thumb_func
 701              		.fpu fpv4-sp-d16
 702              		.type	_ZN10chibios_rt10BaseThread17getAndClearEventsEm, %function
 703              	_ZN10chibios_rt10BaseThread17getAndClearEventsEm:
 704              		.fnstart
 705              	.LFB316:
 706              		.loc 1 228 0
 707              		.cfi_startproc
 708              		@ args = 0, pretend = 0, frame = 0
 709              		@ frame_needed = 0, uses_anonymous_args = 0
 710              		@ link register save eliminated.
 711              	.LVL50:
 712              		.loc 1 230 0
 713 0000 FFF7FEBF 		b	chEvtGetAndClearEvents
 714              	.LVL51:
 715              		.cfi_endproc
 716              	.LFE316:
 717              		.cantunwind
 718              		.fnend
 719              		.size	_ZN10chibios_rt10BaseThread17getAndClearEventsEm, .-_ZN10chibios_rt10BaseThread17getAndClear
 720              		.section	.text._ZN10chibios_rt10BaseThread9addEventsEm,"ax",%progbits
 721              		.align	1
 722              		.global	_ZN10chibios_rt10BaseThread9addEventsEm
 723              		.syntax unified
 724              		.thumb
 725              		.thumb_func
 726              		.fpu fpv4-sp-d16
 727              		.type	_ZN10chibios_rt10BaseThread9addEventsEm, %function
 728              	_ZN10chibios_rt10BaseThread9addEventsEm:
 729              		.fnstart
 730              	.LFB317:
 731              		.loc 1 233 0
 732              		.cfi_startproc
 733              		@ args = 0, pretend = 0, frame = 0
 734              		@ frame_needed = 0, uses_anonymous_args = 0
 735              		@ link register save eliminated.
 736              	.LVL52:
 737              		.loc 1 235 0
 738 0000 FFF7FEBF 		b	chEvtAddEvents
 739              	.LVL53:
 740              		.cfi_endproc
 741              	.LFE317:
ARM GAS  C:\cygwin64\tmp\cc2miD45.s 			page 14


 742              		.cantunwind
 743              		.fnend
 744              		.size	_ZN10chibios_rt10BaseThread9addEventsEm, .-_ZN10chibios_rt10BaseThread9addEventsEm
 745              		.section	.text._ZN10chibios_rt10BaseThread12waitOneEventEm,"ax",%progbits
 746              		.align	1
 747              		.global	_ZN10chibios_rt10BaseThread12waitOneEventEm
 748              		.syntax unified
 749              		.thumb
 750              		.thumb_func
 751              		.fpu fpv4-sp-d16
 752              		.type	_ZN10chibios_rt10BaseThread12waitOneEventEm, %function
 753              	_ZN10chibios_rt10BaseThread12waitOneEventEm:
 754              		.fnstart
 755              	.LFB318:
 756              		.loc 1 238 0
 757              		.cfi_startproc
 758              		@ args = 0, pretend = 0, frame = 0
 759              		@ frame_needed = 0, uses_anonymous_args = 0
 760              		@ link register save eliminated.
 761              	.LVL54:
 762              		.loc 1 240 0
 763 0000 FFF7FEBF 		b	chEvtWaitOne
 764              	.LVL55:
 765              		.cfi_endproc
 766              	.LFE318:
 767              		.cantunwind
 768              		.fnend
 769              		.size	_ZN10chibios_rt10BaseThread12waitOneEventEm, .-_ZN10chibios_rt10BaseThread12waitOneEventEm
 770              		.section	.text._ZN10chibios_rt10BaseThread12waitAnyEventEm,"ax",%progbits
 771              		.align	1
 772              		.global	_ZN10chibios_rt10BaseThread12waitAnyEventEm
 773              		.syntax unified
 774              		.thumb
 775              		.thumb_func
 776              		.fpu fpv4-sp-d16
 777              		.type	_ZN10chibios_rt10BaseThread12waitAnyEventEm, %function
 778              	_ZN10chibios_rt10BaseThread12waitAnyEventEm:
 779              		.fnstart
 780              	.LFB319:
 781              		.loc 1 243 0
 782              		.cfi_startproc
 783              		@ args = 0, pretend = 0, frame = 0
 784              		@ frame_needed = 0, uses_anonymous_args = 0
 785              		@ link register save eliminated.
 786              	.LVL56:
 787              		.loc 1 245 0
 788 0000 FFF7FEBF 		b	chEvtWaitAny
 789              	.LVL57:
 790              		.cfi_endproc
 791              	.LFE319:
 792              		.cantunwind
 793              		.fnend
 794              		.size	_ZN10chibios_rt10BaseThread12waitAnyEventEm, .-_ZN10chibios_rt10BaseThread12waitAnyEventEm
 795              		.section	.text._ZN10chibios_rt10BaseThread13waitAllEventsEm,"ax",%progbits
 796              		.align	1
 797              		.global	_ZN10chibios_rt10BaseThread13waitAllEventsEm
 798              		.syntax unified
ARM GAS  C:\cygwin64\tmp\cc2miD45.s 			page 15


 799              		.thumb
 800              		.thumb_func
 801              		.fpu fpv4-sp-d16
 802              		.type	_ZN10chibios_rt10BaseThread13waitAllEventsEm, %function
 803              	_ZN10chibios_rt10BaseThread13waitAllEventsEm:
 804              		.fnstart
 805              	.LFB320:
 806              		.loc 1 248 0
 807              		.cfi_startproc
 808              		@ args = 0, pretend = 0, frame = 0
 809              		@ frame_needed = 0, uses_anonymous_args = 0
 810              		@ link register save eliminated.
 811              	.LVL58:
 812              		.loc 1 250 0
 813 0000 FFF7FEBF 		b	chEvtWaitAll
 814              	.LVL59:
 815              		.cfi_endproc
 816              	.LFE320:
 817              		.cantunwind
 818              		.fnend
 819              		.size	_ZN10chibios_rt10BaseThread13waitAllEventsEm, .-_ZN10chibios_rt10BaseThread13waitAllEventsEm
 820              		.section	.text._ZN10chibios_rt10BaseThread19waitOneEventTimeoutEmm,"ax",%progbits
 821              		.align	1
 822              		.global	_ZN10chibios_rt10BaseThread19waitOneEventTimeoutEmm
 823              		.syntax unified
 824              		.thumb
 825              		.thumb_func
 826              		.fpu fpv4-sp-d16
 827              		.type	_ZN10chibios_rt10BaseThread19waitOneEventTimeoutEmm, %function
 828              	_ZN10chibios_rt10BaseThread19waitOneEventTimeoutEmm:
 829              		.fnstart
 830              	.LFB321:
 831              		.loc 1 255 0
 832              		.cfi_startproc
 833              		@ args = 0, pretend = 0, frame = 0
 834              		@ frame_needed = 0, uses_anonymous_args = 0
 835              		@ link register save eliminated.
 836              	.LVL60:
 837              		.loc 1 257 0
 838 0000 FFF7FEBF 		b	chEvtWaitOneTimeout
 839              	.LVL61:
 840              		.cfi_endproc
 841              	.LFE321:
 842              		.cantunwind
 843              		.fnend
 844              		.size	_ZN10chibios_rt10BaseThread19waitOneEventTimeoutEmm, .-_ZN10chibios_rt10BaseThread19waitOneE
 845              		.section	.text._ZN10chibios_rt10BaseThread19waitAnyEventTimeoutEmm,"ax",%progbits
 846              		.align	1
 847              		.global	_ZN10chibios_rt10BaseThread19waitAnyEventTimeoutEmm
 848              		.syntax unified
 849              		.thumb
 850              		.thumb_func
 851              		.fpu fpv4-sp-d16
 852              		.type	_ZN10chibios_rt10BaseThread19waitAnyEventTimeoutEmm, %function
 853              	_ZN10chibios_rt10BaseThread19waitAnyEventTimeoutEmm:
 854              		.fnstart
 855              	.LFB322:
ARM GAS  C:\cygwin64\tmp\cc2miD45.s 			page 16


 856              		.loc 1 261 0
 857              		.cfi_startproc
 858              		@ args = 0, pretend = 0, frame = 0
 859              		@ frame_needed = 0, uses_anonymous_args = 0
 860              		@ link register save eliminated.
 861              	.LVL62:
 862              		.loc 1 263 0
 863 0000 FFF7FEBF 		b	chEvtWaitAnyTimeout
 864              	.LVL63:
 865              		.cfi_endproc
 866              	.LFE322:
 867              		.cantunwind
 868              		.fnend
 869              		.size	_ZN10chibios_rt10BaseThread19waitAnyEventTimeoutEmm, .-_ZN10chibios_rt10BaseThread19waitAnyE
 870              		.section	.text._ZN10chibios_rt10BaseThread20waitAllEventsTimeoutEmm,"ax",%progbits
 871              		.align	1
 872              		.global	_ZN10chibios_rt10BaseThread20waitAllEventsTimeoutEmm
 873              		.syntax unified
 874              		.thumb
 875              		.thumb_func
 876              		.fpu fpv4-sp-d16
 877              		.type	_ZN10chibios_rt10BaseThread20waitAllEventsTimeoutEmm, %function
 878              	_ZN10chibios_rt10BaseThread20waitAllEventsTimeoutEmm:
 879              		.fnstart
 880              	.LFB323:
 881              		.loc 1 267 0
 882              		.cfi_startproc
 883              		@ args = 0, pretend = 0, frame = 0
 884              		@ frame_needed = 0, uses_anonymous_args = 0
 885              		@ link register save eliminated.
 886              	.LVL64:
 887              		.loc 1 269 0
 888 0000 FFF7FEBF 		b	chEvtWaitAllTimeout
 889              	.LVL65:
 890              		.cfi_endproc
 891              	.LFE323:
 892              		.cantunwind
 893              		.fnend
 894              		.size	_ZN10chibios_rt10BaseThread20waitAllEventsTimeoutEmm, .-_ZN10chibios_rt10BaseThread20waitAll
 895              		.section	.text._ZN10chibios_rt10BaseThread14dispatchEventsEPKPFvlEm,"ax",%progbits
 896              		.align	1
 897              		.global	_ZN10chibios_rt10BaseThread14dispatchEventsEPKPFvlEm
 898              		.syntax unified
 899              		.thumb
 900              		.thumb_func
 901              		.fpu fpv4-sp-d16
 902              		.type	_ZN10chibios_rt10BaseThread14dispatchEventsEPKPFvlEm, %function
 903              	_ZN10chibios_rt10BaseThread14dispatchEventsEPKPFvlEm:
 904              		.fnstart
 905              	.LFB324:
 906              		.loc 1 274 0
 907              		.cfi_startproc
 908              		@ args = 0, pretend = 0, frame = 0
 909              		@ frame_needed = 0, uses_anonymous_args = 0
 910              		@ link register save eliminated.
 911              	.LVL66:
 912              		.loc 1 276 0
ARM GAS  C:\cygwin64\tmp\cc2miD45.s 			page 17


 913 0000 FFF7FEBF 		b	chEvtDispatch
 914              	.LVL67:
 915              		.cfi_endproc
 916              	.LFE324:
 917              		.cantunwind
 918              		.fnend
 919              		.size	_ZN10chibios_rt10BaseThread14dispatchEventsEPKPFvlEm, .-_ZN10chibios_rt10BaseThread14dispatc
 920              		.section	.text._ZN10chibios_rt10BaseThread11unlockMutexEPNS_5MutexE,"ax",%progbits
 921              		.align	1
 922              		.global	_ZN10chibios_rt10BaseThread11unlockMutexEPNS_5MutexE
 923              		.syntax unified
 924              		.thumb
 925              		.thumb_func
 926              		.fpu fpv4-sp-d16
 927              		.type	_ZN10chibios_rt10BaseThread11unlockMutexEPNS_5MutexE, %function
 928              	_ZN10chibios_rt10BaseThread11unlockMutexEPNS_5MutexE:
 929              		.fnstart
 930              	.LFB400:
 931              		.cfi_startproc
 932              		@ args = 0, pretend = 0, frame = 0
 933              		@ frame_needed = 0, uses_anonymous_args = 0
 934              		@ link register save eliminated.
 935 0000 FFF7FEBF 		b	chMtxUnlock
 936              		.cfi_endproc
 937              	.LFE400:
 938              		.cantunwind
 939              		.fnend
 940              		.size	_ZN10chibios_rt10BaseThread11unlockMutexEPNS_5MutexE, .-_ZN10chibios_rt10BaseThread11unlockM
 941              		.section	.text._ZN10chibios_rt10BaseThread12unlockMutexSEPNS_5MutexE,"ax",%progbits
 942              		.align	1
 943              		.global	_ZN10chibios_rt10BaseThread12unlockMutexSEPNS_5MutexE
 944              		.syntax unified
 945              		.thumb
 946              		.thumb_func
 947              		.fpu fpv4-sp-d16
 948              		.type	_ZN10chibios_rt10BaseThread12unlockMutexSEPNS_5MutexE, %function
 949              	_ZN10chibios_rt10BaseThread12unlockMutexSEPNS_5MutexE:
 950              		.fnstart
 951              	.LFB398:
 952              		.cfi_startproc
 953              		@ args = 0, pretend = 0, frame = 0
 954              		@ frame_needed = 0, uses_anonymous_args = 0
 955              		@ link register save eliminated.
 956 0000 FFF7FEBF 		b	chMtxUnlockS
 957              		.cfi_endproc
 958              	.LFE398:
 959              		.cantunwind
 960              		.fnend
 961              		.size	_ZN10chibios_rt10BaseThread12unlockMutexSEPNS_5MutexE, .-_ZN10chibios_rt10BaseThread12unlock
 962              		.section	.text._ZN10chibios_rt10BaseThread16unlockAllMutexesEv,"ax",%progbits
 963              		.align	1
 964              		.global	_ZN10chibios_rt10BaseThread16unlockAllMutexesEv
 965              		.syntax unified
 966              		.thumb
 967              		.thumb_func
 968              		.fpu fpv4-sp-d16
 969              		.type	_ZN10chibios_rt10BaseThread16unlockAllMutexesEv, %function
ARM GAS  C:\cygwin64\tmp\cc2miD45.s 			page 18


 970              	_ZN10chibios_rt10BaseThread16unlockAllMutexesEv:
 971              		.fnstart
 972              	.LFB327:
 973              		.loc 1 291 0
 974              		.cfi_startproc
 975              		@ args = 0, pretend = 0, frame = 0
 976              		@ frame_needed = 0, uses_anonymous_args = 0
 977              		@ link register save eliminated.
 978              		.loc 1 293 0
 979 0000 FFF7FEBF 		b	chMtxUnlockAll
 980              	.LVL68:
 981              		.cfi_endproc
 982              	.LFE327:
 983              		.cantunwind
 984              		.fnend
 985              		.size	_ZN10chibios_rt10BaseThread16unlockAllMutexesEv, .-_ZN10chibios_rt10BaseThread16unlockAllMut
 986              		.section	.text._ZN10chibios_rt16CounterSemaphoreC2El,"ax",%progbits
 987              		.align	1
 988              		.global	_ZN10chibios_rt16CounterSemaphoreC2El
 989              		.syntax unified
 990              		.thumb
 991              		.thumb_func
 992              		.fpu fpv4-sp-d16
 993              		.type	_ZN10chibios_rt16CounterSemaphoreC2El, %function
 994              	_ZN10chibios_rt16CounterSemaphoreC2El:
 995              		.fnstart
 996              	.LFB329:
 997              		.loc 1 301 0
 998              		.cfi_startproc
 999              		@ args = 0, pretend = 0, frame = 0
 1000              		@ frame_needed = 0, uses_anonymous_args = 0
 1001              	.LVL69:
 1002 0000 10B5     		push	{r4, lr}
 1003              		.save {r4, lr}
 1004              		.cfi_def_cfa_offset 8
 1005              		.cfi_offset 4, -8
 1006              		.cfi_offset 14, -4
 1007              		.loc 1 301 0
 1008 0002 0446     		mov	r4, r0
 1009              	.LBB66:
 1010              		.loc 1 303 0
 1011 0004 FFF7FEFF 		bl	chSemObjectInit
 1012              	.LVL70:
 1013              	.LBE66:
 1014              		.loc 1 304 0
 1015 0008 2046     		mov	r0, r4
 1016 000a 10BD     		pop	{r4, pc}
 1017              		.cfi_endproc
 1018              	.LFE329:
 1019              		.fnend
 1020              		.size	_ZN10chibios_rt16CounterSemaphoreC2El, .-_ZN10chibios_rt16CounterSemaphoreC2El
 1021              		.global	_ZN10chibios_rt16CounterSemaphoreC1El
 1022              		.thumb_set _ZN10chibios_rt16CounterSemaphoreC1El,_ZN10chibios_rt16CounterSemaphoreC2El
 1023              		.section	.text._ZN10chibios_rt16CounterSemaphore5resetEl,"ax",%progbits
 1024              		.align	1
 1025              		.global	_ZN10chibios_rt16CounterSemaphore5resetEl
 1026              		.syntax unified
ARM GAS  C:\cygwin64\tmp\cc2miD45.s 			page 19


 1027              		.thumb
 1028              		.thumb_func
 1029              		.fpu fpv4-sp-d16
 1030              		.type	_ZN10chibios_rt16CounterSemaphore5resetEl, %function
 1031              	_ZN10chibios_rt16CounterSemaphore5resetEl:
 1032              		.fnstart
 1033              	.LFB331:
 1034              		.loc 1 306 0
 1035              		.cfi_startproc
 1036              		@ args = 0, pretend = 0, frame = 0
 1037              		@ frame_needed = 0, uses_anonymous_args = 0
 1038              		@ link register save eliminated.
 1039              	.LVL71:
 1040              		.loc 1 308 0
 1041 0000 FFF7FEBF 		b	chSemReset
 1042              	.LVL72:
 1043              		.cfi_endproc
 1044              	.LFE331:
 1045              		.cantunwind
 1046              		.fnend
 1047              		.size	_ZN10chibios_rt16CounterSemaphore5resetEl, .-_ZN10chibios_rt16CounterSemaphore5resetEl
 1048              		.section	.text._ZN10chibios_rt16CounterSemaphore6resetIEl,"ax",%progbits
 1049              		.align	1
 1050              		.global	_ZN10chibios_rt16CounterSemaphore6resetIEl
 1051              		.syntax unified
 1052              		.thumb
 1053              		.thumb_func
 1054              		.fpu fpv4-sp-d16
 1055              		.type	_ZN10chibios_rt16CounterSemaphore6resetIEl, %function
 1056              	_ZN10chibios_rt16CounterSemaphore6resetIEl:
 1057              		.fnstart
 1058              	.LFB332:
 1059              		.loc 1 311 0
 1060              		.cfi_startproc
 1061              		@ args = 0, pretend = 0, frame = 0
 1062              		@ frame_needed = 0, uses_anonymous_args = 0
 1063              		@ link register save eliminated.
 1064              	.LVL73:
 1065              		.loc 1 313 0
 1066 0000 FFF7FEBF 		b	chSemResetI
 1067              	.LVL74:
 1068              		.cfi_endproc
 1069              	.LFE332:
 1070              		.cantunwind
 1071              		.fnend
 1072              		.size	_ZN10chibios_rt16CounterSemaphore6resetIEl, .-_ZN10chibios_rt16CounterSemaphore6resetIEl
 1073              		.section	.text._ZN10chibios_rt16CounterSemaphore4waitEv,"ax",%progbits
 1074              		.align	1
 1075              		.global	_ZN10chibios_rt16CounterSemaphore4waitEv
 1076              		.syntax unified
 1077              		.thumb
 1078              		.thumb_func
 1079              		.fpu fpv4-sp-d16
 1080              		.type	_ZN10chibios_rt16CounterSemaphore4waitEv, %function
 1081              	_ZN10chibios_rt16CounterSemaphore4waitEv:
 1082              		.fnstart
 1083              	.LFB333:
ARM GAS  C:\cygwin64\tmp\cc2miD45.s 			page 20


 1084              		.loc 1 316 0
 1085              		.cfi_startproc
 1086              		@ args = 0, pretend = 0, frame = 0
 1087              		@ frame_needed = 0, uses_anonymous_args = 0
 1088              		@ link register save eliminated.
 1089              	.LVL75:
 1090              		.loc 1 318 0
 1091 0000 FFF7FEBF 		b	chSemWait
 1092              	.LVL76:
 1093              		.cfi_endproc
 1094              	.LFE333:
 1095              		.cantunwind
 1096              		.fnend
 1097              		.size	_ZN10chibios_rt16CounterSemaphore4waitEv, .-_ZN10chibios_rt16CounterSemaphore4waitEv
 1098              		.section	.text._ZN10chibios_rt16CounterSemaphore5waitSEv,"ax",%progbits
 1099              		.align	1
 1100              		.global	_ZN10chibios_rt16CounterSemaphore5waitSEv
 1101              		.syntax unified
 1102              		.thumb
 1103              		.thumb_func
 1104              		.fpu fpv4-sp-d16
 1105              		.type	_ZN10chibios_rt16CounterSemaphore5waitSEv, %function
 1106              	_ZN10chibios_rt16CounterSemaphore5waitSEv:
 1107              		.fnstart
 1108              	.LFB334:
 1109              		.loc 1 321 0
 1110              		.cfi_startproc
 1111              		@ args = 0, pretend = 0, frame = 0
 1112              		@ frame_needed = 0, uses_anonymous_args = 0
 1113              		@ link register save eliminated.
 1114              	.LVL77:
 1115              		.loc 1 323 0
 1116 0000 FFF7FEBF 		b	chSemWaitS
 1117              	.LVL78:
 1118              		.cfi_endproc
 1119              	.LFE334:
 1120              		.cantunwind
 1121              		.fnend
 1122              		.size	_ZN10chibios_rt16CounterSemaphore5waitSEv, .-_ZN10chibios_rt16CounterSemaphore5waitSEv
 1123              		.section	.text._ZN10chibios_rt16CounterSemaphore4waitEm,"ax",%progbits
 1124              		.align	1
 1125              		.global	_ZN10chibios_rt16CounterSemaphore4waitEm
 1126              		.syntax unified
 1127              		.thumb
 1128              		.thumb_func
 1129              		.fpu fpv4-sp-d16
 1130              		.type	_ZN10chibios_rt16CounterSemaphore4waitEm, %function
 1131              	_ZN10chibios_rt16CounterSemaphore4waitEm:
 1132              		.fnstart
 1133              	.LFB335:
 1134              		.loc 1 326 0
 1135              		.cfi_startproc
 1136              		@ args = 0, pretend = 0, frame = 0
 1137              		@ frame_needed = 0, uses_anonymous_args = 0
 1138              		@ link register save eliminated.
 1139              	.LVL79:
 1140              		.loc 1 328 0
ARM GAS  C:\cygwin64\tmp\cc2miD45.s 			page 21


 1141 0000 FFF7FEBF 		b	chSemWaitTimeout
 1142              	.LVL80:
 1143              		.cfi_endproc
 1144              	.LFE335:
 1145              		.cantunwind
 1146              		.fnend
 1147              		.size	_ZN10chibios_rt16CounterSemaphore4waitEm, .-_ZN10chibios_rt16CounterSemaphore4waitEm
 1148              		.section	.text._ZN10chibios_rt16CounterSemaphore5waitSEm,"ax",%progbits
 1149              		.align	1
 1150              		.global	_ZN10chibios_rt16CounterSemaphore5waitSEm
 1151              		.syntax unified
 1152              		.thumb
 1153              		.thumb_func
 1154              		.fpu fpv4-sp-d16
 1155              		.type	_ZN10chibios_rt16CounterSemaphore5waitSEm, %function
 1156              	_ZN10chibios_rt16CounterSemaphore5waitSEm:
 1157              		.fnstart
 1158              	.LFB336:
 1159              		.loc 1 331 0
 1160              		.cfi_startproc
 1161              		@ args = 0, pretend = 0, frame = 0
 1162              		@ frame_needed = 0, uses_anonymous_args = 0
 1163              		@ link register save eliminated.
 1164              	.LVL81:
 1165              		.loc 1 333 0
 1166 0000 FFF7FEBF 		b	chSemWaitTimeoutS
 1167              	.LVL82:
 1168              		.cfi_endproc
 1169              	.LFE336:
 1170              		.cantunwind
 1171              		.fnend
 1172              		.size	_ZN10chibios_rt16CounterSemaphore5waitSEm, .-_ZN10chibios_rt16CounterSemaphore5waitSEm
 1173              		.section	.text._ZN10chibios_rt16CounterSemaphore6signalEv,"ax",%progbits
 1174              		.align	1
 1175              		.global	_ZN10chibios_rt16CounterSemaphore6signalEv
 1176              		.syntax unified
 1177              		.thumb
 1178              		.thumb_func
 1179              		.fpu fpv4-sp-d16
 1180              		.type	_ZN10chibios_rt16CounterSemaphore6signalEv, %function
 1181              	_ZN10chibios_rt16CounterSemaphore6signalEv:
 1182              		.fnstart
 1183              	.LFB337:
 1184              		.loc 1 336 0
 1185              		.cfi_startproc
 1186              		@ args = 0, pretend = 0, frame = 0
 1187              		@ frame_needed = 0, uses_anonymous_args = 0
 1188              		@ link register save eliminated.
 1189              	.LVL83:
 1190              		.loc 1 338 0
 1191 0000 FFF7FEBF 		b	chSemSignal
 1192              	.LVL84:
 1193              		.cfi_endproc
 1194              	.LFE337:
 1195              		.cantunwind
 1196              		.fnend
 1197              		.size	_ZN10chibios_rt16CounterSemaphore6signalEv, .-_ZN10chibios_rt16CounterSemaphore6signalEv
ARM GAS  C:\cygwin64\tmp\cc2miD45.s 			page 22


 1198              		.section	.text._ZN10chibios_rt16CounterSemaphore7signalIEv,"ax",%progbits
 1199              		.align	1
 1200              		.global	_ZN10chibios_rt16CounterSemaphore7signalIEv
 1201              		.syntax unified
 1202              		.thumb
 1203              		.thumb_func
 1204              		.fpu fpv4-sp-d16
 1205              		.type	_ZN10chibios_rt16CounterSemaphore7signalIEv, %function
 1206              	_ZN10chibios_rt16CounterSemaphore7signalIEv:
 1207              		.fnstart
 1208              	.LFB338:
 1209              		.loc 1 341 0
 1210              		.cfi_startproc
 1211              		@ args = 0, pretend = 0, frame = 0
 1212              		@ frame_needed = 0, uses_anonymous_args = 0
 1213              		@ link register save eliminated.
 1214              	.LVL85:
 1215              		.loc 1 343 0
 1216 0000 FFF7FEBF 		b	chSemSignalI
 1217              	.LVL86:
 1218              		.cfi_endproc
 1219              	.LFE338:
 1220              		.cantunwind
 1221              		.fnend
 1222              		.size	_ZN10chibios_rt16CounterSemaphore7signalIEv, .-_ZN10chibios_rt16CounterSemaphore7signalIEv
 1223              		.section	.text._ZN10chibios_rt16CounterSemaphore11addCounterIEl,"ax",%progbits
 1224              		.align	1
 1225              		.global	_ZN10chibios_rt16CounterSemaphore11addCounterIEl
 1226              		.syntax unified
 1227              		.thumb
 1228              		.thumb_func
 1229              		.fpu fpv4-sp-d16
 1230              		.type	_ZN10chibios_rt16CounterSemaphore11addCounterIEl, %function
 1231              	_ZN10chibios_rt16CounterSemaphore11addCounterIEl:
 1232              		.fnstart
 1233              	.LFB339:
 1234              		.loc 1 346 0
 1235              		.cfi_startproc
 1236              		@ args = 0, pretend = 0, frame = 0
 1237              		@ frame_needed = 0, uses_anonymous_args = 0
 1238              		@ link register save eliminated.
 1239              	.LVL87:
 1240              		.loc 1 348 0
 1241 0000 FFF7FEBF 		b	chSemAddCounterI
 1242              	.LVL88:
 1243              		.cfi_endproc
 1244              	.LFE339:
 1245              		.cantunwind
 1246              		.fnend
 1247              		.size	_ZN10chibios_rt16CounterSemaphore11addCounterIEl, .-_ZN10chibios_rt16CounterSemaphore11addCo
 1248              		.section	.text._ZN10chibios_rt16CounterSemaphore11getCounterIEv,"ax",%progbits
 1249              		.align	1
 1250              		.global	_ZN10chibios_rt16CounterSemaphore11getCounterIEv
 1251              		.syntax unified
 1252              		.thumb
 1253              		.thumb_func
 1254              		.fpu fpv4-sp-d16
ARM GAS  C:\cygwin64\tmp\cc2miD45.s 			page 23


 1255              		.type	_ZN10chibios_rt16CounterSemaphore11getCounterIEv, %function
 1256              	_ZN10chibios_rt16CounterSemaphore11getCounterIEv:
 1257              		.fnstart
 1258              	.LFB340:
 1259              		.loc 1 351 0
 1260              		.cfi_startproc
 1261              		@ args = 0, pretend = 0, frame = 0
 1262              		@ frame_needed = 0, uses_anonymous_args = 0
 1263              		@ link register save eliminated.
 1264              	.LVL89:
 1265              		.loc 1 354 0
 1266 0000 8068     		ldr	r0, [r0, #8]
 1267              	.LVL90:
 1268 0002 7047     		bx	lr
 1269              		.cfi_endproc
 1270              	.LFE340:
 1271              		.cantunwind
 1272              		.fnend
 1273              		.size	_ZN10chibios_rt16CounterSemaphore11getCounterIEv, .-_ZN10chibios_rt16CounterSemaphore11getCo
 1274              		.section	.text._ZN10chibios_rt16CounterSemaphore10signalWaitEPS0_S1_,"ax",%progbits
 1275              		.align	1
 1276              		.global	_ZN10chibios_rt16CounterSemaphore10signalWaitEPS0_S1_
 1277              		.syntax unified
 1278              		.thumb
 1279              		.thumb_func
 1280              		.fpu fpv4-sp-d16
 1281              		.type	_ZN10chibios_rt16CounterSemaphore10signalWaitEPS0_S1_, %function
 1282              	_ZN10chibios_rt16CounterSemaphore10signalWaitEPS0_S1_:
 1283              		.fnstart
 1284              	.LFB341:
 1285              		.loc 1 357 0
 1286              		.cfi_startproc
 1287              		@ args = 0, pretend = 0, frame = 0
 1288              		@ frame_needed = 0, uses_anonymous_args = 0
 1289              		@ link register save eliminated.
 1290              	.LVL91:
 1291              		.loc 1 359 0
 1292 0000 FFF7FEBF 		b	chSemSignalWait
 1293              	.LVL92:
 1294              		.cfi_endproc
 1295              	.LFE341:
 1296              		.cantunwind
 1297              		.fnend
 1298              		.size	_ZN10chibios_rt16CounterSemaphore10signalWaitEPS0_S1_, .-_ZN10chibios_rt16CounterSemaphore10
 1299              		.section	.text._ZN10chibios_rt15BinarySemaphoreC2Eb,"ax",%progbits
 1300              		.align	1
 1301              		.global	_ZN10chibios_rt15BinarySemaphoreC2Eb
 1302              		.syntax unified
 1303              		.thumb
 1304              		.thumb_func
 1305              		.fpu fpv4-sp-d16
 1306              		.type	_ZN10chibios_rt15BinarySemaphoreC2Eb, %function
 1307              	_ZN10chibios_rt15BinarySemaphoreC2Eb:
 1308              		.fnstart
 1309              	.LFB343:
 1310              		.loc 1 365 0
 1311              		.cfi_startproc
ARM GAS  C:\cygwin64\tmp\cc2miD45.s 			page 24


 1312              		@ args = 0, pretend = 0, frame = 0
 1313              		@ frame_needed = 0, uses_anonymous_args = 0
 1314              	.LVL93:
 1315 0000 10B5     		push	{r4, lr}
 1316              		.save {r4, lr}
 1317              		.cfi_def_cfa_offset 8
 1318              		.cfi_offset 4, -8
 1319              		.cfi_offset 14, -4
 1320              	.LBB70:
 1321              	.LBB71:
 1322              		.file 6 "../../modules/ChibiOS/os/common/oslib/include/chbsem.h"
 1323              		.loc 6 126 0
 1324 0002 81F00101 		eor	r1, r1, #1
 1325              	.LVL94:
 1326              	.LBE71:
 1327              	.LBE70:
 1328              		.loc 1 365 0
 1329 0006 0446     		mov	r4, r0
 1330              	.LVL95:
 1331              	.LBB73:
 1332              	.LBB72:
 1333              		.loc 6 126 0
 1334 0008 FFF7FEFF 		bl	chSemObjectInit
 1335              	.LVL96:
 1336              	.LBE72:
 1337              	.LBE73:
 1338              		.loc 1 368 0
 1339 000c 2046     		mov	r0, r4
 1340 000e 10BD     		pop	{r4, pc}
 1341              		.cfi_endproc
 1342              	.LFE343:
 1343              		.fnend
 1344              		.size	_ZN10chibios_rt15BinarySemaphoreC2Eb, .-_ZN10chibios_rt15BinarySemaphoreC2Eb
 1345              		.global	_ZN10chibios_rt15BinarySemaphoreC1Eb
 1346              		.thumb_set _ZN10chibios_rt15BinarySemaphoreC1Eb,_ZN10chibios_rt15BinarySemaphoreC2Eb
 1347              		.section	.text._ZN10chibios_rt15BinarySemaphore4waitEv,"ax",%progbits
 1348              		.align	1
 1349              		.global	_ZN10chibios_rt15BinarySemaphore4waitEv
 1350              		.syntax unified
 1351              		.thumb
 1352              		.thumb_func
 1353              		.fpu fpv4-sp-d16
 1354              		.type	_ZN10chibios_rt15BinarySemaphore4waitEv, %function
 1355              	_ZN10chibios_rt15BinarySemaphore4waitEv:
 1356              		.fnstart
 1357              	.LFB345:
 1358              		.loc 1 370 0
 1359              		.cfi_startproc
 1360              		@ args = 0, pretend = 0, frame = 0
 1361              		@ frame_needed = 0, uses_anonymous_args = 0
 1362              		@ link register save eliminated.
 1363              	.LVL97:
 1364              	.LBB74:
 1365              	.LBB75:
 1366              		.loc 6 143 0
 1367 0000 FFF7FEBF 		b	chSemWait
 1368              	.LVL98:
ARM GAS  C:\cygwin64\tmp\cc2miD45.s 			page 25


 1369              	.LBE75:
 1370              	.LBE74:
 1371              		.cfi_endproc
 1372              	.LFE345:
 1373              		.cantunwind
 1374              		.fnend
 1375              		.size	_ZN10chibios_rt15BinarySemaphore4waitEv, .-_ZN10chibios_rt15BinarySemaphore4waitEv
 1376              		.section	.text._ZN10chibios_rt15BinarySemaphore5waitSEv,"ax",%progbits
 1377              		.align	1
 1378              		.global	_ZN10chibios_rt15BinarySemaphore5waitSEv
 1379              		.syntax unified
 1380              		.thumb
 1381              		.thumb_func
 1382              		.fpu fpv4-sp-d16
 1383              		.type	_ZN10chibios_rt15BinarySemaphore5waitSEv, %function
 1384              	_ZN10chibios_rt15BinarySemaphore5waitSEv:
 1385              		.fnstart
 1386              	.LFB346:
 1387              		.loc 1 375 0
 1388              		.cfi_startproc
 1389              		@ args = 0, pretend = 0, frame = 0
 1390              		@ frame_needed = 0, uses_anonymous_args = 0
 1391              		@ link register save eliminated.
 1392              	.LVL99:
 1393              	.LBB76:
 1394              	.LBB77:
 1395              		.loc 6 162 0
 1396 0000 FFF7FEBF 		b	chSemWaitS
 1397              	.LVL100:
 1398              	.LBE77:
 1399              	.LBE76:
 1400              		.cfi_endproc
 1401              	.LFE346:
 1402              		.cantunwind
 1403              		.fnend
 1404              		.size	_ZN10chibios_rt15BinarySemaphore5waitSEv, .-_ZN10chibios_rt15BinarySemaphore5waitSEv
 1405              		.section	.text._ZN10chibios_rt15BinarySemaphore4waitEm,"ax",%progbits
 1406              		.align	1
 1407              		.global	_ZN10chibios_rt15BinarySemaphore4waitEm
 1408              		.syntax unified
 1409              		.thumb
 1410              		.thumb_func
 1411              		.fpu fpv4-sp-d16
 1412              		.type	_ZN10chibios_rt15BinarySemaphore4waitEm, %function
 1413              	_ZN10chibios_rt15BinarySemaphore4waitEm:
 1414              		.fnstart
 1415              	.LFB347:
 1416              		.loc 1 380 0
 1417              		.cfi_startproc
 1418              		@ args = 0, pretend = 0, frame = 0
 1419              		@ frame_needed = 0, uses_anonymous_args = 0
 1420              		@ link register save eliminated.
 1421              	.LVL101:
 1422              	.LBB78:
 1423              	.LBB79:
 1424              		.loc 6 214 0
 1425 0000 FFF7FEBF 		b	chSemWaitTimeout
ARM GAS  C:\cygwin64\tmp\cc2miD45.s 			page 26


 1426              	.LVL102:
 1427              	.LBE79:
 1428              	.LBE78:
 1429              		.cfi_endproc
 1430              	.LFE347:
 1431              		.cantunwind
 1432              		.fnend
 1433              		.size	_ZN10chibios_rt15BinarySemaphore4waitEm, .-_ZN10chibios_rt15BinarySemaphore4waitEm
 1434              		.section	.text._ZN10chibios_rt15BinarySemaphore5waitSEm,"ax",%progbits
 1435              		.align	1
 1436              		.global	_ZN10chibios_rt15BinarySemaphore5waitSEm
 1437              		.syntax unified
 1438              		.thumb
 1439              		.thumb_func
 1440              		.fpu fpv4-sp-d16
 1441              		.type	_ZN10chibios_rt15BinarySemaphore5waitSEm, %function
 1442              	_ZN10chibios_rt15BinarySemaphore5waitSEm:
 1443              		.fnstart
 1444              	.LFB348:
 1445              		.loc 1 385 0
 1446              		.cfi_startproc
 1447              		@ args = 0, pretend = 0, frame = 0
 1448              		@ frame_needed = 0, uses_anonymous_args = 0
 1449              		@ link register save eliminated.
 1450              	.LVL103:
 1451              	.LBB80:
 1452              	.LBB81:
 1453              		.loc 6 189 0
 1454 0000 FFF7FEBF 		b	chSemWaitTimeoutS
 1455              	.LVL104:
 1456              	.LBE81:
 1457              	.LBE80:
 1458              		.cfi_endproc
 1459              	.LFE348:
 1460              		.cantunwind
 1461              		.fnend
 1462              		.size	_ZN10chibios_rt15BinarySemaphore5waitSEm, .-_ZN10chibios_rt15BinarySemaphore5waitSEm
 1463              		.section	.text._ZN10chibios_rt15BinarySemaphore5resetEb,"ax",%progbits
 1464              		.align	1
 1465              		.global	_ZN10chibios_rt15BinarySemaphore5resetEb
 1466              		.syntax unified
 1467              		.thumb
 1468              		.thumb_func
 1469              		.fpu fpv4-sp-d16
 1470              		.type	_ZN10chibios_rt15BinarySemaphore5resetEb, %function
 1471              	_ZN10chibios_rt15BinarySemaphore5resetEb:
 1472              		.fnstart
 1473              	.LFB349:
 1474              		.loc 1 390 0
 1475              		.cfi_startproc
 1476              		@ args = 0, pretend = 0, frame = 0
 1477              		@ frame_needed = 0, uses_anonymous_args = 0
 1478              		@ link register save eliminated.
 1479              	.LVL105:
 1480              	.LBB84:
 1481              	.LBB85:
 1482              		.loc 6 255 0
ARM GAS  C:\cygwin64\tmp\cc2miD45.s 			page 27


 1483 0000 81F00101 		eor	r1, r1, #1
 1484              	.LVL106:
 1485 0004 FFF7FEBF 		b	chSemReset
 1486              	.LVL107:
 1487              	.LBE85:
 1488              	.LBE84:
 1489              		.cfi_endproc
 1490              	.LFE349:
 1491              		.cantunwind
 1492              		.fnend
 1493              		.size	_ZN10chibios_rt15BinarySemaphore5resetEb, .-_ZN10chibios_rt15BinarySemaphore5resetEb
 1494              		.section	.text._ZN10chibios_rt15BinarySemaphore6resetIEb,"ax",%progbits
 1495              		.align	1
 1496              		.global	_ZN10chibios_rt15BinarySemaphore6resetIEb
 1497              		.syntax unified
 1498              		.thumb
 1499              		.thumb_func
 1500              		.fpu fpv4-sp-d16
 1501              		.type	_ZN10chibios_rt15BinarySemaphore6resetIEb, %function
 1502              	_ZN10chibios_rt15BinarySemaphore6resetIEb:
 1503              		.fnstart
 1504              	.LFB350:
 1505              		.loc 1 395 0
 1506              		.cfi_startproc
 1507              		@ args = 0, pretend = 0, frame = 0
 1508              		@ frame_needed = 0, uses_anonymous_args = 0
 1509              		@ link register save eliminated.
 1510              	.LVL108:
 1511              	.LBB88:
 1512              	.LBB89:
 1513              		.loc 6 236 0
 1514 0000 81F00101 		eor	r1, r1, #1
 1515              	.LVL109:
 1516 0004 FFF7FEBF 		b	chSemResetI
 1517              	.LVL110:
 1518              	.LBE89:
 1519              	.LBE88:
 1520              		.cfi_endproc
 1521              	.LFE350:
 1522              		.cantunwind
 1523              		.fnend
 1524              		.size	_ZN10chibios_rt15BinarySemaphore6resetIEb, .-_ZN10chibios_rt15BinarySemaphore6resetIEb
 1525              		.section	.text._ZN10chibios_rt15BinarySemaphore6signalEv,"ax",%progbits
 1526              		.align	1
 1527              		.global	_ZN10chibios_rt15BinarySemaphore6signalEv
 1528              		.syntax unified
 1529              		.thumb
 1530              		.thumb_func
 1531              		.fpu fpv4-sp-d16
 1532              		.type	_ZN10chibios_rt15BinarySemaphore6signalEv, %function
 1533              	_ZN10chibios_rt15BinarySemaphore6signalEv:
 1534              		.fnstart
 1535              	.LFB351:
 1536              		.loc 1 400 0
 1537              		.cfi_startproc
 1538              		@ args = 0, pretend = 0, frame = 0
 1539              		@ frame_needed = 0, uses_anonymous_args = 0
ARM GAS  C:\cygwin64\tmp\cc2miD45.s 			page 28


 1540              	.LVL111:
 1541 0000 10B5     		push	{r4, lr}
 1542              		.save {r4, lr}
 1543              		.cfi_def_cfa_offset 8
 1544              		.cfi_offset 4, -8
 1545              		.cfi_offset 14, -4
 1546              	.LBB104:
 1547              	.LBB105:
 1548              	.LBB106:
 1549              	.LBB107:
 1550              	.LBB108:
 1551              	.LBB109:
 1552              	.LBB110:
 1553              		.file 7 "../../modules/ChibiOS/os/common/ext/CMSIS/include/cmsis_gcc.h"
 1554              		.loc 7 264 0
 1555 0002 2023     		movs	r3, #32
 1556              	.LBE110:
 1557              	.LBE109:
 1558              	.LBE108:
 1559              	.LBE107:
 1560              	.LBE106:
 1561              	.LBE105:
 1562              	.LBE104:
 1563              		.loc 1 400 0
 1564 0004 0446     		mov	r4, r0
 1565              	.LVL112:
 1566              	.LBB124:
 1567              	.LBB123:
 1568              	.LBB115:
 1569              	.LBB114:
 1570              	.LBB113:
 1571              	.LBB112:
 1572              	.LBB111:
 1573              		.loc 7 264 0
 1574              		.syntax unified
 1575              	@ 264 "../../modules/ChibiOS/os/common/ext/CMSIS/include/cmsis_gcc.h" 1
 1576 0006 83F31188 		MSR basepri, r3
 1577              	@ 0 "" 2
 1578              	.LVL113:
 1579              		.thumb
 1580              		.syntax unified
 1581              	.LBE111:
 1582              	.LBE112:
 1583              	.LBE113:
 1584              		.file 8 "../../modules/ChibiOS/os/rt/include/chsys.h"
 1585              		.loc 8 377 0
 1586 000a FFF7FEFF 		bl	_stats_start_measure_crit_thd
 1587              	.LVL114:
 1588              	.LBE114:
 1589              	.LBE115:
 1590              	.LBB116:
 1591              	.LBB117:
 1592              		.loc 6 270 0
 1593 000e A368     		ldr	r3, [r4, #8]
 1594 0010 002B     		cmp	r3, #0
 1595 0012 02DC     		bgt	.L67
 1596              		.loc 6 271 0
ARM GAS  C:\cygwin64\tmp\cc2miD45.s 			page 29


 1597 0014 2046     		mov	r0, r4
 1598 0016 FFF7FEFF 		bl	chSemSignalI
 1599              	.LVL115:
 1600              	.L67:
 1601              	.LBE117:
 1602              	.LBE116:
 1603              		.loc 6 286 0
 1604 001a FFF7FEFF 		bl	chSchRescheduleS
 1605              	.LVL116:
 1606              	.LBB118:
 1607              	.LBB119:
 1608              		.loc 8 389 0
 1609 001e FFF7FEFF 		bl	_stats_stop_measure_crit_thd
 1610              	.LVL117:
 1611              	.LBB120:
 1612              	.LBB121:
 1613              	.LBB122:
 1614              		.loc 7 264 0
 1615 0022 0023     		movs	r3, #0
 1616              		.syntax unified
 1617              	@ 264 "../../modules/ChibiOS/os/common/ext/CMSIS/include/cmsis_gcc.h" 1
 1618 0024 83F31188 		MSR basepri, r3
 1619              	@ 0 "" 2
 1620              	.LVL118:
 1621              		.thumb
 1622              		.syntax unified
 1623 0028 10BD     		pop	{r4, pc}
 1624              	.LBE122:
 1625              	.LBE121:
 1626              	.LBE120:
 1627              	.LBE119:
 1628              	.LBE118:
 1629              	.LBE123:
 1630              	.LBE124:
 1631              		.cfi_endproc
 1632              	.LFE351:
 1633              		.fnend
 1634              		.size	_ZN10chibios_rt15BinarySemaphore6signalEv, .-_ZN10chibios_rt15BinarySemaphore6signalEv
 1635              		.section	.text._ZN10chibios_rt15BinarySemaphore7signalIEv,"ax",%progbits
 1636              		.align	1
 1637              		.global	_ZN10chibios_rt15BinarySemaphore7signalIEv
 1638              		.syntax unified
 1639              		.thumb
 1640              		.thumb_func
 1641              		.fpu fpv4-sp-d16
 1642              		.type	_ZN10chibios_rt15BinarySemaphore7signalIEv, %function
 1643              	_ZN10chibios_rt15BinarySemaphore7signalIEv:
 1644              		.fnstart
 1645              	.LFB352:
 1646              		.loc 1 405 0
 1647              		.cfi_startproc
 1648              		@ args = 0, pretend = 0, frame = 0
 1649              		@ frame_needed = 0, uses_anonymous_args = 0
 1650              		@ link register save eliminated.
 1651              	.LVL119:
 1652              	.LBB127:
 1653              	.LBB128:
ARM GAS  C:\cygwin64\tmp\cc2miD45.s 			page 30


 1654              		.loc 6 270 0
 1655 0000 8368     		ldr	r3, [r0, #8]
 1656 0002 002B     		cmp	r3, #0
 1657 0004 01DC     		bgt	.L68
 1658              		.loc 6 271 0
 1659 0006 FFF7FEBF 		b	chSemSignalI
 1660              	.LVL120:
 1661              	.L68:
 1662 000a 7047     		bx	lr
 1663              	.LBE128:
 1664              	.LBE127:
 1665              		.cfi_endproc
 1666              	.LFE352:
 1667              		.cantunwind
 1668              		.fnend
 1669              		.size	_ZN10chibios_rt15BinarySemaphore7signalIEv, .-_ZN10chibios_rt15BinarySemaphore7signalIEv
 1670              		.section	.text._ZN10chibios_rt15BinarySemaphore9getStateIEv,"ax",%progbits
 1671              		.align	1
 1672              		.global	_ZN10chibios_rt15BinarySemaphore9getStateIEv
 1673              		.syntax unified
 1674              		.thumb
 1675              		.thumb_func
 1676              		.fpu fpv4-sp-d16
 1677              		.type	_ZN10chibios_rt15BinarySemaphore9getStateIEv, %function
 1678              	_ZN10chibios_rt15BinarySemaphore9getStateIEv:
 1679              		.fnstart
 1680              	.LFB353:
 1681              		.loc 1 410 0
 1682              		.cfi_startproc
 1683              		@ args = 0, pretend = 0, frame = 0
 1684              		@ frame_needed = 0, uses_anonymous_args = 0
 1685              		@ link register save eliminated.
 1686              	.LVL121:
 1687              	.LBB129:
 1688              	.LBB130:
 1689              		.loc 6 304 0
 1690 0000 8068     		ldr	r0, [r0, #8]
 1691              	.LVL122:
 1692              	.LBE130:
 1693              	.LBE129:
 1694              		.loc 1 413 0
 1695 0002 0028     		cmp	r0, #0
 1696 0004 CCBF     		ite	gt
 1697 0006 0020     		movgt	r0, #0
 1698 0008 0120     		movle	r0, #1
 1699 000a 7047     		bx	lr
 1700              		.cfi_endproc
 1701              	.LFE353:
 1702              		.cantunwind
 1703              		.fnend
 1704              		.size	_ZN10chibios_rt15BinarySemaphore9getStateIEv, .-_ZN10chibios_rt15BinarySemaphore9getStateIEv
 1705              		.section	.text._ZN10chibios_rt5MutexC2Ev,"ax",%progbits
 1706              		.align	1
 1707              		.global	_ZN10chibios_rt5MutexC2Ev
 1708              		.syntax unified
 1709              		.thumb
 1710              		.thumb_func
ARM GAS  C:\cygwin64\tmp\cc2miD45.s 			page 31


 1711              		.fpu fpv4-sp-d16
 1712              		.type	_ZN10chibios_rt5MutexC2Ev, %function
 1713              	_ZN10chibios_rt5MutexC2Ev:
 1714              		.fnstart
 1715              	.LFB355:
 1716              		.loc 1 420 0
 1717              		.cfi_startproc
 1718              		@ args = 0, pretend = 0, frame = 0
 1719              		@ frame_needed = 0, uses_anonymous_args = 0
 1720              	.LVL123:
 1721 0000 10B5     		push	{r4, lr}
 1722              		.save {r4, lr}
 1723              		.cfi_def_cfa_offset 8
 1724              		.cfi_offset 4, -8
 1725              		.cfi_offset 14, -4
 1726              		.loc 1 420 0
 1727 0002 0446     		mov	r4, r0
 1728              	.LBB131:
 1729              		.loc 1 422 0
 1730 0004 FFF7FEFF 		bl	chMtxObjectInit
 1731              	.LVL124:
 1732              	.LBE131:
 1733              		.loc 1 423 0
 1734 0008 2046     		mov	r0, r4
 1735 000a 10BD     		pop	{r4, pc}
 1736              		.cfi_endproc
 1737              	.LFE355:
 1738              		.fnend
 1739              		.size	_ZN10chibios_rt5MutexC2Ev, .-_ZN10chibios_rt5MutexC2Ev
 1740              		.global	_ZN10chibios_rt5MutexC1Ev
 1741              		.thumb_set _ZN10chibios_rt5MutexC1Ev,_ZN10chibios_rt5MutexC2Ev
 1742              		.section	.text._ZN10chibios_rt5Mutex7tryLockEv,"ax",%progbits
 1743              		.align	1
 1744              		.global	_ZN10chibios_rt5Mutex7tryLockEv
 1745              		.syntax unified
 1746              		.thumb
 1747              		.thumb_func
 1748              		.fpu fpv4-sp-d16
 1749              		.type	_ZN10chibios_rt5Mutex7tryLockEv, %function
 1750              	_ZN10chibios_rt5Mutex7tryLockEv:
 1751              		.fnstart
 1752              	.LFB357:
 1753              		.loc 1 425 0
 1754              		.cfi_startproc
 1755              		@ args = 0, pretend = 0, frame = 0
 1756              		@ frame_needed = 0, uses_anonymous_args = 0
 1757              		@ link register save eliminated.
 1758              	.LVL125:
 1759              		.loc 1 427 0
 1760 0000 FFF7FEBF 		b	chMtxTryLock
 1761              	.LVL126:
 1762              		.cfi_endproc
 1763              	.LFE357:
 1764              		.cantunwind
 1765              		.fnend
 1766              		.size	_ZN10chibios_rt5Mutex7tryLockEv, .-_ZN10chibios_rt5Mutex7tryLockEv
 1767              		.section	.text._ZN10chibios_rt5Mutex8tryLockSEv,"ax",%progbits
ARM GAS  C:\cygwin64\tmp\cc2miD45.s 			page 32


 1768              		.align	1
 1769              		.global	_ZN10chibios_rt5Mutex8tryLockSEv
 1770              		.syntax unified
 1771              		.thumb
 1772              		.thumb_func
 1773              		.fpu fpv4-sp-d16
 1774              		.type	_ZN10chibios_rt5Mutex8tryLockSEv, %function
 1775              	_ZN10chibios_rt5Mutex8tryLockSEv:
 1776              		.fnstart
 1777              	.LFB358:
 1778              		.loc 1 430 0
 1779              		.cfi_startproc
 1780              		@ args = 0, pretend = 0, frame = 0
 1781              		@ frame_needed = 0, uses_anonymous_args = 0
 1782              		@ link register save eliminated.
 1783              	.LVL127:
 1784              		.loc 1 432 0
 1785 0000 FFF7FEBF 		b	chMtxTryLockS
 1786              	.LVL128:
 1787              		.cfi_endproc
 1788              	.LFE358:
 1789              		.cantunwind
 1790              		.fnend
 1791              		.size	_ZN10chibios_rt5Mutex8tryLockSEv, .-_ZN10chibios_rt5Mutex8tryLockSEv
 1792              		.section	.text._ZN10chibios_rt5Mutex4lockEv,"ax",%progbits
 1793              		.align	1
 1794              		.global	_ZN10chibios_rt5Mutex4lockEv
 1795              		.syntax unified
 1796              		.thumb
 1797              		.thumb_func
 1798              		.fpu fpv4-sp-d16
 1799              		.type	_ZN10chibios_rt5Mutex4lockEv, %function
 1800              	_ZN10chibios_rt5Mutex4lockEv:
 1801              		.fnstart
 1802              	.LFB359:
 1803              		.loc 1 435 0
 1804              		.cfi_startproc
 1805              		@ args = 0, pretend = 0, frame = 0
 1806              		@ frame_needed = 0, uses_anonymous_args = 0
 1807              		@ link register save eliminated.
 1808              	.LVL129:
 1809              		.loc 1 437 0
 1810 0000 FFF7FEBF 		b	chMtxLock
 1811              	.LVL130:
 1812              		.cfi_endproc
 1813              	.LFE359:
 1814              		.cantunwind
 1815              		.fnend
 1816              		.size	_ZN10chibios_rt5Mutex4lockEv, .-_ZN10chibios_rt5Mutex4lockEv
 1817              		.section	.text._ZN10chibios_rt5Mutex5lockSEv,"ax",%progbits
 1818              		.align	1
 1819              		.global	_ZN10chibios_rt5Mutex5lockSEv
 1820              		.syntax unified
 1821              		.thumb
 1822              		.thumb_func
 1823              		.fpu fpv4-sp-d16
 1824              		.type	_ZN10chibios_rt5Mutex5lockSEv, %function
ARM GAS  C:\cygwin64\tmp\cc2miD45.s 			page 33


 1825              	_ZN10chibios_rt5Mutex5lockSEv:
 1826              		.fnstart
 1827              	.LFB360:
 1828              		.loc 1 440 0
 1829              		.cfi_startproc
 1830              		@ args = 0, pretend = 0, frame = 0
 1831              		@ frame_needed = 0, uses_anonymous_args = 0
 1832              		@ link register save eliminated.
 1833              	.LVL131:
 1834              		.loc 1 442 0
 1835 0000 FFF7FEBF 		b	chMtxLockS
 1836              	.LVL132:
 1837              		.cfi_endproc
 1838              	.LFE360:
 1839              		.cantunwind
 1840              		.fnend
 1841              		.size	_ZN10chibios_rt5Mutex5lockSEv, .-_ZN10chibios_rt5Mutex5lockSEv
 1842              		.section	.text._ZN10chibios_rt5Mutex6unlockEv,"ax",%progbits
 1843              		.align	1
 1844              		.global	_ZN10chibios_rt5Mutex6unlockEv
 1845              		.syntax unified
 1846              		.thumb
 1847              		.thumb_func
 1848              		.fpu fpv4-sp-d16
 1849              		.type	_ZN10chibios_rt5Mutex6unlockEv, %function
 1850              	_ZN10chibios_rt5Mutex6unlockEv:
 1851              		.fnstart
 1852              	.LFB361:
 1853              		.loc 1 445 0
 1854              		.cfi_startproc
 1855              		@ args = 0, pretend = 0, frame = 0
 1856              		@ frame_needed = 0, uses_anonymous_args = 0
 1857              		@ link register save eliminated.
 1858              	.LVL133:
 1859              		.loc 1 447 0
 1860 0000 FFF7FEBF 		b	chMtxUnlock
 1861              	.LVL134:
 1862              		.cfi_endproc
 1863              	.LFE361:
 1864              		.cantunwind
 1865              		.fnend
 1866              		.size	_ZN10chibios_rt5Mutex6unlockEv, .-_ZN10chibios_rt5Mutex6unlockEv
 1867              		.section	.text._ZN10chibios_rt5Mutex7unlockSEv,"ax",%progbits
 1868              		.align	1
 1869              		.global	_ZN10chibios_rt5Mutex7unlockSEv
 1870              		.syntax unified
 1871              		.thumb
 1872              		.thumb_func
 1873              		.fpu fpv4-sp-d16
 1874              		.type	_ZN10chibios_rt5Mutex7unlockSEv, %function
 1875              	_ZN10chibios_rt5Mutex7unlockSEv:
 1876              		.fnstart
 1877              	.LFB362:
 1878              		.loc 1 450 0
 1879              		.cfi_startproc
 1880              		@ args = 0, pretend = 0, frame = 0
 1881              		@ frame_needed = 0, uses_anonymous_args = 0
ARM GAS  C:\cygwin64\tmp\cc2miD45.s 			page 34


 1882              		@ link register save eliminated.
 1883              	.LVL135:
 1884              		.loc 1 452 0
 1885 0000 FFF7FEBF 		b	chMtxUnlockS
 1886              	.LVL136:
 1887              		.cfi_endproc
 1888              	.LFE362:
 1889              		.cantunwind
 1890              		.fnend
 1891              		.size	_ZN10chibios_rt5Mutex7unlockSEv, .-_ZN10chibios_rt5Mutex7unlockSEv
 1892              		.section	.text._ZN10chibios_rt7CondVarC2Ev,"ax",%progbits
 1893              		.align	1
 1894              		.global	_ZN10chibios_rt7CondVarC2Ev
 1895              		.syntax unified
 1896              		.thumb
 1897              		.thumb_func
 1898              		.fpu fpv4-sp-d16
 1899              		.type	_ZN10chibios_rt7CondVarC2Ev, %function
 1900              	_ZN10chibios_rt7CondVarC2Ev:
 1901              		.fnstart
 1902              	.LFB364:
 1903              		.loc 1 459 0
 1904              		.cfi_startproc
 1905              		@ args = 0, pretend = 0, frame = 0
 1906              		@ frame_needed = 0, uses_anonymous_args = 0
 1907              	.LVL137:
 1908 0000 10B5     		push	{r4, lr}
 1909              		.save {r4, lr}
 1910              		.cfi_def_cfa_offset 8
 1911              		.cfi_offset 4, -8
 1912              		.cfi_offset 14, -4
 1913              		.loc 1 459 0
 1914 0002 0446     		mov	r4, r0
 1915              	.LBB132:
 1916              		.loc 1 461 0
 1917 0004 FFF7FEFF 		bl	chCondObjectInit
 1918              	.LVL138:
 1919              	.LBE132:
 1920              		.loc 1 462 0
 1921 0008 2046     		mov	r0, r4
 1922 000a 10BD     		pop	{r4, pc}
 1923              		.cfi_endproc
 1924              	.LFE364:
 1925              		.fnend
 1926              		.size	_ZN10chibios_rt7CondVarC2Ev, .-_ZN10chibios_rt7CondVarC2Ev
 1927              		.global	_ZN10chibios_rt7CondVarC1Ev
 1928              		.thumb_set _ZN10chibios_rt7CondVarC1Ev,_ZN10chibios_rt7CondVarC2Ev
 1929              		.section	.text._ZN10chibios_rt7CondVar6signalEv,"ax",%progbits
 1930              		.align	1
 1931              		.global	_ZN10chibios_rt7CondVar6signalEv
 1932              		.syntax unified
 1933              		.thumb
 1934              		.thumb_func
 1935              		.fpu fpv4-sp-d16
 1936              		.type	_ZN10chibios_rt7CondVar6signalEv, %function
 1937              	_ZN10chibios_rt7CondVar6signalEv:
 1938              		.fnstart
ARM GAS  C:\cygwin64\tmp\cc2miD45.s 			page 35


 1939              	.LFB366:
 1940              		.loc 1 464 0
 1941              		.cfi_startproc
 1942              		@ args = 0, pretend = 0, frame = 0
 1943              		@ frame_needed = 0, uses_anonymous_args = 0
 1944              		@ link register save eliminated.
 1945              	.LVL139:
 1946              		.loc 1 466 0
 1947 0000 FFF7FEBF 		b	chCondSignal
 1948              	.LVL140:
 1949              		.cfi_endproc
 1950              	.LFE366:
 1951              		.cantunwind
 1952              		.fnend
 1953              		.size	_ZN10chibios_rt7CondVar6signalEv, .-_ZN10chibios_rt7CondVar6signalEv
 1954              		.section	.text._ZN10chibios_rt7CondVar7signalIEv,"ax",%progbits
 1955              		.align	1
 1956              		.global	_ZN10chibios_rt7CondVar7signalIEv
 1957              		.syntax unified
 1958              		.thumb
 1959              		.thumb_func
 1960              		.fpu fpv4-sp-d16
 1961              		.type	_ZN10chibios_rt7CondVar7signalIEv, %function
 1962              	_ZN10chibios_rt7CondVar7signalIEv:
 1963              		.fnstart
 1964              	.LFB367:
 1965              		.loc 1 469 0
 1966              		.cfi_startproc
 1967              		@ args = 0, pretend = 0, frame = 0
 1968              		@ frame_needed = 0, uses_anonymous_args = 0
 1969              		@ link register save eliminated.
 1970              	.LVL141:
 1971              		.loc 1 471 0
 1972 0000 FFF7FEBF 		b	chCondSignalI
 1973              	.LVL142:
 1974              		.cfi_endproc
 1975              	.LFE367:
 1976              		.cantunwind
 1977              		.fnend
 1978              		.size	_ZN10chibios_rt7CondVar7signalIEv, .-_ZN10chibios_rt7CondVar7signalIEv
 1979              		.section	.text._ZN10chibios_rt7CondVar9broadcastEv,"ax",%progbits
 1980              		.align	1
 1981              		.global	_ZN10chibios_rt7CondVar9broadcastEv
 1982              		.syntax unified
 1983              		.thumb
 1984              		.thumb_func
 1985              		.fpu fpv4-sp-d16
 1986              		.type	_ZN10chibios_rt7CondVar9broadcastEv, %function
 1987              	_ZN10chibios_rt7CondVar9broadcastEv:
 1988              		.fnstart
 1989              	.LFB368:
 1990              		.loc 1 474 0
 1991              		.cfi_startproc
 1992              		@ args = 0, pretend = 0, frame = 0
 1993              		@ frame_needed = 0, uses_anonymous_args = 0
 1994              		@ link register save eliminated.
 1995              	.LVL143:
ARM GAS  C:\cygwin64\tmp\cc2miD45.s 			page 36


 1996              		.loc 1 476 0
 1997 0000 FFF7FEBF 		b	chCondBroadcast
 1998              	.LVL144:
 1999              		.cfi_endproc
 2000              	.LFE368:
 2001              		.cantunwind
 2002              		.fnend
 2003              		.size	_ZN10chibios_rt7CondVar9broadcastEv, .-_ZN10chibios_rt7CondVar9broadcastEv
 2004              		.section	.text._ZN10chibios_rt7CondVar10broadcastIEv,"ax",%progbits
 2005              		.align	1
 2006              		.global	_ZN10chibios_rt7CondVar10broadcastIEv
 2007              		.syntax unified
 2008              		.thumb
 2009              		.thumb_func
 2010              		.fpu fpv4-sp-d16
 2011              		.type	_ZN10chibios_rt7CondVar10broadcastIEv, %function
 2012              	_ZN10chibios_rt7CondVar10broadcastIEv:
 2013              		.fnstart
 2014              	.LFB369:
 2015              		.loc 1 479 0
 2016              		.cfi_startproc
 2017              		@ args = 0, pretend = 0, frame = 0
 2018              		@ frame_needed = 0, uses_anonymous_args = 0
 2019              		@ link register save eliminated.
 2020              	.LVL145:
 2021              		.loc 1 481 0
 2022 0000 FFF7FEBF 		b	chCondBroadcastI
 2023              	.LVL146:
 2024              		.cfi_endproc
 2025              	.LFE369:
 2026              		.cantunwind
 2027              		.fnend
 2028              		.size	_ZN10chibios_rt7CondVar10broadcastIEv, .-_ZN10chibios_rt7CondVar10broadcastIEv
 2029              		.section	.text._ZN10chibios_rt7CondVar4waitEv,"ax",%progbits
 2030              		.align	1
 2031              		.global	_ZN10chibios_rt7CondVar4waitEv
 2032              		.syntax unified
 2033              		.thumb
 2034              		.thumb_func
 2035              		.fpu fpv4-sp-d16
 2036              		.type	_ZN10chibios_rt7CondVar4waitEv, %function
 2037              	_ZN10chibios_rt7CondVar4waitEv:
 2038              		.fnstart
 2039              	.LFB370:
 2040              		.loc 1 484 0
 2041              		.cfi_startproc
 2042              		@ args = 0, pretend = 0, frame = 0
 2043              		@ frame_needed = 0, uses_anonymous_args = 0
 2044              		@ link register save eliminated.
 2045              	.LVL147:
 2046              		.loc 1 486 0
 2047 0000 FFF7FEBF 		b	chCondWait
 2048              	.LVL148:
 2049              		.cfi_endproc
 2050              	.LFE370:
 2051              		.cantunwind
 2052              		.fnend
ARM GAS  C:\cygwin64\tmp\cc2miD45.s 			page 37


 2053              		.size	_ZN10chibios_rt7CondVar4waitEv, .-_ZN10chibios_rt7CondVar4waitEv
 2054              		.section	.text._ZN10chibios_rt7CondVar5waitSEv,"ax",%progbits
 2055              		.align	1
 2056              		.global	_ZN10chibios_rt7CondVar5waitSEv
 2057              		.syntax unified
 2058              		.thumb
 2059              		.thumb_func
 2060              		.fpu fpv4-sp-d16
 2061              		.type	_ZN10chibios_rt7CondVar5waitSEv, %function
 2062              	_ZN10chibios_rt7CondVar5waitSEv:
 2063              		.fnstart
 2064              	.LFB371:
 2065              		.loc 1 489 0
 2066              		.cfi_startproc
 2067              		@ args = 0, pretend = 0, frame = 0
 2068              		@ frame_needed = 0, uses_anonymous_args = 0
 2069              		@ link register save eliminated.
 2070              	.LVL149:
 2071              		.loc 1 491 0
 2072 0000 FFF7FEBF 		b	chCondWaitS
 2073              	.LVL150:
 2074              		.cfi_endproc
 2075              	.LFE371:
 2076              		.cantunwind
 2077              		.fnend
 2078              		.size	_ZN10chibios_rt7CondVar5waitSEv, .-_ZN10chibios_rt7CondVar5waitSEv
 2079              		.section	.text._ZN10chibios_rt7CondVar4waitEm,"ax",%progbits
 2080              		.align	1
 2081              		.global	_ZN10chibios_rt7CondVar4waitEm
 2082              		.syntax unified
 2083              		.thumb
 2084              		.thumb_func
 2085              		.fpu fpv4-sp-d16
 2086              		.type	_ZN10chibios_rt7CondVar4waitEm, %function
 2087              	_ZN10chibios_rt7CondVar4waitEm:
 2088              		.fnstart
 2089              	.LFB372:
 2090              		.loc 1 495 0
 2091              		.cfi_startproc
 2092              		@ args = 0, pretend = 0, frame = 0
 2093              		@ frame_needed = 0, uses_anonymous_args = 0
 2094              		@ link register save eliminated.
 2095              	.LVL151:
 2096              		.loc 1 497 0
 2097 0000 FFF7FEBF 		b	chCondWaitTimeout
 2098              	.LVL152:
 2099              		.cfi_endproc
 2100              	.LFE372:
 2101              		.cantunwind
 2102              		.fnend
 2103              		.size	_ZN10chibios_rt7CondVar4waitEm, .-_ZN10chibios_rt7CondVar4waitEm
 2104              		.section	.text._ZN10chibios_rt11EvtListener16getAndClearFlagsEv,"ax",%progbits
 2105              		.align	1
 2106              		.global	_ZN10chibios_rt11EvtListener16getAndClearFlagsEv
 2107              		.syntax unified
 2108              		.thumb
 2109              		.thumb_func
ARM GAS  C:\cygwin64\tmp\cc2miD45.s 			page 38


 2110              		.fpu fpv4-sp-d16
 2111              		.type	_ZN10chibios_rt11EvtListener16getAndClearFlagsEv, %function
 2112              	_ZN10chibios_rt11EvtListener16getAndClearFlagsEv:
 2113              		.fnstart
 2114              	.LFB373:
 2115              		.loc 1 507 0
 2116              		.cfi_startproc
 2117              		@ args = 0, pretend = 0, frame = 0
 2118              		@ frame_needed = 0, uses_anonymous_args = 0
 2119              		@ link register save eliminated.
 2120              	.LVL153:
 2121              		.loc 1 509 0
 2122 0000 FFF7FEBF 		b	chEvtGetAndClearFlags
 2123              	.LVL154:
 2124              		.cfi_endproc
 2125              	.LFE373:
 2126              		.cantunwind
 2127              		.fnend
 2128              		.size	_ZN10chibios_rt11EvtListener16getAndClearFlagsEv, .-_ZN10chibios_rt11EvtListener16getAndClea
 2129              		.section	.text._ZN10chibios_rt11EvtListener17getAndClearFlagsIEv,"ax",%progbits
 2130              		.align	1
 2131              		.global	_ZN10chibios_rt11EvtListener17getAndClearFlagsIEv
 2132              		.syntax unified
 2133              		.thumb
 2134              		.thumb_func
 2135              		.fpu fpv4-sp-d16
 2136              		.type	_ZN10chibios_rt11EvtListener17getAndClearFlagsIEv, %function
 2137              	_ZN10chibios_rt11EvtListener17getAndClearFlagsIEv:
 2138              		.fnstart
 2139              	.LFB374:
 2140              		.loc 1 512 0
 2141              		.cfi_startproc
 2142              		@ args = 0, pretend = 0, frame = 0
 2143              		@ frame_needed = 0, uses_anonymous_args = 0
 2144              		@ link register save eliminated.
 2145              	.LVL155:
 2146              		.loc 1 514 0
 2147 0000 FFF7FEBF 		b	chEvtGetAndClearFlagsI
 2148              	.LVL156:
 2149              		.cfi_endproc
 2150              	.LFE374:
 2151              		.cantunwind
 2152              		.fnend
 2153              		.size	_ZN10chibios_rt11EvtListener17getAndClearFlagsIEv, .-_ZN10chibios_rt11EvtListener17getAndCle
 2154              		.section	.text._ZN10chibios_rt9EvtSourceC2Ev,"ax",%progbits
 2155              		.align	1
 2156              		.global	_ZN10chibios_rt9EvtSourceC2Ev
 2157              		.syntax unified
 2158              		.thumb
 2159              		.thumb_func
 2160              		.fpu fpv4-sp-d16
 2161              		.type	_ZN10chibios_rt9EvtSourceC2Ev, %function
 2162              	_ZN10chibios_rt9EvtSourceC2Ev:
 2163              		.fnstart
 2164              	.LFB376:
 2165              		.loc 1 520 0
 2166              		.cfi_startproc
ARM GAS  C:\cygwin64\tmp\cc2miD45.s 			page 39


 2167              		@ args = 0, pretend = 0, frame = 0
 2168              		@ frame_needed = 0, uses_anonymous_args = 0
 2169              		@ link register save eliminated.
 2170              	.LVL157:
 2171              	.LBB133:
 2172              	.LBB134:
 2173              	.LBB135:
 2174              		.file 9 "../../modules/ChibiOS/os/rt/include/chevents.h"
 2175              		.loc 9 172 0
 2176 0000 0060     		str	r0, [r0]
 2177              	.LVL158:
 2178              	.LBE135:
 2179              	.LBE134:
 2180              	.LBE133:
 2181              		.loc 1 523 0
 2182 0002 7047     		bx	lr
 2183              		.cfi_endproc
 2184              	.LFE376:
 2185              		.cantunwind
 2186              		.fnend
 2187              		.size	_ZN10chibios_rt9EvtSourceC2Ev, .-_ZN10chibios_rt9EvtSourceC2Ev
 2188              		.global	_ZN10chibios_rt9EvtSourceC1Ev
 2189              		.thumb_set _ZN10chibios_rt9EvtSourceC1Ev,_ZN10chibios_rt9EvtSourceC2Ev
 2190              		.section	.text._ZN10chibios_rt9EvtSource11registerOneEPNS_11EvtListenerEl,"ax",%progbits
 2191              		.align	1
 2192              		.global	_ZN10chibios_rt9EvtSource11registerOneEPNS_11EvtListenerEl
 2193              		.syntax unified
 2194              		.thumb
 2195              		.thumb_func
 2196              		.fpu fpv4-sp-d16
 2197              		.type	_ZN10chibios_rt9EvtSource11registerOneEPNS_11EvtListenerEl, %function
 2198              	_ZN10chibios_rt9EvtSource11registerOneEPNS_11EvtListenerEl:
 2199              		.fnstart
 2200              	.LFB378:
 2201              		.loc 1 526 0
 2202              		.cfi_startproc
 2203              		@ args = 0, pretend = 0, frame = 0
 2204              		@ frame_needed = 0, uses_anonymous_args = 0
 2205              		@ link register save eliminated.
 2206              	.LVL159:
 2207 0000 10B4     		push	{r4}
 2208              		.cfi_def_cfa_offset 4
 2209              		.cfi_offset 4, -4
 2210              	.LBB140:
 2211              	.LBB141:
 2212              	.LBB142:
 2213              	.LBB143:
 2214              		.loc 9 193 0
 2215 0002 0124     		movs	r4, #1
 2216 0004 04FA02F2 		lsl	r2, r4, r2
 2217              	.LVL160:
 2218 0008 4FF0FF33 		mov	r3, #-1
 2219              	.LBE143:
 2220              	.LBE142:
 2221              	.LBE141:
 2222              	.LBE140:
 2223              		.loc 1 529 0
ARM GAS  C:\cygwin64\tmp\cc2miD45.s 			page 40


 2224 000c 5DF8044B 		ldr	r4, [sp], #4
 2225              		.cfi_restore 4
 2226              		.cfi_def_cfa_offset 0
 2227              	.LBB147:
 2228              	.LBB146:
 2229              	.LBB145:
 2230              	.LBB144:
 2231              		.loc 9 193 0
 2232 0010 FFF7FEBF 		b	chEvtRegisterMaskWithFlags
 2233              	.LVL161:
 2234              	.LBE144:
 2235              	.LBE145:
 2236              	.LBE146:
 2237              	.LBE147:
 2238              		.cfi_endproc
 2239              	.LFE378:
 2240              		.cantunwind
 2241              		.fnend
 2242              		.size	_ZN10chibios_rt9EvtSource11registerOneEPNS_11EvtListenerEl, .-_ZN10chibios_rt9EvtSource11reg
 2243              		.section	.text._ZN10chibios_rt9EvtSource12registerMaskEPNS_11EvtListenerEm,"ax",%progbits
 2244              		.align	1
 2245              		.global	_ZN10chibios_rt9EvtSource12registerMaskEPNS_11EvtListenerEm
 2246              		.syntax unified
 2247              		.thumb
 2248              		.thumb_func
 2249              		.fpu fpv4-sp-d16
 2250              		.type	_ZN10chibios_rt9EvtSource12registerMaskEPNS_11EvtListenerEm, %function
 2251              	_ZN10chibios_rt9EvtSource12registerMaskEPNS_11EvtListenerEm:
 2252              		.fnstart
 2253              	.LFB379:
 2254              		.loc 1 532 0
 2255              		.cfi_startproc
 2256              		@ args = 0, pretend = 0, frame = 0
 2257              		@ frame_needed = 0, uses_anonymous_args = 0
 2258              		@ link register save eliminated.
 2259              	.LVL162:
 2260              	.LBB150:
 2261              	.LBB151:
 2262              		.loc 9 193 0
 2263 0000 4FF0FF33 		mov	r3, #-1
 2264 0004 FFF7FEBF 		b	chEvtRegisterMaskWithFlags
 2265              	.LVL163:
 2266              	.LBE151:
 2267              	.LBE150:
 2268              		.cfi_endproc
 2269              	.LFE379:
 2270              		.cantunwind
 2271              		.fnend
 2272              		.size	_ZN10chibios_rt9EvtSource12registerMaskEPNS_11EvtListenerEm, .-_ZN10chibios_rt9EvtSource12re
 2273              		.section	.text._ZN10chibios_rt9EvtSource10unregisterEPNS_11EvtListenerE,"ax",%progbits
 2274              		.align	1
 2275              		.global	_ZN10chibios_rt9EvtSource10unregisterEPNS_11EvtListenerE
 2276              		.syntax unified
 2277              		.thumb
 2278              		.thumb_func
 2279              		.fpu fpv4-sp-d16
 2280              		.type	_ZN10chibios_rt9EvtSource10unregisterEPNS_11EvtListenerE, %function
ARM GAS  C:\cygwin64\tmp\cc2miD45.s 			page 41


 2281              	_ZN10chibios_rt9EvtSource10unregisterEPNS_11EvtListenerE:
 2282              		.fnstart
 2283              	.LFB380:
 2284              		.loc 1 537 0
 2285              		.cfi_startproc
 2286              		@ args = 0, pretend = 0, frame = 0
 2287              		@ frame_needed = 0, uses_anonymous_args = 0
 2288              		@ link register save eliminated.
 2289              	.LVL164:
 2290              		.loc 1 539 0
 2291 0000 FFF7FEBF 		b	chEvtUnregister
 2292              	.LVL165:
 2293              		.cfi_endproc
 2294              	.LFE380:
 2295              		.cantunwind
 2296              		.fnend
 2297              		.size	_ZN10chibios_rt9EvtSource10unregisterEPNS_11EvtListenerE, .-_ZN10chibios_rt9EvtSource10unreg
 2298              		.section	.text._ZN10chibios_rt9EvtSource14broadcastFlagsEm,"ax",%progbits
 2299              		.align	1
 2300              		.global	_ZN10chibios_rt9EvtSource14broadcastFlagsEm
 2301              		.syntax unified
 2302              		.thumb
 2303              		.thumb_func
 2304              		.fpu fpv4-sp-d16
 2305              		.type	_ZN10chibios_rt9EvtSource14broadcastFlagsEm, %function
 2306              	_ZN10chibios_rt9EvtSource14broadcastFlagsEm:
 2307              		.fnstart
 2308              	.LFB381:
 2309              		.loc 1 542 0
 2310              		.cfi_startproc
 2311              		@ args = 0, pretend = 0, frame = 0
 2312              		@ frame_needed = 0, uses_anonymous_args = 0
 2313              		@ link register save eliminated.
 2314              	.LVL166:
 2315              		.loc 1 544 0
 2316 0000 FFF7FEBF 		b	chEvtBroadcastFlags
 2317              	.LVL167:
 2318              		.cfi_endproc
 2319              	.LFE381:
 2320              		.cantunwind
 2321              		.fnend
 2322              		.size	_ZN10chibios_rt9EvtSource14broadcastFlagsEm, .-_ZN10chibios_rt9EvtSource14broadcastFlagsEm
 2323              		.section	.text._ZN10chibios_rt9EvtSource15broadcastFlagsIEm,"ax",%progbits
 2324              		.align	1
 2325              		.global	_ZN10chibios_rt9EvtSource15broadcastFlagsIEm
 2326              		.syntax unified
 2327              		.thumb
 2328              		.thumb_func
 2329              		.fpu fpv4-sp-d16
 2330              		.type	_ZN10chibios_rt9EvtSource15broadcastFlagsIEm, %function
 2331              	_ZN10chibios_rt9EvtSource15broadcastFlagsIEm:
 2332              		.fnstart
 2333              	.LFB382:
 2334              		.loc 1 547 0
 2335              		.cfi_startproc
 2336              		@ args = 0, pretend = 0, frame = 0
 2337              		@ frame_needed = 0, uses_anonymous_args = 0
ARM GAS  C:\cygwin64\tmp\cc2miD45.s 			page 42


 2338              		@ link register save eliminated.
 2339              	.LVL168:
 2340              		.loc 1 549 0
 2341 0000 FFF7FEBF 		b	chEvtBroadcastFlagsI
 2342              	.LVL169:
 2343              		.cfi_endproc
 2344              	.LFE382:
 2345              		.cantunwind
 2346              		.fnend
 2347              		.size	_ZN10chibios_rt9EvtSource15broadcastFlagsIEm, .-_ZN10chibios_rt9EvtSource15broadcastFlagsIEm
 2348              		.section	.text._ZN10chibios_rt10MemoryPoolC2EjPFPvjjE,"ax",%progbits
 2349              		.align	1
 2350              		.global	_ZN10chibios_rt10MemoryPoolC2EjPFPvjjE
 2351              		.syntax unified
 2352              		.thumb
 2353              		.thumb_func
 2354              		.fpu fpv4-sp-d16
 2355              		.type	_ZN10chibios_rt10MemoryPoolC2EjPFPvjjE, %function
 2356              	_ZN10chibios_rt10MemoryPoolC2EjPFPvjjE:
 2357              		.fnstart
 2358              	.LFB384:
 2359              		.loc 1 557 0
 2360              		.cfi_startproc
 2361              		@ args = 0, pretend = 0, frame = 0
 2362              		@ frame_needed = 0, uses_anonymous_args = 0
 2363              	.LVL170:
 2364 0000 10B5     		push	{r4, lr}
 2365              		.save {r4, lr}
 2366              		.cfi_def_cfa_offset 8
 2367              		.cfi_offset 4, -8
 2368              		.cfi_offset 14, -4
 2369              		.loc 1 557 0
 2370 0002 0446     		mov	r4, r0
 2371              	.LBB152:
 2372              		.loc 1 559 0
 2373 0004 FFF7FEFF 		bl	chPoolObjectInit
 2374              	.LVL171:
 2375              	.LBE152:
 2376              		.loc 1 560 0
 2377 0008 2046     		mov	r0, r4
 2378 000a 10BD     		pop	{r4, pc}
 2379              		.cfi_endproc
 2380              	.LFE384:
 2381              		.fnend
 2382              		.size	_ZN10chibios_rt10MemoryPoolC2EjPFPvjjE, .-_ZN10chibios_rt10MemoryPoolC2EjPFPvjjE
 2383              		.global	_ZN10chibios_rt10MemoryPoolC1EjPFPvjjE
 2384              		.thumb_set _ZN10chibios_rt10MemoryPoolC1EjPFPvjjE,_ZN10chibios_rt10MemoryPoolC2EjPFPvjjE
 2385              		.section	.text._ZN10chibios_rt10MemoryPoolC2EjPFPvjjES1_j,"ax",%progbits
 2386              		.align	1
 2387              		.global	_ZN10chibios_rt10MemoryPoolC2EjPFPvjjES1_j
 2388              		.syntax unified
 2389              		.thumb
 2390              		.thumb_func
 2391              		.fpu fpv4-sp-d16
 2392              		.type	_ZN10chibios_rt10MemoryPoolC2EjPFPvjjES1_j, %function
 2393              	_ZN10chibios_rt10MemoryPoolC2EjPFPvjjES1_j:
 2394              		.fnstart
ARM GAS  C:\cygwin64\tmp\cc2miD45.s 			page 43


 2395              	.LFB387:
 2396              		.loc 1 562 0
 2397              		.cfi_startproc
 2398              		@ args = 4, pretend = 0, frame = 0
 2399              		@ frame_needed = 0, uses_anonymous_args = 0
 2400              	.LVL172:
 2401 0000 38B5     		push	{r3, r4, r5, lr}
 2402              		.save {r3, r4, r5, lr}
 2403              		.cfi_def_cfa_offset 16
 2404              		.cfi_offset 3, -16
 2405              		.cfi_offset 4, -12
 2406              		.cfi_offset 5, -8
 2407              		.cfi_offset 14, -4
 2408              		.loc 1 562 0
 2409 0002 0446     		mov	r4, r0
 2410 0004 1D46     		mov	r5, r3
 2411              	.LBB153:
 2412              		.loc 1 564 0
 2413 0006 FFF7FEFF 		bl	chPoolObjectInit
 2414              	.LVL173:
 2415              		.loc 1 565 0
 2416 000a 2046     		mov	r0, r4
 2417 000c 049A     		ldr	r2, [sp, #16]
 2418 000e 2946     		mov	r1, r5
 2419 0010 FFF7FEFF 		bl	chPoolLoadArray
 2420              	.LVL174:
 2421              	.LBE153:
 2422              		.loc 1 566 0
 2423 0014 2046     		mov	r0, r4
 2424 0016 38BD     		pop	{r3, r4, r5, pc}
 2425              		.cfi_endproc
 2426              	.LFE387:
 2427              		.fnend
 2428              		.size	_ZN10chibios_rt10MemoryPoolC2EjPFPvjjES1_j, .-_ZN10chibios_rt10MemoryPoolC2EjPFPvjjES1_j
 2429              		.global	_ZN10chibios_rt10MemoryPoolC1EjPFPvjjES1_j
 2430              		.thumb_set _ZN10chibios_rt10MemoryPoolC1EjPFPvjjES1_j,_ZN10chibios_rt10MemoryPoolC2EjPFPvjjES1_j
 2431              		.section	.text._ZN10chibios_rt10MemoryPool9loadArrayEPvj,"ax",%progbits
 2432              		.align	1
 2433              		.global	_ZN10chibios_rt10MemoryPool9loadArrayEPvj
 2434              		.syntax unified
 2435              		.thumb
 2436              		.thumb_func
 2437              		.fpu fpv4-sp-d16
 2438              		.type	_ZN10chibios_rt10MemoryPool9loadArrayEPvj, %function
 2439              	_ZN10chibios_rt10MemoryPool9loadArrayEPvj:
 2440              		.fnstart
 2441              	.LFB389:
 2442              		.loc 1 569 0
 2443              		.cfi_startproc
 2444              		@ args = 0, pretend = 0, frame = 0
 2445              		@ frame_needed = 0, uses_anonymous_args = 0
 2446              		@ link register save eliminated.
 2447              	.LVL175:
 2448              		.loc 1 571 0
 2449 0000 FFF7FEBF 		b	chPoolLoadArray
 2450              	.LVL176:
 2451              		.cfi_endproc
ARM GAS  C:\cygwin64\tmp\cc2miD45.s 			page 44


 2452              	.LFE389:
 2453              		.cantunwind
 2454              		.fnend
 2455              		.size	_ZN10chibios_rt10MemoryPool9loadArrayEPvj, .-_ZN10chibios_rt10MemoryPool9loadArrayEPvj
 2456              		.section	.text._ZN10chibios_rt10MemoryPool6allocIEv,"ax",%progbits
 2457              		.align	1
 2458              		.global	_ZN10chibios_rt10MemoryPool6allocIEv
 2459              		.syntax unified
 2460              		.thumb
 2461              		.thumb_func
 2462              		.fpu fpv4-sp-d16
 2463              		.type	_ZN10chibios_rt10MemoryPool6allocIEv, %function
 2464              	_ZN10chibios_rt10MemoryPool6allocIEv:
 2465              		.fnstart
 2466              	.LFB390:
 2467              		.loc 1 574 0
 2468              		.cfi_startproc
 2469              		@ args = 0, pretend = 0, frame = 0
 2470              		@ frame_needed = 0, uses_anonymous_args = 0
 2471              		@ link register save eliminated.
 2472              	.LVL177:
 2473              		.loc 1 576 0
 2474 0000 FFF7FEBF 		b	chPoolAllocI
 2475              	.LVL178:
 2476              		.cfi_endproc
 2477              	.LFE390:
 2478              		.cantunwind
 2479              		.fnend
 2480              		.size	_ZN10chibios_rt10MemoryPool6allocIEv, .-_ZN10chibios_rt10MemoryPool6allocIEv
 2481              		.section	.text._ZN10chibios_rt10MemoryPool5allocEv,"ax",%progbits
 2482              		.align	1
 2483              		.global	_ZN10chibios_rt10MemoryPool5allocEv
 2484              		.syntax unified
 2485              		.thumb
 2486              		.thumb_func
 2487              		.fpu fpv4-sp-d16
 2488              		.type	_ZN10chibios_rt10MemoryPool5allocEv, %function
 2489              	_ZN10chibios_rt10MemoryPool5allocEv:
 2490              		.fnstart
 2491              	.LFB391:
 2492              		.loc 1 579 0
 2493              		.cfi_startproc
 2494              		@ args = 0, pretend = 0, frame = 0
 2495              		@ frame_needed = 0, uses_anonymous_args = 0
 2496              		@ link register save eliminated.
 2497              	.LVL179:
 2498              		.loc 1 581 0
 2499 0000 FFF7FEBF 		b	chPoolAlloc
 2500              	.LVL180:
 2501              		.cfi_endproc
 2502              	.LFE391:
 2503              		.cantunwind
 2504              		.fnend
 2505              		.size	_ZN10chibios_rt10MemoryPool5allocEv, .-_ZN10chibios_rt10MemoryPool5allocEv
 2506              		.section	.text._ZN10chibios_rt10MemoryPool4freeEPv,"ax",%progbits
 2507              		.align	1
 2508              		.global	_ZN10chibios_rt10MemoryPool4freeEPv
ARM GAS  C:\cygwin64\tmp\cc2miD45.s 			page 45


 2509              		.syntax unified
 2510              		.thumb
 2511              		.thumb_func
 2512              		.fpu fpv4-sp-d16
 2513              		.type	_ZN10chibios_rt10MemoryPool4freeEPv, %function
 2514              	_ZN10chibios_rt10MemoryPool4freeEPv:
 2515              		.fnstart
 2516              	.LFB392:
 2517              		.loc 1 584 0
 2518              		.cfi_startproc
 2519              		@ args = 0, pretend = 0, frame = 0
 2520              		@ frame_needed = 0, uses_anonymous_args = 0
 2521              		@ link register save eliminated.
 2522              	.LVL181:
 2523              		.loc 1 586 0
 2524 0000 FFF7FEBF 		b	chPoolFree
 2525              	.LVL182:
 2526              		.cfi_endproc
 2527              	.LFE392:
 2528              		.cantunwind
 2529              		.fnend
 2530              		.size	_ZN10chibios_rt10MemoryPool4freeEPv, .-_ZN10chibios_rt10MemoryPool4freeEPv
 2531              		.section	.text._ZN10chibios_rt10MemoryPool5freeIEPv,"ax",%progbits
 2532              		.align	1
 2533              		.global	_ZN10chibios_rt10MemoryPool5freeIEPv
 2534              		.syntax unified
 2535              		.thumb
 2536              		.thumb_func
 2537              		.fpu fpv4-sp-d16
 2538              		.type	_ZN10chibios_rt10MemoryPool5freeIEPv, %function
 2539              	_ZN10chibios_rt10MemoryPool5freeIEPv:
 2540              		.fnstart
 2541              	.LFB393:
 2542              		.loc 1 589 0
 2543              		.cfi_startproc
 2544              		@ args = 0, pretend = 0, frame = 0
 2545              		@ frame_needed = 0, uses_anonymous_args = 0
 2546              		@ link register save eliminated.
 2547              	.LVL183:
 2548              		.loc 1 591 0
 2549 0000 FFF7FEBF 		b	chPoolFreeI
 2550              	.LVL184:
 2551              		.cfi_endproc
 2552              	.LFE393:
 2553              		.cantunwind
 2554              		.fnend
 2555              		.size	_ZN10chibios_rt10MemoryPool5freeIEPv, .-_ZN10chibios_rt10MemoryPool5freeIEPv
 2556              		.global	_ZTVN10chibios_rt15ThreadReferenceE
 2557              		.global	_ZTVN10chibios_rt10BaseThreadE
 2558              		.section	.rodata._ZN10chibios_rt15ThreadReference4stopEv.str1.1,"aMS",%progbits,1
 2559              	.LC0:
 2560 0000 696E766F 		.ascii	"invoked unimplemented method stop()\000"
 2560      6B656420 
 2560      756E696D 
 2560      706C656D 
 2560      656E7465 
 2561              		.section	.rodata._ZTVN10chibios_rt10BaseThreadE,"a",%progbits
ARM GAS  C:\cygwin64\tmp\cc2miD45.s 			page 46


 2562              		.align	2
 2563              		.set	.LANCHOR1,. + 0
 2564              		.type	_ZTVN10chibios_rt10BaseThreadE, %object
 2565              		.size	_ZTVN10chibios_rt10BaseThreadE, 20
 2566              	_ZTVN10chibios_rt10BaseThreadE:
 2567 0000 00000000 		.word	0
 2568 0004 00000000 		.word	0
 2569 0008 00000000 		.word	_ZN10chibios_rt15ThreadReference4stopEv
 2570 000c 00000000 		.word	_ZN10chibios_rt10BaseThread4mainEv
 2571 0010 00000000 		.word	_ZN10chibios_rt10BaseThread5startEm
 2572              		.section	.rodata._ZTVN10chibios_rt15ThreadReferenceE,"a",%progbits
 2573              		.align	2
 2574              		.set	.LANCHOR0,. + 0
 2575              		.type	_ZTVN10chibios_rt15ThreadReferenceE, %object
 2576              		.size	_ZTVN10chibios_rt15ThreadReferenceE, 12
 2577              	_ZTVN10chibios_rt15ThreadReferenceE:
 2578 0000 00000000 		.word	0
 2579 0004 00000000 		.word	0
 2580 0008 00000000 		.word	_ZN10chibios_rt15ThreadReference4stopEv
 2581              		.text
 2582              	.Letext0:
 2583              		.file 10 "c:\\program files (x86)\\gnu tools arm embedded\\6 2017-q2-update\\lib\\gcc\\arm-none-ea
 2584              		.file 11 "c:\\program files (x86)\\gnu tools arm embedded\\6 2017-q2-update\\arm-none-eabi\\includ
 2585              		.file 12 "c:\\program files (x86)\\gnu tools arm embedded\\6 2017-q2-update\\arm-none-eabi\\includ
 2586              		.file 13 "../../modules/ChibiOS/os/common/ports/ARMCMx/compilers/GCC/chtypes.h"
 2587              		.file 14 "../../modules/ChibiOS/os/rt/include/chsystypes.h"
 2588              		.file 15 "../../modules/ChibiOS/os/rt/include/chschd.h"
 2589              		.file 16 "../../modules/ChibiOS/os/common/ext/CMSIS/include/core_cm4.h"
 2590              		.file 17 "../../modules/ChibiOS/os/common/ext/CMSIS/ST/STM32F4xx/system_stm32f4xx.h"
 2591              		.file 18 "../../modules/ChibiOS/os/common/ports/ARMCMx/chcore.h"
 2592              		.file 19 "../../modules/ChibiOS/os/common/ports/ARMCMx/chcore_v7m.h"
 2593              		.file 20 "../../modules/ChibiOS/os/rt/include/chtm.h"
 2594              		.file 21 "../../modules/ChibiOS/os/rt/include/chstats.h"
 2595              		.file 22 "../../modules/ChibiOS/os/rt/include/chsem.h"
 2596              		.file 23 "../../modules/ChibiOS/os/rt/include/chmtx.h"
 2597              		.file 24 "../../modules/ChibiOS/os/rt/include/chcond.h"
 2598              		.file 25 "../../modules/ChibiOS/os/common/oslib/include/chmemcore.h"
 2599              		.file 26 "../../modules/ChibiOS/os/common/oslib/include/chmempools.h"