ARM GAS  C:\cygwin64\tmp\cca3jAnU.s 			page 1


   1              		.cpu cortex-m4
   2              		.eabi_attribute 27, 1
   3              		.eabi_attribute 28, 1
   4              		.eabi_attribute 20, 1
   5              		.eabi_attribute 21, 1
   6              		.eabi_attribute 23, 3
   7              		.eabi_attribute 24, 1
   8              		.eabi_attribute 25, 1
   9              		.eabi_attribute 26, 1
  10              		.eabi_attribute 30, 4
  11              		.eabi_attribute 34, 1
  12              		.eabi_attribute 18, 4
  13              		.file	"chcore_v7m.c"
  14              		.text
  15              	.Ltext0:
  16              		.cfi_sections	.debug_frame
  17              		.section	.text.SVC_Handler,"ax",%progbits
  18              		.align	1
  19              		.global	SVC_Handler
  20              		.syntax unified
  21              		.thumb
  22              		.thumb_func
  23              		.fpu fpv4-sp-d16
  24              		.type	SVC_Handler, %function
  25              	SVC_Handler:
  26              	.LFB246:
  27              		.file 1 "../../modules/ChibiOS/os/common/ports/ARMCMx/chcore_v7m.c"
  28              		.loc 1 62 0
  29              		.cfi_startproc
  30              		@ args = 0, pretend = 0, frame = 0
  31              		@ frame_needed = 1, uses_anonymous_args = 0
  32 0000 80B5     		push	{r7, lr}
  33              		.cfi_def_cfa_offset 8
  34              		.cfi_offset 7, -8
  35              		.cfi_offset 14, -4
  36              		.loc 1 68 0
  37 0002 074A     		ldr	r2, .L2
  38 0004 5368     		ldr	r3, [r2, #4]
  39 0006 23F00103 		bic	r3, r3, #1
  40              		.loc 1 62 0
  41 000a 00AF     		add	r7, sp, #0
  42              		.cfi_def_cfa_register 7
  43              		.loc 1 68 0
  44 000c 5360     		str	r3, [r2, #4]
  45              	.LBB51:
  46              	.LBB52:
  47              		.file 2 "../../modules/ChibiOS/os/common/ext/CMSIS/include/cmsis_gcc.h"
  48              		.loc 2 152 0
  49              		.syntax unified
  50              	@ 152 "../../modules/ChibiOS/os/common/ext/CMSIS/include/cmsis_gcc.h" 1
  51 000e EFF30983 		MRS r3, psp
  52              	
  53              	@ 0 "" 2
  54              	.LVL0:
  55              		.thumb
  56              		.syntax unified
  57              	.LBE52:
ARM GAS  C:\cygwin64\tmp\cca3jAnU.s 			page 2


  58              	.LBE51:
  59              		.loc 1 76 0
  60 0012 6833     		adds	r3, r3, #104
  61              	.LVL1:
  62              	.LBB53:
  63              	.LBB54:
  64              		.loc 2 164 0
  65              		.syntax unified
  66              	@ 164 "../../modules/ChibiOS/os/common/ext/CMSIS/include/cmsis_gcc.h" 1
  67 0014 83F30988 		MSR psp, r3
  68              	
  69              	@ 0 "" 2
  70              	.LVL2:
  71              		.thumb
  72              		.syntax unified
  73              	.LBE54:
  74              	.LBE53:
  75              	.LBB55:
  76              	.LBB56:
  77              	.LBB57:
  78              	.LBB58:
  79              		.loc 2 264 0
  80 0018 0023     		movs	r3, #0
  81              	.LVL3:
  82              		.syntax unified
  83              	@ 264 "../../modules/ChibiOS/os/common/ext/CMSIS/include/cmsis_gcc.h" 1
  84 001a 83F31188 		MSR basepri, r3
  85              	@ 0 "" 2
  86              	.LVL4:
  87              		.thumb
  88              		.syntax unified
  89 001e 80BD     		pop	{r7, pc}
  90              	.L3:
  91              		.align	2
  92              	.L2:
  93 0020 30EF00E0 		.word	-536809680
  94              	.LBE58:
  95              	.LBE57:
  96              	.LBE56:
  97              	.LBE55:
  98              		.cfi_endproc
  99              	.LFE246:
 100              		.size	SVC_Handler, .-SVC_Handler
 101              		.section	.text._port_irq_epilogue,"ax",%progbits
 102              		.align	1
 103              		.global	_port_irq_epilogue
 104              		.syntax unified
 105              		.thumb
 106              		.thumb_func
 107              		.fpu fpv4-sp-d16
 108              		.type	_port_irq_epilogue, %function
 109              	_port_irq_epilogue:
 110              	.LFB247:
 111              		.loc 1 122 0
 112              		.cfi_startproc
 113              		@ args = 0, pretend = 0, frame = 0
 114              		@ frame_needed = 1, uses_anonymous_args = 0
ARM GAS  C:\cygwin64\tmp\cca3jAnU.s 			page 3


 115              	.LVL5:
 116 0000 98B5     		push	{r3, r4, r7, lr}
 117              		.cfi_def_cfa_offset 16
 118              		.cfi_offset 3, -16
 119              		.cfi_offset 4, -12
 120              		.cfi_offset 7, -8
 121              		.cfi_offset 14, -4
 122              	.LBB59:
 123              	.LBB60:
 124              	.LBB61:
 125              	.LBB62:
 126              		.loc 2 264 0
 127 0002 2023     		movs	r3, #32
 128              	.LBE62:
 129              	.LBE61:
 130              	.LBE60:
 131              	.LBE59:
 132              		.loc 1 122 0
 133 0004 00AF     		add	r7, sp, #0
 134              		.cfi_def_cfa_register 7
 135              	.LBB66:
 136              	.LBB65:
 137              	.LBB64:
 138              	.LBB63:
 139              		.loc 2 264 0
 140              		.syntax unified
 141              	@ 264 "../../modules/ChibiOS/os/common/ext/CMSIS/include/cmsis_gcc.h" 1
 142 0006 83F31188 		MSR basepri, r3
 143              	@ 0 "" 2
 144              	.LVL6:
 145              		.thumb
 146              		.syntax unified
 147              	.LBE63:
 148              	.LBE64:
 149              	.LBE65:
 150              	.LBE66:
 151              		.loc 1 125 0
 152 000a 104B     		ldr	r3, .L9
 153 000c 5B68     		ldr	r3, [r3, #4]
 154 000e 13F40063 		ands	r3, r3, #2048
 155 0012 18D0     		beq	.L5
 156              	.LBB67:
 157              	.LBB68:
 158              	.LBB69:
 159              		.loc 2 320 0
 160              		.loc 2 321 0
 161              		.syntax unified
 162              	@ 321 "../../modules/ChibiOS/os/common/ext/CMSIS/include/cmsis_gcc.h" 1
 163 0014 F1EE103A 		VMRS r3, fpscr
 164              	@ 0 "" 2
 165              	.LVL7:
 166              		.loc 2 322 0
 167              		.thumb
 168              		.syntax unified
 169              	.LBE69:
 170              	.LBE68:
 171              	.LBB70:
ARM GAS  C:\cygwin64\tmp\cca3jAnU.s 			page 4


 172              	.LBB71:
 173              		.loc 2 152 0
 174              		.syntax unified
 175              	@ 152 "../../modules/ChibiOS/os/common/ext/CMSIS/include/cmsis_gcc.h" 1
 176 0018 EFF30984 		MRS r4, psp
 177              	
 178              	@ 0 "" 2
 179              	.LVL8:
 180              		.thumb
 181              		.syntax unified
 182              	.LBE71:
 183              	.LBE70:
 184              		.loc 1 141 0
 185 001c 4FF08073 		mov	r3, #16777216
 186 0020 44F84C3C 		str	r3, [r4, #-76]
 187              		.loc 1 143 0
 188 0024 0A4B     		ldr	r3, .L9+4
 189 0026 DB68     		ldr	r3, [r3, #12]
 190 0028 44F8083C 		str	r3, [r4, #-8]
 191              	.LVL9:
 192              		.loc 1 138 0
 193 002c A4F16803 		sub	r3, r4, #104
 194              	.LVL10:
 195              	.LBB72:
 196              	.LBB73:
 197              		.loc 2 164 0
 198              		.syntax unified
 199              	@ 164 "../../modules/ChibiOS/os/common/ext/CMSIS/include/cmsis_gcc.h" 1
 200 0030 83F30988 		MSR psp, r3
 201              	
 202              	@ 0 "" 2
 203              	.LVL11:
 204              		.thumb
 205              		.syntax unified
 206              	.LBE73:
 207              	.LBE72:
 208              		.loc 1 151 0
 209 0034 FFF7FEFF 		bl	chSchIsPreemptionRequired
 210              	.LVL12:
 211 0038 18B1     		cbz	r0, .L6
 212              		.loc 1 153 0
 213 003a 064B     		ldr	r3, .L9+8
 214              	.L8:
 215              		.loc 1 158 0
 216 003c 44F8503C 		str	r3, [r4, #-80]
 217 0040 98BD     		pop	{r3, r4, r7, pc}
 218              	.LVL13:
 219              	.L6:
 220 0042 054B     		ldr	r3, .L9+12
 221 0044 FAE7     		b	.L8
 222              	.LVL14:
 223              	.L5:
 224              	.LBE67:
 225              	.LBB74:
 226              	.LBB75:
 227              	.LBB76:
 228              	.LBB77:
ARM GAS  C:\cygwin64\tmp\cca3jAnU.s 			page 5


 229              		.loc 2 264 0
 230              		.syntax unified
 231              	@ 264 "../../modules/ChibiOS/os/common/ext/CMSIS/include/cmsis_gcc.h" 1
 232 0046 83F31188 		MSR basepri, r3
 233              	@ 0 "" 2
 234              	.LVL15:
 235              		.thumb
 236              		.syntax unified
 237 004a 98BD     		pop	{r3, r4, r7, pc}
 238              	.L10:
 239              		.align	2
 240              	.L9:
 241 004c 00ED00E0 		.word	-536810240
 242 0050 30EF00E0 		.word	-536809680
 243 0054 00000000 		.word	_port_switch_from_isr
 244 0058 00000000 		.word	_port_exit_from_isr
 245              	.LBE77:
 246              	.LBE76:
 247              	.LBE75:
 248              	.LBE74:
 249              		.cfi_endproc
 250              	.LFE247:
 251              		.size	_port_irq_epilogue, .-_port_irq_epilogue
 252              		.text
 253              	.Letext0:
 254              		.file 3 "c:\\program files (x86)\\gnu tools arm embedded\\6 2017-q2-update\\arm-none-eabi\\include
 255              		.file 4 "c:\\program files (x86)\\gnu tools arm embedded\\6 2017-q2-update\\arm-none-eabi\\include
 256              		.file 5 "../../modules/ChibiOS/os/common/ports/ARMCMx/compilers/GCC/chtypes.h"
 257              		.file 6 "../../modules/ChibiOS/os/rt/include/chsystypes.h"
 258              		.file 7 "../../modules/ChibiOS/os/rt/include/chschd.h"
 259              		.file 8 "../../modules/ChibiOS/os/common/ext/CMSIS/include/core_cm4.h"
 260              		.file 9 "../../modules/ChibiOS/os/common/ext/CMSIS/ST/STM32F4xx/system_stm32f4xx.h"
 261              		.file 10 "../../modules/ChibiOS/os/common/ports/ARMCMx/chcore.h"
 262              		.file 11 "../../modules/ChibiOS/os/common/ports/ARMCMx/chcore_v7m.h"
 263              		.file 12 "../../modules/ChibiOS/os/rt/include/chtm.h"
 264              		.file 13 "../../modules/ChibiOS/os/rt/include/chstats.h"
 265              		.file 14 "../../modules/ChibiOS/os/rt/include/chsem.h"
 266              		.file 15 "../../modules/ChibiOS/os/rt/include/chmtx.h"
 267              		.file 16 "../../modules/ChibiOS/os/rt/include/chsys.h"
 268              		.file 17 "../../modules/ChibiOS/os/rt/include/chregistry.h"
 269              		.section	.debug_info,"",%progbits
 270              	.Ldebug_info0:
 271 0000 BB0E0000 		.4byte	0xebb
 272 0004 0400     		.2byte	0x4
 273 0006 00000000 		.4byte	.Ldebug_abbrev0
 274 000a 04       		.byte	0x4
 275 000b 01       		.uleb128 0x1
 276 000c 18010000 		.4byte	.LASF171
 277 0010 0C       		.byte	0xc
 278 0011 7A070000 		.4byte	.LASF172
 279 0015 76040000 		.4byte	.LASF173
 280 0019 18000000 		.4byte	.Ldebug_ranges0+0x18
 281 001d 00000000 		.4byte	0
 282 0021 00000000 		.4byte	.Ldebug_line0
 283 0025 02       		.uleb128 0x2
 284 0026 04       		.byte	0x4
 285 0027 05       		.byte	0x5
ARM GAS  C:\cygwin64\tmp\cca3jAnU.s 			page 6


 286 0028 696E7400 		.ascii	"int\000"
 287 002c 03       		.uleb128 0x3
 288 002d 04       		.byte	0x4
 289 002e 07       		.byte	0x7
 290 002f 08030000 		.4byte	.LASF0
 291 0033 03       		.uleb128 0x3
 292 0034 08       		.byte	0x8
 293 0035 05       		.byte	0x5
 294 0036 E5020000 		.4byte	.LASF1
 295 003a 03       		.uleb128 0x3
 296 003b 08       		.byte	0x8
 297 003c 04       		.byte	0x4
 298 003d B7060000 		.4byte	.LASF2
 299 0041 03       		.uleb128 0x3
 300 0042 01       		.byte	0x1
 301 0043 06       		.byte	0x6
 302 0044 3D000000 		.4byte	.LASF3
 303 0048 04       		.uleb128 0x4
 304 0049 49000000 		.4byte	.LASF6
 305 004d 03       		.byte	0x3
 306 004e 2B       		.byte	0x2b
 307 004f 53000000 		.4byte	0x53
 308 0053 03       		.uleb128 0x3
 309 0054 01       		.byte	0x1
 310 0055 08       		.byte	0x8
 311 0056 74050000 		.4byte	.LASF4
 312 005a 03       		.uleb128 0x3
 313 005b 02       		.byte	0x2
 314 005c 05       		.byte	0x5
 315 005d B0050000 		.4byte	.LASF5
 316 0061 04       		.uleb128 0x4
 317 0062 89060000 		.4byte	.LASF7
 318 0066 03       		.byte	0x3
 319 0067 39       		.byte	0x39
 320 0068 6C000000 		.4byte	0x6c
 321 006c 03       		.uleb128 0x3
 322 006d 02       		.byte	0x2
 323 006e 07       		.byte	0x7
 324 006f FF060000 		.4byte	.LASF8
 325 0073 04       		.uleb128 0x4
 326 0074 11040000 		.4byte	.LASF9
 327 0078 03       		.byte	0x3
 328 0079 4D       		.byte	0x4d
 329 007a 7E000000 		.4byte	0x7e
 330 007e 03       		.uleb128 0x3
 331 007f 04       		.byte	0x4
 332 0080 05       		.byte	0x5
 333 0081 55020000 		.4byte	.LASF10
 334 0085 04       		.uleb128 0x4
 335 0086 AB020000 		.4byte	.LASF11
 336 008a 03       		.byte	0x3
 337 008b 4F       		.byte	0x4f
 338 008c 90000000 		.4byte	0x90
 339 0090 03       		.uleb128 0x3
 340 0091 04       		.byte	0x4
 341 0092 07       		.byte	0x7
 342 0093 65060000 		.4byte	.LASF12
ARM GAS  C:\cygwin64\tmp\cca3jAnU.s 			page 7


 343 0097 04       		.uleb128 0x4
 344 0098 F5040000 		.4byte	.LASF13
 345 009c 03       		.byte	0x3
 346 009d 69       		.byte	0x69
 347 009e A2000000 		.4byte	0xa2
 348 00a2 03       		.uleb128 0x3
 349 00a3 08       		.byte	0x8
 350 00a4 07       		.byte	0x7
 351 00a5 01010000 		.4byte	.LASF14
 352 00a9 04       		.uleb128 0x4
 353 00aa B4070000 		.4byte	.LASF15
 354 00ae 04       		.byte	0x4
 355 00af 18       		.byte	0x18
 356 00b0 48000000 		.4byte	0x48
 357 00b4 05       		.uleb128 0x5
 358 00b5 A9000000 		.4byte	0xa9
 359 00b9 04       		.uleb128 0x4
 360 00ba 1F030000 		.4byte	.LASF16
 361 00be 04       		.byte	0x4
 362 00bf 24       		.byte	0x24
 363 00c0 61000000 		.4byte	0x61
 364 00c4 04       		.uleb128 0x4
 365 00c5 6C050000 		.4byte	.LASF17
 366 00c9 04       		.byte	0x4
 367 00ca 2C       		.byte	0x2c
 368 00cb 73000000 		.4byte	0x73
 369 00cf 05       		.uleb128 0x5
 370 00d0 C4000000 		.4byte	0xc4
 371 00d4 04       		.uleb128 0x4
 372 00d5 3A060000 		.4byte	.LASF18
 373 00d9 04       		.byte	0x4
 374 00da 30       		.byte	0x30
 375 00db 85000000 		.4byte	0x85
 376 00df 05       		.uleb128 0x5
 377 00e0 D4000000 		.4byte	0xd4
 378 00e4 06       		.uleb128 0x6
 379 00e5 DF000000 		.4byte	0xdf
 380 00e9 04       		.uleb128 0x4
 381 00ea 27000000 		.4byte	.LASF19
 382 00ee 04       		.byte	0x4
 383 00ef 3C       		.byte	0x3c
 384 00f0 97000000 		.4byte	0x97
 385 00f4 04       		.uleb128 0x4
 386 00f5 29070000 		.4byte	.LASF20
 387 00f9 05       		.byte	0x5
 388 00fa 39       		.byte	0x39
 389 00fb D4000000 		.4byte	0xd4
 390 00ff 04       		.uleb128 0x4
 391 0100 F3000000 		.4byte	.LASF21
 392 0104 05       		.byte	0x5
 393 0105 3A       		.byte	0x3a
 394 0106 E9000000 		.4byte	0xe9
 395 010a 04       		.uleb128 0x4
 396 010b CC030000 		.4byte	.LASF22
 397 010f 05       		.byte	0x5
 398 0110 3C       		.byte	0x3c
 399 0111 A9000000 		.4byte	0xa9
ARM GAS  C:\cygwin64\tmp\cca3jAnU.s 			page 8


 400 0115 04       		.uleb128 0x4
 401 0116 5E020000 		.4byte	.LASF23
 402 011a 05       		.byte	0x5
 403 011b 3D       		.byte	0x3d
 404 011c A9000000 		.4byte	0xa9
 405 0120 04       		.uleb128 0x4
 406 0121 17050000 		.4byte	.LASF24
 407 0125 05       		.byte	0x5
 408 0126 3E       		.byte	0x3e
 409 0127 A9000000 		.4byte	0xa9
 410 012b 04       		.uleb128 0x4
 411 012c 49050000 		.4byte	.LASF25
 412 0130 05       		.byte	0x5
 413 0131 40       		.byte	0x40
 414 0132 D4000000 		.4byte	0xd4
 415 0136 04       		.uleb128 0x4
 416 0137 8A030000 		.4byte	.LASF26
 417 013b 05       		.byte	0x5
 418 013c 41       		.byte	0x41
 419 013d C4000000 		.4byte	0xc4
 420 0141 04       		.uleb128 0x4
 421 0142 ED030000 		.4byte	.LASF27
 422 0146 05       		.byte	0x5
 423 0147 43       		.byte	0x43
 424 0148 D4000000 		.4byte	0xd4
 425 014c 04       		.uleb128 0x4
 426 014d F9020000 		.4byte	.LASF28
 427 0151 05       		.byte	0x5
 428 0152 45       		.byte	0x45
 429 0153 C4000000 		.4byte	0xc4
 430 0157 04       		.uleb128 0x4
 431 0158 9B030000 		.4byte	.LASF29
 432 015c 05       		.byte	0x5
 433 015d 46       		.byte	0x46
 434 015e D4000000 		.4byte	0xd4
 435 0162 04       		.uleb128 0x4
 436 0163 C3060000 		.4byte	.LASF30
 437 0167 06       		.byte	0x6
 438 0168 33       		.byte	0x33
 439 0169 D4000000 		.4byte	0xd4
 440 016d 04       		.uleb128 0x4
 441 016e A9060000 		.4byte	.LASF31
 442 0172 06       		.byte	0x6
 443 0173 3F       		.byte	0x3f
 444 0174 78010000 		.4byte	0x178
 445 0178 07       		.uleb128 0x7
 446 0179 76030000 		.4byte	.LASF50
 447 017d 60       		.byte	0x60
 448 017e 07       		.byte	0x7
 449 017f 9A       		.byte	0x9a
 450 0180 63020000 		.4byte	0x263
 451 0184 08       		.uleb128 0x8
 452 0185 A4040000 		.4byte	.LASF32
 453 0189 07       		.byte	0x7
 454 018a 9B       		.byte	0x9b
 455 018b 98020000 		.4byte	0x298
 456 018f 00       		.byte	0
ARM GAS  C:\cygwin64\tmp\cca3jAnU.s 			page 9


 457 0190 08       		.uleb128 0x8
 458 0191 E3040000 		.4byte	.LASF33
 459 0195 07       		.byte	0x7
 460 0196 9C       		.byte	0x9c
 461 0197 2B010000 		.4byte	0x12b
 462 019b 08       		.byte	0x8
 463 019c 09       		.uleb128 0x9
 464 019d 63747800 		.ascii	"ctx\000"
 465 01a1 07       		.byte	0x7
 466 01a2 9D       		.byte	0x9d
 467 01a3 C2060000 		.4byte	0x6c2
 468 01a7 0C       		.byte	0xc
 469 01a8 08       		.uleb128 0x8
 470 01a9 26040000 		.4byte	.LASF34
 471 01ad 07       		.byte	0x7
 472 01ae 9F       		.byte	0x9f
 473 01af 6E020000 		.4byte	0x26e
 474 01b3 10       		.byte	0x10
 475 01b4 08       		.uleb128 0x8
 476 01b5 83060000 		.4byte	.LASF35
 477 01b9 07       		.byte	0x7
 478 01ba A0       		.byte	0xa0
 479 01bb 6E020000 		.4byte	0x26e
 480 01bf 14       		.byte	0x14
 481 01c0 08       		.uleb128 0x8
 482 01c1 71030000 		.4byte	.LASF36
 483 01c5 07       		.byte	0x7
 484 01c6 A7       		.byte	0xa7
 485 01c7 FA0A0000 		.4byte	0xafa
 486 01cb 18       		.byte	0x18
 487 01cc 08       		.uleb128 0x8
 488 01cd 77060000 		.4byte	.LASF37
 489 01d1 07       		.byte	0x7
 490 01d2 B0       		.byte	0xb0
 491 01d3 110B0000 		.4byte	0xb11
 492 01d7 1C       		.byte	0x1c
 493 01d8 08       		.uleb128 0x8
 494 01d9 4F020000 		.4byte	.LASF38
 495 01dd 07       		.byte	0x7
 496 01de B5       		.byte	0xb5
 497 01df 15010000 		.4byte	0x115
 498 01e3 20       		.byte	0x20
 499 01e4 08       		.uleb128 0x8
 500 01e5 BC070000 		.4byte	.LASF39
 501 01e9 07       		.byte	0x7
 502 01ea B9       		.byte	0xb9
 503 01eb 0A010000 		.4byte	0x10a
 504 01ef 21       		.byte	0x21
 505 01f0 08       		.uleb128 0x8
 506 01f1 AB050000 		.4byte	.LASF40
 507 01f5 07       		.byte	0x7
 508 01f6 BE       		.byte	0xbe
 509 01f7 20010000 		.4byte	0x120
 510 01fb 22       		.byte	0x22
 511 01fc 0A       		.uleb128 0xa
 512 01fd 7500     		.ascii	"u\000"
 513 01ff 07       		.byte	0x7
ARM GAS  C:\cygwin64\tmp\cca3jAnU.s 			page 10


 514 0200 0F01     		.2byte	0x10f
 515 0202 2F0A0000 		.4byte	0xa2f
 516 0206 24       		.byte	0x24
 517 0207 0B       		.uleb128 0xb
 518 0208 D8020000 		.4byte	.LASF41
 519 020c 07       		.byte	0x7
 520 020d 1401     		.2byte	0x114
 521 020f 74020000 		.4byte	0x274
 522 0213 28       		.byte	0x28
 523 0214 0B       		.uleb128 0xb
 524 0215 46020000 		.4byte	.LASF42
 525 0219 07       		.byte	0x7
 526 021a 1A01     		.2byte	0x11a
 527 021c 98020000 		.4byte	0x298
 528 0220 2C       		.byte	0x2c
 529 0221 0B       		.uleb128 0xb
 530 0222 A2030000 		.4byte	.LASF43
 531 0226 07       		.byte	0x7
 532 0227 2001     		.2byte	0x120
 533 0229 41010000 		.4byte	0x141
 534 022d 34       		.byte	0x34
 535 022e 0B       		.uleb128 0xb
 536 022f E8070000 		.4byte	.LASF44
 537 0233 07       		.byte	0x7
 538 0234 2701     		.2byte	0x127
 539 0236 F40A0000 		.4byte	0xaf4
 540 023a 38       		.byte	0x38
 541 023b 0B       		.uleb128 0xb
 542 023c 2C040000 		.4byte	.LASF45
 543 0240 07       		.byte	0x7
 544 0241 2B01     		.2byte	0x12b
 545 0243 2B010000 		.4byte	0x12b
 546 0247 3C       		.byte	0x3c
 547 0248 0B       		.uleb128 0xb
 548 0249 53030000 		.4byte	.LASF46
 549 024d 07       		.byte	0x7
 550 024e 3201     		.2byte	0x132
 551 0250 4B030000 		.4byte	0x34b
 552 0254 40       		.byte	0x40
 553 0255 0B       		.uleb128 0xb
 554 0256 6C020000 		.4byte	.LASF47
 555 025a 07       		.byte	0x7
 556 025b 3801     		.2byte	0x138
 557 025d E0090000 		.4byte	0x9e0
 558 0261 48       		.byte	0x48
 559 0262 00       		.byte	0
 560 0263 04       		.uleb128 0x4
 561 0264 4C040000 		.4byte	.LASF48
 562 0268 06       		.byte	0x6
 563 0269 44       		.byte	0x44
 564 026a 6E020000 		.4byte	0x26e
 565 026e 0C       		.uleb128 0xc
 566 026f 04       		.byte	0x4
 567 0270 6D010000 		.4byte	0x16d
 568 0274 04       		.uleb128 0x4
 569 0275 84000000 		.4byte	.LASF49
 570 0279 06       		.byte	0x6
ARM GAS  C:\cygwin64\tmp\cca3jAnU.s 			page 11


 571 027a 49       		.byte	0x49
 572 027b 7F020000 		.4byte	0x27f
 573 027f 07       		.uleb128 0x7
 574 0280 4F060000 		.4byte	.LASF51
 575 0284 04       		.byte	0x4
 576 0285 07       		.byte	0x7
 577 0286 88       		.byte	0x88
 578 0287 98020000 		.4byte	0x298
 579 028b 08       		.uleb128 0x8
 580 028c EE000000 		.4byte	.LASF52
 581 0290 07       		.byte	0x7
 582 0291 89       		.byte	0x89
 583 0292 6E020000 		.4byte	0x26e
 584 0296 00       		.byte	0
 585 0297 00       		.byte	0
 586 0298 04       		.uleb128 0x4
 587 0299 56070000 		.4byte	.LASF53
 588 029d 06       		.byte	0x6
 589 029e 50       		.byte	0x50
 590 029f A3020000 		.4byte	0x2a3
 591 02a3 07       		.uleb128 0x7
 592 02a4 64000000 		.4byte	.LASF54
 593 02a8 08       		.byte	0x8
 594 02a9 07       		.byte	0x7
 595 02aa 8F       		.byte	0x8f
 596 02ab C8020000 		.4byte	0x2c8
 597 02af 08       		.uleb128 0x8
 598 02b0 EE000000 		.4byte	.LASF52
 599 02b4 07       		.byte	0x7
 600 02b5 90       		.byte	0x90
 601 02b6 6E020000 		.4byte	0x26e
 602 02ba 00       		.byte	0
 603 02bb 08       		.uleb128 0x8
 604 02bc 53000000 		.4byte	.LASF55
 605 02c0 07       		.byte	0x7
 606 02c1 91       		.byte	0x91
 607 02c2 6E020000 		.4byte	0x26e
 608 02c6 04       		.byte	0x4
 609 02c7 00       		.byte	0
 610 02c8 04       		.uleb128 0x4
 611 02c9 00000000 		.4byte	.LASF56
 612 02cd 06       		.byte	0x6
 613 02ce 57       		.byte	0x57
 614 02cf D3020000 		.4byte	0x2d3
 615 02d3 0D       		.uleb128 0xd
 616 02d4 DF030000 		.4byte	.LASF57
 617 02d8 1C       		.byte	0x1c
 618 02d9 07       		.byte	0x7
 619 02da 6A01     		.2byte	0x16a
 620 02dc 2F030000 		.4byte	0x32f
 621 02e0 0B       		.uleb128 0xb
 622 02e1 A4040000 		.4byte	.LASF32
 623 02e5 07       		.byte	0x7
 624 02e6 6B01     		.2byte	0x16b
 625 02e8 98020000 		.4byte	0x298
 626 02ec 00       		.byte	0
 627 02ed 0B       		.uleb128 0xb
ARM GAS  C:\cygwin64\tmp\cca3jAnU.s 			page 12


 628 02ee E3040000 		.4byte	.LASF33
 629 02f2 07       		.byte	0x7
 630 02f3 6C01     		.2byte	0x16c
 631 02f5 2B010000 		.4byte	0x12b
 632 02f9 08       		.byte	0x8
 633 02fa 0A       		.uleb128 0xa
 634 02fb 63747800 		.ascii	"ctx\000"
 635 02ff 07       		.byte	0x7
 636 0300 6E01     		.2byte	0x16e
 637 0302 C2060000 		.4byte	0x6c2
 638 0306 0C       		.byte	0xc
 639 0307 0B       		.uleb128 0xb
 640 0308 26040000 		.4byte	.LASF34
 641 030c 07       		.byte	0x7
 642 030d 7101     		.2byte	0x171
 643 030f 6E020000 		.4byte	0x26e
 644 0313 10       		.byte	0x10
 645 0314 0B       		.uleb128 0xb
 646 0315 83060000 		.4byte	.LASF35
 647 0319 07       		.byte	0x7
 648 031a 7201     		.2byte	0x172
 649 031c 6E020000 		.4byte	0x26e
 650 0320 14       		.byte	0x14
 651 0321 0B       		.uleb128 0xb
 652 0322 E8040000 		.4byte	.LASF58
 653 0326 07       		.byte	0x7
 654 0327 7501     		.2byte	0x175
 655 0329 6E020000 		.4byte	0x26e
 656 032d 18       		.byte	0x18
 657 032e 00       		.byte	0
 658 032f 04       		.uleb128 0x4
 659 0330 CD060000 		.4byte	.LASF59
 660 0334 06       		.byte	0x6
 661 0335 5C       		.byte	0x5c
 662 0336 3A030000 		.4byte	0x33a
 663 033a 0C       		.uleb128 0xc
 664 033b 04       		.byte	0x4
 665 033c 40030000 		.4byte	0x340
 666 0340 0E       		.uleb128 0xe
 667 0341 4B030000 		.4byte	0x34b
 668 0345 0F       		.uleb128 0xf
 669 0346 4B030000 		.4byte	0x34b
 670 034a 00       		.byte	0
 671 034b 10       		.uleb128 0x10
 672 034c 04       		.byte	0x4
 673 034d 04       		.uleb128 0x4
 674 034e 39050000 		.4byte	.LASF60
 675 0352 06       		.byte	0x6
 676 0353 61       		.byte	0x61
 677 0354 58030000 		.4byte	0x358
 678 0358 0D       		.uleb128 0xd
 679 0359 F8050000 		.4byte	.LASF61
 680 035d 14       		.byte	0x14
 681 035e 07       		.byte	0x7
 682 035f 4501     		.2byte	0x145
 683 0361 A7030000 		.4byte	0x3a7
 684 0365 0B       		.uleb128 0xb
ARM GAS  C:\cygwin64\tmp\cca3jAnU.s 			page 13


 685 0366 EE000000 		.4byte	.LASF52
 686 036a 07       		.byte	0x7
 687 036b 4601     		.2byte	0x146
 688 036d 170B0000 		.4byte	0xb17
 689 0371 00       		.byte	0
 690 0372 0B       		.uleb128 0xb
 691 0373 53000000 		.4byte	.LASF55
 692 0377 07       		.byte	0x7
 693 0378 4701     		.2byte	0x147
 694 037a 170B0000 		.4byte	0xb17
 695 037e 04       		.byte	0x4
 696 037f 0B       		.uleb128 0xb
 697 0380 13000000 		.4byte	.LASF62
 698 0384 07       		.byte	0x7
 699 0385 4801     		.2byte	0x148
 700 0387 62010000 		.4byte	0x162
 701 038b 08       		.byte	0x8
 702 038c 0B       		.uleb128 0xb
 703 038d 67020000 		.4byte	.LASF63
 704 0391 07       		.byte	0x7
 705 0392 4901     		.2byte	0x149
 706 0394 2F030000 		.4byte	0x32f
 707 0398 0C       		.byte	0xc
 708 0399 0A       		.uleb128 0xa
 709 039a 70617200 		.ascii	"par\000"
 710 039e 07       		.byte	0x7
 711 039f 4B01     		.2byte	0x14b
 712 03a1 4B030000 		.4byte	0x34b
 713 03a5 10       		.byte	0x10
 714 03a6 00       		.byte	0
 715 03a7 04       		.uleb128 0x4
 716 03a8 D2000000 		.4byte	.LASF64
 717 03ac 06       		.byte	0x6
 718 03ad 66       		.byte	0x66
 719 03ae B2030000 		.4byte	0x3b2
 720 03b2 0D       		.uleb128 0xd
 721 03b3 5F040000 		.4byte	.LASF65
 722 03b7 10       		.byte	0x10
 723 03b8 07       		.byte	0x7
 724 03b9 5501     		.2byte	0x155
 725 03bb F4030000 		.4byte	0x3f4
 726 03bf 0B       		.uleb128 0xb
 727 03c0 EE000000 		.4byte	.LASF52
 728 03c4 07       		.byte	0x7
 729 03c5 5601     		.2byte	0x156
 730 03c7 170B0000 		.4byte	0xb17
 731 03cb 00       		.byte	0
 732 03cc 0B       		.uleb128 0xb
 733 03cd 53000000 		.4byte	.LASF55
 734 03d1 07       		.byte	0x7
 735 03d2 5801     		.2byte	0x158
 736 03d4 170B0000 		.4byte	0xb17
 737 03d8 04       		.byte	0x4
 738 03d9 0B       		.uleb128 0xb
 739 03da 13000000 		.4byte	.LASF62
 740 03de 07       		.byte	0x7
 741 03df 5A01     		.2byte	0x15a
ARM GAS  C:\cygwin64\tmp\cca3jAnU.s 			page 14


 742 03e1 62010000 		.4byte	0x162
 743 03e5 08       		.byte	0x8
 744 03e6 0B       		.uleb128 0xb
 745 03e7 BA050000 		.4byte	.LASF66
 746 03eb 07       		.byte	0x7
 747 03ec 6201     		.2byte	0x162
 748 03ee 62010000 		.4byte	0x162
 749 03f2 0C       		.byte	0xc
 750 03f3 00       		.byte	0
 751 03f4 04       		.uleb128 0x4
 752 03f5 75000000 		.4byte	.LASF67
 753 03f9 06       		.byte	0x6
 754 03fa 6B       		.byte	0x6b
 755 03fb FF030000 		.4byte	0x3ff
 756 03ff 0D       		.uleb128 0xd
 757 0400 C8020000 		.4byte	.LASF68
 758 0404 04       		.byte	0x4
 759 0405 07       		.byte	0x7
 760 0406 7C01     		.2byte	0x17c
 761 0408 1A040000 		.4byte	0x41a
 762 040c 0B       		.uleb128 0xb
 763 040d E4060000 		.4byte	.LASF69
 764 0411 07       		.byte	0x7
 765 0412 8401     		.2byte	0x184
 766 0414 000B0000 		.4byte	0xb00
 767 0418 00       		.byte	0
 768 0419 00       		.byte	0
 769 041a 04       		.uleb128 0x4
 770 041b 12070000 		.4byte	.LASF70
 771 041f 06       		.byte	0x6
 772 0420 70       		.byte	0x70
 773 0421 25040000 		.4byte	0x425
 774 0425 0D       		.uleb128 0xd
 775 0426 CF050000 		.4byte	.LASF71
 776 042a D0       		.byte	0xd0
 777 042b 07       		.byte	0x7
 778 042c 9C01     		.2byte	0x19c
 779 042e 80040000 		.4byte	0x480
 780 0432 0B       		.uleb128 0xb
 781 0433 74070000 		.4byte	.LASF72
 782 0437 07       		.byte	0x7
 783 0438 A001     		.2byte	0x1a0
 784 043a C8020000 		.4byte	0x2c8
 785 043e 00       		.byte	0
 786 043f 0B       		.uleb128 0xb
 787 0440 33020000 		.4byte	.LASF73
 788 0444 07       		.byte	0x7
 789 0445 A401     		.2byte	0x1a4
 790 0447 A7030000 		.4byte	0x3a7
 791 044b 1C       		.byte	0x1c
 792 044c 0A       		.uleb128 0xa
 793 044d 64626700 		.ascii	"dbg\000"
 794 0451 07       		.byte	0x7
 795 0452 A801     		.2byte	0x1a8
 796 0454 F4030000 		.4byte	0x3f4
 797 0458 2C       		.byte	0x2c
 798 0459 0B       		.uleb128 0xb
ARM GAS  C:\cygwin64\tmp\cca3jAnU.s 			page 15


 799 045a BF000000 		.4byte	.LASF74
 800 045e 07       		.byte	0x7
 801 045f AC01     		.2byte	0x1ac
 802 0461 6D010000 		.4byte	0x16d
 803 0465 30       		.byte	0x30
 804 0466 0A       		.uleb128 0xa
 805 0467 746D00   		.ascii	"tm\000"
 806 046a 07       		.byte	0x7
 807 046b B101     		.2byte	0x1b1
 808 046d 92090000 		.4byte	0x992
 809 0471 90       		.byte	0x90
 810 0472 0B       		.uleb128 0xb
 811 0473 30000000 		.4byte	.LASF75
 812 0477 07       		.byte	0x7
 813 0478 B701     		.2byte	0x1b7
 814 047a 240A0000 		.4byte	0xa24
 815 047e 98       		.byte	0x98
 816 047f 00       		.byte	0
 817 0480 03       		.uleb128 0x3
 818 0481 04       		.byte	0x4
 819 0482 07       		.byte	0x7
 820 0483 43040000 		.4byte	.LASF76
 821 0487 11       		.uleb128 0x11
 822 0488 8C       		.byte	0x8c
 823 0489 08       		.byte	0x8
 824 048a E501     		.2byte	0x1e5
 825 048c A2050000 		.4byte	0x5a2
 826 0490 0B       		.uleb128 0xb
 827 0491 E8000000 		.4byte	.LASF77
 828 0495 08       		.byte	0x8
 829 0496 E701     		.2byte	0x1e7
 830 0498 E4000000 		.4byte	0xe4
 831 049c 00       		.byte	0
 832 049d 0B       		.uleb128 0xb
 833 049e 85030000 		.4byte	.LASF78
 834 04a2 08       		.byte	0x8
 835 04a3 E801     		.2byte	0x1e8
 836 04a5 DF000000 		.4byte	0xdf
 837 04a9 04       		.byte	0x4
 838 04aa 0B       		.uleb128 0xb
 839 04ab 4E030000 		.4byte	.LASF79
 840 04af 08       		.byte	0x8
 841 04b0 E901     		.2byte	0x1e9
 842 04b2 DF000000 		.4byte	0xdf
 843 04b6 08       		.byte	0x8
 844 04b7 0B       		.uleb128 0xb
 845 04b8 90030000 		.4byte	.LASF80
 846 04bc 08       		.byte	0x8
 847 04bd EA01     		.2byte	0x1ea
 848 04bf DF000000 		.4byte	0xdf
 849 04c3 0C       		.byte	0xc
 850 04c4 0A       		.uleb128 0xa
 851 04c5 53435200 		.ascii	"SCR\000"
 852 04c9 08       		.byte	0x8
 853 04ca EB01     		.2byte	0x1eb
 854 04cc DF000000 		.4byte	0xdf
 855 04d0 10       		.byte	0x10
ARM GAS  C:\cygwin64\tmp\cca3jAnU.s 			page 16


 856 04d1 0A       		.uleb128 0xa
 857 04d2 43435200 		.ascii	"CCR\000"
 858 04d6 08       		.byte	0x8
 859 04d7 EC01     		.2byte	0x1ec
 860 04d9 DF000000 		.4byte	0xdf
 861 04dd 14       		.byte	0x14
 862 04de 0A       		.uleb128 0xa
 863 04df 53485000 		.ascii	"SHP\000"
 864 04e3 08       		.byte	0x8
 865 04e4 ED01     		.2byte	0x1ed
 866 04e6 B2050000 		.4byte	0x5b2
 867 04ea 18       		.byte	0x18
 868 04eb 0B       		.uleb128 0xb
 869 04ec 98050000 		.4byte	.LASF81
 870 04f0 08       		.byte	0x8
 871 04f1 EE01     		.2byte	0x1ee
 872 04f3 DF000000 		.4byte	0xdf
 873 04f7 24       		.byte	0x24
 874 04f8 0B       		.uleb128 0xb
 875 04f9 AA040000 		.4byte	.LASF82
 876 04fd 08       		.byte	0x8
 877 04fe EF01     		.2byte	0x1ef
 878 0500 DF000000 		.4byte	0xdf
 879 0504 28       		.byte	0x28
 880 0505 0B       		.uleb128 0xb
 881 0506 E3070000 		.4byte	.LASF83
 882 050a 08       		.byte	0x8
 883 050b F001     		.2byte	0x1f0
 884 050d DF000000 		.4byte	0xdf
 885 0511 2C       		.byte	0x2c
 886 0512 0B       		.uleb128 0xb
 887 0513 96030000 		.4byte	.LASF84
 888 0517 08       		.byte	0x8
 889 0518 F101     		.2byte	0x1f1
 890 051a DF000000 		.4byte	0xdf
 891 051e 30       		.byte	0x30
 892 051f 0B       		.uleb128 0xb
 893 0520 AB030000 		.4byte	.LASF85
 894 0524 08       		.byte	0x8
 895 0525 F201     		.2byte	0x1f2
 896 0527 DF000000 		.4byte	0xdf
 897 052b 34       		.byte	0x34
 898 052c 0B       		.uleb128 0xb
 899 052d 80030000 		.4byte	.LASF86
 900 0531 08       		.byte	0x8
 901 0532 F301     		.2byte	0x1f3
 902 0534 DF000000 		.4byte	0xdf
 903 0538 38       		.byte	0x38
 904 0539 0B       		.uleb128 0xb
 905 053a 4A060000 		.4byte	.LASF87
 906 053e 08       		.byte	0x8
 907 053f F401     		.2byte	0x1f4
 908 0541 DF000000 		.4byte	0xdf
 909 0545 3C       		.byte	0x3c
 910 0546 0A       		.uleb128 0xa
 911 0547 50465200 		.ascii	"PFR\000"
 912 054b 08       		.byte	0x8
ARM GAS  C:\cygwin64\tmp\cca3jAnU.s 			page 17


 913 054c F501     		.2byte	0x1f5
 914 054e CC050000 		.4byte	0x5cc
 915 0552 40       		.byte	0x40
 916 0553 0A       		.uleb128 0xa
 917 0554 44465200 		.ascii	"DFR\000"
 918 0558 08       		.byte	0x8
 919 0559 F601     		.2byte	0x1f6
 920 055b E4000000 		.4byte	0xe4
 921 055f 48       		.byte	0x48
 922 0560 0A       		.uleb128 0xa
 923 0561 41445200 		.ascii	"ADR\000"
 924 0565 08       		.byte	0x8
 925 0566 F701     		.2byte	0x1f7
 926 0568 E4000000 		.4byte	0xe4
 927 056c 4C       		.byte	0x4c
 928 056d 0B       		.uleb128 0xb
 929 056e 6F070000 		.4byte	.LASF88
 930 0572 08       		.byte	0x8
 931 0573 F801     		.2byte	0x1f8
 932 0575 E6050000 		.4byte	0x5e6
 933 0579 50       		.byte	0x50
 934 057a 0B       		.uleb128 0xb
 935 057b 2E020000 		.4byte	.LASF89
 936 057f 08       		.byte	0x8
 937 0580 F901     		.2byte	0x1f9
 938 0582 00060000 		.4byte	0x600
 939 0586 60       		.byte	0x60
 940 0587 0B       		.uleb128 0xb
 941 0588 1F050000 		.4byte	.LASF90
 942 058c 08       		.byte	0x8
 943 058d FA01     		.2byte	0x1fa
 944 058f 05060000 		.4byte	0x605
 945 0593 74       		.byte	0x74
 946 0594 0B       		.uleb128 0xb
 947 0595 DD070000 		.4byte	.LASF91
 948 0599 08       		.byte	0x8
 949 059a FB01     		.2byte	0x1fb
 950 059c DF000000 		.4byte	0xdf
 951 05a0 88       		.byte	0x88
 952 05a1 00       		.byte	0
 953 05a2 12       		.uleb128 0x12
 954 05a3 B4000000 		.4byte	0xb4
 955 05a7 B2050000 		.4byte	0x5b2
 956 05ab 13       		.uleb128 0x13
 957 05ac 80040000 		.4byte	0x480
 958 05b0 0B       		.byte	0xb
 959 05b1 00       		.byte	0
 960 05b2 05       		.uleb128 0x5
 961 05b3 A2050000 		.4byte	0x5a2
 962 05b7 12       		.uleb128 0x12
 963 05b8 E4000000 		.4byte	0xe4
 964 05bc C7050000 		.4byte	0x5c7
 965 05c0 13       		.uleb128 0x13
 966 05c1 80040000 		.4byte	0x480
 967 05c5 01       		.byte	0x1
 968 05c6 00       		.byte	0
 969 05c7 06       		.uleb128 0x6
ARM GAS  C:\cygwin64\tmp\cca3jAnU.s 			page 18


 970 05c8 B7050000 		.4byte	0x5b7
 971 05cc 05       		.uleb128 0x5
 972 05cd C7050000 		.4byte	0x5c7
 973 05d1 12       		.uleb128 0x12
 974 05d2 E4000000 		.4byte	0xe4
 975 05d6 E1050000 		.4byte	0x5e1
 976 05da 13       		.uleb128 0x13
 977 05db 80040000 		.4byte	0x480
 978 05df 03       		.byte	0x3
 979 05e0 00       		.byte	0
 980 05e1 06       		.uleb128 0x6
 981 05e2 D1050000 		.4byte	0x5d1
 982 05e6 05       		.uleb128 0x5
 983 05e7 E1050000 		.4byte	0x5e1
 984 05eb 12       		.uleb128 0x12
 985 05ec E4000000 		.4byte	0xe4
 986 05f0 FB050000 		.4byte	0x5fb
 987 05f4 13       		.uleb128 0x13
 988 05f5 80040000 		.4byte	0x480
 989 05f9 04       		.byte	0x4
 990 05fa 00       		.byte	0
 991 05fb 06       		.uleb128 0x6
 992 05fc EB050000 		.4byte	0x5eb
 993 0600 05       		.uleb128 0x5
 994 0601 FB050000 		.4byte	0x5fb
 995 0605 12       		.uleb128 0x12
 996 0606 D4000000 		.4byte	0xd4
 997 060a 15060000 		.4byte	0x615
 998 060e 13       		.uleb128 0x13
 999 060f 80040000 		.4byte	0x480
 1000 0613 04       		.byte	0x4
 1001 0614 00       		.byte	0
 1002 0615 14       		.uleb128 0x14
 1003 0616 BF020000 		.4byte	.LASF92
 1004 061a 08       		.byte	0x8
 1005 061b FC01     		.2byte	0x1fc
 1006 061d 87040000 		.4byte	0x487
 1007 0621 12       		.uleb128 0x12
 1008 0622 D4000000 		.4byte	0xd4
 1009 0626 31060000 		.4byte	0x631
 1010 062a 13       		.uleb128 0x13
 1011 062b 80040000 		.4byte	0x480
 1012 062f 00       		.byte	0
 1013 0630 00       		.byte	0
 1014 0631 11       		.uleb128 0x11
 1015 0632 18       		.byte	0x18
 1016 0633 08       		.byte	0x8
 1017 0634 1105     		.2byte	0x511
 1018 0636 89060000 		.4byte	0x689
 1019 063a 0B       		.uleb128 0xb
 1020 063b 1F050000 		.4byte	.LASF90
 1021 063f 08       		.byte	0x8
 1022 0640 1305     		.2byte	0x513
 1023 0642 21060000 		.4byte	0x621
 1024 0646 00       		.byte	0
 1025 0647 0B       		.uleb128 0xb
 1026 0648 3D040000 		.4byte	.LASF93
ARM GAS  C:\cygwin64\tmp\cca3jAnU.s 			page 19


 1027 064c 08       		.byte	0x8
 1028 064d 1405     		.2byte	0x514
 1029 064f DF000000 		.4byte	0xdf
 1030 0653 04       		.byte	0x4
 1031 0654 0B       		.uleb128 0xb
 1032 0655 E6050000 		.4byte	.LASF94
 1033 0659 08       		.byte	0x8
 1034 065a 1505     		.2byte	0x515
 1035 065c DF000000 		.4byte	0xdf
 1036 0660 08       		.byte	0x8
 1037 0661 0B       		.uleb128 0xb
 1038 0662 20000000 		.4byte	.LASF95
 1039 0666 08       		.byte	0x8
 1040 0667 1605     		.2byte	0x516
 1041 0669 DF000000 		.4byte	0xdf
 1042 066d 0C       		.byte	0xc
 1043 066e 0B       		.uleb128 0xb
 1044 066f 0B050000 		.4byte	.LASF96
 1045 0673 08       		.byte	0x8
 1046 0674 1705     		.2byte	0x517
 1047 0676 E4000000 		.4byte	0xe4
 1048 067a 10       		.byte	0x10
 1049 067b 0B       		.uleb128 0xb
 1050 067c 11050000 		.4byte	.LASF97
 1051 0680 08       		.byte	0x8
 1052 0681 1805     		.2byte	0x518
 1053 0683 E4000000 		.4byte	0xe4
 1054 0687 14       		.byte	0x14
 1055 0688 00       		.byte	0
 1056 0689 14       		.uleb128 0x14
 1057 068a FF020000 		.4byte	.LASF98
 1058 068e 08       		.byte	0x8
 1059 068f 1905     		.2byte	0x519
 1060 0691 31060000 		.4byte	0x631
 1061 0695 15       		.uleb128 0x15
 1062 0696 9E050000 		.4byte	.LASF99
 1063 069a 08       		.byte	0x8
 1064 069b 4407     		.2byte	0x744
 1065 069d CF000000 		.4byte	0xcf
 1066 06a1 16       		.uleb128 0x16
 1067 06a2 28030000 		.4byte	.LASF100
 1068 06a6 09       		.byte	0x9
 1069 06a7 4C       		.byte	0x4c
 1070 06a8 D4000000 		.4byte	0xd4
 1071 06ac 04       		.uleb128 0x4
 1072 06ad B6020000 		.4byte	.LASF101
 1073 06b1 0A       		.byte	0xa
 1074 06b2 65       		.byte	0x65
 1075 06b3 4B030000 		.4byte	0x34b
 1076 06b7 04       		.uleb128 0x4
 1077 06b8 1B040000 		.4byte	.LASF102
 1078 06bc 0A       		.byte	0xa
 1079 06bd 6D       		.byte	0x6d
 1080 06be E9000000 		.4byte	0xe9
 1081 06c2 07       		.uleb128 0x7
 1082 06c3 B9040000 		.4byte	.LASF103
 1083 06c7 04       		.byte	0x4
ARM GAS  C:\cygwin64\tmp\cca3jAnU.s 			page 20


 1084 06c8 0A       		.byte	0xa
 1085 06c9 89       		.byte	0x89
 1086 06ca DA060000 		.4byte	0x6da
 1087 06ce 09       		.uleb128 0x9
 1088 06cf 737000   		.ascii	"sp\000"
 1089 06d2 0A       		.byte	0xa
 1090 06d3 8A       		.byte	0x8a
 1091 06d4 26080000 		.4byte	0x826
 1092 06d8 00       		.byte	0
 1093 06d9 00       		.byte	0
 1094 06da 0D       		.uleb128 0xd
 1095 06db 58000000 		.4byte	.LASF104
 1096 06df 64       		.byte	0x64
 1097 06e0 0B       		.byte	0xb
 1098 06e1 5901     		.2byte	0x159
 1099 06e3 26080000 		.4byte	0x826
 1100 06e7 0A       		.uleb128 0xa
 1101 06e8 73313600 		.ascii	"s16\000"
 1102 06ec 0B       		.byte	0xb
 1103 06ed 5B01     		.2byte	0x15b
 1104 06ef AC060000 		.4byte	0x6ac
 1105 06f3 00       		.byte	0
 1106 06f4 0A       		.uleb128 0xa
 1107 06f5 73313700 		.ascii	"s17\000"
 1108 06f9 0B       		.byte	0xb
 1109 06fa 5C01     		.2byte	0x15c
 1110 06fc AC060000 		.4byte	0x6ac
 1111 0700 04       		.byte	0x4
 1112 0701 0A       		.uleb128 0xa
 1113 0702 73313800 		.ascii	"s18\000"
 1114 0706 0B       		.byte	0xb
 1115 0707 5D01     		.2byte	0x15d
 1116 0709 AC060000 		.4byte	0x6ac
 1117 070d 08       		.byte	0x8
 1118 070e 0A       		.uleb128 0xa
 1119 070f 73313900 		.ascii	"s19\000"
 1120 0713 0B       		.byte	0xb
 1121 0714 5E01     		.2byte	0x15e
 1122 0716 AC060000 		.4byte	0x6ac
 1123 071a 0C       		.byte	0xc
 1124 071b 0A       		.uleb128 0xa
 1125 071c 73323000 		.ascii	"s20\000"
 1126 0720 0B       		.byte	0xb
 1127 0721 5F01     		.2byte	0x15f
 1128 0723 AC060000 		.4byte	0x6ac
 1129 0727 10       		.byte	0x10
 1130 0728 0A       		.uleb128 0xa
 1131 0729 73323100 		.ascii	"s21\000"
 1132 072d 0B       		.byte	0xb
 1133 072e 6001     		.2byte	0x160
 1134 0730 AC060000 		.4byte	0x6ac
 1135 0734 14       		.byte	0x14
 1136 0735 0A       		.uleb128 0xa
 1137 0736 73323200 		.ascii	"s22\000"
 1138 073a 0B       		.byte	0xb
 1139 073b 6101     		.2byte	0x161
 1140 073d AC060000 		.4byte	0x6ac
ARM GAS  C:\cygwin64\tmp\cca3jAnU.s 			page 21


 1141 0741 18       		.byte	0x18
 1142 0742 0A       		.uleb128 0xa
 1143 0743 73323300 		.ascii	"s23\000"
 1144 0747 0B       		.byte	0xb
 1145 0748 6201     		.2byte	0x162
 1146 074a AC060000 		.4byte	0x6ac
 1147 074e 1C       		.byte	0x1c
 1148 074f 0A       		.uleb128 0xa
 1149 0750 73323400 		.ascii	"s24\000"
 1150 0754 0B       		.byte	0xb
 1151 0755 6301     		.2byte	0x163
 1152 0757 AC060000 		.4byte	0x6ac
 1153 075b 20       		.byte	0x20
 1154 075c 0A       		.uleb128 0xa
 1155 075d 73323500 		.ascii	"s25\000"
 1156 0761 0B       		.byte	0xb
 1157 0762 6401     		.2byte	0x164
 1158 0764 AC060000 		.4byte	0x6ac
 1159 0768 24       		.byte	0x24
 1160 0769 0A       		.uleb128 0xa
 1161 076a 73323600 		.ascii	"s26\000"
 1162 076e 0B       		.byte	0xb
 1163 076f 6501     		.2byte	0x165
 1164 0771 AC060000 		.4byte	0x6ac
 1165 0775 28       		.byte	0x28
 1166 0776 0A       		.uleb128 0xa
 1167 0777 73323700 		.ascii	"s27\000"
 1168 077b 0B       		.byte	0xb
 1169 077c 6601     		.2byte	0x166
 1170 077e AC060000 		.4byte	0x6ac
 1171 0782 2C       		.byte	0x2c
 1172 0783 0A       		.uleb128 0xa
 1173 0784 73323800 		.ascii	"s28\000"
 1174 0788 0B       		.byte	0xb
 1175 0789 6701     		.2byte	0x167
 1176 078b AC060000 		.4byte	0x6ac
 1177 078f 30       		.byte	0x30
 1178 0790 0A       		.uleb128 0xa
 1179 0791 73323900 		.ascii	"s29\000"
 1180 0795 0B       		.byte	0xb
 1181 0796 6801     		.2byte	0x168
 1182 0798 AC060000 		.4byte	0x6ac
 1183 079c 34       		.byte	0x34
 1184 079d 0A       		.uleb128 0xa
 1185 079e 73333000 		.ascii	"s30\000"
 1186 07a2 0B       		.byte	0xb
 1187 07a3 6901     		.2byte	0x169
 1188 07a5 AC060000 		.4byte	0x6ac
 1189 07a9 38       		.byte	0x38
 1190 07aa 0A       		.uleb128 0xa
 1191 07ab 73333100 		.ascii	"s31\000"
 1192 07af 0B       		.byte	0xb
 1193 07b0 6A01     		.2byte	0x16a
 1194 07b2 AC060000 		.4byte	0x6ac
 1195 07b6 3C       		.byte	0x3c
 1196 07b7 0A       		.uleb128 0xa
 1197 07b8 723400   		.ascii	"r4\000"
ARM GAS  C:\cygwin64\tmp\cca3jAnU.s 			page 22


 1198 07bb 0B       		.byte	0xb
 1199 07bc 6C01     		.2byte	0x16c
 1200 07be AC060000 		.4byte	0x6ac
 1201 07c2 40       		.byte	0x40
 1202 07c3 0A       		.uleb128 0xa
 1203 07c4 723500   		.ascii	"r5\000"
 1204 07c7 0B       		.byte	0xb
 1205 07c8 6D01     		.2byte	0x16d
 1206 07ca AC060000 		.4byte	0x6ac
 1207 07ce 44       		.byte	0x44
 1208 07cf 0A       		.uleb128 0xa
 1209 07d0 723600   		.ascii	"r6\000"
 1210 07d3 0B       		.byte	0xb
 1211 07d4 6E01     		.2byte	0x16e
 1212 07d6 AC060000 		.4byte	0x6ac
 1213 07da 48       		.byte	0x48
 1214 07db 0A       		.uleb128 0xa
 1215 07dc 723700   		.ascii	"r7\000"
 1216 07df 0B       		.byte	0xb
 1217 07e0 6F01     		.2byte	0x16f
 1218 07e2 AC060000 		.4byte	0x6ac
 1219 07e6 4C       		.byte	0x4c
 1220 07e7 0A       		.uleb128 0xa
 1221 07e8 723800   		.ascii	"r8\000"
 1222 07eb 0B       		.byte	0xb
 1223 07ec 7001     		.2byte	0x170
 1224 07ee AC060000 		.4byte	0x6ac
 1225 07f2 50       		.byte	0x50
 1226 07f3 0A       		.uleb128 0xa
 1227 07f4 723900   		.ascii	"r9\000"
 1228 07f7 0B       		.byte	0xb
 1229 07f8 7101     		.2byte	0x171
 1230 07fa AC060000 		.4byte	0x6ac
 1231 07fe 54       		.byte	0x54
 1232 07ff 0A       		.uleb128 0xa
 1233 0800 72313000 		.ascii	"r10\000"
 1234 0804 0B       		.byte	0xb
 1235 0805 7201     		.2byte	0x172
 1236 0807 AC060000 		.4byte	0x6ac
 1237 080b 58       		.byte	0x58
 1238 080c 0A       		.uleb128 0xa
 1239 080d 72313100 		.ascii	"r11\000"
 1240 0811 0B       		.byte	0xb
 1241 0812 7301     		.2byte	0x173
 1242 0814 AC060000 		.4byte	0x6ac
 1243 0818 5C       		.byte	0x5c
 1244 0819 0A       		.uleb128 0xa
 1245 081a 6C7200   		.ascii	"lr\000"
 1246 081d 0B       		.byte	0xb
 1247 081e 7401     		.2byte	0x174
 1248 0820 AC060000 		.4byte	0x6ac
 1249 0824 60       		.byte	0x60
 1250 0825 00       		.byte	0
 1251 0826 0C       		.uleb128 0xc
 1252 0827 04       		.byte	0x4
 1253 0828 DA060000 		.4byte	0x6da
 1254 082c 0D       		.uleb128 0xd
ARM GAS  C:\cygwin64\tmp\cca3jAnU.s 			page 23


 1255 082d C6040000 		.4byte	.LASF105
 1256 0831 68       		.byte	0x68
 1257 0832 0B       		.byte	0xb
 1258 0833 3A01     		.2byte	0x13a
 1259 0835 7D090000 		.4byte	0x97d
 1260 0839 0A       		.uleb128 0xa
 1261 083a 723000   		.ascii	"r0\000"
 1262 083d 0B       		.byte	0xb
 1263 083e 3B01     		.2byte	0x13b
 1264 0840 AC060000 		.4byte	0x6ac
 1265 0844 00       		.byte	0
 1266 0845 0A       		.uleb128 0xa
 1267 0846 723100   		.ascii	"r1\000"
 1268 0849 0B       		.byte	0xb
 1269 084a 3C01     		.2byte	0x13c
 1270 084c AC060000 		.4byte	0x6ac
 1271 0850 04       		.byte	0x4
 1272 0851 0A       		.uleb128 0xa
 1273 0852 723200   		.ascii	"r2\000"
 1274 0855 0B       		.byte	0xb
 1275 0856 3D01     		.2byte	0x13d
 1276 0858 AC060000 		.4byte	0x6ac
 1277 085c 08       		.byte	0x8
 1278 085d 0A       		.uleb128 0xa
 1279 085e 723300   		.ascii	"r3\000"
 1280 0861 0B       		.byte	0xb
 1281 0862 3E01     		.2byte	0x13e
 1282 0864 AC060000 		.4byte	0x6ac
 1283 0868 0C       		.byte	0xc
 1284 0869 0A       		.uleb128 0xa
 1285 086a 72313200 		.ascii	"r12\000"
 1286 086e 0B       		.byte	0xb
 1287 086f 3F01     		.2byte	0x13f
 1288 0871 AC060000 		.4byte	0x6ac
 1289 0875 10       		.byte	0x10
 1290 0876 0B       		.uleb128 0xb
 1291 0877 DF050000 		.4byte	.LASF106
 1292 087b 0B       		.byte	0xb
 1293 087c 4001     		.2byte	0x140
 1294 087e AC060000 		.4byte	0x6ac
 1295 0882 14       		.byte	0x14
 1296 0883 0A       		.uleb128 0xa
 1297 0884 706300   		.ascii	"pc\000"
 1298 0887 0B       		.byte	0xb
 1299 0888 4101     		.2byte	0x141
 1300 088a AC060000 		.4byte	0x6ac
 1301 088e 18       		.byte	0x18
 1302 088f 0B       		.uleb128 0xb
 1303 0890 C3050000 		.4byte	.LASF107
 1304 0894 0B       		.byte	0xb
 1305 0895 4201     		.2byte	0x142
 1306 0897 AC060000 		.4byte	0x6ac
 1307 089b 1C       		.byte	0x1c
 1308 089c 0A       		.uleb128 0xa
 1309 089d 733000   		.ascii	"s0\000"
 1310 08a0 0B       		.byte	0xb
 1311 08a1 4401     		.2byte	0x144
ARM GAS  C:\cygwin64\tmp\cca3jAnU.s 			page 24


 1312 08a3 AC060000 		.4byte	0x6ac
 1313 08a7 20       		.byte	0x20
 1314 08a8 0A       		.uleb128 0xa
 1315 08a9 733100   		.ascii	"s1\000"
 1316 08ac 0B       		.byte	0xb
 1317 08ad 4501     		.2byte	0x145
 1318 08af AC060000 		.4byte	0x6ac
 1319 08b3 24       		.byte	0x24
 1320 08b4 0A       		.uleb128 0xa
 1321 08b5 733200   		.ascii	"s2\000"
 1322 08b8 0B       		.byte	0xb
 1323 08b9 4601     		.2byte	0x146
 1324 08bb AC060000 		.4byte	0x6ac
 1325 08bf 28       		.byte	0x28
 1326 08c0 0A       		.uleb128 0xa
 1327 08c1 733300   		.ascii	"s3\000"
 1328 08c4 0B       		.byte	0xb
 1329 08c5 4701     		.2byte	0x147
 1330 08c7 AC060000 		.4byte	0x6ac
 1331 08cb 2C       		.byte	0x2c
 1332 08cc 0A       		.uleb128 0xa
 1333 08cd 733400   		.ascii	"s4\000"
 1334 08d0 0B       		.byte	0xb
 1335 08d1 4801     		.2byte	0x148
 1336 08d3 AC060000 		.4byte	0x6ac
 1337 08d7 30       		.byte	0x30
 1338 08d8 0A       		.uleb128 0xa
 1339 08d9 733500   		.ascii	"s5\000"
 1340 08dc 0B       		.byte	0xb
 1341 08dd 4901     		.2byte	0x149
 1342 08df AC060000 		.4byte	0x6ac
 1343 08e3 34       		.byte	0x34
 1344 08e4 0A       		.uleb128 0xa
 1345 08e5 733600   		.ascii	"s6\000"
 1346 08e8 0B       		.byte	0xb
 1347 08e9 4A01     		.2byte	0x14a
 1348 08eb AC060000 		.4byte	0x6ac
 1349 08ef 38       		.byte	0x38
 1350 08f0 0A       		.uleb128 0xa
 1351 08f1 733700   		.ascii	"s7\000"
 1352 08f4 0B       		.byte	0xb
 1353 08f5 4B01     		.2byte	0x14b
 1354 08f7 AC060000 		.4byte	0x6ac
 1355 08fb 3C       		.byte	0x3c
 1356 08fc 0A       		.uleb128 0xa
 1357 08fd 733800   		.ascii	"s8\000"
 1358 0900 0B       		.byte	0xb
 1359 0901 4C01     		.2byte	0x14c
 1360 0903 AC060000 		.4byte	0x6ac
 1361 0907 40       		.byte	0x40
 1362 0908 0A       		.uleb128 0xa
 1363 0909 733900   		.ascii	"s9\000"
 1364 090c 0B       		.byte	0xb
 1365 090d 4D01     		.2byte	0x14d
 1366 090f AC060000 		.4byte	0x6ac
 1367 0913 44       		.byte	0x44
 1368 0914 0A       		.uleb128 0xa
ARM GAS  C:\cygwin64\tmp\cca3jAnU.s 			page 25


 1369 0915 73313000 		.ascii	"s10\000"
 1370 0919 0B       		.byte	0xb
 1371 091a 4E01     		.2byte	0x14e
 1372 091c AC060000 		.4byte	0x6ac
 1373 0920 48       		.byte	0x48
 1374 0921 0A       		.uleb128 0xa
 1375 0922 73313100 		.ascii	"s11\000"
 1376 0926 0B       		.byte	0xb
 1377 0927 4F01     		.2byte	0x14f
 1378 0929 AC060000 		.4byte	0x6ac
 1379 092d 4C       		.byte	0x4c
 1380 092e 0A       		.uleb128 0xa
 1381 092f 73313200 		.ascii	"s12\000"
 1382 0933 0B       		.byte	0xb
 1383 0934 5001     		.2byte	0x150
 1384 0936 AC060000 		.4byte	0x6ac
 1385 093a 50       		.byte	0x50
 1386 093b 0A       		.uleb128 0xa
 1387 093c 73313300 		.ascii	"s13\000"
 1388 0940 0B       		.byte	0xb
 1389 0941 5101     		.2byte	0x151
 1390 0943 AC060000 		.4byte	0x6ac
 1391 0947 54       		.byte	0x54
 1392 0948 0A       		.uleb128 0xa
 1393 0949 73313400 		.ascii	"s14\000"
 1394 094d 0B       		.byte	0xb
 1395 094e 5201     		.2byte	0x152
 1396 0950 AC060000 		.4byte	0x6ac
 1397 0954 58       		.byte	0x58
 1398 0955 0A       		.uleb128 0xa
 1399 0956 73313500 		.ascii	"s15\000"
 1400 095a 0B       		.byte	0xb
 1401 095b 5301     		.2byte	0x153
 1402 095d AC060000 		.4byte	0x6ac
 1403 0961 5C       		.byte	0x5c
 1404 0962 0B       		.uleb128 0xb
 1405 0963 D9050000 		.4byte	.LASF108
 1406 0967 0B       		.byte	0xb
 1407 0968 5401     		.2byte	0x154
 1408 096a AC060000 		.4byte	0x6ac
 1409 096e 60       		.byte	0x60
 1410 096f 0B       		.uleb128 0xb
 1411 0970 59030000 		.4byte	.LASF109
 1412 0974 0B       		.byte	0xb
 1413 0975 5501     		.2byte	0x155
 1414 0977 AC060000 		.4byte	0x6ac
 1415 097b 64       		.byte	0x64
 1416 097c 00       		.byte	0
 1417 097d 17       		.uleb128 0x17
 1418 097e 04       		.byte	0x4
 1419 097f 0C       		.byte	0xc
 1420 0980 38       		.byte	0x38
 1421 0981 92090000 		.4byte	0x992
 1422 0985 08       		.uleb128 0x8
 1423 0986 EE060000 		.4byte	.LASF110
 1424 098a 0C       		.byte	0xc
 1425 098b 3C       		.byte	0x3c
ARM GAS  C:\cygwin64\tmp\cca3jAnU.s 			page 26


 1426 098c F4000000 		.4byte	0xf4
 1427 0990 00       		.byte	0
 1428 0991 00       		.byte	0
 1429 0992 04       		.uleb128 0x4
 1430 0993 D2040000 		.4byte	.LASF111
 1431 0997 0C       		.byte	0xc
 1432 0998 3D       		.byte	0x3d
 1433 0999 7D090000 		.4byte	0x97d
 1434 099d 17       		.uleb128 0x17
 1435 099e 18       		.byte	0x18
 1436 099f 0C       		.byte	0xc
 1437 09a0 48       		.byte	0x48
 1438 09a1 E0090000 		.4byte	0x9e0
 1439 09a5 08       		.uleb128 0x8
 1440 09a6 B2060000 		.4byte	.LASF112
 1441 09aa 0C       		.byte	0xc
 1442 09ab 49       		.byte	0x49
 1443 09ac F4000000 		.4byte	0xf4
 1444 09b0 00       		.byte	0
 1445 09b1 08       		.uleb128 0x8
 1446 09b2 9D000000 		.4byte	.LASF113
 1447 09b6 0C       		.byte	0xc
 1448 09b7 4A       		.byte	0x4a
 1449 09b8 F4000000 		.4byte	0xf4
 1450 09bc 04       		.byte	0x4
 1451 09bd 08       		.uleb128 0x8
 1452 09be F0040000 		.4byte	.LASF114
 1453 09c2 0C       		.byte	0xc
 1454 09c3 4B       		.byte	0x4b
 1455 09c4 F4000000 		.4byte	0xf4
 1456 09c8 08       		.byte	0x8
 1457 09c9 09       		.uleb128 0x9
 1458 09ca 6E00     		.ascii	"n\000"
 1459 09cc 0C       		.byte	0xc
 1460 09cd 4C       		.byte	0x4c
 1461 09ce 57010000 		.4byte	0x157
 1462 09d2 0C       		.byte	0xc
 1463 09d3 08       		.uleb128 0x8
 1464 09d4 00050000 		.4byte	.LASF115
 1465 09d8 0C       		.byte	0xc
 1466 09d9 4D       		.byte	0x4d
 1467 09da FF000000 		.4byte	0xff
 1468 09de 10       		.byte	0x10
 1469 09df 00       		.byte	0
 1470 09e0 04       		.uleb128 0x4
 1471 09e1 A3000000 		.4byte	.LASF116
 1472 09e5 0C       		.byte	0xc
 1473 09e6 4E       		.byte	0x4e
 1474 09e7 9D090000 		.4byte	0x99d
 1475 09eb 17       		.uleb128 0x17
 1476 09ec 38       		.byte	0x38
 1477 09ed 0D       		.byte	0xd
 1478 09ee 38       		.byte	0x38
 1479 09ef 240A0000 		.4byte	0xa24
 1480 09f3 08       		.uleb128 0x8
 1481 09f4 48030000 		.4byte	.LASF117
 1482 09f8 0D       		.byte	0xd
ARM GAS  C:\cygwin64\tmp\cca3jAnU.s 			page 27


 1483 09f9 39       		.byte	0x39
 1484 09fa 57010000 		.4byte	0x157
 1485 09fe 00       		.byte	0
 1486 09ff 08       		.uleb128 0x8
 1487 0a00 5D050000 		.4byte	.LASF118
 1488 0a04 0D       		.byte	0xd
 1489 0a05 3A       		.byte	0x3a
 1490 0a06 57010000 		.4byte	0x157
 1491 0a0a 04       		.byte	0x4
 1492 0a0b 08       		.uleb128 0x8
 1493 0a0c F8070000 		.4byte	.LASF119
 1494 0a10 0D       		.byte	0xd
 1495 0a11 3B       		.byte	0x3b
 1496 0a12 E0090000 		.4byte	0x9e0
 1497 0a16 08       		.byte	0x8
 1498 0a17 08       		.uleb128 0x8
 1499 0a18 D4030000 		.4byte	.LASF120
 1500 0a1c 0D       		.byte	0xd
 1501 0a1d 3D       		.byte	0x3d
 1502 0a1e E0090000 		.4byte	0x9e0
 1503 0a22 20       		.byte	0x20
 1504 0a23 00       		.byte	0
 1505 0a24 04       		.uleb128 0x4
 1506 0a25 62030000 		.4byte	.LASF121
 1507 0a29 0D       		.byte	0xd
 1508 0a2a 3F       		.byte	0x3f
 1509 0a2b EB090000 		.4byte	0x9eb
 1510 0a2f 18       		.uleb128 0x18
 1511 0a30 04       		.byte	0x4
 1512 0a31 07       		.byte	0x7
 1513 0a32 D2       		.byte	0xd2
 1514 0a33 920A0000 		.4byte	0xa92
 1515 0a37 19       		.uleb128 0x19
 1516 0a38 19000000 		.4byte	.LASF122
 1517 0a3c 07       		.byte	0x7
 1518 0a3d D9       		.byte	0xd9
 1519 0a3e 36010000 		.4byte	0x136
 1520 0a42 19       		.uleb128 0x19
 1521 0a43 B6000000 		.4byte	.LASF123
 1522 0a47 07       		.byte	0x7
 1523 0a48 E0       		.byte	0xe0
 1524 0a49 36010000 		.4byte	0x136
 1525 0a4d 19       		.uleb128 0x19
 1526 0a4e CC070000 		.4byte	.LASF124
 1527 0a52 07       		.byte	0x7
 1528 0a53 E7       		.byte	0xe7
 1529 0a54 4B030000 		.4byte	0x34b
 1530 0a58 19       		.uleb128 0x19
 1531 0a59 0D000000 		.4byte	.LASF125
 1532 0a5d 07       		.byte	0x7
 1533 0a5e EE       		.byte	0xee
 1534 0a5f 920A0000 		.4byte	0xa92
 1535 0a63 19       		.uleb128 0x19
 1536 0a64 CA000000 		.4byte	.LASF126
 1537 0a68 07       		.byte	0x7
 1538 0a69 F3       		.byte	0xf3
 1539 0a6a 36010000 		.4byte	0x136
ARM GAS  C:\cygwin64\tmp\cca3jAnU.s 			page 28


 1540 0a6e 19       		.uleb128 0x19
 1541 0a6f 38030000 		.4byte	.LASF127
 1542 0a73 07       		.byte	0x7
 1543 0a74 FC       		.byte	0xfc
 1544 0a75 BD0A0000 		.4byte	0xabd
 1545 0a79 1A       		.uleb128 0x1a
 1546 0a7a 43060000 		.4byte	.LASF128
 1547 0a7e 07       		.byte	0x7
 1548 0a7f 0501     		.2byte	0x105
 1549 0a81 F40A0000 		.4byte	0xaf4
 1550 0a85 1A       		.uleb128 0x1a
 1551 0a86 C8050000 		.4byte	.LASF129
 1552 0a8a 07       		.byte	0x7
 1553 0a8b 0D01     		.2byte	0x10d
 1554 0a8d 41010000 		.4byte	0x141
 1555 0a91 00       		.byte	0
 1556 0a92 0C       		.uleb128 0xc
 1557 0a93 04       		.byte	0x4
 1558 0a94 63020000 		.4byte	0x263
 1559 0a98 07       		.uleb128 0x7
 1560 0a99 09060000 		.4byte	.LASF130
 1561 0a9d 0C       		.byte	0xc
 1562 0a9e 0E       		.byte	0xe
 1563 0a9f 34       		.byte	0x34
 1564 0aa0 BD0A0000 		.4byte	0xabd
 1565 0aa4 08       		.uleb128 0x8
 1566 0aa5 A4040000 		.4byte	.LASF32
 1567 0aa9 0E       		.byte	0xe
 1568 0aaa 35       		.byte	0x35
 1569 0aab 98020000 		.4byte	0x298
 1570 0aaf 00       		.byte	0
 1571 0ab0 09       		.uleb128 0x9
 1572 0ab1 636E7400 		.ascii	"cnt\000"
 1573 0ab5 0E       		.byte	0xe
 1574 0ab6 37       		.byte	0x37
 1575 0ab7 4C010000 		.4byte	0x14c
 1576 0abb 08       		.byte	0x8
 1577 0abc 00       		.byte	0
 1578 0abd 0C       		.uleb128 0xc
 1579 0abe 04       		.byte	0x4
 1580 0abf 980A0000 		.4byte	0xa98
 1581 0ac3 07       		.uleb128 0x7
 1582 0ac4 66070000 		.4byte	.LASF131
 1583 0ac8 10       		.byte	0x10
 1584 0ac9 0F       		.byte	0xf
 1585 0aca 39       		.byte	0x39
 1586 0acb F40A0000 		.4byte	0xaf4
 1587 0acf 08       		.uleb128 0x8
 1588 0ad0 A4040000 		.4byte	.LASF32
 1589 0ad4 0F       		.byte	0xf
 1590 0ad5 3A       		.byte	0x3a
 1591 0ad6 98020000 		.4byte	0x298
 1592 0ada 00       		.byte	0
 1593 0adb 08       		.uleb128 0x8
 1594 0adc 5F060000 		.4byte	.LASF132
 1595 0ae0 0F       		.byte	0xf
 1596 0ae1 3C       		.byte	0x3c
ARM GAS  C:\cygwin64\tmp\cca3jAnU.s 			page 29


 1597 0ae2 6E020000 		.4byte	0x26e
 1598 0ae6 08       		.byte	0x8
 1599 0ae7 08       		.uleb128 0x8
 1600 0ae8 EE000000 		.4byte	.LASF52
 1601 0aec 0F       		.byte	0xf
 1602 0aed 3E       		.byte	0x3e
 1603 0aee 560C0000 		.4byte	0xc56
 1604 0af2 0C       		.byte	0xc
 1605 0af3 00       		.byte	0
 1606 0af4 0C       		.uleb128 0xc
 1607 0af5 04       		.byte	0x4
 1608 0af6 C30A0000 		.4byte	0xac3
 1609 0afa 0C       		.uleb128 0xc
 1610 0afb 04       		.byte	0x4
 1611 0afc 0C0B0000 		.4byte	0xb0c
 1612 0b00 05       		.uleb128 0x5
 1613 0b01 FA0A0000 		.4byte	0xafa
 1614 0b05 03       		.uleb128 0x3
 1615 0b06 01       		.byte	0x1
 1616 0b07 08       		.byte	0x8
 1617 0b08 7E060000 		.4byte	.LASF133
 1618 0b0c 06       		.uleb128 0x6
 1619 0b0d 050B0000 		.4byte	0xb05
 1620 0b11 0C       		.uleb128 0xc
 1621 0b12 04       		.byte	0x4
 1622 0b13 B7060000 		.4byte	0x6b7
 1623 0b17 0C       		.uleb128 0xc
 1624 0b18 04       		.byte	0x4
 1625 0b19 4D030000 		.4byte	0x34d
 1626 0b1d 1B       		.uleb128 0x1b
 1627 0b1e 636800   		.ascii	"ch\000"
 1628 0b21 07       		.byte	0x7
 1629 0b22 D201     		.2byte	0x1d2
 1630 0b24 1A040000 		.4byte	0x41a
 1631 0b28 12       		.uleb128 0x12
 1632 0b29 B7060000 		.4byte	0x6b7
 1633 0b2d 330B0000 		.4byte	0xb33
 1634 0b31 1C       		.uleb128 0x1c
 1635 0b32 00       		.byte	0
 1636 0b33 15       		.uleb128 0x15
 1637 0b34 1F060000 		.4byte	.LASF134
 1638 0b38 10       		.byte	0x10
 1639 0b39 2B01     		.2byte	0x12b
 1640 0b3b 280B0000 		.4byte	0xb28
 1641 0b3f 17       		.uleb128 0x17
 1642 0b40 16       		.byte	0x16
 1643 0b41 11       		.byte	0x11
 1644 0b42 34       		.byte	0x34
 1645 0b43 200C0000 		.4byte	0xc20
 1646 0b47 08       		.uleb128 0x8
 1647 0b48 1E070000 		.4byte	.LASF135
 1648 0b4c 11       		.byte	0x11
 1649 0b4d 35       		.byte	0x35
 1650 0b4e 200C0000 		.4byte	0xc20
 1651 0b52 00       		.byte	0
 1652 0b53 08       		.uleb128 0x8
 1653 0b54 E0020000 		.4byte	.LASF136
ARM GAS  C:\cygwin64\tmp\cca3jAnU.s 			page 30


 1654 0b58 11       		.byte	0x11
 1655 0b59 36       		.byte	0x36
 1656 0b5a A9000000 		.4byte	0xa9
 1657 0b5e 04       		.byte	0x4
 1658 0b5f 08       		.uleb128 0x8
 1659 0b60 FC000000 		.4byte	.LASF137
 1660 0b64 11       		.byte	0x11
 1661 0b65 37       		.byte	0x37
 1662 0b66 A9000000 		.4byte	0xa9
 1663 0b6a 05       		.byte	0x5
 1664 0b6b 08       		.uleb128 0x8
 1665 0b6c 35040000 		.4byte	.LASF138
 1666 0b70 11       		.byte	0x11
 1667 0b71 38       		.byte	0x38
 1668 0b72 B9000000 		.4byte	0xb9
 1669 0b76 06       		.byte	0x6
 1670 0b77 08       		.uleb128 0x8
 1671 0b78 4E070000 		.4byte	.LASF139
 1672 0b7c 11       		.byte	0x11
 1673 0b7d 39       		.byte	0x39
 1674 0b7e A9000000 		.4byte	0xa9
 1675 0b82 08       		.byte	0x8
 1676 0b83 08       		.uleb128 0x8
 1677 0b84 31060000 		.4byte	.LASF140
 1678 0b88 11       		.byte	0x11
 1679 0b89 3A       		.byte	0x3a
 1680 0b8a A9000000 		.4byte	0xa9
 1681 0b8e 09       		.byte	0x9
 1682 0b8f 08       		.uleb128 0x8
 1683 0b90 29050000 		.4byte	.LASF141
 1684 0b94 11       		.byte	0x11
 1685 0b95 3B       		.byte	0x3b
 1686 0b96 A9000000 		.4byte	0xa9
 1687 0b9a 0A       		.byte	0xa
 1688 0b9b 08       		.uleb128 0x8
 1689 0b9c 82050000 		.4byte	.LASF142
 1690 0ba0 11       		.byte	0x11
 1691 0ba1 3C       		.byte	0x3c
 1692 0ba2 A9000000 		.4byte	0xa9
 1693 0ba6 0B       		.byte	0xb
 1694 0ba7 08       		.uleb128 0x8
 1695 0ba8 C4030000 		.4byte	.LASF143
 1696 0bac 11       		.byte	0x11
 1697 0bad 3D       		.byte	0x3d
 1698 0bae A9000000 		.4byte	0xa9
 1699 0bb2 0C       		.byte	0xc
 1700 0bb3 08       		.uleb128 0x8
 1701 0bb4 AF040000 		.4byte	.LASF144
 1702 0bb8 11       		.byte	0x11
 1703 0bb9 3E       		.byte	0x3e
 1704 0bba A9000000 		.4byte	0xa9
 1705 0bbe 0D       		.byte	0xd
 1706 0bbf 08       		.uleb128 0x8
 1707 0bc0 F5060000 		.4byte	.LASF145
 1708 0bc4 11       		.byte	0x11
 1709 0bc5 3F       		.byte	0x3f
 1710 0bc6 A9000000 		.4byte	0xa9
ARM GAS  C:\cygwin64\tmp\cca3jAnU.s 			page 31


 1711 0bca 0E       		.byte	0xe
 1712 0bcb 08       		.uleb128 0x8
 1713 0bcc F9030000 		.4byte	.LASF146
 1714 0bd0 11       		.byte	0x11
 1715 0bd1 40       		.byte	0x40
 1716 0bd2 A9000000 		.4byte	0xa9
 1717 0bd6 0F       		.byte	0xf
 1718 0bd7 08       		.uleb128 0x8
 1719 0bd8 8B050000 		.4byte	.LASF147
 1720 0bdc 11       		.byte	0x11
 1721 0bdd 41       		.byte	0x41
 1722 0bde A9000000 		.4byte	0xa9
 1723 0be2 10       		.byte	0x10
 1724 0be3 08       		.uleb128 0x8
 1725 0be4 D3070000 		.4byte	.LASF148
 1726 0be8 11       		.byte	0x11
 1727 0be9 42       		.byte	0x42
 1728 0bea A9000000 		.4byte	0xa9
 1729 0bee 11       		.byte	0x11
 1730 0bef 08       		.uleb128 0x8
 1731 0bf0 C2070000 		.4byte	.LASF149
 1732 0bf4 11       		.byte	0x11
 1733 0bf5 43       		.byte	0x43
 1734 0bf6 A9000000 		.4byte	0xa9
 1735 0bfa 12       		.byte	0x12
 1736 0bfb 08       		.uleb128 0x8
 1737 0bfc A2020000 		.4byte	.LASF150
 1738 0c00 11       		.byte	0x11
 1739 0c01 44       		.byte	0x44
 1740 0c02 A9000000 		.4byte	0xa9
 1741 0c06 13       		.byte	0x13
 1742 0c07 08       		.uleb128 0x8
 1743 0c08 7C020000 		.4byte	.LASF151
 1744 0c0c 11       		.byte	0x11
 1745 0c0d 45       		.byte	0x45
 1746 0c0e A9000000 		.4byte	0xa9
 1747 0c12 14       		.byte	0x14
 1748 0c13 08       		.uleb128 0x8
 1749 0c14 16060000 		.4byte	.LASF152
 1750 0c18 11       		.byte	0x11
 1751 0c19 46       		.byte	0x46
 1752 0c1a A9000000 		.4byte	0xa9
 1753 0c1e 15       		.byte	0x15
 1754 0c1f 00       		.byte	0
 1755 0c20 12       		.uleb128 0x12
 1756 0c21 050B0000 		.4byte	0xb05
 1757 0c25 300C0000 		.4byte	0xc30
 1758 0c29 13       		.uleb128 0x13
 1759 0c2a 80040000 		.4byte	0x480
 1760 0c2e 03       		.byte	0x3
 1761 0c2f 00       		.byte	0
 1762 0c30 04       		.uleb128 0x4
 1763 0c31 72020000 		.4byte	.LASF153
 1764 0c35 11       		.byte	0x11
 1765 0c36 47       		.byte	0x47
 1766 0c37 3F0B0000 		.4byte	0xb3f
 1767 0c3b 06       		.uleb128 0x6
ARM GAS  C:\cygwin64\tmp\cca3jAnU.s 			page 32


 1768 0c3c 300C0000 		.4byte	0xc30
 1769 0c40 16       		.uleb128 0x16
 1770 0c41 3F030000 		.4byte	.LASF154
 1771 0c45 11       		.byte	0x11
 1772 0c46 6C       		.byte	0x6c
 1773 0c47 3B0C0000 		.4byte	0xc3b
 1774 0c4b 04       		.uleb128 0x4
 1775 0c4c F0070000 		.4byte	.LASF155
 1776 0c50 0F       		.byte	0xf
 1777 0c51 34       		.byte	0x34
 1778 0c52 C30A0000 		.4byte	0xac3
 1779 0c56 0C       		.uleb128 0xc
 1780 0c57 04       		.byte	0x4
 1781 0c58 4B0C0000 		.4byte	0xc4b
 1782 0c5c 03       		.uleb128 0x3
 1783 0c5d 01       		.byte	0x1
 1784 0c5e 02       		.byte	0x2
 1785 0c5f 66050000 		.4byte	.LASF156
 1786 0c63 1D       		.uleb128 0x1d
 1787 0c64 B1030000 		.4byte	.LASF157
 1788 0c68 01       		.byte	0x1
 1789 0c69 7A       		.byte	0x7a
 1790 0c6a 00000000 		.4byte	.LFB247
 1791 0c6e 5C000000 		.4byte	.LFE247-.LFB247
 1792 0c72 01       		.uleb128 0x1
 1793 0c73 9C       		.byte	0x9c
 1794 0c74 7C0D0000 		.4byte	0xd7c
 1795 0c78 1E       		.uleb128 0x1e
 1796 0c79 14000000 		.4byte	.LBB67
 1797 0c7d 32000000 		.4byte	.LBE67-.LBB67
 1798 0c81 010D0000 		.4byte	0xd01
 1799 0c85 1F       		.uleb128 0x1f
 1800 0c86 34050000 		.4byte	.LASF159
 1801 0c8a 01       		.byte	0x1
 1802 0c8b 7E       		.byte	0x7e
 1803 0c8c 7C0D0000 		.4byte	0xd7c
 1804 0c90 00000000 		.4byte	.LLST4
 1805 0c94 20       		.uleb128 0x20
 1806 0c95 460E0000 		.4byte	0xe46
 1807 0c99 14000000 		.4byte	.LBB68
 1808 0c9d 04000000 		.4byte	.LBE68-.LBB68
 1809 0ca1 01       		.byte	0x1
 1810 0ca2 82       		.byte	0x82
 1811 0ca3 B70C0000 		.4byte	0xcb7
 1812 0ca7 21       		.uleb128 0x21
 1813 0ca8 14000000 		.4byte	.LBB69
 1814 0cac 04000000 		.4byte	.LBE69-.LBB69
 1815 0cb0 22       		.uleb128 0x22
 1816 0cb1 570E0000 		.4byte	0xe57
 1817 0cb5 00       		.byte	0
 1818 0cb6 00       		.byte	0
 1819 0cb7 20       		.uleb128 0x20
 1820 0cb8 960E0000 		.4byte	0xe96
 1821 0cbc 18000000 		.4byte	.LBB70
 1822 0cc0 04000000 		.4byte	.LBE70-.LBB70
 1823 0cc4 01       		.byte	0x1
 1824 0cc5 86       		.byte	0x86
ARM GAS  C:\cygwin64\tmp\cca3jAnU.s 			page 33


 1825 0cc6 DA0C0000 		.4byte	0xcda
 1826 0cca 21       		.uleb128 0x21
 1827 0ccb 18000000 		.4byte	.LBB71
 1828 0ccf 04000000 		.4byte	.LBE71-.LBB71
 1829 0cd3 22       		.uleb128 0x22
 1830 0cd4 A60E0000 		.4byte	0xea6
 1831 0cd8 00       		.byte	0
 1832 0cd9 00       		.byte	0
 1833 0cda 20       		.uleb128 0x20
 1834 0cdb 7E0E0000 		.4byte	0xe7e
 1835 0cdf 30000000 		.4byte	.LBB72
 1836 0ce3 04000000 		.4byte	.LBE72-.LBB72
 1837 0ce7 01       		.byte	0x1
 1838 0ce8 93       		.byte	0x93
 1839 0ce9 F70C0000 		.4byte	0xcf7
 1840 0ced 23       		.uleb128 0x23
 1841 0cee 8A0E0000 		.4byte	0xe8a
 1842 0cf2 2F000000 		.4byte	.LLST5
 1843 0cf6 00       		.byte	0
 1844 0cf7 24       		.uleb128 0x24
 1845 0cf8 38000000 		.4byte	.LVL12
 1846 0cfc B20E0000 		.4byte	0xeb2
 1847 0d00 00       		.byte	0
 1848 0d01 25       		.uleb128 0x25
 1849 0d02 2B0E0000 		.4byte	0xe2b
 1850 0d06 02000000 		.4byte	.LBB59
 1851 0d0a 00000000 		.4byte	.Ldebug_ranges0+0
 1852 0d0e 01       		.byte	0x1
 1853 0d0f 7C       		.byte	0x7c
 1854 0d10 400D0000 		.4byte	0xd40
 1855 0d14 26       		.uleb128 0x26
 1856 0d15 3D0E0000 		.4byte	0xe3d
 1857 0d19 02000000 		.4byte	.LBB60
 1858 0d1d 00000000 		.4byte	.Ldebug_ranges0+0
 1859 0d21 0B       		.byte	0xb
 1860 0d22 7B02     		.2byte	0x27b
 1861 0d24 26       		.uleb128 0x26
 1862 0d25 640E0000 		.4byte	0xe64
 1863 0d29 02000000 		.4byte	.LBB61
 1864 0d2d 00000000 		.4byte	.Ldebug_ranges0+0
 1865 0d31 0B       		.byte	0xb
 1866 0d32 5A02     		.2byte	0x25a
 1867 0d34 23       		.uleb128 0x23
 1868 0d35 710E0000 		.4byte	0xe71
 1869 0d39 50000000 		.4byte	.LLST3
 1870 0d3d 00       		.byte	0
 1871 0d3e 00       		.byte	0
 1872 0d3f 00       		.byte	0
 1873 0d40 27       		.uleb128 0x27
 1874 0d41 220E0000 		.4byte	0xe22
 1875 0d45 46000000 		.4byte	.LBB74
 1876 0d49 16000000 		.4byte	.LBE74-.LBB74
 1877 0d4d 01       		.byte	0x1
 1878 0d4e A5       		.byte	0xa5
 1879 0d4f 28       		.uleb128 0x28
 1880 0d50 340E0000 		.4byte	0xe34
 1881 0d54 46000000 		.4byte	.LBB75
ARM GAS  C:\cygwin64\tmp\cca3jAnU.s 			page 34


 1882 0d58 16000000 		.4byte	.LBE75-.LBB75
 1883 0d5c 0B       		.byte	0xb
 1884 0d5d 8602     		.2byte	0x286
 1885 0d5f 28       		.uleb128 0x28
 1886 0d60 640E0000 		.4byte	0xe64
 1887 0d64 46000000 		.4byte	.LBB76
 1888 0d68 16000000 		.4byte	.LBE76-.LBB76
 1889 0d6c 0B       		.byte	0xb
 1890 0d6d 6D02     		.2byte	0x26d
 1891 0d6f 23       		.uleb128 0x23
 1892 0d70 710E0000 		.4byte	0xe71
 1893 0d74 65000000 		.4byte	.LLST6
 1894 0d78 00       		.byte	0
 1895 0d79 00       		.byte	0
 1896 0d7a 00       		.byte	0
 1897 0d7b 00       		.byte	0
 1898 0d7c 0C       		.uleb128 0xc
 1899 0d7d 04       		.byte	0x4
 1900 0d7e 2C080000 		.4byte	0x82c
 1901 0d82 1D       		.uleb128 0x1d
 1902 0d83 EC050000 		.4byte	.LASF158
 1903 0d87 01       		.byte	0x1
 1904 0d88 3E       		.byte	0x3e
 1905 0d89 00000000 		.4byte	.LFB246
 1906 0d8d 24000000 		.4byte	.LFE246-.LFB246
 1907 0d91 01       		.uleb128 0x1
 1908 0d92 9C       		.byte	0x9c
 1909 0d93 220E0000 		.4byte	0xe22
 1910 0d97 1F       		.uleb128 0x1f
 1911 0d98 34050000 		.4byte	.LASF159
 1912 0d9c 01       		.byte	0x1
 1913 0d9d 40       		.byte	0x40
 1914 0d9e 7C0D0000 		.4byte	0xd7c
 1915 0da2 79000000 		.4byte	.LLST0
 1916 0da6 20       		.uleb128 0x20
 1917 0da7 960E0000 		.4byte	0xe96
 1918 0dab 0E000000 		.4byte	.LBB51
 1919 0daf 04000000 		.4byte	.LBE51-.LBB51
 1920 0db3 01       		.byte	0x1
 1921 0db4 48       		.byte	0x48
 1922 0db5 C90D0000 		.4byte	0xdc9
 1923 0db9 21       		.uleb128 0x21
 1924 0dba 0E000000 		.4byte	.LBB52
 1925 0dbe 04000000 		.4byte	.LBE52-.LBB52
 1926 0dc2 22       		.uleb128 0x22
 1927 0dc3 A60E0000 		.4byte	0xea6
 1928 0dc7 00       		.byte	0
 1929 0dc8 00       		.byte	0
 1930 0dc9 20       		.uleb128 0x20
 1931 0dca 7E0E0000 		.4byte	0xe7e
 1932 0dce 14000000 		.4byte	.LBB53
 1933 0dd2 04000000 		.4byte	.LBE53-.LBB53
 1934 0dd6 01       		.byte	0x1
 1935 0dd7 4F       		.byte	0x4f
 1936 0dd8 E60D0000 		.4byte	0xde6
 1937 0ddc 23       		.uleb128 0x23
 1938 0ddd 8A0E0000 		.4byte	0xe8a
ARM GAS  C:\cygwin64\tmp\cca3jAnU.s 			page 35


 1939 0de1 9A000000 		.4byte	.LLST1
 1940 0de5 00       		.byte	0
 1941 0de6 27       		.uleb128 0x27
 1942 0de7 220E0000 		.4byte	0xe22
 1943 0deb 18000000 		.4byte	.LBB55
 1944 0def 0C000000 		.4byte	.LBE55-.LBB55
 1945 0df3 01       		.byte	0x1
 1946 0df4 52       		.byte	0x52
 1947 0df5 28       		.uleb128 0x28
 1948 0df6 340E0000 		.4byte	0xe34
 1949 0dfa 18000000 		.4byte	.LBB56
 1950 0dfe 0C000000 		.4byte	.LBE56-.LBB56
 1951 0e02 0B       		.byte	0xb
 1952 0e03 8602     		.2byte	0x286
 1953 0e05 28       		.uleb128 0x28
 1954 0e06 640E0000 		.4byte	0xe64
 1955 0e0a 18000000 		.4byte	.LBB57
 1956 0e0e 0C000000 		.4byte	.LBE57-.LBB57
 1957 0e12 0B       		.byte	0xb
 1958 0e13 6D02     		.2byte	0x26d
 1959 0e15 23       		.uleb128 0x23
 1960 0e16 710E0000 		.4byte	0xe71
 1961 0e1a BB000000 		.4byte	.LLST2
 1962 0e1e 00       		.byte	0
 1963 0e1f 00       		.byte	0
 1964 0e20 00       		.byte	0
 1965 0e21 00       		.byte	0
 1966 0e22 29       		.uleb128 0x29
 1967 0e23 94060000 		.4byte	.LASF160
 1968 0e27 0B       		.byte	0xb
 1969 0e28 8402     		.2byte	0x284
 1970 0e2a 03       		.byte	0x3
 1971 0e2b 29       		.uleb128 0x29
 1972 0e2c 31070000 		.4byte	.LASF161
 1973 0e30 0B       		.byte	0xb
 1974 0e31 7902     		.2byte	0x279
 1975 0e33 03       		.byte	0x3
 1976 0e34 29       		.uleb128 0x29
 1977 0e35 3A020000 		.4byte	.LASF162
 1978 0e39 0B       		.byte	0xb
 1979 0e3a 6A02     		.2byte	0x26a
 1980 0e3c 03       		.byte	0x3
 1981 0e3d 29       		.uleb128 0x29
 1982 0e3e 93000000 		.4byte	.LASF163
 1983 0e42 0B       		.byte	0xb
 1984 0e43 5202     		.2byte	0x252
 1985 0e45 03       		.byte	0x3
 1986 0e46 2A       		.uleb128 0x2a
 1987 0e47 51050000 		.4byte	.LASF168
 1988 0e4b 02       		.byte	0x2
 1989 0e4c 3A01     		.2byte	0x13a
 1990 0e4e D4000000 		.4byte	0xd4
 1991 0e52 03       		.byte	0x3
 1992 0e53 640E0000 		.4byte	0xe64
 1993 0e57 2B       		.uleb128 0x2b
 1994 0e58 03080000 		.4byte	.LASF170
 1995 0e5c 02       		.byte	0x2
ARM GAS  C:\cygwin64\tmp\cca3jAnU.s 			page 36


 1996 0e5d 3D01     		.2byte	0x13d
 1997 0e5f D4000000 		.4byte	0xd4
 1998 0e63 00       		.byte	0
 1999 0e64 2C       		.uleb128 0x2c
 2000 0e65 D6060000 		.4byte	.LASF164
 2001 0e69 02       		.byte	0x2
 2002 0e6a 0601     		.2byte	0x106
 2003 0e6c 03       		.byte	0x3
 2004 0e6d 7E0E0000 		.4byte	0xe7e
 2005 0e71 2D       		.uleb128 0x2d
 2006 0e72 F3020000 		.4byte	.LASF166
 2007 0e76 02       		.byte	0x2
 2008 0e77 0601     		.2byte	0x106
 2009 0e79 D4000000 		.4byte	0xd4
 2010 0e7d 00       		.byte	0
 2011 0e7e 2E       		.uleb128 0x2e
 2012 0e7f 15030000 		.4byte	.LASF165
 2013 0e83 02       		.byte	0x2
 2014 0e84 A2       		.byte	0xa2
 2015 0e85 03       		.byte	0x3
 2016 0e86 960E0000 		.4byte	0xe96
 2017 0e8a 2F       		.uleb128 0x2f
 2018 0e8b 02040000 		.4byte	.LASF167
 2019 0e8f 02       		.byte	0x2
 2020 0e90 A2       		.byte	0xa2
 2021 0e91 D4000000 		.4byte	0xd4
 2022 0e95 00       		.byte	0
 2023 0e96 30       		.uleb128 0x30
 2024 0e97 44070000 		.4byte	.LASF169
 2025 0e9b 02       		.byte	0x2
 2026 0e9c 94       		.byte	0x94
 2027 0e9d D4000000 		.4byte	0xd4
 2028 0ea1 03       		.byte	0x3
 2029 0ea2 B20E0000 		.4byte	0xeb2
 2030 0ea6 31       		.uleb128 0x31
 2031 0ea7 03080000 		.4byte	.LASF170
 2032 0eab 02       		.byte	0x2
 2033 0eac 96       		.byte	0x96
 2034 0ead D4000000 		.4byte	0xd4
 2035 0eb1 00       		.byte	0
 2036 0eb2 32       		.uleb128 0x32
 2037 0eb3 88020000 		.4byte	.LASF174
 2038 0eb7 88020000 		.4byte	.LASF174
 2039 0ebb 07       		.byte	0x7
 2040 0ebc E201     		.2byte	0x1e2
 2041 0ebe 00       		.byte	0
 2042              		.section	.debug_abbrev,"",%progbits
 2043              	.Ldebug_abbrev0:
 2044 0000 01       		.uleb128 0x1
 2045 0001 11       		.uleb128 0x11
 2046 0002 01       		.byte	0x1
 2047 0003 25       		.uleb128 0x25
 2048 0004 0E       		.uleb128 0xe
 2049 0005 13       		.uleb128 0x13
 2050 0006 0B       		.uleb128 0xb
 2051 0007 03       		.uleb128 0x3
 2052 0008 0E       		.uleb128 0xe
ARM GAS  C:\cygwin64\tmp\cca3jAnU.s 			page 37


 2053 0009 1B       		.uleb128 0x1b
 2054 000a 0E       		.uleb128 0xe
 2055 000b 55       		.uleb128 0x55
 2056 000c 17       		.uleb128 0x17
 2057 000d 11       		.uleb128 0x11
 2058 000e 01       		.uleb128 0x1
 2059 000f 10       		.uleb128 0x10
 2060 0010 17       		.uleb128 0x17
 2061 0011 00       		.byte	0
 2062 0012 00       		.byte	0
 2063 0013 02       		.uleb128 0x2
 2064 0014 24       		.uleb128 0x24
 2065 0015 00       		.byte	0
 2066 0016 0B       		.uleb128 0xb
 2067 0017 0B       		.uleb128 0xb
 2068 0018 3E       		.uleb128 0x3e
 2069 0019 0B       		.uleb128 0xb
 2070 001a 03       		.uleb128 0x3
 2071 001b 08       		.uleb128 0x8
 2072 001c 00       		.byte	0
 2073 001d 00       		.byte	0
 2074 001e 03       		.uleb128 0x3
 2075 001f 24       		.uleb128 0x24
 2076 0020 00       		.byte	0
 2077 0021 0B       		.uleb128 0xb
 2078 0022 0B       		.uleb128 0xb
 2079 0023 3E       		.uleb128 0x3e
 2080 0024 0B       		.uleb128 0xb
 2081 0025 03       		.uleb128 0x3
 2082 0026 0E       		.uleb128 0xe
 2083 0027 00       		.byte	0
 2084 0028 00       		.byte	0
 2085 0029 04       		.uleb128 0x4
 2086 002a 16       		.uleb128 0x16
 2087 002b 00       		.byte	0
 2088 002c 03       		.uleb128 0x3
 2089 002d 0E       		.uleb128 0xe
 2090 002e 3A       		.uleb128 0x3a
 2091 002f 0B       		.uleb128 0xb
 2092 0030 3B       		.uleb128 0x3b
 2093 0031 0B       		.uleb128 0xb
 2094 0032 49       		.uleb128 0x49
 2095 0033 13       		.uleb128 0x13
 2096 0034 00       		.byte	0
 2097 0035 00       		.byte	0
 2098 0036 05       		.uleb128 0x5
 2099 0037 35       		.uleb128 0x35
 2100 0038 00       		.byte	0
 2101 0039 49       		.uleb128 0x49
 2102 003a 13       		.uleb128 0x13
 2103 003b 00       		.byte	0
 2104 003c 00       		.byte	0
 2105 003d 06       		.uleb128 0x6
 2106 003e 26       		.uleb128 0x26
 2107 003f 00       		.byte	0
 2108 0040 49       		.uleb128 0x49
 2109 0041 13       		.uleb128 0x13
ARM GAS  C:\cygwin64\tmp\cca3jAnU.s 			page 38


 2110 0042 00       		.byte	0
 2111 0043 00       		.byte	0
 2112 0044 07       		.uleb128 0x7
 2113 0045 13       		.uleb128 0x13
 2114 0046 01       		.byte	0x1
 2115 0047 03       		.uleb128 0x3
 2116 0048 0E       		.uleb128 0xe
 2117 0049 0B       		.uleb128 0xb
 2118 004a 0B       		.uleb128 0xb
 2119 004b 3A       		.uleb128 0x3a
 2120 004c 0B       		.uleb128 0xb
 2121 004d 3B       		.uleb128 0x3b
 2122 004e 0B       		.uleb128 0xb
 2123 004f 01       		.uleb128 0x1
 2124 0050 13       		.uleb128 0x13
 2125 0051 00       		.byte	0
 2126 0052 00       		.byte	0
 2127 0053 08       		.uleb128 0x8
 2128 0054 0D       		.uleb128 0xd
 2129 0055 00       		.byte	0
 2130 0056 03       		.uleb128 0x3
 2131 0057 0E       		.uleb128 0xe
 2132 0058 3A       		.uleb128 0x3a
 2133 0059 0B       		.uleb128 0xb
 2134 005a 3B       		.uleb128 0x3b
 2135 005b 0B       		.uleb128 0xb
 2136 005c 49       		.uleb128 0x49
 2137 005d 13       		.uleb128 0x13
 2138 005e 38       		.uleb128 0x38
 2139 005f 0B       		.uleb128 0xb
 2140 0060 00       		.byte	0
 2141 0061 00       		.byte	0
 2142 0062 09       		.uleb128 0x9
 2143 0063 0D       		.uleb128 0xd
 2144 0064 00       		.byte	0
 2145 0065 03       		.uleb128 0x3
 2146 0066 08       		.uleb128 0x8
 2147 0067 3A       		.uleb128 0x3a
 2148 0068 0B       		.uleb128 0xb
 2149 0069 3B       		.uleb128 0x3b
 2150 006a 0B       		.uleb128 0xb
 2151 006b 49       		.uleb128 0x49
 2152 006c 13       		.uleb128 0x13
 2153 006d 38       		.uleb128 0x38
 2154 006e 0B       		.uleb128 0xb
 2155 006f 00       		.byte	0
 2156 0070 00       		.byte	0
 2157 0071 0A       		.uleb128 0xa
 2158 0072 0D       		.uleb128 0xd
 2159 0073 00       		.byte	0
 2160 0074 03       		.uleb128 0x3
 2161 0075 08       		.uleb128 0x8
 2162 0076 3A       		.uleb128 0x3a
 2163 0077 0B       		.uleb128 0xb
 2164 0078 3B       		.uleb128 0x3b
 2165 0079 05       		.uleb128 0x5
 2166 007a 49       		.uleb128 0x49
ARM GAS  C:\cygwin64\tmp\cca3jAnU.s 			page 39


 2167 007b 13       		.uleb128 0x13
 2168 007c 38       		.uleb128 0x38
 2169 007d 0B       		.uleb128 0xb
 2170 007e 00       		.byte	0
 2171 007f 00       		.byte	0
 2172 0080 0B       		.uleb128 0xb
 2173 0081 0D       		.uleb128 0xd
 2174 0082 00       		.byte	0
 2175 0083 03       		.uleb128 0x3
 2176 0084 0E       		.uleb128 0xe
 2177 0085 3A       		.uleb128 0x3a
 2178 0086 0B       		.uleb128 0xb
 2179 0087 3B       		.uleb128 0x3b
 2180 0088 05       		.uleb128 0x5
 2181 0089 49       		.uleb128 0x49
 2182 008a 13       		.uleb128 0x13
 2183 008b 38       		.uleb128 0x38
 2184 008c 0B       		.uleb128 0xb
 2185 008d 00       		.byte	0
 2186 008e 00       		.byte	0
 2187 008f 0C       		.uleb128 0xc
 2188 0090 0F       		.uleb128 0xf
 2189 0091 00       		.byte	0
 2190 0092 0B       		.uleb128 0xb
 2191 0093 0B       		.uleb128 0xb
 2192 0094 49       		.uleb128 0x49
 2193 0095 13       		.uleb128 0x13
 2194 0096 00       		.byte	0
 2195 0097 00       		.byte	0
 2196 0098 0D       		.uleb128 0xd
 2197 0099 13       		.uleb128 0x13
 2198 009a 01       		.byte	0x1
 2199 009b 03       		.uleb128 0x3
 2200 009c 0E       		.uleb128 0xe
 2201 009d 0B       		.uleb128 0xb
 2202 009e 0B       		.uleb128 0xb
 2203 009f 3A       		.uleb128 0x3a
 2204 00a0 0B       		.uleb128 0xb
 2205 00a1 3B       		.uleb128 0x3b
 2206 00a2 05       		.uleb128 0x5
 2207 00a3 01       		.uleb128 0x1
 2208 00a4 13       		.uleb128 0x13
 2209 00a5 00       		.byte	0
 2210 00a6 00       		.byte	0
 2211 00a7 0E       		.uleb128 0xe
 2212 00a8 15       		.uleb128 0x15
 2213 00a9 01       		.byte	0x1
 2214 00aa 27       		.uleb128 0x27
 2215 00ab 19       		.uleb128 0x19
 2216 00ac 01       		.uleb128 0x1
 2217 00ad 13       		.uleb128 0x13
 2218 00ae 00       		.byte	0
 2219 00af 00       		.byte	0
 2220 00b0 0F       		.uleb128 0xf
 2221 00b1 05       		.uleb128 0x5
 2222 00b2 00       		.byte	0
 2223 00b3 49       		.uleb128 0x49
ARM GAS  C:\cygwin64\tmp\cca3jAnU.s 			page 40


 2224 00b4 13       		.uleb128 0x13
 2225 00b5 00       		.byte	0
 2226 00b6 00       		.byte	0
 2227 00b7 10       		.uleb128 0x10
 2228 00b8 0F       		.uleb128 0xf
 2229 00b9 00       		.byte	0
 2230 00ba 0B       		.uleb128 0xb
 2231 00bb 0B       		.uleb128 0xb
 2232 00bc 00       		.byte	0
 2233 00bd 00       		.byte	0
 2234 00be 11       		.uleb128 0x11
 2235 00bf 13       		.uleb128 0x13
 2236 00c0 01       		.byte	0x1
 2237 00c1 0B       		.uleb128 0xb
 2238 00c2 0B       		.uleb128 0xb
 2239 00c3 3A       		.uleb128 0x3a
 2240 00c4 0B       		.uleb128 0xb
 2241 00c5 3B       		.uleb128 0x3b
 2242 00c6 05       		.uleb128 0x5
 2243 00c7 01       		.uleb128 0x1
 2244 00c8 13       		.uleb128 0x13
 2245 00c9 00       		.byte	0
 2246 00ca 00       		.byte	0
 2247 00cb 12       		.uleb128 0x12
 2248 00cc 01       		.uleb128 0x1
 2249 00cd 01       		.byte	0x1
 2250 00ce 49       		.uleb128 0x49
 2251 00cf 13       		.uleb128 0x13
 2252 00d0 01       		.uleb128 0x1
 2253 00d1 13       		.uleb128 0x13
 2254 00d2 00       		.byte	0
 2255 00d3 00       		.byte	0
 2256 00d4 13       		.uleb128 0x13
 2257 00d5 21       		.uleb128 0x21
 2258 00d6 00       		.byte	0
 2259 00d7 49       		.uleb128 0x49
 2260 00d8 13       		.uleb128 0x13
 2261 00d9 2F       		.uleb128 0x2f
 2262 00da 0B       		.uleb128 0xb
 2263 00db 00       		.byte	0
 2264 00dc 00       		.byte	0
 2265 00dd 14       		.uleb128 0x14
 2266 00de 16       		.uleb128 0x16
 2267 00df 00       		.byte	0
 2268 00e0 03       		.uleb128 0x3
 2269 00e1 0E       		.uleb128 0xe
 2270 00e2 3A       		.uleb128 0x3a
 2271 00e3 0B       		.uleb128 0xb
 2272 00e4 3B       		.uleb128 0x3b
 2273 00e5 05       		.uleb128 0x5
 2274 00e6 49       		.uleb128 0x49
 2275 00e7 13       		.uleb128 0x13
 2276 00e8 00       		.byte	0
 2277 00e9 00       		.byte	0
 2278 00ea 15       		.uleb128 0x15
 2279 00eb 34       		.uleb128 0x34
 2280 00ec 00       		.byte	0
ARM GAS  C:\cygwin64\tmp\cca3jAnU.s 			page 41


 2281 00ed 03       		.uleb128 0x3
 2282 00ee 0E       		.uleb128 0xe
 2283 00ef 3A       		.uleb128 0x3a
 2284 00f0 0B       		.uleb128 0xb
 2285 00f1 3B       		.uleb128 0x3b
 2286 00f2 05       		.uleb128 0x5
 2287 00f3 49       		.uleb128 0x49
 2288 00f4 13       		.uleb128 0x13
 2289 00f5 3F       		.uleb128 0x3f
 2290 00f6 19       		.uleb128 0x19
 2291 00f7 3C       		.uleb128 0x3c
 2292 00f8 19       		.uleb128 0x19
 2293 00f9 00       		.byte	0
 2294 00fa 00       		.byte	0
 2295 00fb 16       		.uleb128 0x16
 2296 00fc 34       		.uleb128 0x34
 2297 00fd 00       		.byte	0
 2298 00fe 03       		.uleb128 0x3
 2299 00ff 0E       		.uleb128 0xe
 2300 0100 3A       		.uleb128 0x3a
 2301 0101 0B       		.uleb128 0xb
 2302 0102 3B       		.uleb128 0x3b
 2303 0103 0B       		.uleb128 0xb
 2304 0104 49       		.uleb128 0x49
 2305 0105 13       		.uleb128 0x13
 2306 0106 3F       		.uleb128 0x3f
 2307 0107 19       		.uleb128 0x19
 2308 0108 3C       		.uleb128 0x3c
 2309 0109 19       		.uleb128 0x19
 2310 010a 00       		.byte	0
 2311 010b 00       		.byte	0
 2312 010c 17       		.uleb128 0x17
 2313 010d 13       		.uleb128 0x13
 2314 010e 01       		.byte	0x1
 2315 010f 0B       		.uleb128 0xb
 2316 0110 0B       		.uleb128 0xb
 2317 0111 3A       		.uleb128 0x3a
 2318 0112 0B       		.uleb128 0xb
 2319 0113 3B       		.uleb128 0x3b
 2320 0114 0B       		.uleb128 0xb
 2321 0115 01       		.uleb128 0x1
 2322 0116 13       		.uleb128 0x13
 2323 0117 00       		.byte	0
 2324 0118 00       		.byte	0
 2325 0119 18       		.uleb128 0x18
 2326 011a 17       		.uleb128 0x17
 2327 011b 01       		.byte	0x1
 2328 011c 0B       		.uleb128 0xb
 2329 011d 0B       		.uleb128 0xb
 2330 011e 3A       		.uleb128 0x3a
 2331 011f 0B       		.uleb128 0xb
 2332 0120 3B       		.uleb128 0x3b
 2333 0121 0B       		.uleb128 0xb
 2334 0122 01       		.uleb128 0x1
 2335 0123 13       		.uleb128 0x13
 2336 0124 00       		.byte	0
 2337 0125 00       		.byte	0
ARM GAS  C:\cygwin64\tmp\cca3jAnU.s 			page 42


 2338 0126 19       		.uleb128 0x19
 2339 0127 0D       		.uleb128 0xd
 2340 0128 00       		.byte	0
 2341 0129 03       		.uleb128 0x3
 2342 012a 0E       		.uleb128 0xe
 2343 012b 3A       		.uleb128 0x3a
 2344 012c 0B       		.uleb128 0xb
 2345 012d 3B       		.uleb128 0x3b
 2346 012e 0B       		.uleb128 0xb
 2347 012f 49       		.uleb128 0x49
 2348 0130 13       		.uleb128 0x13
 2349 0131 00       		.byte	0
 2350 0132 00       		.byte	0
 2351 0133 1A       		.uleb128 0x1a
 2352 0134 0D       		.uleb128 0xd
 2353 0135 00       		.byte	0
 2354 0136 03       		.uleb128 0x3
 2355 0137 0E       		.uleb128 0xe
 2356 0138 3A       		.uleb128 0x3a
 2357 0139 0B       		.uleb128 0xb
 2358 013a 3B       		.uleb128 0x3b
 2359 013b 05       		.uleb128 0x5
 2360 013c 49       		.uleb128 0x49
 2361 013d 13       		.uleb128 0x13
 2362 013e 00       		.byte	0
 2363 013f 00       		.byte	0
 2364 0140 1B       		.uleb128 0x1b
 2365 0141 34       		.uleb128 0x34
 2366 0142 00       		.byte	0
 2367 0143 03       		.uleb128 0x3
 2368 0144 08       		.uleb128 0x8
 2369 0145 3A       		.uleb128 0x3a
 2370 0146 0B       		.uleb128 0xb
 2371 0147 3B       		.uleb128 0x3b
 2372 0148 05       		.uleb128 0x5
 2373 0149 49       		.uleb128 0x49
 2374 014a 13       		.uleb128 0x13
 2375 014b 3F       		.uleb128 0x3f
 2376 014c 19       		.uleb128 0x19
 2377 014d 3C       		.uleb128 0x3c
 2378 014e 19       		.uleb128 0x19
 2379 014f 00       		.byte	0
 2380 0150 00       		.byte	0
 2381 0151 1C       		.uleb128 0x1c
 2382 0152 21       		.uleb128 0x21
 2383 0153 00       		.byte	0
 2384 0154 00       		.byte	0
 2385 0155 00       		.byte	0
 2386 0156 1D       		.uleb128 0x1d
 2387 0157 2E       		.uleb128 0x2e
 2388 0158 01       		.byte	0x1
 2389 0159 3F       		.uleb128 0x3f
 2390 015a 19       		.uleb128 0x19
 2391 015b 03       		.uleb128 0x3
 2392 015c 0E       		.uleb128 0xe
 2393 015d 3A       		.uleb128 0x3a
 2394 015e 0B       		.uleb128 0xb
ARM GAS  C:\cygwin64\tmp\cca3jAnU.s 			page 43


 2395 015f 3B       		.uleb128 0x3b
 2396 0160 0B       		.uleb128 0xb
 2397 0161 27       		.uleb128 0x27
 2398 0162 19       		.uleb128 0x19
 2399 0163 11       		.uleb128 0x11
 2400 0164 01       		.uleb128 0x1
 2401 0165 12       		.uleb128 0x12
 2402 0166 06       		.uleb128 0x6
 2403 0167 40       		.uleb128 0x40
 2404 0168 18       		.uleb128 0x18
 2405 0169 9742     		.uleb128 0x2117
 2406 016b 19       		.uleb128 0x19
 2407 016c 01       		.uleb128 0x1
 2408 016d 13       		.uleb128 0x13
 2409 016e 00       		.byte	0
 2410 016f 00       		.byte	0
 2411 0170 1E       		.uleb128 0x1e
 2412 0171 0B       		.uleb128 0xb
 2413 0172 01       		.byte	0x1
 2414 0173 11       		.uleb128 0x11
 2415 0174 01       		.uleb128 0x1
 2416 0175 12       		.uleb128 0x12
 2417 0176 06       		.uleb128 0x6
 2418 0177 01       		.uleb128 0x1
 2419 0178 13       		.uleb128 0x13
 2420 0179 00       		.byte	0
 2421 017a 00       		.byte	0
 2422 017b 1F       		.uleb128 0x1f
 2423 017c 34       		.uleb128 0x34
 2424 017d 00       		.byte	0
 2425 017e 03       		.uleb128 0x3
 2426 017f 0E       		.uleb128 0xe
 2427 0180 3A       		.uleb128 0x3a
 2428 0181 0B       		.uleb128 0xb
 2429 0182 3B       		.uleb128 0x3b
 2430 0183 0B       		.uleb128 0xb
 2431 0184 49       		.uleb128 0x49
 2432 0185 13       		.uleb128 0x13
 2433 0186 02       		.uleb128 0x2
 2434 0187 17       		.uleb128 0x17
 2435 0188 00       		.byte	0
 2436 0189 00       		.byte	0
 2437 018a 20       		.uleb128 0x20
 2438 018b 1D       		.uleb128 0x1d
 2439 018c 01       		.byte	0x1
 2440 018d 31       		.uleb128 0x31
 2441 018e 13       		.uleb128 0x13
 2442 018f 11       		.uleb128 0x11
 2443 0190 01       		.uleb128 0x1
 2444 0191 12       		.uleb128 0x12
 2445 0192 06       		.uleb128 0x6
 2446 0193 58       		.uleb128 0x58
 2447 0194 0B       		.uleb128 0xb
 2448 0195 59       		.uleb128 0x59
 2449 0196 0B       		.uleb128 0xb
 2450 0197 01       		.uleb128 0x1
 2451 0198 13       		.uleb128 0x13
ARM GAS  C:\cygwin64\tmp\cca3jAnU.s 			page 44


 2452 0199 00       		.byte	0
 2453 019a 00       		.byte	0
 2454 019b 21       		.uleb128 0x21
 2455 019c 0B       		.uleb128 0xb
 2456 019d 01       		.byte	0x1
 2457 019e 11       		.uleb128 0x11
 2458 019f 01       		.uleb128 0x1
 2459 01a0 12       		.uleb128 0x12
 2460 01a1 06       		.uleb128 0x6
 2461 01a2 00       		.byte	0
 2462 01a3 00       		.byte	0
 2463 01a4 22       		.uleb128 0x22
 2464 01a5 34       		.uleb128 0x34
 2465 01a6 00       		.byte	0
 2466 01a7 31       		.uleb128 0x31
 2467 01a8 13       		.uleb128 0x13
 2468 01a9 00       		.byte	0
 2469 01aa 00       		.byte	0
 2470 01ab 23       		.uleb128 0x23
 2471 01ac 05       		.uleb128 0x5
 2472 01ad 00       		.byte	0
 2473 01ae 31       		.uleb128 0x31
 2474 01af 13       		.uleb128 0x13
 2475 01b0 02       		.uleb128 0x2
 2476 01b1 17       		.uleb128 0x17
 2477 01b2 00       		.byte	0
 2478 01b3 00       		.byte	0
 2479 01b4 24       		.uleb128 0x24
 2480 01b5 898201   		.uleb128 0x4109
 2481 01b8 00       		.byte	0
 2482 01b9 11       		.uleb128 0x11
 2483 01ba 01       		.uleb128 0x1
 2484 01bb 31       		.uleb128 0x31
 2485 01bc 13       		.uleb128 0x13
 2486 01bd 00       		.byte	0
 2487 01be 00       		.byte	0
 2488 01bf 25       		.uleb128 0x25
 2489 01c0 1D       		.uleb128 0x1d
 2490 01c1 01       		.byte	0x1
 2491 01c2 31       		.uleb128 0x31
 2492 01c3 13       		.uleb128 0x13
 2493 01c4 52       		.uleb128 0x52
 2494 01c5 01       		.uleb128 0x1
 2495 01c6 55       		.uleb128 0x55
 2496 01c7 17       		.uleb128 0x17
 2497 01c8 58       		.uleb128 0x58
 2498 01c9 0B       		.uleb128 0xb
 2499 01ca 59       		.uleb128 0x59
 2500 01cb 0B       		.uleb128 0xb
 2501 01cc 01       		.uleb128 0x1
 2502 01cd 13       		.uleb128 0x13
 2503 01ce 00       		.byte	0
 2504 01cf 00       		.byte	0
 2505 01d0 26       		.uleb128 0x26
 2506 01d1 1D       		.uleb128 0x1d
 2507 01d2 01       		.byte	0x1
 2508 01d3 31       		.uleb128 0x31
ARM GAS  C:\cygwin64\tmp\cca3jAnU.s 			page 45


 2509 01d4 13       		.uleb128 0x13
 2510 01d5 52       		.uleb128 0x52
 2511 01d6 01       		.uleb128 0x1
 2512 01d7 55       		.uleb128 0x55
 2513 01d8 17       		.uleb128 0x17
 2514 01d9 58       		.uleb128 0x58
 2515 01da 0B       		.uleb128 0xb
 2516 01db 59       		.uleb128 0x59
 2517 01dc 05       		.uleb128 0x5
 2518 01dd 00       		.byte	0
 2519 01de 00       		.byte	0
 2520 01df 27       		.uleb128 0x27
 2521 01e0 1D       		.uleb128 0x1d
 2522 01e1 01       		.byte	0x1
 2523 01e2 31       		.uleb128 0x31
 2524 01e3 13       		.uleb128 0x13
 2525 01e4 11       		.uleb128 0x11
 2526 01e5 01       		.uleb128 0x1
 2527 01e6 12       		.uleb128 0x12
 2528 01e7 06       		.uleb128 0x6
 2529 01e8 58       		.uleb128 0x58
 2530 01e9 0B       		.uleb128 0xb
 2531 01ea 59       		.uleb128 0x59
 2532 01eb 0B       		.uleb128 0xb
 2533 01ec 00       		.byte	0
 2534 01ed 00       		.byte	0
 2535 01ee 28       		.uleb128 0x28
 2536 01ef 1D       		.uleb128 0x1d
 2537 01f0 01       		.byte	0x1
 2538 01f1 31       		.uleb128 0x31
 2539 01f2 13       		.uleb128 0x13
 2540 01f3 11       		.uleb128 0x11
 2541 01f4 01       		.uleb128 0x1
 2542 01f5 12       		.uleb128 0x12
 2543 01f6 06       		.uleb128 0x6
 2544 01f7 58       		.uleb128 0x58
 2545 01f8 0B       		.uleb128 0xb
 2546 01f9 59       		.uleb128 0x59
 2547 01fa 05       		.uleb128 0x5
 2548 01fb 00       		.byte	0
 2549 01fc 00       		.byte	0
 2550 01fd 29       		.uleb128 0x29
 2551 01fe 2E       		.uleb128 0x2e
 2552 01ff 00       		.byte	0
 2553 0200 03       		.uleb128 0x3
 2554 0201 0E       		.uleb128 0xe
 2555 0202 3A       		.uleb128 0x3a
 2556 0203 0B       		.uleb128 0xb
 2557 0204 3B       		.uleb128 0x3b
 2558 0205 05       		.uleb128 0x5
 2559 0206 27       		.uleb128 0x27
 2560 0207 19       		.uleb128 0x19
 2561 0208 20       		.uleb128 0x20
 2562 0209 0B       		.uleb128 0xb
 2563 020a 00       		.byte	0
 2564 020b 00       		.byte	0
 2565 020c 2A       		.uleb128 0x2a
ARM GAS  C:\cygwin64\tmp\cca3jAnU.s 			page 46


 2566 020d 2E       		.uleb128 0x2e
 2567 020e 01       		.byte	0x1
 2568 020f 03       		.uleb128 0x3
 2569 0210 0E       		.uleb128 0xe
 2570 0211 3A       		.uleb128 0x3a
 2571 0212 0B       		.uleb128 0xb
 2572 0213 3B       		.uleb128 0x3b
 2573 0214 05       		.uleb128 0x5
 2574 0215 27       		.uleb128 0x27
 2575 0216 19       		.uleb128 0x19
 2576 0217 49       		.uleb128 0x49
 2577 0218 13       		.uleb128 0x13
 2578 0219 20       		.uleb128 0x20
 2579 021a 0B       		.uleb128 0xb
 2580 021b 01       		.uleb128 0x1
 2581 021c 13       		.uleb128 0x13
 2582 021d 00       		.byte	0
 2583 021e 00       		.byte	0
 2584 021f 2B       		.uleb128 0x2b
 2585 0220 34       		.uleb128 0x34
 2586 0221 00       		.byte	0
 2587 0222 03       		.uleb128 0x3
 2588 0223 0E       		.uleb128 0xe
 2589 0224 3A       		.uleb128 0x3a
 2590 0225 0B       		.uleb128 0xb
 2591 0226 3B       		.uleb128 0x3b
 2592 0227 05       		.uleb128 0x5
 2593 0228 49       		.uleb128 0x49
 2594 0229 13       		.uleb128 0x13
 2595 022a 00       		.byte	0
 2596 022b 00       		.byte	0
 2597 022c 2C       		.uleb128 0x2c
 2598 022d 2E       		.uleb128 0x2e
 2599 022e 01       		.byte	0x1
 2600 022f 03       		.uleb128 0x3
 2601 0230 0E       		.uleb128 0xe
 2602 0231 3A       		.uleb128 0x3a
 2603 0232 0B       		.uleb128 0xb
 2604 0233 3B       		.uleb128 0x3b
 2605 0234 05       		.uleb128 0x5
 2606 0235 27       		.uleb128 0x27
 2607 0236 19       		.uleb128 0x19
 2608 0237 20       		.uleb128 0x20
 2609 0238 0B       		.uleb128 0xb
 2610 0239 01       		.uleb128 0x1
 2611 023a 13       		.uleb128 0x13
 2612 023b 00       		.byte	0
 2613 023c 00       		.byte	0
 2614 023d 2D       		.uleb128 0x2d
 2615 023e 05       		.uleb128 0x5
 2616 023f 00       		.byte	0
 2617 0240 03       		.uleb128 0x3
 2618 0241 0E       		.uleb128 0xe
 2619 0242 3A       		.uleb128 0x3a
 2620 0243 0B       		.uleb128 0xb
 2621 0244 3B       		.uleb128 0x3b
 2622 0245 05       		.uleb128 0x5
ARM GAS  C:\cygwin64\tmp\cca3jAnU.s 			page 47


 2623 0246 49       		.uleb128 0x49
 2624 0247 13       		.uleb128 0x13
 2625 0248 00       		.byte	0
 2626 0249 00       		.byte	0
 2627 024a 2E       		.uleb128 0x2e
 2628 024b 2E       		.uleb128 0x2e
 2629 024c 01       		.byte	0x1
 2630 024d 03       		.uleb128 0x3
 2631 024e 0E       		.uleb128 0xe
 2632 024f 3A       		.uleb128 0x3a
 2633 0250 0B       		.uleb128 0xb
 2634 0251 3B       		.uleb128 0x3b
 2635 0252 0B       		.uleb128 0xb
 2636 0253 27       		.uleb128 0x27
 2637 0254 19       		.uleb128 0x19
 2638 0255 20       		.uleb128 0x20
 2639 0256 0B       		.uleb128 0xb
 2640 0257 01       		.uleb128 0x1
 2641 0258 13       		.uleb128 0x13
 2642 0259 00       		.byte	0
 2643 025a 00       		.byte	0
 2644 025b 2F       		.uleb128 0x2f
 2645 025c 05       		.uleb128 0x5
 2646 025d 00       		.byte	0
 2647 025e 03       		.uleb128 0x3
 2648 025f 0E       		.uleb128 0xe
 2649 0260 3A       		.uleb128 0x3a
 2650 0261 0B       		.uleb128 0xb
 2651 0262 3B       		.uleb128 0x3b
 2652 0263 0B       		.uleb128 0xb
 2653 0264 49       		.uleb128 0x49
 2654 0265 13       		.uleb128 0x13
 2655 0266 00       		.byte	0
 2656 0267 00       		.byte	0
 2657 0268 30       		.uleb128 0x30
 2658 0269 2E       		.uleb128 0x2e
 2659 026a 01       		.byte	0x1
 2660 026b 03       		.uleb128 0x3
 2661 026c 0E       		.uleb128 0xe
 2662 026d 3A       		.uleb128 0x3a
 2663 026e 0B       		.uleb128 0xb
 2664 026f 3B       		.uleb128 0x3b
 2665 0270 0B       		.uleb128 0xb
 2666 0271 27       		.uleb128 0x27
 2667 0272 19       		.uleb128 0x19
 2668 0273 49       		.uleb128 0x49
 2669 0274 13       		.uleb128 0x13
 2670 0275 20       		.uleb128 0x20
 2671 0276 0B       		.uleb128 0xb
 2672 0277 01       		.uleb128 0x1
 2673 0278 13       		.uleb128 0x13
 2674 0279 00       		.byte	0
 2675 027a 00       		.byte	0
 2676 027b 31       		.uleb128 0x31
 2677 027c 34       		.uleb128 0x34
 2678 027d 00       		.byte	0
 2679 027e 03       		.uleb128 0x3
ARM GAS  C:\cygwin64\tmp\cca3jAnU.s 			page 48


 2680 027f 0E       		.uleb128 0xe
 2681 0280 3A       		.uleb128 0x3a
 2682 0281 0B       		.uleb128 0xb
 2683 0282 3B       		.uleb128 0x3b
 2684 0283 0B       		.uleb128 0xb
 2685 0284 49       		.uleb128 0x49
 2686 0285 13       		.uleb128 0x13
 2687 0286 00       		.byte	0
 2688 0287 00       		.byte	0
 2689 0288 32       		.uleb128 0x32
 2690 0289 2E       		.uleb128 0x2e
 2691 028a 00       		.byte	0
 2692 028b 3F       		.uleb128 0x3f
 2693 028c 19       		.uleb128 0x19
 2694 028d 3C       		.uleb128 0x3c
 2695 028e 19       		.uleb128 0x19
 2696 028f 6E       		.uleb128 0x6e
 2697 0290 0E       		.uleb128 0xe
 2698 0291 03       		.uleb128 0x3
 2699 0292 0E       		.uleb128 0xe
 2700 0293 3A       		.uleb128 0x3a
 2701 0294 0B       		.uleb128 0xb
 2702 0295 3B       		.uleb128 0x3b
 2703 0296 05       		.uleb128 0x5
 2704 0297 00       		.byte	0
 2705 0298 00       		.byte	0
 2706 0299 00       		.byte	0
 2707              		.section	.debug_loc,"",%progbits
 2708              	.Ldebug_loc0:
 2709              	.LLST4:
 2710 0000 1C000000 		.4byte	.LVL8
 2711 0004 30000000 		.4byte	.LVL10
 2712 0008 0400     		.2byte	0x4
 2713 000a 74       		.byte	0x74
 2714 000b 987F     		.sleb128 -104
 2715 000d 9F       		.byte	0x9f
 2716 000e 30000000 		.4byte	.LVL10
 2717 0012 37000000 		.4byte	.LVL12-1
 2718 0016 0100     		.2byte	0x1
 2719 0018 53       		.byte	0x53
 2720 0019 37000000 		.4byte	.LVL12-1
 2721 001d 46000000 		.4byte	.LVL14
 2722 0021 0400     		.2byte	0x4
 2723 0023 74       		.byte	0x74
 2724 0024 987F     		.sleb128 -104
 2725 0026 9F       		.byte	0x9f
 2726 0027 00000000 		.4byte	0
 2727 002b 00000000 		.4byte	0
 2728              	.LLST5:
 2729 002f 2C000000 		.4byte	.LVL9
 2730 0033 30000000 		.4byte	.LVL10
 2731 0037 0400     		.2byte	0x4
 2732 0039 74       		.byte	0x74
 2733 003a 987F     		.sleb128 -104
 2734 003c 9F       		.byte	0x9f
 2735 003d 30000000 		.4byte	.LVL10
 2736 0041 34000000 		.4byte	.LVL11
ARM GAS  C:\cygwin64\tmp\cca3jAnU.s 			page 49


 2737 0045 0100     		.2byte	0x1
 2738 0047 53       		.byte	0x53
 2739 0048 00000000 		.4byte	0
 2740 004c 00000000 		.4byte	0
 2741              	.LLST3:
 2742 0050 00000000 		.4byte	.LVL5
 2743 0054 0A000000 		.4byte	.LVL6
 2744 0058 0300     		.2byte	0x3
 2745 005a 08       		.byte	0x8
 2746 005b 20       		.byte	0x20
 2747 005c 9F       		.byte	0x9f
 2748 005d 00000000 		.4byte	0
 2749 0061 00000000 		.4byte	0
 2750              	.LLST6:
 2751 0065 46000000 		.4byte	.LVL14
 2752 0069 4A000000 		.4byte	.LVL15
 2753 006d 0200     		.2byte	0x2
 2754 006f 30       		.byte	0x30
 2755 0070 9F       		.byte	0x9f
 2756 0071 00000000 		.4byte	0
 2757 0075 00000000 		.4byte	0
 2758              	.LLST0:
 2759 0079 12000000 		.4byte	.LVL0
 2760 007d 14000000 		.4byte	.LVL1
 2761 0081 0400     		.2byte	0x4
 2762 0083 73       		.byte	0x73
 2763 0084 E800     		.sleb128 104
 2764 0086 9F       		.byte	0x9f
 2765 0087 14000000 		.4byte	.LVL1
 2766 008b 1A000000 		.4byte	.LVL3
 2767 008f 0100     		.2byte	0x1
 2768 0091 53       		.byte	0x53
 2769 0092 00000000 		.4byte	0
 2770 0096 00000000 		.4byte	0
 2771              	.LLST1:
 2772 009a 12000000 		.4byte	.LVL0
 2773 009e 14000000 		.4byte	.LVL1
 2774 00a2 0400     		.2byte	0x4
 2775 00a4 73       		.byte	0x73
 2776 00a5 E800     		.sleb128 104
 2777 00a7 9F       		.byte	0x9f
 2778 00a8 14000000 		.4byte	.LVL1
 2779 00ac 18000000 		.4byte	.LVL2
 2780 00b0 0100     		.2byte	0x1
 2781 00b2 53       		.byte	0x53
 2782 00b3 00000000 		.4byte	0
 2783 00b7 00000000 		.4byte	0
 2784              	.LLST2:
 2785 00bb 18000000 		.4byte	.LVL2
 2786 00bf 1E000000 		.4byte	.LVL4
 2787 00c3 0200     		.2byte	0x2
 2788 00c5 30       		.byte	0x30
 2789 00c6 9F       		.byte	0x9f
 2790 00c7 00000000 		.4byte	0
 2791 00cb 00000000 		.4byte	0
 2792              		.section	.debug_aranges,"",%progbits
 2793 0000 24000000 		.4byte	0x24
ARM GAS  C:\cygwin64\tmp\cca3jAnU.s 			page 50


 2794 0004 0200     		.2byte	0x2
 2795 0006 00000000 		.4byte	.Ldebug_info0
 2796 000a 04       		.byte	0x4
 2797 000b 00       		.byte	0
 2798 000c 0000     		.2byte	0
 2799 000e 0000     		.2byte	0
 2800 0010 00000000 		.4byte	.LFB246
 2801 0014 24000000 		.4byte	.LFE246-.LFB246
 2802 0018 00000000 		.4byte	.LFB247
 2803 001c 5C000000 		.4byte	.LFE247-.LFB247
 2804 0020 00000000 		.4byte	0
 2805 0024 00000000 		.4byte	0
 2806              		.section	.debug_ranges,"",%progbits
 2807              	.Ldebug_ranges0:
 2808 0000 02000000 		.4byte	.LBB59
 2809 0004 04000000 		.4byte	.LBE59
 2810 0008 06000000 		.4byte	.LBB66
 2811 000c 0A000000 		.4byte	.LBE66
 2812 0010 00000000 		.4byte	0
 2813 0014 00000000 		.4byte	0
 2814 0018 00000000 		.4byte	.LFB246
 2815 001c 24000000 		.4byte	.LFE246
 2816 0020 00000000 		.4byte	.LFB247
 2817 0024 5C000000 		.4byte	.LFE247
 2818 0028 00000000 		.4byte	0
 2819 002c 00000000 		.4byte	0
 2820              		.section	.debug_line,"",%progbits
 2821              	.Ldebug_line0:
 2822 0000 2C030000 		.section	.debug_str,"MS",%progbits,1
 2822      0200AF02 
 2822      00000201 
 2822      FB0E0D00 
 2822      01010101 
 2823              	.LASF56:
 2824 0000 72656164 		.ascii	"ready_list_t\000"
 2824      795F6C69 
 2824      73745F74 
 2824      00
 2825              	.LASF125:
 2826 000d 77747472 		.ascii	"wttrp\000"
 2826      7000
 2827              	.LASF62:
 2828 0013 64656C74 		.ascii	"delta\000"
 2828      6100
 2829              	.LASF122:
 2830 0019 7264796D 		.ascii	"rdymsg\000"
 2830      736700
 2831              	.LASF95:
 2832 0020 46504453 		.ascii	"FPDSCR\000"
 2832      435200
 2833              	.LASF19:
 2834 0027 75696E74 		.ascii	"uint64_t\000"
 2834      36345F74 
 2834      00
 2835              	.LASF75:
 2836 0030 6B65726E 		.ascii	"kernel_stats\000"
 2836      656C5F73 
ARM GAS  C:\cygwin64\tmp\cca3jAnU.s 			page 51


 2836      74617473 
 2836      00
 2837              	.LASF3:
 2838 003d 7369676E 		.ascii	"signed char\000"
 2838      65642063 
 2838      68617200 
 2839              	.LASF6:
 2840 0049 5F5F7569 		.ascii	"__uint8_t\000"
 2840      6E74385F 
 2840      7400
 2841              	.LASF55:
 2842 0053 70726576 		.ascii	"prev\000"
 2842      00
 2843              	.LASF104:
 2844 0058 706F7274 		.ascii	"port_intctx\000"
 2844      5F696E74 
 2844      63747800 
 2845              	.LASF54:
 2846 0064 63685F74 		.ascii	"ch_threads_queue\000"
 2846      68726561 
 2846      64735F71 
 2846      75657565 
 2846      00
 2847              	.LASF67:
 2848 0075 73797374 		.ascii	"system_debug_t\000"
 2848      656D5F64 
 2848      65627567 
 2848      5F7400
 2849              	.LASF49:
 2850 0084 74687265 		.ascii	"threads_list_t\000"
 2850      6164735F 
 2850      6C697374 
 2850      5F7400
 2851              	.LASF163:
 2852 0093 706F7274 		.ascii	"port_lock\000"
 2852      5F6C6F63 
 2852      6B00
 2853              	.LASF113:
 2854 009d 776F7273 		.ascii	"worst\000"
 2854      7400
 2855              	.LASF116:
 2856 00a3 74696D65 		.ascii	"time_measurement_t\000"
 2856      5F6D6561 
 2856      73757265 
 2856      6D656E74 
 2856      5F7400
 2857              	.LASF123:
 2858 00b6 65786974 		.ascii	"exitcode\000"
 2858      636F6465 
 2858      00
 2859              	.LASF74:
 2860 00bf 6D61696E 		.ascii	"mainthread\000"
 2860      74687265 
 2860      616400
 2861              	.LASF126:
 2862 00ca 73656E74 		.ascii	"sentmsg\000"
 2862      6D736700 
ARM GAS  C:\cygwin64\tmp\cca3jAnU.s 			page 52


 2863              	.LASF64:
 2864 00d2 76697274 		.ascii	"virtual_timers_list_t\000"
 2864      75616C5F 
 2864      74696D65 
 2864      72735F6C 
 2864      6973745F 
 2865              	.LASF77:
 2866 00e8 43505549 		.ascii	"CPUID\000"
 2866      4400
 2867              	.LASF52:
 2868 00ee 6E657874 		.ascii	"next\000"
 2868      00
 2869              	.LASF21:
 2870 00f3 72747469 		.ascii	"rttime_t\000"
 2870      6D655F74 
 2870      00
 2871              	.LASF137:
 2872 00fc 73697A65 		.ascii	"size\000"
 2872      00
 2873              	.LASF14:
 2874 0101 6C6F6E67 		.ascii	"long long unsigned int\000"
 2874      206C6F6E 
 2874      6720756E 
 2874      7369676E 
 2874      65642069 
 2875              	.LASF171:
 2876 0118 474E5520 		.ascii	"GNU C11 6.3.1 20170620 (release) [ARM/embedded-6-br"
 2876      43313120 
 2876      362E332E 
 2876      31203230 
 2876      31373036 
 2877 014b 616E6368 		.ascii	"anch revision 249437] -mcpu=cortex-m4 -mfloat-abi=h"
 2877      20726576 
 2877      6973696F 
 2877      6E203234 
 2877      39343337 
 2878 017e 61726420 		.ascii	"ard -mfpu=fpv4-sp-d16 -mno-thumb-interwork -mthumb "
 2878      2D6D6670 
 2878      753D6670 
 2878      76342D73 
 2878      702D6431 
 2879 01b1 2D67202D 		.ascii	"-g -Os -fomit-frame-pointer -falign-functions=16 -f"
 2879      4F73202D 
 2879      666F6D69 
 2879      742D6672 
 2879      616D652D 
 2880 01e4 66756E63 		.ascii	"function-sections -fdata-sections -fno-common -fsin"
 2880      74696F6E 
 2880      2D736563 
 2880      74696F6E 
 2880      73202D66 
 2881 0217 676C652D 		.ascii	"gle-precision-constant\000"
 2881      70726563 
 2881      6973696F 
 2881      6E2D636F 
 2881      6E737461 
 2882              	.LASF89:
ARM GAS  C:\cygwin64\tmp\cca3jAnU.s 			page 53


 2883 022e 49534152 		.ascii	"ISAR\000"
 2883      00
 2884              	.LASF73:
 2885 0233 76746C69 		.ascii	"vtlist\000"
 2885      737400
 2886              	.LASF162:
 2887 023a 706F7274 		.ascii	"port_unlock\000"
 2887      5F756E6C 
 2887      6F636B00 
 2888              	.LASF42:
 2889 0246 6D736771 		.ascii	"msgqueue\000"
 2889      75657565 
 2889      00
 2890              	.LASF38:
 2891 024f 73746174 		.ascii	"state\000"
 2891      6500
 2892              	.LASF10:
 2893 0255 6C6F6E67 		.ascii	"long int\000"
 2893      20696E74 
 2893      00
 2894              	.LASF23:
 2895 025e 74737461 		.ascii	"tstate_t\000"
 2895      74655F74 
 2895      00
 2896              	.LASF63:
 2897 0267 66756E63 		.ascii	"func\000"
 2897      00
 2898              	.LASF47:
 2899 026c 73746174 		.ascii	"stats\000"
 2899      7300
 2900              	.LASF153:
 2901 0272 63686465 		.ascii	"chdebug_t\000"
 2901      6275675F 
 2901      7400
 2902              	.LASF151:
 2903 027c 6F66665F 		.ascii	"off_preempt\000"
 2903      70726565 
 2903      6D707400 
 2904              	.LASF174:
 2905 0288 63685363 		.ascii	"chSchIsPreemptionRequired\000"
 2905      68497350 
 2905      7265656D 
 2905      7074696F 
 2905      6E526571 
 2906              	.LASF150:
 2907 02a2 6F66665F 		.ascii	"off_refs\000"
 2907      72656673 
 2907      00
 2908              	.LASF11:
 2909 02ab 5F5F7569 		.ascii	"__uint32_t\000"
 2909      6E743332 
 2909      5F7400
 2910              	.LASF101:
 2911 02b6 72656761 		.ascii	"regarm_t\000"
 2911      726D5F74 
 2911      00
 2912              	.LASF92:
ARM GAS  C:\cygwin64\tmp\cca3jAnU.s 			page 54


 2913 02bf 5343425F 		.ascii	"SCB_Type\000"
 2913      54797065 
 2913      00
 2914              	.LASF68:
 2915 02c8 63685F73 		.ascii	"ch_system_debug\000"
 2915      79737465 
 2915      6D5F6465 
 2915      62756700 
 2916              	.LASF41:
 2917 02d8 77616974 		.ascii	"waiting\000"
 2917      696E6700 
 2918              	.LASF136:
 2919 02e0 7A65726F 		.ascii	"zero\000"
 2919      00
 2920              	.LASF1:
 2921 02e5 6C6F6E67 		.ascii	"long long int\000"
 2921      206C6F6E 
 2921      6720696E 
 2921      7400
 2922              	.LASF166:
 2923 02f3 76616C75 		.ascii	"value\000"
 2923      6500
 2924              	.LASF28:
 2925 02f9 636E745F 		.ascii	"cnt_t\000"
 2925      7400
 2926              	.LASF98:
 2927 02ff 4650555F 		.ascii	"FPU_Type\000"
 2927      54797065 
 2927      00
 2928              	.LASF0:
 2929 0308 756E7369 		.ascii	"unsigned int\000"
 2929      676E6564 
 2929      20696E74 
 2929      00
 2930              	.LASF165:
 2931 0315 5F5F7365 		.ascii	"__set_PSP\000"
 2931      745F5053 
 2931      5000
 2932              	.LASF16:
 2933 031f 75696E74 		.ascii	"uint16_t\000"
 2933      31365F74 
 2933      00
 2934              	.LASF100:
 2935 0328 53797374 		.ascii	"SystemCoreClock\000"
 2935      656D436F 
 2935      7265436C 
 2935      6F636B00 
 2936              	.LASF127:
 2937 0338 77747365 		.ascii	"wtsemp\000"
 2937      6D7000
 2938              	.LASF154:
 2939 033f 63685F64 		.ascii	"ch_debug\000"
 2939      65627567 
 2939      00
 2940              	.LASF117:
 2941 0348 6E5F6972 		.ascii	"n_irq\000"
 2941      7100
ARM GAS  C:\cygwin64\tmp\cca3jAnU.s 			page 55


 2942              	.LASF79:
 2943 034e 56544F52 		.ascii	"VTOR\000"
 2943      00
 2944              	.LASF46:
 2945 0353 6D706F6F 		.ascii	"mpool\000"
 2945      6C00
 2946              	.LASF109:
 2947 0359 72657365 		.ascii	"reserved\000"
 2947      72766564 
 2947      00
 2948              	.LASF121:
 2949 0362 6B65726E 		.ascii	"kernel_stats_t\000"
 2949      656C5F73 
 2949      74617473 
 2949      5F7400
 2950              	.LASF36:
 2951 0371 6E616D65 		.ascii	"name\000"
 2951      00
 2952              	.LASF50:
 2953 0376 63685F74 		.ascii	"ch_thread\000"
 2953      68726561 
 2953      6400
 2954              	.LASF86:
 2955 0380 42464152 		.ascii	"BFAR\000"
 2955      00
 2956              	.LASF78:
 2957 0385 49435352 		.ascii	"ICSR\000"
 2957      00
 2958              	.LASF26:
 2959 038a 6D73675F 		.ascii	"msg_t\000"
 2959      7400
 2960              	.LASF80:
 2961 0390 41495243 		.ascii	"AIRCR\000"
 2961      5200
 2962              	.LASF84:
 2963 0396 44465352 		.ascii	"DFSR\000"
 2963      00
 2964              	.LASF29:
 2965 039b 75636E74 		.ascii	"ucnt_t\000"
 2965      5F7400
 2966              	.LASF43:
 2967 03a2 6570656E 		.ascii	"epending\000"
 2967      64696E67 
 2967      00
 2968              	.LASF85:
 2969 03ab 4D4D4641 		.ascii	"MMFAR\000"
 2969      5200
 2970              	.LASF157:
 2971 03b1 5F706F72 		.ascii	"_port_irq_epilogue\000"
 2971      745F6972 
 2971      715F6570 
 2971      696C6F67 
 2971      756500
 2972              	.LASF143:
 2973 03c4 6F66665F 		.ascii	"off_ctx\000"
 2973      63747800 
 2974              	.LASF22:
ARM GAS  C:\cygwin64\tmp\cca3jAnU.s 			page 56


 2975 03cc 746D6F64 		.ascii	"tmode_t\000"
 2975      655F7400 
 2976              	.LASF120:
 2977 03d4 6D5F6372 		.ascii	"m_crit_isr\000"
 2977      69745F69 
 2977      737200
 2978              	.LASF57:
 2979 03df 63685F72 		.ascii	"ch_ready_list\000"
 2979      65616479 
 2979      5F6C6973 
 2979      7400
 2980              	.LASF27:
 2981 03ed 6576656E 		.ascii	"eventmask_t\000"
 2981      746D6173 
 2981      6B5F7400 
 2982              	.LASF146:
 2983 03f9 6F66665F 		.ascii	"off_name\000"
 2983      6E616D65 
 2983      00
 2984              	.LASF167:
 2985 0402 746F704F 		.ascii	"topOfProcStack\000"
 2985      6650726F 
 2985      63537461 
 2985      636B00
 2986              	.LASF9:
 2987 0411 5F5F696E 		.ascii	"__int32_t\000"
 2987      7433325F 
 2987      7400
 2988              	.LASF102:
 2989 041b 73746B61 		.ascii	"stkalign_t\000"
 2989      6C69676E 
 2989      5F7400
 2990              	.LASF34:
 2991 0426 6E657765 		.ascii	"newer\000"
 2991      7200
 2992              	.LASF45:
 2993 042c 7265616C 		.ascii	"realprio\000"
 2993      7072696F 
 2993      00
 2994              	.LASF138:
 2995 0435 76657273 		.ascii	"version\000"
 2995      696F6E00 
 2996              	.LASF93:
 2997 043d 46504343 		.ascii	"FPCCR\000"
 2997      5200
 2998              	.LASF76:
 2999 0443 73697A65 		.ascii	"sizetype\000"
 2999      74797065 
 2999      00
 3000              	.LASF48:
 3001 044c 74687265 		.ascii	"thread_reference_t\000"
 3001      61645F72 
 3001      65666572 
 3001      656E6365 
 3001      5F7400
 3002              	.LASF65:
 3003 045f 63685F76 		.ascii	"ch_virtual_timers_list\000"
ARM GAS  C:\cygwin64\tmp\cca3jAnU.s 			page 57


 3003      69727475 
 3003      616C5F74 
 3003      696D6572 
 3003      735F6C69 
 3004              	.LASF173:
 3005 0476 433A5C63 		.ascii	"C:\\cygwin64\\home\\calfan\\ardupilot\\build\\fmuv3"
 3005      79677769 
 3005      6E36345C 
 3005      686F6D65 
 3005      5C63616C 
 3006 04a3 00       		.ascii	"\000"
 3007              	.LASF32:
 3008 04a4 71756575 		.ascii	"queue\000"
 3008      6500
 3009              	.LASF82:
 3010 04aa 43465352 		.ascii	"CFSR\000"
 3010      00
 3011              	.LASF144:
 3012 04af 6F66665F 		.ascii	"off_newer\000"
 3012      6E657765 
 3012      7200
 3013              	.LASF103:
 3014 04b9 706F7274 		.ascii	"port_context\000"
 3014      5F636F6E 
 3014      74657874 
 3014      00
 3015              	.LASF105:
 3016 04c6 706F7274 		.ascii	"port_extctx\000"
 3016      5F657874 
 3016      63747800 
 3017              	.LASF111:
 3018 04d2 746D5F63 		.ascii	"tm_calibration_t\000"
 3018      616C6962 
 3018      72617469 
 3018      6F6E5F74 
 3018      00
 3019              	.LASF33:
 3020 04e3 7072696F 		.ascii	"prio\000"
 3020      00
 3021              	.LASF58:
 3022 04e8 63757272 		.ascii	"current\000"
 3022      656E7400 
 3023              	.LASF114:
 3024 04f0 6C617374 		.ascii	"last\000"
 3024      00
 3025              	.LASF13:
 3026 04f5 5F5F7569 		.ascii	"__uint64_t\000"
 3026      6E743634 
 3026      5F7400
 3027              	.LASF115:
 3028 0500 63756D75 		.ascii	"cumulative\000"
 3028      6C617469 
 3028      766500
 3029              	.LASF96:
 3030 050b 4D564652 		.ascii	"MVFR0\000"
 3030      3000
 3031              	.LASF97:
ARM GAS  C:\cygwin64\tmp\cca3jAnU.s 			page 58


 3032 0511 4D564652 		.ascii	"MVFR1\000"
 3032      3100
 3033              	.LASF24:
 3034 0517 74726566 		.ascii	"trefs_t\000"
 3034      735F7400 
 3035              	.LASF90:
 3036 051f 52455345 		.ascii	"RESERVED0\000"
 3036      52564544 
 3036      3000
 3037              	.LASF141:
 3038 0529 74687265 		.ascii	"threadsize\000"
 3038      61647369 
 3038      7A6500
 3039              	.LASF159:
 3040 0534 63747870 		.ascii	"ctxp\000"
 3040      00
 3041              	.LASF60:
 3042 0539 76697274 		.ascii	"virtual_timer_t\000"
 3042      75616C5F 
 3042      74696D65 
 3042      725F7400 
 3043              	.LASF25:
 3044 0549 74707269 		.ascii	"tprio_t\000"
 3044      6F5F7400 
 3045              	.LASF168:
 3046 0551 5F5F6765 		.ascii	"__get_FPSCR\000"
 3046      745F4650 
 3046      53435200 
 3047              	.LASF118:
 3048 055d 6E5F6374 		.ascii	"n_ctxswc\000"
 3048      78737763 
 3048      00
 3049              	.LASF156:
 3050 0566 5F426F6F 		.ascii	"_Bool\000"
 3050      6C00
 3051              	.LASF17:
 3052 056c 696E7433 		.ascii	"int32_t\000"
 3052      325F7400 
 3053              	.LASF4:
 3054 0574 756E7369 		.ascii	"unsigned char\000"
 3054      676E6564 
 3054      20636861 
 3054      7200
 3055              	.LASF142:
 3056 0582 6F66665F 		.ascii	"off_prio\000"
 3056      7072696F 
 3056      00
 3057              	.LASF147:
 3058 058b 6F66665F 		.ascii	"off_stklimit\000"
 3058      73746B6C 
 3058      696D6974 
 3058      00
 3059              	.LASF81:
 3060 0598 53484353 		.ascii	"SHCSR\000"
 3060      5200
 3061              	.LASF99:
 3062 059e 49544D5F 		.ascii	"ITM_RxBuffer\000"
ARM GAS  C:\cygwin64\tmp\cca3jAnU.s 			page 59


 3062      52784275 
 3062      66666572 
 3062      00
 3063              	.LASF40:
 3064 05ab 72656673 		.ascii	"refs\000"
 3064      00
 3065              	.LASF5:
 3066 05b0 73686F72 		.ascii	"short int\000"
 3066      7420696E 
 3066      7400
 3067              	.LASF66:
 3068 05ba 6C617374 		.ascii	"lasttime\000"
 3068      74696D65 
 3068      00
 3069              	.LASF107:
 3070 05c3 78707372 		.ascii	"xpsr\000"
 3070      00
 3071              	.LASF129:
 3072 05c8 65776D61 		.ascii	"ewmask\000"
 3072      736B00
 3073              	.LASF71:
 3074 05cf 63685F73 		.ascii	"ch_system\000"
 3074      79737465 
 3074      6D00
 3075              	.LASF108:
 3076 05d9 66707363 		.ascii	"fpscr\000"
 3076      7200
 3077              	.LASF106:
 3078 05df 6C725F74 		.ascii	"lr_thd\000"
 3078      686400
 3079              	.LASF94:
 3080 05e6 46504341 		.ascii	"FPCAR\000"
 3080      5200
 3081              	.LASF158:
 3082 05ec 5356435F 		.ascii	"SVC_Handler\000"
 3082      48616E64 
 3082      6C657200 
 3083              	.LASF61:
 3084 05f8 63685F76 		.ascii	"ch_virtual_timer\000"
 3084      69727475 
 3084      616C5F74 
 3084      696D6572 
 3084      00
 3085              	.LASF130:
 3086 0609 63685F73 		.ascii	"ch_semaphore\000"
 3086      656D6170 
 3086      686F7265 
 3086      00
 3087              	.LASF152:
 3088 0616 6F66665F 		.ascii	"off_time\000"
 3088      74696D65 
 3088      00
 3089              	.LASF134:
 3090 061f 63685F69 		.ascii	"ch_idle_thread_wa\000"
 3090      646C655F 
 3090      74687265 
 3090      61645F77 
ARM GAS  C:\cygwin64\tmp\cca3jAnU.s 			page 60


 3090      6100
 3091              	.LASF140:
 3092 0631 74696D65 		.ascii	"timesize\000"
 3092      73697A65 
 3092      00
 3093              	.LASF18:
 3094 063a 75696E74 		.ascii	"uint32_t\000"
 3094      33325F74 
 3094      00
 3095              	.LASF128:
 3096 0643 77746D74 		.ascii	"wtmtxp\000"
 3096      787000
 3097              	.LASF87:
 3098 064a 41465352 		.ascii	"AFSR\000"
 3098      00
 3099              	.LASF51:
 3100 064f 63685F74 		.ascii	"ch_threads_list\000"
 3100      68726561 
 3100      64735F6C 
 3100      69737400 
 3101              	.LASF132:
 3102 065f 6F776E65 		.ascii	"owner\000"
 3102      7200
 3103              	.LASF12:
 3104 0665 6C6F6E67 		.ascii	"long unsigned int\000"
 3104      20756E73 
 3104      69676E65 
 3104      6420696E 
 3104      7400
 3105              	.LASF37:
 3106 0677 77616261 		.ascii	"wabase\000"
 3106      736500
 3107              	.LASF133:
 3108 067e 63686172 		.ascii	"char\000"
 3108      00
 3109              	.LASF35:
 3110 0683 6F6C6465 		.ascii	"older\000"
 3110      7200
 3111              	.LASF7:
 3112 0689 5F5F7569 		.ascii	"__uint16_t\000"
 3112      6E743136 
 3112      5F7400
 3113              	.LASF160:
 3114 0694 706F7274 		.ascii	"port_unlock_from_isr\000"
 3114      5F756E6C 
 3114      6F636B5F 
 3114      66726F6D 
 3114      5F697372 
 3115              	.LASF31:
 3116 06a9 74687265 		.ascii	"thread_t\000"
 3116      61645F74 
 3116      00
 3117              	.LASF112:
 3118 06b2 62657374 		.ascii	"best\000"
 3118      00
 3119              	.LASF2:
 3120 06b7 6C6F6E67 		.ascii	"long double\000"
ARM GAS  C:\cygwin64\tmp\cca3jAnU.s 			page 61


 3120      20646F75 
 3120      626C6500 
 3121              	.LASF30:
 3122 06c3 73797374 		.ascii	"systime_t\000"
 3122      696D655F 
 3122      7400
 3123              	.LASF59:
 3124 06cd 76746675 		.ascii	"vtfunc_t\000"
 3124      6E635F74 
 3124      00
 3125              	.LASF164:
 3126 06d6 5F5F7365 		.ascii	"__set_BASEPRI\000"
 3126      745F4241 
 3126      53455052 
 3126      4900
 3127              	.LASF69:
 3128 06e4 70616E69 		.ascii	"panic_msg\000"
 3128      635F6D73 
 3128      6700
 3129              	.LASF110:
 3130 06ee 6F666673 		.ascii	"offset\000"
 3130      657400
 3131              	.LASF145:
 3132 06f5 6F66665F 		.ascii	"off_older\000"
 3132      6F6C6465 
 3132      7200
 3133              	.LASF8:
 3134 06ff 73686F72 		.ascii	"short unsigned int\000"
 3134      7420756E 
 3134      7369676E 
 3134      65642069 
 3134      6E7400
 3135              	.LASF70:
 3136 0712 63685F73 		.ascii	"ch_system_t\000"
 3136      79737465 
 3136      6D5F7400 
 3137              	.LASF135:
 3138 071e 6964656E 		.ascii	"identifier\000"
 3138      74696669 
 3138      657200
 3139              	.LASF20:
 3140 0729 7274636E 		.ascii	"rtcnt_t\000"
 3140      745F7400 
 3141              	.LASF161:
 3142 0731 706F7274 		.ascii	"port_lock_from_isr\000"
 3142      5F6C6F63 
 3142      6B5F6672 
 3142      6F6D5F69 
 3142      737200
 3143              	.LASF169:
 3144 0744 5F5F6765 		.ascii	"__get_PSP\000"
 3144      745F5053 
 3144      5000
 3145              	.LASF139:
 3146 074e 70747273 		.ascii	"ptrsize\000"
 3146      697A6500 
 3147              	.LASF53:
ARM GAS  C:\cygwin64\tmp\cca3jAnU.s 			page 62


 3148 0756 74687265 		.ascii	"threads_queue_t\000"
 3148      6164735F 
 3148      71756575 
 3148      655F7400 
 3149              	.LASF131:
 3150 0766 63685F6D 		.ascii	"ch_mutex\000"
 3150      75746578 
 3150      00
 3151              	.LASF88:
 3152 076f 4D4D4652 		.ascii	"MMFR\000"
 3152      00
 3153              	.LASF72:
 3154 0774 726C6973 		.ascii	"rlist\000"
 3154      7400
 3155              	.LASF172:
 3156 077a 2E2E2F2E 		.ascii	"../../modules/ChibiOS/os/common/ports/ARMCMx/chcore"
 3156      2E2F6D6F 
 3156      64756C65 
 3156      732F4368 
 3156      6962694F 
 3157 07ad 5F76376D 		.ascii	"_v7m.c\000"
 3157      2E6300
 3158              	.LASF15:
 3159 07b4 75696E74 		.ascii	"uint8_t\000"
 3159      385F7400 
 3160              	.LASF39:
 3161 07bc 666C6167 		.ascii	"flags\000"
 3161      7300
 3162              	.LASF149:
 3163 07c2 6F66665F 		.ascii	"off_flags\000"
 3163      666C6167 
 3163      7300
 3164              	.LASF124:
 3165 07cc 77746F62 		.ascii	"wtobjp\000"
 3165      6A7000
 3166              	.LASF148:
 3167 07d3 6F66665F 		.ascii	"off_state\000"
 3167      73746174 
 3167      6500
 3168              	.LASF91:
 3169 07dd 43504143 		.ascii	"CPACR\000"
 3169      5200
 3170              	.LASF83:
 3171 07e3 48465352 		.ascii	"HFSR\000"
 3171      00
 3172              	.LASF44:
 3173 07e8 6D74786C 		.ascii	"mtxlist\000"
 3173      69737400 
 3174              	.LASF155:
 3175 07f0 6D757465 		.ascii	"mutex_t\000"
 3175      785F7400 
 3176              	.LASF119:
 3177 07f8 6D5F6372 		.ascii	"m_crit_thd\000"
 3177      69745F74 
 3177      686400
 3178              	.LASF170:
 3179 0803 72657375 		.ascii	"result\000"
ARM GAS  C:\cygwin64\tmp\cca3jAnU.s 			page 63


 3179      6C7400
 3180              		.ident	"GCC: (GNU Tools for ARM Embedded Processors 6-2017-q2-update) 6.3.1 20170620 (release) [AR
ARM GAS  C:\cygwin64\tmp\cca3jAnU.s 			page 64


DEFINED SYMBOLS
                            *ABS*:00000000 chcore_v7m.c
C:\cygwin64\tmp\cca3jAnU.s:18     .text.SVC_Handler:00000000 $t
C:\cygwin64\tmp\cca3jAnU.s:25     .text.SVC_Handler:00000000 SVC_Handler
C:\cygwin64\tmp\cca3jAnU.s:93     .text.SVC_Handler:00000020 $d
C:\cygwin64\tmp\cca3jAnU.s:102    .text._port_irq_epilogue:00000000 $t
C:\cygwin64\tmp\cca3jAnU.s:109    .text._port_irq_epilogue:00000000 _port_irq_epilogue
C:\cygwin64\tmp\cca3jAnU.s:241    .text._port_irq_epilogue:0000004c $d
                     .debug_frame:00000010 $d

UNDEFINED SYMBOLS
chSchIsPreemptionRequired
_port_switch_from_isr
_port_exit_from_isr
