ARM GAS  C:\cygwin64\tmp\cca3jAnU.s 			page 1


   1              		.cpu cortex-m4
   2              		.eabi_attribute 27, 1
   3              		.eabi_attribute 28, 1
   4              		.eabi_attribute 20, 1
   5              		.eabi_attribute 21, 1
   6              		.eabi_attribute 23, 3
   7              		.eabi_attribute 24, 1
   8              		.eabi_attribute 25, 1
   9              		.eabi_attribute 26, 1
  10              		.eabi_attribute 30, 4
  11              		.eabi_attribute 34, 1
  12              		.eabi_attribute 18, 4
  13              		.file	"chcore_v7m.c"
  14              		.text
  15              	.Ltext0:
  16              		.cfi_sections	.debug_frame
  17              		.section	.text.SVC_Handler,"ax",%progbits
  18              		.align	1
  19              		.global	SVC_Handler
  20              		.syntax unified
  21              		.thumb
  22              		.thumb_func
  23              		.fpu fpv4-sp-d16
  24              		.type	SVC_Handler, %function
  25              	SVC_Handler:
  26              	.LFB246:
  27              		.file 1 "../../modules/ChibiOS/os/common/ports/ARMCMx/chcore_v7m.c"
  28              		.loc 1 62 0
  29              		.cfi_startproc
  30              		@ args = 0, pretend = 0, frame = 0
  31              		@ frame_needed = 1, uses_anonymous_args = 0
  32 0000 80B5     		push	{r7, lr}
  33              		.cfi_def_cfa_offset 8
  34              		.cfi_offset 7, -8
  35              		.cfi_offset 14, -4
  36              		.loc 1 68 0
  37 0002 074A     		ldr	r2, .L2
  38 0004 5368     		ldr	r3, [r2, #4]
  39 0006 23F00103 		bic	r3, r3, #1
  40              		.loc 1 62 0
  41 000a 00AF     		add	r7, sp, #0
  42              		.cfi_def_cfa_register 7
  43              		.loc 1 68 0
  44 000c 5360     		str	r3, [r2, #4]
  45              	.LBB51:
  46              	.LBB52:
  47              		.file 2 "../../modules/ChibiOS/os/common/ext/CMSIS/include/cmsis_gcc.h"
  48              		.loc 2 152 0
  49              		.syntax unified
  50              	@ 152 "../../modules/ChibiOS/os/common/ext/CMSIS/include/cmsis_gcc.h" 1
  51 000e EFF30983 		MRS r3, psp
  52              	
  53              	@ 0 "" 2
  54              	.LVL0:
  55              		.thumb
  56              		.syntax unified
  57              	.LBE52:
ARM GAS  C:\cygwin64\tmp\cca3jAnU.s 			page 2


  58              	.LBE51:
  59              		.loc 1 76 0
  60 0012 6833     		adds	r3, r3, #104
  61              	.LVL1:
  62              	.LBB53:
  63              	.LBB54:
  64              		.loc 2 164 0
  65              		.syntax unified
  66              	@ 164 "../../modules/ChibiOS/os/common/ext/CMSIS/include/cmsis_gcc.h" 1
  67 0014 83F30988 		MSR psp, r3
  68              	
  69              	@ 0 "" 2
  70              	.LVL2:
  71              		.thumb
  72              		.syntax unified
  73              	.LBE54:
  74              	.LBE53:
  75              	.LBB55:
  76              	.LBB56:
  77              	.LBB57:
  78              	.LBB58:
  79              		.loc 2 264 0
  80 0018 0023     		movs	r3, #0
  81              	.LVL3:
  82              		.syntax unified
  83              	@ 264 "../../modules/ChibiOS/os/common/ext/CMSIS/include/cmsis_gcc.h" 1
  84 001a 83F31188 		MSR basepri, r3
  85              	@ 0 "" 2
  86              	.LVL4:
  87              		.thumb
  88              		.syntax unified
  89 001e 80BD     		pop	{r7, pc}
  90              	.L3:
  91              		.align	2
  92              	.L2:
  93 0020 30EF00E0 		.word	-536809680
  94              	.LBE58:
  95              	.LBE57:
  96              	.LBE56:
  97              	.LBE55:
  98              		.cfi_endproc
  99              	.LFE246:
 100              		.size	SVC_Handler, .-SVC_Handler
 101              		.section	.text._port_irq_epilogue,"ax",%progbits
 102              		.align	1
 103              		.global	_port_irq_epilogue
 104              		.syntax unified
 105              		.thumb
 106              		.thumb_func
 107              		.fpu fpv4-sp-d16
 108              		.type	_port_irq_epilogue, %function
 109              	_port_irq_epilogue:
 110              	.LFB247:
 111              		.loc 1 122 0
 112              		.cfi_startproc
 113              		@ args = 0, pretend = 0, frame = 0
 114              		@ frame_needed = 1, uses_anonymous_args = 0
ARM GAS  C:\cygwin64\tmp\cca3jAnU.s 			page 3


 115              	.LVL5:
 116 0000 98B5     		push	{r3, r4, r7, lr}
 117              		.cfi_def_cfa_offset 16
 118              		.cfi_offset 3, -16
 119              		.cfi_offset 4, -12
 120              		.cfi_offset 7, -8
 121              		.cfi_offset 14, -4
 122              	.LBB59:
 123              	.LBB60:
 124              	.LBB61:
 125              	.LBB62:
 126              		.loc 2 264 0
 127 0002 2023     		movs	r3, #32
 128              	.LBE62:
 129              	.LBE61:
 130              	.LBE60:
 131              	.LBE59:
 132              		.loc 1 122 0
 133 0004 00AF     		add	r7, sp, #0
 134              		.cfi_def_cfa_register 7
 135              	.LBB66:
 136              	.LBB65:
 137              	.LBB64:
 138              	.LBB63:
 139              		.loc 2 264 0
 140              		.syntax unified
 141              	@ 264 "../../modules/ChibiOS/os/common/ext/CMSIS/include/cmsis_gcc.h" 1
 142 0006 83F31188 		MSR basepri, r3
 143              	@ 0 "" 2
 144              	.LVL6:
 145              		.thumb
 146              		.syntax unified
 147              	.LBE63:
 148              	.LBE64:
 149              	.LBE65:
 150              	.LBE66:
 151              		.loc 1 125 0
 152 000a 104B     		ldr	r3, .L9
 153 000c 5B68     		ldr	r3, [r3, #4]
 154 000e 13F40063 		ands	r3, r3, #2048
 155 0012 18D0     		beq	.L5
 156              	.LBB67:
 157              	.LBB68:
 158              	.LBB69:
 159              		.loc 2 320 0
 160              		.loc 2 321 0
 161              		.syntax unified
 162              	@ 321 "../../modules/ChibiOS/os/common/ext/CMSIS/include/cmsis_gcc.h" 1
 163 0014 F1EE103A 		VMRS r3, fpscr
 164              	@ 0 "" 2
 165              	.LVL7:
 166              		.loc 2 322 0
 167              		.thumb
 168              		.syntax unified
 169              	.LBE69:
 170              	.LBE68:
 171              	.LBB70:
ARM GAS  C:\cygwin64\tmp\cca3jAnU.s 			page 4


 172              	.LBB71:
 173              		.loc 2 152 0
 174              		.syntax unified
 175              	@ 152 "../../modules/ChibiOS/os/common/ext/CMSIS/include/cmsis_gcc.h" 1
 176 0018 EFF30984 		MRS r4, psp
 177              	
 178              	@ 0 "" 2
 179              	.LVL8:
 180              		.thumb
 181              		.syntax unified
 182              	.LBE71:
 183              	.LBE70:
 184              		.loc 1 141 0
 185 001c 4FF08073 		mov	r3, #16777216
 186 0020 44F84C3C 		str	r3, [r4, #-76]
 187              		.loc 1 143 0
 188 0024 0A4B     		ldr	r3, .L9+4
 189 0026 DB68     		ldr	r3, [r3, #12]
 190 0028 44F8083C 		str	r3, [r4, #-8]
 191              	.LVL9:
 192              		.loc 1 138 0
 193 002c A4F16803 		sub	r3, r4, #104
 194              	.LVL10:
 195              	.LBB72:
 196              	.LBB73:
 197              		.loc 2 164 0
 198              		.syntax unified
 199              	@ 164 "../../modules/ChibiOS/os/common/ext/CMSIS/include/cmsis_gcc.h" 1
 200 0030 83F30988 		MSR psp, r3
 201              	
 202              	@ 0 "" 2
 203              	.LVL11:
 204              		.thumb
 205              		.syntax unified
 206              	.LBE73:
 207              	.LBE72:
 208              		.loc 1 151 0
 209 0034 FFF7FEFF 		bl	chSchIsPreemptionRequired
 210              	.LVL12:
 211 0038 18B1     		cbz	r0, .L6
 212              		.loc 1 153 0
 213 003a 064B     		ldr	r3, .L9+8
 214              	.L8:
 215              		.loc 1 158 0
 216 003c 44F8503C 		str	r3, [r4, #-80]
 217 0040 98BD     		pop	{r3, r4, r7, pc}
 218              	.LVL13:
 219              	.L6:
 220 0042 054B     		ldr	r3, .L9+12
 221 0044 FAE7     		b	.L8
 222              	.LVL14:
 223              	.L5:
 224              	.LBE67:
 225              	.LBB74:
 226              	.LBB75:
 227              	.LBB76:
 228              	.LBB77:
ARM GAS  C:\cygwin64\tmp\cca3jAnU.s 			page 5


 229              		.loc 2 264 0
 230              		.syntax unified
 231              	@ 264 "../../modules/ChibiOS/os/common/ext/CMSIS/include/cmsis_gcc.h" 1
 232 0046 83F31188 		MSR basepri, r3
 233              	@ 0 "" 2
 234              	.LVL15:
 235              		.thumb
 236              		.syntax unified
 237 004a 98BD     		pop	{r3, r4, r7, pc}
 238              	.L10:
 239              		.align	2
 240              	.L9:
 241 004c 00ED00E0 		.word	-536810240
 242 0050 30EF00E0 		.word	-536809680
 243 0054 00000000 		.word	_port_switch_from_isr
 244 0058 00000000 		.word	_port_exit_from_isr
 245              	.LBE77:
 246              	.LBE76:
 247              	.LBE75:
 248              	.LBE74:
 249              		.cfi_endproc
 250              	.LFE247:
 251              		.size	_port_irq_epilogue, .-_port_irq_epilogue
 252              		.text
 253              	.Letext0:
 254              		.file 3 "c:\\program files (x86)\\gnu tools arm embedded\\6 2017-q2-update\\arm-none-eabi\\include
 255              		.file 4 "c:\\program files (x86)\\gnu tools arm embedded\\6 2017-q2-update\\arm-none-eabi\\include
 256              		.file 5 "../../modules/ChibiOS/os/common/ports/ARMCMx/compilers/GCC/chtypes.h"
 257              		.file 6 "../../modules/ChibiOS/os/rt/include/chsystypes.h"
 258              		.file 7 "../../modules/ChibiOS/os/rt/include/chschd.h"
 259              		.file 8 "../../modules/ChibiOS/os/common/ext/CMSIS/include/core_cm4.h"
 260              		.file 9 "../../modules/ChibiOS/os/common/ext/CMSIS/ST/STM32F4xx/system_stm32f4xx.h"
 261              		.file 10 "../../modules/ChibiOS/os/common/ports/ARMCMx/chcore.h"
 262              		.file 11 "../../modules/ChibiOS/os/common/ports/ARMCMx/chcore_v7m.h"
 263              		.file 12 "../../modules/ChibiOS/os/rt/include/chtm.h"
 264              		.file 13 "../../modules/ChibiOS/os/rt/include/chstats.h"
 265              		.file 14 "../../modules/ChibiOS/os/rt/include/chsem.h"
 266              		.file 15 "../../modules/ChibiOS/os/rt/include/chmtx.h"
 267              		.file 16 "../../modules/ChibiOS/os/rt/include/chsys.h"
 268              		.file 17 "../../modules/ChibiOS/os/rt/include/chregistry.h"