ARM GAS  C:\cygwin64\tmp\ccrJ3EpT.s 			page 1


   1              		.cpu cortex-m4
   2              		.eabi_attribute 27, 1
   3              		.eabi_attribute 28, 1
   4              		.eabi_attribute 20, 1
   5              		.eabi_attribute 21, 1
   6              		.eabi_attribute 23, 3
   7              		.eabi_attribute 24, 1
   8              		.eabi_attribute 25, 1
   9              		.eabi_attribute 26, 1
  10              		.eabi_attribute 30, 4
  11              		.eabi_attribute 34, 1
  12              		.eabi_attribute 18, 4
  13              		.file	"chdynamic.c"
  14              		.text
  15              	.Ltext0:
  16              		.cfi_sections	.debug_frame
  17              		.section	.text.chThdCreateFromHeap,"ax",%progbits
  18              		.align	1
  19              		.global	chThdCreateFromHeap
  20              		.syntax unified
  21              		.thumb
  22              		.thumb_func
  23              		.fpu fpv4-sp-d16
  24              		.type	chThdCreateFromHeap, %function
  25              	chThdCreateFromHeap:
  26              	.LFB246:
  27              		.file 1 "../../modules/ChibiOS/os/rt/src/chdynamic.c"
  28              		.loc 1 84 0
  29              		.cfi_startproc
  30              		@ args = 8, pretend = 0, frame = 24
  31              		@ frame_needed = 0, uses_anonymous_args = 0
  32              	.LVL0:
  33 0000 F0B5     		push	{r4, r5, r6, r7, lr}
  34              		.cfi_def_cfa_offset 20
  35              		.cfi_offset 4, -20
  36              		.cfi_offset 5, -16
  37              		.cfi_offset 6, -12
  38              		.cfi_offset 7, -8
  39              		.cfi_offset 14, -4
  40 0002 1746     		mov	r7, r2
  41 0004 87B0     		sub	sp, sp, #28
  42              		.cfi_def_cfa_offset 48
  43              		.loc 1 88 0
  44 0006 0822     		movs	r2, #8
  45              	.LVL1:
  46              		.loc 1 84 0
  47 0008 0E46     		mov	r6, r1
  48 000a 1D46     		mov	r5, r3
  49              		.loc 1 88 0
  50 000c FFF7FEFF 		bl	chHeapAllocAligned
  51              	.LVL2:
  52              		.loc 1 89 0
  53 0010 0446     		mov	r4, r0
  54 0012 F8B1     		cbz	r0, .L1
  55              		.loc 1 93 0
  56 0014 0C9B     		ldr	r3, [sp, #48]
  57 0016 0493     		str	r3, [sp, #16]
ARM GAS  C:\cygwin64\tmp\ccrJ3EpT.s 			page 2


  58              		.loc 1 96 0
  59 0018 8119     		adds	r1, r0, r6
  60              		.loc 1 93 0
  61 001a 0D9B     		ldr	r3, [sp, #52]
  62 001c 0593     		str	r3, [sp, #20]
  63              		.loc 1 103 0
  64 001e 5522     		movs	r2, #85
  65              		.loc 1 93 0
  66 0020 0097     		str	r7, [sp]
  67 0022 0190     		str	r0, [sp, #4]
  68 0024 0291     		str	r1, [sp, #8]
  69 0026 0395     		str	r5, [sp, #12]
  70              		.loc 1 103 0
  71 0028 FFF7FEFF 		bl	_thread_memfill
  72              	.LVL3:
  73              	.LBB24:
  74              	.LBB25:
  75              	.LBB26:
  76              	.LBB27:
  77              	.LBB28:
  78              		.file 2 "../../modules/ChibiOS/os/common/ext/CMSIS/include/cmsis_gcc.h"
  79              		.loc 2 264 0
  80 002c 2023     		movs	r3, #32
  81              		.syntax unified
  82              	@ 264 "../../modules/ChibiOS/os/common/ext/CMSIS/include/cmsis_gcc.h" 1
  83 002e 83F31188 		MSR basepri, r3
  84              	@ 0 "" 2
  85              	.LVL4:
  86              		.thumb
  87              		.syntax unified
  88              	.LBE28:
  89              	.LBE27:
  90              	.LBE26:
  91              		.file 3 "../../modules/ChibiOS/os/rt/include/chsys.h"
  92              		.loc 3 377 0
  93 0032 FFF7FEFF 		bl	_stats_start_measure_crit_thd
  94              	.LVL5:
  95              	.LBE25:
  96              	.LBE24:
  97              		.loc 1 109 0
  98 0036 6846     		mov	r0, sp
  99 0038 FFF7FEFF 		bl	chThdCreateSuspendedI
 100              	.LVL6:
 101              		.loc 1 110 0
 102 003c 0123     		movs	r3, #1
 103 003e 80F82130 		strb	r3, [r0, #33]
 104              		.loc 1 111 0
 105 0042 0021     		movs	r1, #0
 106              		.loc 1 109 0
 107 0044 0446     		mov	r4, r0
 108              	.LVL7:
 109              		.loc 1 111 0
 110 0046 FFF7FEFF 		bl	chSchWakeupS
 111              	.LVL8:
 112              	.LBB29:
 113              	.LBB30:
 114              		.loc 3 389 0
ARM GAS  C:\cygwin64\tmp\ccrJ3EpT.s 			page 3


 115 004a FFF7FEFF 		bl	_stats_stop_measure_crit_thd
 116              	.LVL9:
 117              	.LBB31:
 118              	.LBB32:
 119              	.LBB33:
 120              		.loc 2 264 0
 121 004e 0023     		movs	r3, #0
 122              		.syntax unified
 123              	@ 264 "../../modules/ChibiOS/os/common/ext/CMSIS/include/cmsis_gcc.h" 1
 124 0050 83F31188 		MSR basepri, r3
 125              	@ 0 "" 2
 126              	.LVL10:
 127              		.thumb
 128              		.syntax unified
 129              	.L1:
 130              	.LBE33:
 131              	.LBE32:
 132              	.LBE31:
 133              	.LBE30:
 134              	.LBE29:
 135              		.loc 1 115 0
 136 0054 2046     		mov	r0, r4
 137 0056 07B0     		add	sp, sp, #28
 138              		.cfi_def_cfa_offset 20
 139              		@ sp needed
 140 0058 F0BD     		pop	{r4, r5, r6, r7, pc}
 141              		.cfi_endproc
 142              	.LFE246:
 143              		.size	chThdCreateFromHeap, .-chThdCreateFromHeap
 144              		.section	.text.chThdCreateFromMemoryPool,"ax",%progbits
 145              		.align	1
 146              		.global	chThdCreateFromMemoryPool
 147              		.syntax unified
 148              		.thumb
 149              		.thumb_func
 150              		.fpu fpv4-sp-d16
 151              		.type	chThdCreateFromMemoryPool, %function
 152              	chThdCreateFromMemoryPool:
 153              	.LFB247:
 154              		.loc 1 146 0
 155              		.cfi_startproc
 156              		@ args = 4, pretend = 0, frame = 24
 157              		@ frame_needed = 0, uses_anonymous_args = 0
 158              	.LVL11:
 159 0000 2DE9F041 		push	{r4, r5, r6, r7, r8, lr}
 160              		.cfi_def_cfa_offset 24
 161              		.cfi_offset 4, -24
 162              		.cfi_offset 5, -20
 163              		.cfi_offset 6, -16
 164              		.cfi_offset 7, -12
 165              		.cfi_offset 8, -8
 166              		.cfi_offset 14, -4
 167 0004 86B0     		sub	sp, sp, #24
 168              		.cfi_def_cfa_offset 48
 169              		.loc 1 146 0
 170 0006 0546     		mov	r5, r0
 171 0008 8846     		mov	r8, r1
ARM GAS  C:\cygwin64\tmp\ccrJ3EpT.s 			page 4


 172 000a 1746     		mov	r7, r2
 173 000c 1E46     		mov	r6, r3
 174              		.loc 1 152 0
 175 000e FFF7FEFF 		bl	chPoolAlloc
 176              	.LVL12:
 177              		.loc 1 153 0
 178 0012 0446     		mov	r4, r0
 179 0014 08B3     		cbz	r0, .L4
 180              		.loc 1 160 0
 181 0016 6968     		ldr	r1, [r5, #4]
 182              		.loc 1 157 0
 183 0018 0C9B     		ldr	r3, [sp, #48]
 184 001a 0593     		str	r3, [sp, #20]
 185              		.loc 1 160 0
 186 001c 0144     		add	r1, r1, r0
 187              		.loc 1 167 0
 188 001e 5522     		movs	r2, #85
 189              		.loc 1 157 0
 190 0020 CDF80080 		str	r8, [sp]
 191 0024 0190     		str	r0, [sp, #4]
 192 0026 0291     		str	r1, [sp, #8]
 193 0028 0397     		str	r7, [sp, #12]
 194 002a 0496     		str	r6, [sp, #16]
 195              		.loc 1 167 0
 196 002c FFF7FEFF 		bl	_thread_memfill
 197              	.LVL13:
 198              	.LBB44:
 199              	.LBB45:
 200              	.LBB46:
 201              	.LBB47:
 202              	.LBB48:
 203              		.loc 2 264 0
 204 0030 2023     		movs	r3, #32
 205              		.syntax unified
 206              	@ 264 "../../modules/ChibiOS/os/common/ext/CMSIS/include/cmsis_gcc.h" 1
 207 0032 83F31188 		MSR basepri, r3
 208              	@ 0 "" 2
 209              	.LVL14:
 210              		.thumb
 211              		.syntax unified
 212              	.LBE48:
 213              	.LBE47:
 214              	.LBE46:
 215              		.loc 3 377 0
 216 0036 FFF7FEFF 		bl	_stats_start_measure_crit_thd
 217              	.LVL15:
 218              	.LBE45:
 219              	.LBE44:
 220              		.loc 1 173 0
 221 003a 6846     		mov	r0, sp
 222 003c FFF7FEFF 		bl	chThdCreateSuspendedI
 223              	.LVL16:
 224              		.loc 1 174 0
 225 0040 0223     		movs	r3, #2
 226 0042 80F82130 		strb	r3, [r0, #33]
 227              		.loc 1 175 0
 228 0046 0564     		str	r5, [r0, #64]
ARM GAS  C:\cygwin64\tmp\ccrJ3EpT.s 			page 5


 229              		.loc 1 176 0
 230 0048 0021     		movs	r1, #0
 231              		.loc 1 173 0
 232 004a 0446     		mov	r4, r0
 233              	.LVL17:
 234              		.loc 1 176 0
 235 004c FFF7FEFF 		bl	chSchWakeupS
 236              	.LVL18:
 237              	.LBB49:
 238              	.LBB50:
 239              		.loc 3 389 0
 240 0050 FFF7FEFF 		bl	_stats_stop_measure_crit_thd
 241              	.LVL19:
 242              	.LBB51:
 243              	.LBB52:
 244              	.LBB53:
 245              		.loc 2 264 0
 246 0054 0023     		movs	r3, #0
 247              		.syntax unified
 248              	@ 264 "../../modules/ChibiOS/os/common/ext/CMSIS/include/cmsis_gcc.h" 1
 249 0056 83F31188 		MSR basepri, r3
 250              	@ 0 "" 2
 251              	.LVL20:
 252              		.thumb
 253              		.syntax unified
 254              	.L4:
 255              	.LBE53:
 256              	.LBE52:
 257              	.LBE51:
 258              	.LBE50:
 259              	.LBE49:
 260              		.loc 1 180 0
 261 005a 2046     		mov	r0, r4
 262 005c 06B0     		add	sp, sp, #24
 263              		.cfi_def_cfa_offset 24
 264              		@ sp needed
 265 005e BDE8F081 		pop	{r4, r5, r6, r7, r8, pc}
 266              		.cfi_endproc
 267              	.LFE247:
 268              		.size	chThdCreateFromMemoryPool, .-chThdCreateFromMemoryPool
 269              		.text
 270              	.Letext0:
 271              		.file 4 "c:\\program files (x86)\\gnu tools arm embedded\\6 2017-q2-update\\lib\\gcc\\arm-none-eab
 272              		.file 5 "c:\\program files (x86)\\gnu tools arm embedded\\6 2017-q2-update\\arm-none-eabi\\include
 273              		.file 6 "c:\\program files (x86)\\gnu tools arm embedded\\6 2017-q2-update\\arm-none-eabi\\include
 274              		.file 7 "../../modules/ChibiOS/os/common/ports/ARMCMx/compilers/GCC/chtypes.h"
 275              		.file 8 "../../modules/ChibiOS/os/rt/include/chsystypes.h"
 276              		.file 9 "../../modules/ChibiOS/os/rt/include/chschd.h"
 277              		.file 10 "../../modules/ChibiOS/os/common/ext/CMSIS/include/core_cm4.h"
 278              		.file 11 "../../modules/ChibiOS/os/common/ext/CMSIS/ST/STM32F4xx/system_stm32f4xx.h"
 279              		.file 12 "../../modules/ChibiOS/os/common/ports/ARMCMx/chcore.h"
 280              		.file 13 "../../modules/ChibiOS/os/common/ports/ARMCMx/chcore_v7m.h"
 281              		.file 14 "../../modules/ChibiOS/os/rt/include/chtm.h"
 282              		.file 15 "../../modules/ChibiOS/os/rt/include/chstats.h"
 283              		.file 16 "../../modules/ChibiOS/os/rt/include/chsem.h"
 284              		.file 17 "../../modules/ChibiOS/os/rt/include/chmtx.h"
 285              		.file 18 "../../modules/ChibiOS/os/rt/include/chthreads.h"
ARM GAS  C:\cygwin64\tmp\ccrJ3EpT.s 			page 6


 286              		.file 19 "../../modules/ChibiOS/os/rt/include/chregistry.h"
 287              		.file 20 "../../modules/ChibiOS/os/common/oslib/include/chmemcore.h"
 288              		.file 21 "../../modules/ChibiOS/os/common/oslib/include/chheap.h"
 289              		.file 22 "../../modules/ChibiOS/os/common/oslib/include/chmempools.h"
 290              		.section	.debug_info,"",%progbits
 291              	.Ldebug_info0:
 292 0000 B20E0000 		.4byte	0xeb2
 293 0004 0400     		.2byte	0x4
 294 0006 00000000 		.4byte	.Ldebug_abbrev0
 295 000a 04       		.byte	0x4
 296 000b 01       		.uleb128 0x1
 297 000c 76010000 		.4byte	.LASF165
 298 0010 0C       		.byte	0xc
 299 0011 CE050000 		.4byte	.LASF166
 300 0015 08000000 		.4byte	.LASF167
 301 0019 00000000 		.4byte	.Ldebug_ranges0+0
 302 001d 00000000 		.4byte	0
 303 0021 00000000 		.4byte	.Ldebug_line0
 304 0025 02       		.uleb128 0x2
 305 0026 04       		.byte	0x4
 306 0027 05       		.byte	0x5
 307 0028 696E7400 		.ascii	"int\000"
 308 002c 03       		.uleb128 0x3
 309 002d 43000000 		.4byte	.LASF4
 310 0031 04       		.byte	0x4
 311 0032 D8       		.byte	0xd8
 312 0033 37000000 		.4byte	0x37
 313 0037 04       		.uleb128 0x4
 314 0038 04       		.byte	0x4
 315 0039 07       		.byte	0x7
 316 003a 5B030000 		.4byte	.LASF0
 317 003e 04       		.uleb128 0x4
 318 003f 08       		.byte	0x8
 319 0040 05       		.byte	0x5
 320 0041 57010000 		.4byte	.LASF1
 321 0045 04       		.uleb128 0x4
 322 0046 08       		.byte	0x8
 323 0047 04       		.byte	0x4
 324 0048 BB040000 		.4byte	.LASF2
 325 004c 04       		.uleb128 0x4
 326 004d 01       		.byte	0x1
 327 004e 06       		.byte	0x6
 328 004f 65010000 		.4byte	.LASF3
 329 0053 03       		.uleb128 0x3
 330 0054 78000000 		.4byte	.LASF5
 331 0058 05       		.byte	0x5
 332 0059 2B       		.byte	0x2b
 333 005a 5E000000 		.4byte	0x5e
 334 005e 04       		.uleb128 0x4
 335 005f 01       		.byte	0x1
 336 0060 08       		.byte	0x8
 337 0061 71050000 		.4byte	.LASF6
 338 0065 04       		.uleb128 0x4
 339 0066 02       		.byte	0x2
 340 0067 05       		.byte	0x5
 341 0068 95050000 		.4byte	.LASF7
 342 006c 03       		.uleb128 0x3
ARM GAS  C:\cygwin64\tmp\ccrJ3EpT.s 			page 7


 343 006d BB060000 		.4byte	.LASF8
 344 0071 05       		.byte	0x5
 345 0072 39       		.byte	0x39
 346 0073 77000000 		.4byte	0x77
 347 0077 04       		.uleb128 0x4
 348 0078 02       		.byte	0x2
 349 0079 07       		.byte	0x7
 350 007a 2C070000 		.4byte	.LASF9
 351 007e 03       		.uleb128 0x3
 352 007f 3F040000 		.4byte	.LASF10
 353 0083 05       		.byte	0x5
 354 0084 4D       		.byte	0x4d
 355 0085 89000000 		.4byte	0x89
 356 0089 04       		.uleb128 0x4
 357 008a 04       		.byte	0x4
 358 008b 05       		.byte	0x5
 359 008c AE020000 		.4byte	.LASF11
 360 0090 03       		.uleb128 0x3
 361 0091 03030000 		.4byte	.LASF12
 362 0095 05       		.byte	0x5
 363 0096 4F       		.byte	0x4f
 364 0097 9B000000 		.4byte	0x9b
 365 009b 04       		.uleb128 0x4
 366 009c 04       		.byte	0x4
 367 009d 07       		.byte	0x7
 368 009e 88060000 		.4byte	.LASF13
 369 00a2 03       		.uleb128 0x3
 370 00a3 0F050000 		.4byte	.LASF14
 371 00a7 05       		.byte	0x5
 372 00a8 69       		.byte	0x69
 373 00a9 AD000000 		.4byte	0xad
 374 00ad 04       		.uleb128 0x4
 375 00ae 08       		.byte	0x8
 376 00af 07       		.byte	0x7
 377 00b0 ED000000 		.4byte	.LASF15
 378 00b4 03       		.uleb128 0x3
 379 00b5 AE070000 		.4byte	.LASF16
 380 00b9 06       		.byte	0x6
 381 00ba 18       		.byte	0x18
 382 00bb 53000000 		.4byte	0x53
 383 00bf 03       		.uleb128 0x3
 384 00c0 68030000 		.4byte	.LASF17
 385 00c4 06       		.byte	0x6
 386 00c5 24       		.byte	0x24
 387 00c6 6C000000 		.4byte	0x6c
 388 00ca 03       		.uleb128 0x3
 389 00cb 69050000 		.4byte	.LASF18
 390 00cf 06       		.byte	0x6
 391 00d0 2C       		.byte	0x2c
 392 00d1 7E000000 		.4byte	0x7e
 393 00d5 05       		.uleb128 0x5
 394 00d6 CA000000 		.4byte	0xca
 395 00da 03       		.uleb128 0x3
 396 00db 5D060000 		.4byte	.LASF19
 397 00df 06       		.byte	0x6
 398 00e0 30       		.byte	0x30
 399 00e1 90000000 		.4byte	0x90
ARM GAS  C:\cygwin64\tmp\ccrJ3EpT.s 			page 8


 400 00e5 03       		.uleb128 0x3
 401 00e6 62000000 		.4byte	.LASF20
 402 00ea 06       		.byte	0x6
 403 00eb 3C       		.byte	0x3c
 404 00ec A2000000 		.4byte	0xa2
 405 00f0 03       		.uleb128 0x3
 406 00f1 56070000 		.4byte	.LASF21
 407 00f5 07       		.byte	0x7
 408 00f6 39       		.byte	0x39
 409 00f7 DA000000 		.4byte	0xda
 410 00fb 03       		.uleb128 0x3
 411 00fc 4E010000 		.4byte	.LASF22
 412 0100 07       		.byte	0x7
 413 0101 3A       		.byte	0x3a
 414 0102 E5000000 		.4byte	0xe5
 415 0106 03       		.uleb128 0x3
 416 0107 09040000 		.4byte	.LASF23
 417 010b 07       		.byte	0x7
 418 010c 3C       		.byte	0x3c
 419 010d B4000000 		.4byte	0xb4
 420 0111 03       		.uleb128 0x3
 421 0112 CB020000 		.4byte	.LASF24
 422 0116 07       		.byte	0x7
 423 0117 3D       		.byte	0x3d
 424 0118 B4000000 		.4byte	0xb4
 425 011c 03       		.uleb128 0x3
 426 011d 2A050000 		.4byte	.LASF25
 427 0121 07       		.byte	0x7
 428 0122 3E       		.byte	0x3e
 429 0123 B4000000 		.4byte	0xb4
 430 0127 03       		.uleb128 0x3
 431 0128 52050000 		.4byte	.LASF26
 432 012c 07       		.byte	0x7
 433 012d 40       		.byte	0x40
 434 012e DA000000 		.4byte	0xda
 435 0132 03       		.uleb128 0x3
 436 0133 D8030000 		.4byte	.LASF27
 437 0137 07       		.byte	0x7
 438 0138 41       		.byte	0x41
 439 0139 CA000000 		.4byte	0xca
 440 013d 03       		.uleb128 0x3
 441 013e 2A040000 		.4byte	.LASF28
 442 0142 07       		.byte	0x7
 443 0143 43       		.byte	0x43
 444 0144 DA000000 		.4byte	0xda
 445 0148 03       		.uleb128 0x3
 446 0149 55030000 		.4byte	.LASF29
 447 014d 07       		.byte	0x7
 448 014e 45       		.byte	0x45
 449 014f CA000000 		.4byte	0xca
 450 0153 03       		.uleb128 0x3
 451 0154 E3030000 		.4byte	.LASF30
 452 0158 07       		.byte	0x7
 453 0159 46       		.byte	0x46
 454 015a DA000000 		.4byte	0xda
 455 015e 03       		.uleb128 0x3
 456 015f D4060000 		.4byte	.LASF31
ARM GAS  C:\cygwin64\tmp\ccrJ3EpT.s 			page 9


 457 0163 08       		.byte	0x8
 458 0164 33       		.byte	0x33
 459 0165 DA000000 		.4byte	0xda
 460 0169 03       		.uleb128 0x3
 461 016a C6060000 		.4byte	.LASF32
 462 016e 08       		.byte	0x8
 463 016f 3F       		.byte	0x3f
 464 0170 74010000 		.4byte	0x174
 465 0174 06       		.uleb128 0x6
 466 0175 C9030000 		.4byte	.LASF51
 467 0179 60       		.byte	0x60
 468 017a 09       		.byte	0x9
 469 017b 9A       		.byte	0x9a
 470 017c 5F020000 		.4byte	0x25f
 471 0180 07       		.uleb128 0x7
 472 0181 A5030000 		.4byte	.LASF33
 473 0185 09       		.byte	0x9
 474 0186 9B       		.byte	0x9b
 475 0187 94020000 		.4byte	0x294
 476 018b 00       		.byte	0
 477 018c 07       		.uleb128 0x7
 478 018d 02050000 		.4byte	.LASF34
 479 0191 09       		.byte	0x9
 480 0192 9C       		.byte	0x9c
 481 0193 27010000 		.4byte	0x127
 482 0197 08       		.byte	0x8
 483 0198 08       		.uleb128 0x8
 484 0199 63747800 		.ascii	"ctx\000"
 485 019d 09       		.byte	0x9
 486 019e 9D       		.byte	0x9d
 487 019f B0040000 		.4byte	0x4b0
 488 01a3 0C       		.byte	0xc
 489 01a4 07       		.uleb128 0x7
 490 01a5 54040000 		.4byte	.LASF35
 491 01a9 09       		.byte	0x9
 492 01aa 9F       		.byte	0x9f
 493 01ab 6A020000 		.4byte	0x26a
 494 01af 10       		.byte	0x10
 495 01b0 07       		.uleb128 0x7
 496 01b1 B5060000 		.4byte	.LASF36
 497 01b5 09       		.byte	0x9
 498 01b6 A0       		.byte	0xa0
 499 01b7 6A020000 		.4byte	0x26a
 500 01bb 14       		.byte	0x14
 501 01bc 07       		.uleb128 0x7
 502 01bd D3030000 		.4byte	.LASF37
 503 01c1 09       		.byte	0x9
 504 01c2 A7       		.byte	0xa7
 505 01c3 97070000 		.4byte	0x797
 506 01c7 18       		.byte	0x18
 507 01c8 07       		.uleb128 0x7
 508 01c9 14060000 		.4byte	.LASF38
 509 01cd 09       		.byte	0x9
 510 01ce B0       		.byte	0xb0
 511 01cf AE070000 		.4byte	0x7ae
 512 01d3 1C       		.byte	0x1c
 513 01d4 07       		.uleb128 0x7
ARM GAS  C:\cygwin64\tmp\ccrJ3EpT.s 			page 10


 514 01d5 A8020000 		.4byte	.LASF39
 515 01d9 09       		.byte	0x9
 516 01da B5       		.byte	0xb5
 517 01db 11010000 		.4byte	0x111
 518 01df 20       		.byte	0x20
 519 01e0 07       		.uleb128 0x7
 520 01e1 C2070000 		.4byte	.LASF40
 521 01e5 09       		.byte	0x9
 522 01e6 B9       		.byte	0xb9
 523 01e7 06010000 		.4byte	0x106
 524 01eb 21       		.byte	0x21
 525 01ec 07       		.uleb128 0x7
 526 01ed 3D050000 		.4byte	.LASF41
 527 01f1 09       		.byte	0x9
 528 01f2 BE       		.byte	0xbe
 529 01f3 1C010000 		.4byte	0x11c
 530 01f7 22       		.byte	0x22
 531 01f8 09       		.uleb128 0x9
 532 01f9 7500     		.ascii	"u\000"
 533 01fb 09       		.byte	0x9
 534 01fc 0F01     		.2byte	0x10f
 535 01fe CC060000 		.4byte	0x6cc
 536 0202 24       		.byte	0x24
 537 0203 0A       		.uleb128 0xa
 538 0204 27030000 		.4byte	.LASF42
 539 0208 09       		.byte	0x9
 540 0209 1401     		.2byte	0x114
 541 020b 70020000 		.4byte	0x270
 542 020f 28       		.byte	0x28
 543 0210 0A       		.uleb128 0xa
 544 0211 9F020000 		.4byte	.LASF43
 545 0215 09       		.byte	0x9
 546 0216 1A01     		.2byte	0x11a
 547 0218 94020000 		.4byte	0x294
 548 021c 2C       		.byte	0x2c
 549 021d 0A       		.uleb128 0xa
 550 021e EA030000 		.4byte	.LASF44
 551 0222 09       		.byte	0x9
 552 0223 2001     		.2byte	0x120
 553 0225 3D010000 		.4byte	0x13d
 554 0229 34       		.byte	0x34
 555 022a 0A       		.uleb128 0xa
 556 022b 1C080000 		.4byte	.LASF45
 557 022f 09       		.byte	0x9
 558 0230 2701     		.2byte	0x127
 559 0232 91070000 		.4byte	0x791
 560 0236 38       		.byte	0x38
 561 0237 0A       		.uleb128 0xa
 562 0238 5A040000 		.4byte	.LASF46
 563 023c 09       		.byte	0x9
 564 023d 2B01     		.2byte	0x12b
 565 023f 27010000 		.4byte	0x127
 566 0243 3C       		.byte	0x3c
 567 0244 0A       		.uleb128 0xa
 568 0245 AB030000 		.4byte	.LASF47
 569 0249 09       		.byte	0x9
 570 024a 3201     		.2byte	0x132
ARM GAS  C:\cygwin64\tmp\ccrJ3EpT.s 			page 11


 571 024c 47030000 		.4byte	0x347
 572 0250 40       		.byte	0x40
 573 0251 0A       		.uleb128 0xa
 574 0252 D9020000 		.4byte	.LASF48
 575 0256 09       		.byte	0x9
 576 0257 3801     		.2byte	0x138
 577 0259 7D060000 		.4byte	0x67d
 578 025d 48       		.byte	0x48
 579 025e 00       		.byte	0
 580 025f 03       		.uleb128 0x3
 581 0260 91040000 		.4byte	.LASF49
 582 0264 08       		.byte	0x8
 583 0265 44       		.byte	0x44
 584 0266 6A020000 		.4byte	0x26a
 585 026a 0B       		.uleb128 0xb
 586 026b 04       		.byte	0x4
 587 026c 69010000 		.4byte	0x169
 588 0270 03       		.uleb128 0x3
 589 0271 ED070000 		.4byte	.LASF50
 590 0275 08       		.byte	0x8
 591 0276 49       		.byte	0x49
 592 0277 7B020000 		.4byte	0x27b
 593 027b 06       		.uleb128 0x6
 594 027c 6D060000 		.4byte	.LASF52
 595 0280 04       		.byte	0x4
 596 0281 09       		.byte	0x9
 597 0282 88       		.byte	0x88
 598 0283 94020000 		.4byte	0x294
 599 0287 07       		.uleb128 0x7
 600 0288 4A000000 		.4byte	.LASF53
 601 028c 09       		.byte	0x9
 602 028d 89       		.byte	0x89
 603 028e 6A020000 		.4byte	0x26a
 604 0292 00       		.byte	0
 605 0293 00       		.byte	0
 606 0294 03       		.uleb128 0x3
 607 0295 8C070000 		.4byte	.LASF54
 608 0299 08       		.byte	0x8
 609 029a 50       		.byte	0x50
 610 029b 9F020000 		.4byte	0x29f
 611 029f 06       		.uleb128 0x6
 612 02a0 3C080000 		.4byte	.LASF55
 613 02a4 08       		.byte	0x8
 614 02a5 09       		.byte	0x9
 615 02a6 8F       		.byte	0x8f
 616 02a7 C4020000 		.4byte	0x2c4
 617 02ab 07       		.uleb128 0x7
 618 02ac 4A000000 		.4byte	.LASF53
 619 02b0 09       		.byte	0x9
 620 02b1 90       		.byte	0x90
 621 02b2 6A020000 		.4byte	0x26a
 622 02b6 00       		.byte	0
 623 02b7 07       		.uleb128 0x7
 624 02b8 82000000 		.4byte	.LASF56
 625 02bc 09       		.byte	0x9
 626 02bd 91       		.byte	0x91
 627 02be 6A020000 		.4byte	0x26a
ARM GAS  C:\cygwin64\tmp\ccrJ3EpT.s 			page 12


 628 02c2 04       		.byte	0x4
 629 02c3 00       		.byte	0
 630 02c4 03       		.uleb128 0x3
 631 02c5 36000000 		.4byte	.LASF57
 632 02c9 08       		.byte	0x8
 633 02ca 57       		.byte	0x57
 634 02cb CF020000 		.4byte	0x2cf
 635 02cf 0C       		.uleb128 0xc
 636 02d0 1C040000 		.4byte	.LASF58
 637 02d4 1C       		.byte	0x1c
 638 02d5 09       		.byte	0x9
 639 02d6 6A01     		.2byte	0x16a
 640 02d8 2B030000 		.4byte	0x32b
 641 02dc 0A       		.uleb128 0xa
 642 02dd A5030000 		.4byte	.LASF33
 643 02e1 09       		.byte	0x9
 644 02e2 6B01     		.2byte	0x16b
 645 02e4 94020000 		.4byte	0x294
 646 02e8 00       		.byte	0
 647 02e9 0A       		.uleb128 0xa
 648 02ea 02050000 		.4byte	.LASF34
 649 02ee 09       		.byte	0x9
 650 02ef 6C01     		.2byte	0x16c
 651 02f1 27010000 		.4byte	0x127
 652 02f5 08       		.byte	0x8
 653 02f6 09       		.uleb128 0x9
 654 02f7 63747800 		.ascii	"ctx\000"
 655 02fb 09       		.byte	0x9
 656 02fc 6E01     		.2byte	0x16e
 657 02fe B0040000 		.4byte	0x4b0
 658 0302 0C       		.byte	0xc
 659 0303 0A       		.uleb128 0xa
 660 0304 54040000 		.4byte	.LASF35
 661 0308 09       		.byte	0x9
 662 0309 7101     		.2byte	0x171
 663 030b 6A020000 		.4byte	0x26a
 664 030f 10       		.byte	0x10
 665 0310 0A       		.uleb128 0xa
 666 0311 B5060000 		.4byte	.LASF36
 667 0315 09       		.byte	0x9
 668 0316 7201     		.2byte	0x172
 669 0318 6A020000 		.4byte	0x26a
 670 031c 14       		.byte	0x14
 671 031d 0A       		.uleb128 0xa
 672 031e 07050000 		.4byte	.LASF59
 673 0322 09       		.byte	0x9
 674 0323 7501     		.2byte	0x175
 675 0325 6A020000 		.4byte	0x26a
 676 0329 18       		.byte	0x18
 677 032a 00       		.byte	0
 678 032b 03       		.uleb128 0x3
 679 032c DE060000 		.4byte	.LASF60
 680 0330 08       		.byte	0x8
 681 0331 5C       		.byte	0x5c
 682 0332 36030000 		.4byte	0x336
 683 0336 0B       		.uleb128 0xb
 684 0337 04       		.byte	0x4
ARM GAS  C:\cygwin64\tmp\ccrJ3EpT.s 			page 13


 685 0338 3C030000 		.4byte	0x33c
 686 033c 0D       		.uleb128 0xd
 687 033d 47030000 		.4byte	0x347
 688 0341 0E       		.uleb128 0xe
 689 0342 47030000 		.4byte	0x347
 690 0346 00       		.byte	0
 691 0347 0F       		.uleb128 0xf
 692 0348 04       		.byte	0x4
 693 0349 03       		.uleb128 0x3
 694 034a 42050000 		.4byte	.LASF61
 695 034e 08       		.byte	0x8
 696 034f 61       		.byte	0x61
 697 0350 54030000 		.4byte	0x354
 698 0354 0C       		.uleb128 0xc
 699 0355 1B060000 		.4byte	.LASF62
 700 0359 14       		.byte	0x14
 701 035a 09       		.byte	0x9
 702 035b 4501     		.2byte	0x145
 703 035d A3030000 		.4byte	0x3a3
 704 0361 0A       		.uleb128 0xa
 705 0362 4A000000 		.4byte	.LASF53
 706 0366 09       		.byte	0x9
 707 0367 4601     		.2byte	0x146
 708 0369 B4070000 		.4byte	0x7b4
 709 036d 00       		.byte	0
 710 036e 0A       		.uleb128 0xa
 711 036f 82000000 		.4byte	.LASF56
 712 0373 09       		.byte	0x9
 713 0374 4701     		.2byte	0x147
 714 0376 B4070000 		.4byte	0x7b4
 715 037a 04       		.byte	0x4
 716 037b 0A       		.uleb128 0xa
 717 037c 4F000000 		.4byte	.LASF63
 718 0380 09       		.byte	0x9
 719 0381 4801     		.2byte	0x148
 720 0383 5E010000 		.4byte	0x15e
 721 0387 08       		.byte	0x8
 722 0388 0A       		.uleb128 0xa
 723 0389 D4020000 		.4byte	.LASF64
 724 038d 09       		.byte	0x9
 725 038e 4901     		.2byte	0x149
 726 0390 2B030000 		.4byte	0x32b
 727 0394 0C       		.byte	0xc
 728 0395 09       		.uleb128 0x9
 729 0396 70617200 		.ascii	"par\000"
 730 039a 09       		.byte	0x9
 731 039b 4B01     		.2byte	0x14b
 732 039d 47030000 		.4byte	0x347
 733 03a1 10       		.byte	0x10
 734 03a2 00       		.byte	0
 735 03a3 03       		.uleb128 0x3
 736 03a4 20010000 		.4byte	.LASF65
 737 03a8 08       		.byte	0x8
 738 03a9 66       		.byte	0x66
 739 03aa AE030000 		.4byte	0x3ae
 740 03ae 0C       		.uleb128 0xc
 741 03af A4040000 		.4byte	.LASF66
ARM GAS  C:\cygwin64\tmp\ccrJ3EpT.s 			page 14


 742 03b3 10       		.byte	0x10
 743 03b4 09       		.byte	0x9
 744 03b5 5501     		.2byte	0x155
 745 03b7 F0030000 		.4byte	0x3f0
 746 03bb 0A       		.uleb128 0xa
 747 03bc 4A000000 		.4byte	.LASF53
 748 03c0 09       		.byte	0x9
 749 03c1 5601     		.2byte	0x156
 750 03c3 B4070000 		.4byte	0x7b4
 751 03c7 00       		.byte	0
 752 03c8 0A       		.uleb128 0xa
 753 03c9 82000000 		.4byte	.LASF56
 754 03cd 09       		.byte	0x9
 755 03ce 5801     		.2byte	0x158
 756 03d0 B4070000 		.4byte	0x7b4
 757 03d4 04       		.byte	0x4
 758 03d5 0A       		.uleb128 0xa
 759 03d6 4F000000 		.4byte	.LASF63
 760 03da 09       		.byte	0x9
 761 03db 5A01     		.2byte	0x15a
 762 03dd 5E010000 		.4byte	0x15e
 763 03e1 08       		.byte	0x8
 764 03e2 0A       		.uleb128 0xa
 765 03e3 9F050000 		.4byte	.LASF67
 766 03e7 09       		.byte	0x9
 767 03e8 6201     		.2byte	0x162
 768 03ea 5E010000 		.4byte	0x15e
 769 03ee 0C       		.byte	0xc
 770 03ef 00       		.byte	0
 771 03f0 03       		.uleb128 0x3
 772 03f1 99000000 		.4byte	.LASF68
 773 03f5 08       		.byte	0x8
 774 03f6 6B       		.byte	0x6b
 775 03f7 FB030000 		.4byte	0x3fb
 776 03fb 0C       		.uleb128 0xc
 777 03fc 17030000 		.4byte	.LASF69
 778 0400 04       		.byte	0x4
 779 0401 09       		.byte	0x9
 780 0402 7C01     		.2byte	0x17c
 781 0404 16040000 		.4byte	0x416
 782 0408 0A       		.uleb128 0xa
 783 0409 F5060000 		.4byte	.LASF70
 784 040d 09       		.byte	0x9
 785 040e 8401     		.2byte	0x184
 786 0410 9D070000 		.4byte	0x79d
 787 0414 00       		.byte	0
 788 0415 00       		.byte	0
 789 0416 03       		.uleb128 0x3
 790 0417 3F070000 		.4byte	.LASF71
 791 041b 08       		.byte	0x8
 792 041c 70       		.byte	0x70
 793 041d 21040000 		.4byte	0x421
 794 0421 0C       		.uleb128 0xc
 795 0422 BB050000 		.4byte	.LASF72
 796 0426 D0       		.byte	0xd0
 797 0427 09       		.byte	0x9
 798 0428 9C01     		.2byte	0x19c
ARM GAS  C:\cygwin64\tmp\ccrJ3EpT.s 			page 15


 799 042a 7C040000 		.4byte	0x47c
 800 042e 0A       		.uleb128 0xa
 801 042f A8070000 		.4byte	.LASF73
 802 0433 09       		.byte	0x9
 803 0434 A001     		.2byte	0x1a0
 804 0436 C4020000 		.4byte	0x2c4
 805 043a 00       		.byte	0
 806 043b 0A       		.uleb128 0xa
 807 043c 8C020000 		.4byte	.LASF74
 808 0440 09       		.byte	0x9
 809 0441 A401     		.2byte	0x1a4
 810 0443 A3030000 		.4byte	0x3a3
 811 0447 1C       		.byte	0x1c
 812 0448 09       		.uleb128 0x9
 813 0449 64626700 		.ascii	"dbg\000"
 814 044d 09       		.byte	0x9
 815 044e A801     		.2byte	0x1a8
 816 0450 F0030000 		.4byte	0x3f0
 817 0454 2C       		.byte	0x2c
 818 0455 0A       		.uleb128 0xa
 819 0456 0D010000 		.4byte	.LASF75
 820 045a 09       		.byte	0x9
 821 045b AC01     		.2byte	0x1ac
 822 045d 69010000 		.4byte	0x169
 823 0461 30       		.byte	0x30
 824 0462 09       		.uleb128 0x9
 825 0463 746D00   		.ascii	"tm\000"
 826 0466 09       		.byte	0x9
 827 0467 B101     		.2byte	0x1b1
 828 0469 2F060000 		.4byte	0x62f
 829 046d 90       		.byte	0x90
 830 046e 0A       		.uleb128 0xa
 831 046f 6B000000 		.4byte	.LASF76
 832 0473 09       		.byte	0x9
 833 0474 B701     		.2byte	0x1b7
 834 0476 C1060000 		.4byte	0x6c1
 835 047a 98       		.byte	0x98
 836 047b 00       		.byte	0
 837 047c 04       		.uleb128 0x4
 838 047d 04       		.byte	0x4
 839 047e 07       		.byte	0x7
 840 047f 88040000 		.4byte	.LASF77
 841 0483 10       		.uleb128 0x10
 842 0484 36010000 		.4byte	.LASF78
 843 0488 0A       		.byte	0xa
 844 0489 4407     		.2byte	0x744
 845 048b D5000000 		.4byte	0xd5
 846 048f 11       		.uleb128 0x11
 847 0490 71030000 		.4byte	.LASF79
 848 0494 0B       		.byte	0xb
 849 0495 4C       		.byte	0x4c
 850 0496 DA000000 		.4byte	0xda
 851 049a 03       		.uleb128 0x3
 852 049b 0E030000 		.4byte	.LASF80
 853 049f 0C       		.byte	0xc
 854 04a0 65       		.byte	0x65
 855 04a1 47030000 		.4byte	0x347
ARM GAS  C:\cygwin64\tmp\ccrJ3EpT.s 			page 16


 856 04a5 03       		.uleb128 0x3
 857 04a6 49040000 		.4byte	.LASF81
 858 04aa 0C       		.byte	0xc
 859 04ab 6D       		.byte	0x6d
 860 04ac E5000000 		.4byte	0xe5
 861 04b0 06       		.uleb128 0x6
 862 04b1 48030000 		.4byte	.LASF82
 863 04b5 04       		.byte	0x4
 864 04b6 0C       		.byte	0xc
 865 04b7 89       		.byte	0x89
 866 04b8 C8040000 		.4byte	0x4c8
 867 04bc 08       		.uleb128 0x8
 868 04bd 737000   		.ascii	"sp\000"
 869 04c0 0C       		.byte	0xc
 870 04c1 8A       		.byte	0x8a
 871 04c2 14060000 		.4byte	0x614
 872 04c6 00       		.byte	0
 873 04c7 00       		.byte	0
 874 04c8 0C       		.uleb128 0xc
 875 04c9 87000000 		.4byte	.LASF83
 876 04cd 64       		.byte	0x64
 877 04ce 0D       		.byte	0xd
 878 04cf 5901     		.2byte	0x159
 879 04d1 14060000 		.4byte	0x614
 880 04d5 09       		.uleb128 0x9
 881 04d6 73313600 		.ascii	"s16\000"
 882 04da 0D       		.byte	0xd
 883 04db 5B01     		.2byte	0x15b
 884 04dd 9A040000 		.4byte	0x49a
 885 04e1 00       		.byte	0
 886 04e2 09       		.uleb128 0x9
 887 04e3 73313700 		.ascii	"s17\000"
 888 04e7 0D       		.byte	0xd
 889 04e8 5C01     		.2byte	0x15c
 890 04ea 9A040000 		.4byte	0x49a
 891 04ee 04       		.byte	0x4
 892 04ef 09       		.uleb128 0x9
 893 04f0 73313800 		.ascii	"s18\000"
 894 04f4 0D       		.byte	0xd
 895 04f5 5D01     		.2byte	0x15d
 896 04f7 9A040000 		.4byte	0x49a
 897 04fb 08       		.byte	0x8
 898 04fc 09       		.uleb128 0x9
 899 04fd 73313900 		.ascii	"s19\000"
 900 0501 0D       		.byte	0xd
 901 0502 5E01     		.2byte	0x15e
 902 0504 9A040000 		.4byte	0x49a
 903 0508 0C       		.byte	0xc
 904 0509 09       		.uleb128 0x9
 905 050a 73323000 		.ascii	"s20\000"
 906 050e 0D       		.byte	0xd
 907 050f 5F01     		.2byte	0x15f
 908 0511 9A040000 		.4byte	0x49a
 909 0515 10       		.byte	0x10
 910 0516 09       		.uleb128 0x9
 911 0517 73323100 		.ascii	"s21\000"
 912 051b 0D       		.byte	0xd
ARM GAS  C:\cygwin64\tmp\ccrJ3EpT.s 			page 17


 913 051c 6001     		.2byte	0x160
 914 051e 9A040000 		.4byte	0x49a
 915 0522 14       		.byte	0x14
 916 0523 09       		.uleb128 0x9
 917 0524 73323200 		.ascii	"s22\000"
 918 0528 0D       		.byte	0xd
 919 0529 6101     		.2byte	0x161
 920 052b 9A040000 		.4byte	0x49a
 921 052f 18       		.byte	0x18
 922 0530 09       		.uleb128 0x9
 923 0531 73323300 		.ascii	"s23\000"
 924 0535 0D       		.byte	0xd
 925 0536 6201     		.2byte	0x162
 926 0538 9A040000 		.4byte	0x49a
 927 053c 1C       		.byte	0x1c
 928 053d 09       		.uleb128 0x9
 929 053e 73323400 		.ascii	"s24\000"
 930 0542 0D       		.byte	0xd
 931 0543 6301     		.2byte	0x163
 932 0545 9A040000 		.4byte	0x49a
 933 0549 20       		.byte	0x20
 934 054a 09       		.uleb128 0x9
 935 054b 73323500 		.ascii	"s25\000"
 936 054f 0D       		.byte	0xd
 937 0550 6401     		.2byte	0x164
 938 0552 9A040000 		.4byte	0x49a
 939 0556 24       		.byte	0x24
 940 0557 09       		.uleb128 0x9
 941 0558 73323600 		.ascii	"s26\000"
 942 055c 0D       		.byte	0xd
 943 055d 6501     		.2byte	0x165
 944 055f 9A040000 		.4byte	0x49a
 945 0563 28       		.byte	0x28
 946 0564 09       		.uleb128 0x9
 947 0565 73323700 		.ascii	"s27\000"
 948 0569 0D       		.byte	0xd
 949 056a 6601     		.2byte	0x166
 950 056c 9A040000 		.4byte	0x49a
 951 0570 2C       		.byte	0x2c
 952 0571 09       		.uleb128 0x9
 953 0572 73323800 		.ascii	"s28\000"
 954 0576 0D       		.byte	0xd
 955 0577 6701     		.2byte	0x167
 956 0579 9A040000 		.4byte	0x49a
 957 057d 30       		.byte	0x30
 958 057e 09       		.uleb128 0x9
 959 057f 73323900 		.ascii	"s29\000"
 960 0583 0D       		.byte	0xd
 961 0584 6801     		.2byte	0x168
 962 0586 9A040000 		.4byte	0x49a
 963 058a 34       		.byte	0x34
 964 058b 09       		.uleb128 0x9
 965 058c 73333000 		.ascii	"s30\000"
 966 0590 0D       		.byte	0xd
 967 0591 6901     		.2byte	0x169
 968 0593 9A040000 		.4byte	0x49a
 969 0597 38       		.byte	0x38
ARM GAS  C:\cygwin64\tmp\ccrJ3EpT.s 			page 18


 970 0598 09       		.uleb128 0x9
 971 0599 73333100 		.ascii	"s31\000"
 972 059d 0D       		.byte	0xd
 973 059e 6A01     		.2byte	0x16a
 974 05a0 9A040000 		.4byte	0x49a
 975 05a4 3C       		.byte	0x3c
 976 05a5 09       		.uleb128 0x9
 977 05a6 723400   		.ascii	"r4\000"
 978 05a9 0D       		.byte	0xd
 979 05aa 6C01     		.2byte	0x16c
 980 05ac 9A040000 		.4byte	0x49a
 981 05b0 40       		.byte	0x40
 982 05b1 09       		.uleb128 0x9
 983 05b2 723500   		.ascii	"r5\000"
 984 05b5 0D       		.byte	0xd
 985 05b6 6D01     		.2byte	0x16d
 986 05b8 9A040000 		.4byte	0x49a
 987 05bc 44       		.byte	0x44
 988 05bd 09       		.uleb128 0x9
 989 05be 723600   		.ascii	"r6\000"
 990 05c1 0D       		.byte	0xd
 991 05c2 6E01     		.2byte	0x16e
 992 05c4 9A040000 		.4byte	0x49a
 993 05c8 48       		.byte	0x48
 994 05c9 09       		.uleb128 0x9
 995 05ca 723700   		.ascii	"r7\000"
 996 05cd 0D       		.byte	0xd
 997 05ce 6F01     		.2byte	0x16f
 998 05d0 9A040000 		.4byte	0x49a
 999 05d4 4C       		.byte	0x4c
 1000 05d5 09       		.uleb128 0x9
 1001 05d6 723800   		.ascii	"r8\000"
 1002 05d9 0D       		.byte	0xd
 1003 05da 7001     		.2byte	0x170
 1004 05dc 9A040000 		.4byte	0x49a
 1005 05e0 50       		.byte	0x50
 1006 05e1 09       		.uleb128 0x9
 1007 05e2 723900   		.ascii	"r9\000"
 1008 05e5 0D       		.byte	0xd
 1009 05e6 7101     		.2byte	0x171
 1010 05e8 9A040000 		.4byte	0x49a
 1011 05ec 54       		.byte	0x54
 1012 05ed 09       		.uleb128 0x9
 1013 05ee 72313000 		.ascii	"r10\000"
 1014 05f2 0D       		.byte	0xd
 1015 05f3 7201     		.2byte	0x172
 1016 05f5 9A040000 		.4byte	0x49a
 1017 05f9 58       		.byte	0x58
 1018 05fa 09       		.uleb128 0x9
 1019 05fb 72313100 		.ascii	"r11\000"
 1020 05ff 0D       		.byte	0xd
 1021 0600 7301     		.2byte	0x173
 1022 0602 9A040000 		.4byte	0x49a
 1023 0606 5C       		.byte	0x5c
 1024 0607 09       		.uleb128 0x9
 1025 0608 6C7200   		.ascii	"lr\000"
 1026 060b 0D       		.byte	0xd
ARM GAS  C:\cygwin64\tmp\ccrJ3EpT.s 			page 19


 1027 060c 7401     		.2byte	0x174
 1028 060e 9A040000 		.4byte	0x49a
 1029 0612 60       		.byte	0x60
 1030 0613 00       		.byte	0
 1031 0614 0B       		.uleb128 0xb
 1032 0615 04       		.byte	0x4
 1033 0616 C8040000 		.4byte	0x4c8
 1034 061a 12       		.uleb128 0x12
 1035 061b 04       		.byte	0x4
 1036 061c 0E       		.byte	0xe
 1037 061d 38       		.byte	0x38
 1038 061e 2F060000 		.4byte	0x62f
 1039 0622 07       		.uleb128 0x7
 1040 0623 FF060000 		.4byte	.LASF84
 1041 0627 0E       		.byte	0xe
 1042 0628 3C       		.byte	0x3c
 1043 0629 F0000000 		.4byte	0xf0
 1044 062d 00       		.byte	0
 1045 062e 00       		.byte	0
 1046 062f 03       		.uleb128 0x3
 1047 0630 F1040000 		.4byte	.LASF85
 1048 0634 0E       		.byte	0xe
 1049 0635 3D       		.byte	0x3d
 1050 0636 1A060000 		.4byte	0x61a
 1051 063a 12       		.uleb128 0x12
 1052 063b 18       		.byte	0x18
 1053 063c 0E       		.byte	0xe
 1054 063d 48       		.byte	0x48
 1055 063e 7D060000 		.4byte	0x67d
 1056 0642 07       		.uleb128 0x7
 1057 0643 CF060000 		.4byte	.LASF86
 1058 0647 0E       		.byte	0xe
 1059 0648 49       		.byte	0x49
 1060 0649 F0000000 		.4byte	0xf0
 1061 064d 00       		.byte	0
 1062 064e 07       		.uleb128 0x7
 1063 064f CF000000 		.4byte	.LASF87
 1064 0653 0E       		.byte	0xe
 1065 0654 4A       		.byte	0x4a
 1066 0655 F0000000 		.4byte	0xf0
 1067 0659 04       		.byte	0x4
 1068 065a 07       		.uleb128 0x7
 1069 065b DE030000 		.4byte	.LASF88
 1070 065f 0E       		.byte	0xe
 1071 0660 4B       		.byte	0x4b
 1072 0661 F0000000 		.4byte	0xf0
 1073 0665 08       		.byte	0x8
 1074 0666 08       		.uleb128 0x8
 1075 0667 6E00     		.ascii	"n\000"
 1076 0669 0E       		.byte	0xe
 1077 066a 4C       		.byte	0x4c
 1078 066b 53010000 		.4byte	0x153
 1079 066f 0C       		.byte	0xc
 1080 0670 07       		.uleb128 0x7
 1081 0671 1A050000 		.4byte	.LASF89
 1082 0675 0E       		.byte	0xe
 1083 0676 4D       		.byte	0x4d
ARM GAS  C:\cygwin64\tmp\ccrJ3EpT.s 			page 20


 1084 0677 FB000000 		.4byte	0xfb
 1085 067b 10       		.byte	0x10
 1086 067c 00       		.byte	0
 1087 067d 03       		.uleb128 0x3
 1088 067e D5000000 		.4byte	.LASF90
 1089 0682 0E       		.byte	0xe
 1090 0683 4E       		.byte	0x4e
 1091 0684 3A060000 		.4byte	0x63a
 1092 0688 12       		.uleb128 0x12
 1093 0689 38       		.byte	0x38
 1094 068a 0F       		.byte	0xf
 1095 068b 38       		.byte	0x38
 1096 068c C1060000 		.4byte	0x6c1
 1097 0690 07       		.uleb128 0x7
 1098 0691 36080000 		.4byte	.LASF91
 1099 0695 0F       		.byte	0xf
 1100 0696 39       		.byte	0x39
 1101 0697 53010000 		.4byte	0x153
 1102 069b 00       		.byte	0
 1103 069c 07       		.uleb128 0x7
 1104 069d 5A050000 		.4byte	.LASF92
 1105 06a1 0F       		.byte	0xf
 1106 06a2 3A       		.byte	0x3a
 1107 06a3 53010000 		.4byte	0x153
 1108 06a7 04       		.byte	0x4
 1109 06a8 07       		.uleb128 0x7
 1110 06a9 24080000 		.4byte	.LASF93
 1111 06ad 0F       		.byte	0xf
 1112 06ae 3B       		.byte	0x3b
 1113 06af 7D060000 		.4byte	0x67d
 1114 06b3 08       		.byte	0x8
 1115 06b4 07       		.uleb128 0x7
 1116 06b5 11040000 		.4byte	.LASF94
 1117 06b9 0F       		.byte	0xf
 1118 06ba 3D       		.byte	0x3d
 1119 06bb 7D060000 		.4byte	0x67d
 1120 06bf 20       		.byte	0x20
 1121 06c0 00       		.byte	0
 1122 06c1 03       		.uleb128 0x3
 1123 06c2 BA030000 		.4byte	.LASF95
 1124 06c6 0F       		.byte	0xf
 1125 06c7 3F       		.byte	0x3f
 1126 06c8 88060000 		.4byte	0x688
 1127 06cc 13       		.uleb128 0x13
 1128 06cd 04       		.byte	0x4
 1129 06ce 09       		.byte	0x9
 1130 06cf D2       		.byte	0xd2
 1131 06d0 2F070000 		.4byte	0x72f
 1132 06d4 14       		.uleb128 0x14
 1133 06d5 55000000 		.4byte	.LASF96
 1134 06d9 09       		.byte	0x9
 1135 06da D9       		.byte	0xd9
 1136 06db 32010000 		.4byte	0x132
 1137 06df 14       		.uleb128 0x14
 1138 06e0 04010000 		.4byte	.LASF97
 1139 06e4 09       		.byte	0x9
 1140 06e5 E0       		.byte	0xe0
ARM GAS  C:\cygwin64\tmp\ccrJ3EpT.s 			page 21


 1141 06e6 32010000 		.4byte	0x132
 1142 06ea 14       		.uleb128 0x14
 1143 06eb E6070000 		.4byte	.LASF98
 1144 06ef 09       		.byte	0x9
 1145 06f0 E7       		.byte	0xe7
 1146 06f1 47030000 		.4byte	0x347
 1147 06f5 14       		.uleb128 0x14
 1148 06f6 88030000 		.4byte	.LASF99
 1149 06fa 09       		.byte	0x9
 1150 06fb EE       		.byte	0xee
 1151 06fc 2F070000 		.4byte	0x72f
 1152 0700 14       		.uleb128 0x14
 1153 0701 18010000 		.4byte	.LASF100
 1154 0705 09       		.byte	0x9
 1155 0706 F3       		.byte	0xf3
 1156 0707 32010000 		.4byte	0x132
 1157 070b 14       		.uleb128 0x14
 1158 070c 81030000 		.4byte	.LASF101
 1159 0710 09       		.byte	0x9
 1160 0711 FC       		.byte	0xfc
 1161 0712 5A070000 		.4byte	0x75a
 1162 0716 15       		.uleb128 0x15
 1163 0717 66060000 		.4byte	.LASF102
 1164 071b 09       		.byte	0x9
 1165 071c 0501     		.2byte	0x105
 1166 071e 91070000 		.4byte	0x791
 1167 0722 15       		.uleb128 0x15
 1168 0723 B4050000 		.4byte	.LASF103
 1169 0727 09       		.byte	0x9
 1170 0728 0D01     		.2byte	0x10d
 1171 072a 3D010000 		.4byte	0x13d
 1172 072e 00       		.byte	0
 1173 072f 0B       		.uleb128 0xb
 1174 0730 04       		.byte	0x4
 1175 0731 5F020000 		.4byte	0x25f
 1176 0735 06       		.uleb128 0x6
 1177 0736 2C060000 		.4byte	.LASF104
 1178 073a 0C       		.byte	0xc
 1179 073b 10       		.byte	0x10
 1180 073c 34       		.byte	0x34
 1181 073d 5A070000 		.4byte	0x75a
 1182 0741 07       		.uleb128 0x7
 1183 0742 A5030000 		.4byte	.LASF33
 1184 0746 10       		.byte	0x10
 1185 0747 35       		.byte	0x35
 1186 0748 94020000 		.4byte	0x294
 1187 074c 00       		.byte	0
 1188 074d 08       		.uleb128 0x8
 1189 074e 636E7400 		.ascii	"cnt\000"
 1190 0752 10       		.byte	0x10
 1191 0753 37       		.byte	0x37
 1192 0754 48010000 		.4byte	0x148
 1193 0758 08       		.byte	0x8
 1194 0759 00       		.byte	0
 1195 075a 0B       		.uleb128 0xb
 1196 075b 04       		.byte	0x4
 1197 075c 35070000 		.4byte	0x735
ARM GAS  C:\cygwin64\tmp\ccrJ3EpT.s 			page 22


 1198 0760 06       		.uleb128 0x6
 1199 0761 19070000 		.4byte	.LASF105
 1200 0765 10       		.byte	0x10
 1201 0766 11       		.byte	0x11
 1202 0767 39       		.byte	0x39
 1203 0768 91070000 		.4byte	0x791
 1204 076c 07       		.uleb128 0x7
 1205 076d A5030000 		.4byte	.LASF33
 1206 0771 11       		.byte	0x11
 1207 0772 3A       		.byte	0x3a
 1208 0773 94020000 		.4byte	0x294
 1209 0777 00       		.byte	0
 1210 0778 07       		.uleb128 0x7
 1211 0779 7D060000 		.4byte	.LASF106
 1212 077d 11       		.byte	0x11
 1213 077e 3C       		.byte	0x3c
 1214 077f 6A020000 		.4byte	0x26a
 1215 0783 08       		.byte	0x8
 1216 0784 07       		.uleb128 0x7
 1217 0785 4A000000 		.4byte	.LASF53
 1218 0789 11       		.byte	0x11
 1219 078a 3E       		.byte	0x3e
 1220 078b 5A090000 		.4byte	0x95a
 1221 078f 0C       		.byte	0xc
 1222 0790 00       		.byte	0
 1223 0791 0B       		.uleb128 0xb
 1224 0792 04       		.byte	0x4
 1225 0793 60070000 		.4byte	0x760
 1226 0797 0B       		.uleb128 0xb
 1227 0798 04       		.byte	0x4
 1228 0799 A9070000 		.4byte	0x7a9
 1229 079d 05       		.uleb128 0x5
 1230 079e 97070000 		.4byte	0x797
 1231 07a2 04       		.uleb128 0x4
 1232 07a3 01       		.byte	0x1
 1233 07a4 08       		.byte	0x8
 1234 07a5 B0060000 		.4byte	.LASF107
 1235 07a9 16       		.uleb128 0x16
 1236 07aa A2070000 		.4byte	0x7a2
 1237 07ae 0B       		.uleb128 0xb
 1238 07af 04       		.byte	0x4
 1239 07b0 A5040000 		.4byte	0x4a5
 1240 07b4 0B       		.uleb128 0xb
 1241 07b5 04       		.byte	0x4
 1242 07b6 49030000 		.4byte	0x349
 1243 07ba 17       		.uleb128 0x17
 1244 07bb 636800   		.ascii	"ch\000"
 1245 07be 09       		.byte	0x9
 1246 07bf D201     		.2byte	0x1d2
 1247 07c1 16040000 		.4byte	0x416
 1248 07c5 18       		.uleb128 0x18
 1249 07c6 A5040000 		.4byte	0x4a5
 1250 07ca D0070000 		.4byte	0x7d0
 1251 07ce 19       		.uleb128 0x19
 1252 07cf 00       		.byte	0
 1253 07d0 10       		.uleb128 0x10
 1254 07d1 42060000 		.4byte	.LASF108
ARM GAS  C:\cygwin64\tmp\ccrJ3EpT.s 			page 23


 1255 07d5 03       		.byte	0x3
 1256 07d6 2B01     		.2byte	0x12b
 1257 07d8 C5070000 		.4byte	0x7c5
 1258 07dc 03       		.uleb128 0x3
 1259 07dd 00000000 		.4byte	.LASF109
 1260 07e1 12       		.byte	0x12
 1261 07e2 40       		.byte	0x40
 1262 07e3 36030000 		.4byte	0x336
 1263 07e7 12       		.uleb128 0x12
 1264 07e8 18       		.byte	0x18
 1265 07e9 12       		.byte	0x12
 1266 07ea 45       		.byte	0x45
 1267 07eb 38080000 		.4byte	0x838
 1268 07ef 07       		.uleb128 0x7
 1269 07f0 D3030000 		.4byte	.LASF37
 1270 07f4 12       		.byte	0x12
 1271 07f5 49       		.byte	0x49
 1272 07f6 97070000 		.4byte	0x797
 1273 07fa 00       		.byte	0
 1274 07fb 07       		.uleb128 0x7
 1275 07fc EB040000 		.4byte	.LASF110
 1276 0800 12       		.byte	0x12
 1277 0801 4D       		.byte	0x4d
 1278 0802 AE070000 		.4byte	0x7ae
 1279 0806 04       		.byte	0x4
 1280 0807 07       		.uleb128 0x7
 1281 0808 E8000000 		.4byte	.LASF111
 1282 080c 12       		.byte	0x12
 1283 080d 51       		.byte	0x51
 1284 080e AE070000 		.4byte	0x7ae
 1285 0812 08       		.byte	0x8
 1286 0813 07       		.uleb128 0x7
 1287 0814 02050000 		.4byte	.LASF34
 1288 0818 12       		.byte	0x12
 1289 0819 55       		.byte	0x55
 1290 081a 27010000 		.4byte	0x127
 1291 081e 0C       		.byte	0xc
 1292 081f 07       		.uleb128 0x7
 1293 0820 5C000000 		.4byte	.LASF112
 1294 0824 12       		.byte	0x12
 1295 0825 59       		.byte	0x59
 1296 0826 DC070000 		.4byte	0x7dc
 1297 082a 10       		.byte	0x10
 1298 082b 08       		.uleb128 0x8
 1299 082c 61726700 		.ascii	"arg\000"
 1300 0830 12       		.byte	0x12
 1301 0831 5D       		.byte	0x5d
 1302 0832 47030000 		.4byte	0x347
 1303 0836 14       		.byte	0x14
 1304 0837 00       		.byte	0
 1305 0838 03       		.uleb128 0x3
 1306 0839 B1000000 		.4byte	.LASF113
 1307 083d 12       		.byte	0x12
 1308 083e 5E       		.byte	0x5e
 1309 083f E7070000 		.4byte	0x7e7
 1310 0843 12       		.uleb128 0x12
 1311 0844 16       		.byte	0x16
ARM GAS  C:\cygwin64\tmp\ccrJ3EpT.s 			page 24


 1312 0845 13       		.byte	0x13
 1313 0846 34       		.byte	0x34
 1314 0847 24090000 		.4byte	0x924
 1315 084b 07       		.uleb128 0x7
 1316 084c 4B070000 		.4byte	.LASF114
 1317 0850 13       		.byte	0x13
 1318 0851 35       		.byte	0x35
 1319 0852 24090000 		.4byte	0x924
 1320 0856 00       		.byte	0
 1321 0857 07       		.uleb128 0x7
 1322 0858 2F030000 		.4byte	.LASF115
 1323 085c 13       		.byte	0x13
 1324 085d 36       		.byte	0x36
 1325 085e B4000000 		.4byte	0xb4
 1326 0862 04       		.byte	0x4
 1327 0863 07       		.uleb128 0x7
 1328 0864 71010000 		.4byte	.LASF116
 1329 0868 13       		.byte	0x13
 1330 0869 37       		.byte	0x37
 1331 086a B4000000 		.4byte	0xb4
 1332 086e 05       		.byte	0x5
 1333 086f 07       		.uleb128 0x7
 1334 0870 63040000 		.4byte	.LASF117
 1335 0874 13       		.byte	0x13
 1336 0875 38       		.byte	0x38
 1337 0876 BF000000 		.4byte	0xbf
 1338 087a 06       		.byte	0x6
 1339 087b 07       		.uleb128 0x7
 1340 087c 84070000 		.4byte	.LASF118
 1341 0880 13       		.byte	0x13
 1342 0881 39       		.byte	0x39
 1343 0882 B4000000 		.4byte	0xb4
 1344 0886 08       		.byte	0x8
 1345 0887 07       		.uleb128 0x7
 1346 0888 54060000 		.4byte	.LASF119
 1347 088c 13       		.byte	0x13
 1348 088d 3A       		.byte	0x3a
 1349 088e B4000000 		.4byte	0xb4
 1350 0892 09       		.byte	0x9
 1351 0893 07       		.uleb128 0x7
 1352 0894 32050000 		.4byte	.LASF120
 1353 0898 13       		.byte	0x13
 1354 0899 3B       		.byte	0x3b
 1355 089a B4000000 		.4byte	0xb4
 1356 089e 0A       		.byte	0xa
 1357 089f 07       		.uleb128 0x7
 1358 08a0 7F050000 		.4byte	.LASF121
 1359 08a4 13       		.byte	0x13
 1360 08a5 3C       		.byte	0x3c
 1361 08a6 B4000000 		.4byte	0xb4
 1362 08aa 0B       		.byte	0xb
 1363 08ab 07       		.uleb128 0x7
 1364 08ac 01040000 		.4byte	.LASF122
 1365 08b0 13       		.byte	0x13
 1366 08b1 3D       		.byte	0x3d
 1367 08b2 B4000000 		.4byte	0xb4
 1368 08b6 0C       		.byte	0xc
ARM GAS  C:\cygwin64\tmp\ccrJ3EpT.s 			page 25


 1369 08b7 07       		.uleb128 0x7
 1370 08b8 C7040000 		.4byte	.LASF123
 1371 08bc 13       		.byte	0x13
 1372 08bd 3E       		.byte	0x3e
 1373 08be B4000000 		.4byte	0xb4
 1374 08c2 0D       		.byte	0xd
 1375 08c3 07       		.uleb128 0x7
 1376 08c4 22070000 		.4byte	.LASF124
 1377 08c8 13       		.byte	0x13
 1378 08c9 3F       		.byte	0x3f
 1379 08ca B4000000 		.4byte	0xb4
 1380 08ce 0E       		.byte	0xe
 1381 08cf 07       		.uleb128 0x7
 1382 08d0 36040000 		.4byte	.LASF125
 1383 08d4 13       		.byte	0x13
 1384 08d5 40       		.byte	0x40
 1385 08d6 B4000000 		.4byte	0xb4
 1386 08da 0F       		.byte	0xf
 1387 08db 07       		.uleb128 0x7
 1388 08dc 88050000 		.4byte	.LASF126
 1389 08e0 13       		.byte	0x13
 1390 08e1 41       		.byte	0x41
 1391 08e2 B4000000 		.4byte	0xb4
 1392 08e6 10       		.byte	0x10
 1393 08e7 07       		.uleb128 0x7
 1394 08e8 FC070000 		.4byte	.LASF127
 1395 08ec 13       		.byte	0x13
 1396 08ed 42       		.byte	0x42
 1397 08ee B4000000 		.4byte	0xb4
 1398 08f2 11       		.byte	0x11
 1399 08f3 07       		.uleb128 0x7
 1400 08f4 12080000 		.4byte	.LASF128
 1401 08f8 13       		.byte	0x13
 1402 08f9 43       		.byte	0x43
 1403 08fa B4000000 		.4byte	0xb4
 1404 08fe 12       		.byte	0x12
 1405 08ff 07       		.uleb128 0x7
 1406 0900 B1030000 		.4byte	.LASF129
 1407 0904 13       		.byte	0x13
 1408 0905 44       		.byte	0x44
 1409 0906 B4000000 		.4byte	0xb4
 1410 090a 13       		.byte	0x13
 1411 090b 07       		.uleb128 0x7
 1412 090c E9020000 		.4byte	.LASF130
 1413 0910 13       		.byte	0x13
 1414 0911 45       		.byte	0x45
 1415 0912 B4000000 		.4byte	0xb4
 1416 0916 14       		.byte	0x14
 1417 0917 07       		.uleb128 0x7
 1418 0918 39060000 		.4byte	.LASF131
 1419 091c 13       		.byte	0x13
 1420 091d 46       		.byte	0x46
 1421 091e B4000000 		.4byte	0xb4
 1422 0922 15       		.byte	0x15
 1423 0923 00       		.byte	0
 1424 0924 18       		.uleb128 0x18
 1425 0925 A2070000 		.4byte	0x7a2
ARM GAS  C:\cygwin64\tmp\ccrJ3EpT.s 			page 26


 1426 0929 34090000 		.4byte	0x934
 1427 092d 1A       		.uleb128 0x1a
 1428 092e 7C040000 		.4byte	0x47c
 1429 0932 03       		.byte	0x3
 1430 0933 00       		.byte	0
 1431 0934 03       		.uleb128 0x3
 1432 0935 DF020000 		.4byte	.LASF132
 1433 0939 13       		.byte	0x13
 1434 093a 47       		.byte	0x47
 1435 093b 43080000 		.4byte	0x843
 1436 093f 16       		.uleb128 0x16
 1437 0940 34090000 		.4byte	0x934
 1438 0944 11       		.uleb128 0x11
 1439 0945 8E030000 		.4byte	.LASF133
 1440 0949 13       		.byte	0x13
 1441 094a 6C       		.byte	0x6c
 1442 094b 3F090000 		.4byte	0x93f
 1443 094f 03       		.uleb128 0x3
 1444 0950 34030000 		.4byte	.LASF134
 1445 0954 11       		.byte	0x11
 1446 0955 34       		.byte	0x34
 1447 0956 60070000 		.4byte	0x760
 1448 095a 0B       		.uleb128 0xb
 1449 095b 04       		.byte	0x4
 1450 095c 4F090000 		.4byte	0x94f
 1451 0960 04       		.uleb128 0x4
 1452 0961 01       		.byte	0x1
 1453 0962 02       		.byte	0x2
 1454 0963 63050000 		.4byte	.LASF135
 1455 0967 03       		.uleb128 0x3
 1456 0968 5E070000 		.4byte	.LASF136
 1457 096c 14       		.byte	0x14
 1458 096d 47       		.byte	0x47
 1459 096e 72090000 		.4byte	0x972
 1460 0972 0B       		.uleb128 0xb
 1461 0973 04       		.byte	0x4
 1462 0974 78090000 		.4byte	0x978
 1463 0978 1B       		.uleb128 0x1b
 1464 0979 47030000 		.4byte	0x347
 1465 097d 8C090000 		.4byte	0x98c
 1466 0981 0E       		.uleb128 0xe
 1467 0982 2C000000 		.4byte	0x2c
 1468 0986 0E       		.uleb128 0xe
 1469 0987 37000000 		.4byte	0x37
 1470 098b 00       		.byte	0
 1471 098c 03       		.uleb128 0x3
 1472 098d F3030000 		.4byte	.LASF137
 1473 0991 15       		.byte	0x15
 1474 0992 48       		.byte	0x48
 1475 0993 97090000 		.4byte	0x997
 1476 0997 06       		.uleb128 0x6
 1477 0998 4D080000 		.4byte	.LASF138
 1478 099c 20       		.byte	0x20
 1479 099d 15       		.byte	0x15
 1480 099e 61       		.byte	0x61
 1481 099f C8090000 		.4byte	0x9c8
 1482 09a3 07       		.uleb128 0x7
ARM GAS  C:\cygwin64\tmp\ccrJ3EpT.s 			page 27


 1483 09a4 A8000000 		.4byte	.LASF139
 1484 09a8 15       		.byte	0x15
 1485 09a9 62       		.byte	0x62
 1486 09aa 67090000 		.4byte	0x967
 1487 09ae 00       		.byte	0
 1488 09af 07       		.uleb128 0x7
 1489 09b0 2F080000 		.4byte	.LASF140
 1490 09b4 15       		.byte	0x15
 1491 09b5 64       		.byte	0x64
 1492 09b6 C8090000 		.4byte	0x9c8
 1493 09ba 08       		.byte	0x8
 1494 09bb 08       		.uleb128 0x8
 1495 09bc 6D747800 		.ascii	"mtx\000"
 1496 09c0 15       		.byte	0x15
 1497 09c1 66       		.byte	0x66
 1498 09c2 4F090000 		.4byte	0x94f
 1499 09c6 10       		.byte	0x10
 1500 09c7 00       		.byte	0
 1501 09c8 03       		.uleb128 0x3
 1502 09c9 F5020000 		.4byte	.LASF141
 1503 09cd 15       		.byte	0x15
 1504 09ce 4D       		.byte	0x4d
 1505 09cf D3090000 		.4byte	0x9d3
 1506 09d3 1C       		.uleb128 0x1c
 1507 09d4 A8050000 		.4byte	.LASF168
 1508 09d8 08       		.byte	0x8
 1509 09d9 15       		.byte	0x15
 1510 09da 52       		.byte	0x52
 1511 09db 010A0000 		.4byte	0xa01
 1512 09df 14       		.uleb128 0x14
 1513 09e0 42030000 		.4byte	.LASF142
 1514 09e4 15       		.byte	0x15
 1515 09e5 53       		.byte	0x53
 1516 09e6 A5040000 		.4byte	0x4a5
 1517 09ea 14       		.uleb128 0x14
 1518 09eb 49010000 		.4byte	.LASF143
 1519 09ef 15       		.byte	0x15
 1520 09f0 57       		.byte	0x57
 1521 09f1 010A0000 		.4byte	0xa01
 1522 09f5 14       		.uleb128 0x14
 1523 09f6 25050000 		.4byte	.LASF144
 1524 09fa 15       		.byte	0x15
 1525 09fb 5B       		.byte	0x5b
 1526 09fc 280A0000 		.4byte	0xa28
 1527 0a00 00       		.byte	0
 1528 0a01 12       		.uleb128 0x12
 1529 0a02 08       		.byte	0x8
 1530 0a03 15       		.byte	0x15
 1531 0a04 54       		.byte	0x54
 1532 0a05 220A0000 		.4byte	0xa22
 1533 0a09 07       		.uleb128 0x7
 1534 0a0a 4A000000 		.4byte	.LASF53
 1535 0a0e 15       		.byte	0x15
 1536 0a0f 55       		.byte	0x55
 1537 0a10 220A0000 		.4byte	0xa22
 1538 0a14 00       		.byte	0
 1539 0a15 07       		.uleb128 0x7
ARM GAS  C:\cygwin64\tmp\ccrJ3EpT.s 			page 28


 1540 0a16 93000000 		.4byte	.LASF145
 1541 0a1a 15       		.byte	0x15
 1542 0a1b 56       		.byte	0x56
 1543 0a1c 2C000000 		.4byte	0x2c
 1544 0a20 04       		.byte	0x4
 1545 0a21 00       		.byte	0
 1546 0a22 0B       		.uleb128 0xb
 1547 0a23 04       		.byte	0x4
 1548 0a24 C8090000 		.4byte	0x9c8
 1549 0a28 12       		.uleb128 0x12
 1550 0a29 08       		.byte	0x8
 1551 0a2a 15       		.byte	0x15
 1552 0a2b 58       		.byte	0x58
 1553 0a2c 490A0000 		.4byte	0xa49
 1554 0a30 07       		.uleb128 0x7
 1555 0a31 83060000 		.4byte	.LASF146
 1556 0a35 15       		.byte	0x15
 1557 0a36 59       		.byte	0x59
 1558 0a37 490A0000 		.4byte	0xa49
 1559 0a3b 00       		.byte	0
 1560 0a3c 07       		.uleb128 0x7
 1561 0a3d 71010000 		.4byte	.LASF116
 1562 0a41 15       		.byte	0x15
 1563 0a42 5A       		.byte	0x5a
 1564 0a43 2C000000 		.4byte	0x2c
 1565 0a47 04       		.byte	0x4
 1566 0a48 00       		.byte	0
 1567 0a49 0B       		.uleb128 0xb
 1568 0a4a 04       		.byte	0x4
 1569 0a4b 8C090000 		.4byte	0x98c
 1570 0a4f 06       		.uleb128 0x6
 1571 0a50 9C070000 		.4byte	.LASF147
 1572 0a54 04       		.byte	0x4
 1573 0a55 16       		.byte	0x16
 1574 0a56 38       		.byte	0x38
 1575 0a57 680A0000 		.4byte	0xa68
 1576 0a5b 07       		.uleb128 0x7
 1577 0a5c 4A000000 		.4byte	.LASF53
 1578 0a60 16       		.byte	0x16
 1579 0a61 39       		.byte	0x39
 1580 0a62 680A0000 		.4byte	0xa68
 1581 0a66 00       		.byte	0
 1582 0a67 00       		.byte	0
 1583 0a68 0B       		.uleb128 0xb
 1584 0a69 04       		.byte	0x4
 1585 0a6a 4F0A0000 		.4byte	0xa4f
 1586 0a6e 12       		.uleb128 0x12
 1587 0a6f 0C       		.byte	0xc
 1588 0a70 16       		.byte	0x16
 1589 0a71 40       		.byte	0x40
 1590 0a72 9B0A0000 		.4byte	0xa9b
 1591 0a76 07       		.uleb128 0x7
 1592 0a77 4A000000 		.4byte	.LASF53
 1593 0a7b 16       		.byte	0x16
 1594 0a7c 41       		.byte	0x41
 1595 0a7d 680A0000 		.4byte	0xa68
 1596 0a81 00       		.byte	0
ARM GAS  C:\cygwin64\tmp\ccrJ3EpT.s 			page 29


 1597 0a82 07       		.uleb128 0x7
 1598 0a83 78070000 		.4byte	.LASF148
 1599 0a87 16       		.byte	0x16
 1600 0a88 42       		.byte	0x42
 1601 0a89 2C000000 		.4byte	0x2c
 1602 0a8d 04       		.byte	0x4
 1603 0a8e 07       		.uleb128 0x7
 1604 0a8f A8000000 		.4byte	.LASF139
 1605 0a93 16       		.byte	0x16
 1606 0a94 44       		.byte	0x44
 1607 0a95 67090000 		.4byte	0x967
 1608 0a99 08       		.byte	0x8
 1609 0a9a 00       		.byte	0
 1610 0a9b 03       		.uleb128 0x3
 1611 0a9c 97030000 		.4byte	.LASF149
 1612 0aa0 16       		.byte	0x16
 1613 0aa1 46       		.byte	0x46
 1614 0aa2 6E0A0000 		.4byte	0xa6e
 1615 0aa6 1D       		.uleb128 0x1d
 1616 0aa7 D1040000 		.4byte	.LASF150
 1617 0aab 01       		.byte	0x1
 1618 0aac 91       		.byte	0x91
 1619 0aad 6A020000 		.4byte	0x26a
 1620 0ab1 00000000 		.4byte	.LFB247
 1621 0ab5 62000000 		.4byte	.LFE247-.LFB247
 1622 0ab9 01       		.uleb128 0x1
 1623 0aba 9C       		.byte	0x9c
 1624 0abb 390C0000 		.4byte	0xc39
 1625 0abf 1E       		.uleb128 0x1e
 1626 0ac0 6D7000   		.ascii	"mp\000"
 1627 0ac3 01       		.byte	0x1
 1628 0ac4 91       		.byte	0x91
 1629 0ac5 390C0000 		.4byte	0xc39
 1630 0ac9 00000000 		.4byte	.LLST8
 1631 0acd 1F       		.uleb128 0x1f
 1632 0ace D3030000 		.4byte	.LASF37
 1633 0ad2 01       		.byte	0x1
 1634 0ad3 91       		.byte	0x91
 1635 0ad4 97070000 		.4byte	0x797
 1636 0ad8 1E000000 		.4byte	.LLST9
 1637 0adc 1F       		.uleb128 0x1f
 1638 0add 02050000 		.4byte	.LASF34
 1639 0ae1 01       		.byte	0x1
 1640 0ae2 92       		.byte	0x92
 1641 0ae3 27010000 		.4byte	0x127
 1642 0ae7 3C000000 		.4byte	.LLST10
 1643 0aeb 1E       		.uleb128 0x1e
 1644 0aec 706600   		.ascii	"pf\000"
 1645 0aef 01       		.byte	0x1
 1646 0af0 92       		.byte	0x92
 1647 0af1 DC070000 		.4byte	0x7dc
 1648 0af5 5A000000 		.4byte	.LLST11
 1649 0af9 20       		.uleb128 0x20
 1650 0afa 61726700 		.ascii	"arg\000"
 1651 0afe 01       		.byte	0x1
 1652 0aff 92       		.byte	0x92
 1653 0b00 47030000 		.4byte	0x347
ARM GAS  C:\cygwin64\tmp\ccrJ3EpT.s 			page 30


 1654 0b04 02       		.uleb128 0x2
 1655 0b05 91       		.byte	0x91
 1656 0b06 00       		.sleb128 0
 1657 0b07 21       		.uleb128 0x21
 1658 0b08 747000   		.ascii	"tp\000"
 1659 0b0b 01       		.byte	0x1
 1660 0b0c 93       		.byte	0x93
 1661 0b0d 6A020000 		.4byte	0x26a
 1662 0b11 78000000 		.4byte	.LLST12
 1663 0b15 21       		.uleb128 0x21
 1664 0b16 77737000 		.ascii	"wsp\000"
 1665 0b1a 01       		.byte	0x1
 1666 0b1b 94       		.byte	0x94
 1667 0b1c 47030000 		.4byte	0x347
 1668 0b20 96000000 		.4byte	.LLST13
 1669 0b24 22       		.uleb128 0x22
 1670 0b25 C5050000 		.4byte	.LASF169
 1671 0b29 4F0C0000 		.4byte	0xc4f
 1672 0b2d 23       		.uleb128 0x23
 1673 0b2e 746400   		.ascii	"td\000"
 1674 0b31 01       		.byte	0x1
 1675 0b32 9D       		.byte	0x9d
 1676 0b33 38080000 		.4byte	0x838
 1677 0b37 02       		.uleb128 0x2
 1678 0b38 91       		.byte	0x91
 1679 0b39 50       		.sleb128 -48
 1680 0b3a 24       		.uleb128 0x24
 1681 0b3b 320E0000 		.4byte	0xe32
 1682 0b3f 30000000 		.4byte	.LBB44
 1683 0b43 0A000000 		.4byte	.LBE44-.LBB44
 1684 0b47 01       		.byte	0x1
 1685 0b48 AC       		.byte	0xac
 1686 0b49 860B0000 		.4byte	0xb86
 1687 0b4d 25       		.uleb128 0x25
 1688 0b4e 440E0000 		.4byte	0xe44
 1689 0b52 30000000 		.4byte	.LBB46
 1690 0b56 06000000 		.4byte	.LBE46-.LBB46
 1691 0b5a 03       		.byte	0x3
 1692 0b5b 7801     		.2byte	0x178
 1693 0b5d 7C0B0000 		.4byte	0xb7c
 1694 0b61 26       		.uleb128 0x26
 1695 0b62 4D0E0000 		.4byte	0xe4d
 1696 0b66 30000000 		.4byte	.LBB47
 1697 0b6a 06000000 		.4byte	.LBE47-.LBB47
 1698 0b6e 0D       		.byte	0xd
 1699 0b6f 5A02     		.2byte	0x25a
 1700 0b71 27       		.uleb128 0x27
 1701 0b72 5A0E0000 		.4byte	0xe5a
 1702 0b76 B4000000 		.4byte	.LLST14
 1703 0b7a 00       		.byte	0
 1704 0b7b 00       		.byte	0
 1705 0b7c 28       		.uleb128 0x28
 1706 0b7d 3A000000 		.4byte	.LVL15
 1707 0b81 670E0000 		.4byte	0xe67
 1708 0b85 00       		.byte	0
 1709 0b86 24       		.uleb128 0x24
 1710 0b87 020E0000 		.4byte	0xe02
ARM GAS  C:\cygwin64\tmp\ccrJ3EpT.s 			page 31


 1711 0b8b 50000000 		.4byte	.LBB49
 1712 0b8f 0A000000 		.4byte	.LBE49-.LBB49
 1713 0b93 01       		.byte	0x1
 1714 0b94 B1       		.byte	0xb1
 1715 0b95 E10B0000 		.4byte	0xbe1
 1716 0b99 29       		.uleb128 0x29
 1717 0b9a 50000000 		.4byte	.LBB50
 1718 0b9e 0A000000 		.4byte	.LBE50-.LBB50
 1719 0ba2 2A       		.uleb128 0x2a
 1720 0ba3 0F0E0000 		.4byte	0xe0f
 1721 0ba7 25       		.uleb128 0x25
 1722 0ba8 3B0E0000 		.4byte	0xe3b
 1723 0bac 54000000 		.4byte	.LBB51
 1724 0bb0 06000000 		.4byte	.LBE51-.LBB51
 1725 0bb4 03       		.byte	0x3
 1726 0bb5 8F01     		.2byte	0x18f
 1727 0bb7 D60B0000 		.4byte	0xbd6
 1728 0bbb 26       		.uleb128 0x26
 1729 0bbc 4D0E0000 		.4byte	0xe4d
 1730 0bc0 54000000 		.4byte	.LBB52
 1731 0bc4 06000000 		.4byte	.LBE52-.LBB52
 1732 0bc8 0D       		.byte	0xd
 1733 0bc9 6D02     		.2byte	0x26d
 1734 0bcb 27       		.uleb128 0x27
 1735 0bcc 5A0E0000 		.4byte	0xe5a
 1736 0bd0 C9000000 		.4byte	.LLST15
 1737 0bd4 00       		.byte	0
 1738 0bd5 00       		.byte	0
 1739 0bd6 28       		.uleb128 0x28
 1740 0bd7 54000000 		.4byte	.LVL19
 1741 0bdb 720E0000 		.4byte	0xe72
 1742 0bdf 00       		.byte	0
 1743 0be0 00       		.byte	0
 1744 0be1 2B       		.uleb128 0x2b
 1745 0be2 12000000 		.4byte	.LVL12
 1746 0be6 7D0E0000 		.4byte	0xe7d
 1747 0bea F50B0000 		.4byte	0xbf5
 1748 0bee 2C       		.uleb128 0x2c
 1749 0bef 01       		.uleb128 0x1
 1750 0bf0 50       		.byte	0x50
 1751 0bf1 02       		.uleb128 0x2
 1752 0bf2 75       		.byte	0x75
 1753 0bf3 00       		.sleb128 0
 1754 0bf4 00       		.byte	0
 1755 0bf5 2B       		.uleb128 0x2b
 1756 0bf6 30000000 		.4byte	.LVL13
 1757 0bfa 880E0000 		.4byte	0xe88
 1758 0bfe 0F0C0000 		.4byte	0xc0f
 1759 0c02 2C       		.uleb128 0x2c
 1760 0c03 01       		.uleb128 0x1
 1761 0c04 50       		.byte	0x50
 1762 0c05 02       		.uleb128 0x2
 1763 0c06 74       		.byte	0x74
 1764 0c07 00       		.sleb128 0
 1765 0c08 2C       		.uleb128 0x2c
 1766 0c09 01       		.uleb128 0x1
 1767 0c0a 52       		.byte	0x52
ARM GAS  C:\cygwin64\tmp\ccrJ3EpT.s 			page 32


 1768 0c0b 02       		.uleb128 0x2
 1769 0c0c 08       		.byte	0x8
 1770 0c0d 55       		.byte	0x55
 1771 0c0e 00       		.byte	0
 1772 0c0f 2B       		.uleb128 0x2b
 1773 0c10 40000000 		.4byte	.LVL16
 1774 0c14 930E0000 		.4byte	0xe93
 1775 0c18 230C0000 		.4byte	0xc23
 1776 0c1c 2C       		.uleb128 0x2c
 1777 0c1d 01       		.uleb128 0x1
 1778 0c1e 50       		.byte	0x50
 1779 0c1f 02       		.uleb128 0x2
 1780 0c20 7D       		.byte	0x7d
 1781 0c21 00       		.sleb128 0
 1782 0c22 00       		.byte	0
 1783 0c23 2D       		.uleb128 0x2d
 1784 0c24 50000000 		.4byte	.LVL18
 1785 0c28 9E0E0000 		.4byte	0xe9e
 1786 0c2c 2C       		.uleb128 0x2c
 1787 0c2d 01       		.uleb128 0x1
 1788 0c2e 50       		.byte	0x50
 1789 0c2f 02       		.uleb128 0x2
 1790 0c30 74       		.byte	0x74
 1791 0c31 00       		.sleb128 0
 1792 0c32 2C       		.uleb128 0x2c
 1793 0c33 01       		.uleb128 0x1
 1794 0c34 51       		.byte	0x51
 1795 0c35 01       		.uleb128 0x1
 1796 0c36 30       		.byte	0x30
 1797 0c37 00       		.byte	0
 1798 0c38 00       		.byte	0
 1799 0c39 0B       		.uleb128 0xb
 1800 0c3a 04       		.byte	0x4
 1801 0c3b 9B0A0000 		.4byte	0xa9b
 1802 0c3f 18       		.uleb128 0x18
 1803 0c40 A9070000 		.4byte	0x7a9
 1804 0c44 4F0C0000 		.4byte	0xc4f
 1805 0c48 1A       		.uleb128 0x1a
 1806 0c49 7C040000 		.4byte	0x47c
 1807 0c4d 19       		.byte	0x19
 1808 0c4e 00       		.byte	0
 1809 0c4f 16       		.uleb128 0x16
 1810 0c50 3F0C0000 		.4byte	0xc3f
 1811 0c54 1D       		.uleb128 0x1d
 1812 0c55 B7020000 		.4byte	.LASF151
 1813 0c59 01       		.byte	0x1
 1814 0c5a 52       		.byte	0x52
 1815 0c5b 6A020000 		.4byte	0x26a
 1816 0c5f 00000000 		.4byte	.LFB246
 1817 0c63 5A000000 		.4byte	.LFE246-.LFB246
 1818 0c67 01       		.uleb128 0x1
 1819 0c68 9C       		.byte	0x9c
 1820 0c69 020E0000 		.4byte	0xe02
 1821 0c6d 1F       		.uleb128 0x1f
 1822 0c6e 43010000 		.4byte	.LASF152
 1823 0c72 01       		.byte	0x1
 1824 0c73 52       		.byte	0x52
ARM GAS  C:\cygwin64\tmp\ccrJ3EpT.s 			page 33


 1825 0c74 490A0000 		.4byte	0xa49
 1826 0c78 DD000000 		.4byte	.LLST0
 1827 0c7c 1F       		.uleb128 0x1f
 1828 0c7d 71010000 		.4byte	.LASF116
 1829 0c81 01       		.byte	0x1
 1830 0c82 52       		.byte	0x52
 1831 0c83 2C000000 		.4byte	0x2c
 1832 0c87 FE000000 		.4byte	.LLST1
 1833 0c8b 1F       		.uleb128 0x1f
 1834 0c8c D3030000 		.4byte	.LASF37
 1835 0c90 01       		.byte	0x1
 1836 0c91 53       		.byte	0x53
 1837 0c92 97070000 		.4byte	0x797
 1838 0c96 1C010000 		.4byte	.LLST2
 1839 0c9a 1F       		.uleb128 0x1f
 1840 0c9b 02050000 		.4byte	.LASF34
 1841 0c9f 01       		.byte	0x1
 1842 0ca0 53       		.byte	0x53
 1843 0ca1 27010000 		.4byte	0x127
 1844 0ca5 3A010000 		.4byte	.LLST3
 1845 0ca9 20       		.uleb128 0x20
 1846 0caa 706600   		.ascii	"pf\000"
 1847 0cad 01       		.byte	0x1
 1848 0cae 54       		.byte	0x54
 1849 0caf DC070000 		.4byte	0x7dc
 1850 0cb3 02       		.uleb128 0x2
 1851 0cb4 91       		.byte	0x91
 1852 0cb5 00       		.sleb128 0
 1853 0cb6 20       		.uleb128 0x20
 1854 0cb7 61726700 		.ascii	"arg\000"
 1855 0cbb 01       		.byte	0x1
 1856 0cbc 54       		.byte	0x54
 1857 0cbd 47030000 		.4byte	0x347
 1858 0cc1 02       		.uleb128 0x2
 1859 0cc2 91       		.byte	0x91
 1860 0cc3 04       		.sleb128 4
 1861 0cc4 21       		.uleb128 0x21
 1862 0cc5 747000   		.ascii	"tp\000"
 1863 0cc8 01       		.byte	0x1
 1864 0cc9 55       		.byte	0x55
 1865 0cca 6A020000 		.4byte	0x26a
 1866 0cce 58010000 		.4byte	.LLST4
 1867 0cd2 21       		.uleb128 0x21
 1868 0cd3 77737000 		.ascii	"wsp\000"
 1869 0cd7 01       		.byte	0x1
 1870 0cd8 56       		.byte	0x56
 1871 0cd9 47030000 		.4byte	0x347
 1872 0cdd 76010000 		.4byte	.LLST5
 1873 0ce1 23       		.uleb128 0x23
 1874 0ce2 746400   		.ascii	"td\000"
 1875 0ce5 01       		.byte	0x1
 1876 0ce6 5D       		.byte	0x5d
 1877 0ce7 38080000 		.4byte	0x838
 1878 0ceb 02       		.uleb128 0x2
 1879 0cec 91       		.byte	0x91
 1880 0ced 50       		.sleb128 -48
 1881 0cee 24       		.uleb128 0x24
ARM GAS  C:\cygwin64\tmp\ccrJ3EpT.s 			page 34


 1882 0cef 320E0000 		.4byte	0xe32
 1883 0cf3 2C000000 		.4byte	.LBB24
 1884 0cf7 0A000000 		.4byte	.LBE24-.LBB24
 1885 0cfb 01       		.byte	0x1
 1886 0cfc 6C       		.byte	0x6c
 1887 0cfd 3A0D0000 		.4byte	0xd3a
 1888 0d01 25       		.uleb128 0x25
 1889 0d02 440E0000 		.4byte	0xe44
 1890 0d06 2C000000 		.4byte	.LBB26
 1891 0d0a 06000000 		.4byte	.LBE26-.LBB26
 1892 0d0e 03       		.byte	0x3
 1893 0d0f 7801     		.2byte	0x178
 1894 0d11 300D0000 		.4byte	0xd30
 1895 0d15 26       		.uleb128 0x26
 1896 0d16 4D0E0000 		.4byte	0xe4d
 1897 0d1a 2C000000 		.4byte	.LBB27
 1898 0d1e 06000000 		.4byte	.LBE27-.LBB27
 1899 0d22 0D       		.byte	0xd
 1900 0d23 5A02     		.2byte	0x25a
 1901 0d25 27       		.uleb128 0x27
 1902 0d26 5A0E0000 		.4byte	0xe5a
 1903 0d2a 94010000 		.4byte	.LLST6
 1904 0d2e 00       		.byte	0
 1905 0d2f 00       		.byte	0
 1906 0d30 28       		.uleb128 0x28
 1907 0d31 36000000 		.4byte	.LVL5
 1908 0d35 670E0000 		.4byte	0xe67
 1909 0d39 00       		.byte	0
 1910 0d3a 24       		.uleb128 0x24
 1911 0d3b 020E0000 		.4byte	0xe02
 1912 0d3f 4A000000 		.4byte	.LBB29
 1913 0d43 0A000000 		.4byte	.LBE29-.LBB29
 1914 0d47 01       		.byte	0x1
 1915 0d48 70       		.byte	0x70
 1916 0d49 950D0000 		.4byte	0xd95
 1917 0d4d 29       		.uleb128 0x29
 1918 0d4e 4A000000 		.4byte	.LBB30
 1919 0d52 0A000000 		.4byte	.LBE30-.LBB30
 1920 0d56 2A       		.uleb128 0x2a
 1921 0d57 0F0E0000 		.4byte	0xe0f
 1922 0d5b 25       		.uleb128 0x25
 1923 0d5c 3B0E0000 		.4byte	0xe3b
 1924 0d60 4E000000 		.4byte	.LBB31
 1925 0d64 06000000 		.4byte	.LBE31-.LBB31
 1926 0d68 03       		.byte	0x3
 1927 0d69 8F01     		.2byte	0x18f
 1928 0d6b 8A0D0000 		.4byte	0xd8a
 1929 0d6f 26       		.uleb128 0x26
 1930 0d70 4D0E0000 		.4byte	0xe4d
 1931 0d74 4E000000 		.4byte	.LBB32
 1932 0d78 06000000 		.4byte	.LBE32-.LBB32
 1933 0d7c 0D       		.byte	0xd
 1934 0d7d 6D02     		.2byte	0x26d
 1935 0d7f 27       		.uleb128 0x27
 1936 0d80 5A0E0000 		.4byte	0xe5a
 1937 0d84 A9010000 		.4byte	.LLST7
 1938 0d88 00       		.byte	0
ARM GAS  C:\cygwin64\tmp\ccrJ3EpT.s 			page 35


 1939 0d89 00       		.byte	0
 1940 0d8a 28       		.uleb128 0x28
 1941 0d8b 4E000000 		.4byte	.LVL9
 1942 0d8f 720E0000 		.4byte	0xe72
 1943 0d93 00       		.byte	0
 1944 0d94 00       		.byte	0
 1945 0d95 2B       		.uleb128 0x2b
 1946 0d96 10000000 		.4byte	.LVL2
 1947 0d9a AA0E0000 		.4byte	0xeaa
 1948 0d9e B50D0000 		.4byte	0xdb5
 1949 0da2 2C       		.uleb128 0x2c
 1950 0da3 01       		.uleb128 0x1
 1951 0da4 50       		.byte	0x50
 1952 0da5 03       		.uleb128 0x3
 1953 0da6 F3       		.byte	0xf3
 1954 0da7 01       		.uleb128 0x1
 1955 0da8 50       		.byte	0x50
 1956 0da9 2C       		.uleb128 0x2c
 1957 0daa 01       		.uleb128 0x1
 1958 0dab 51       		.byte	0x51
 1959 0dac 02       		.uleb128 0x2
 1960 0dad 76       		.byte	0x76
 1961 0dae 00       		.sleb128 0
 1962 0daf 2C       		.uleb128 0x2c
 1963 0db0 01       		.uleb128 0x1
 1964 0db1 52       		.byte	0x52
 1965 0db2 01       		.uleb128 0x1
 1966 0db3 38       		.byte	0x38
 1967 0db4 00       		.byte	0
 1968 0db5 2B       		.uleb128 0x2b
 1969 0db6 2C000000 		.4byte	.LVL3
 1970 0dba 880E0000 		.4byte	0xe88
 1971 0dbe D80D0000 		.4byte	0xdd8
 1972 0dc2 2C       		.uleb128 0x2c
 1973 0dc3 01       		.uleb128 0x1
 1974 0dc4 50       		.byte	0x50
 1975 0dc5 02       		.uleb128 0x2
 1976 0dc6 74       		.byte	0x74
 1977 0dc7 00       		.sleb128 0
 1978 0dc8 2C       		.uleb128 0x2c
 1979 0dc9 01       		.uleb128 0x1
 1980 0dca 51       		.byte	0x51
 1981 0dcb 05       		.uleb128 0x5
 1982 0dcc 74       		.byte	0x74
 1983 0dcd 00       		.sleb128 0
 1984 0dce 76       		.byte	0x76
 1985 0dcf 00       		.sleb128 0
 1986 0dd0 22       		.byte	0x22
 1987 0dd1 2C       		.uleb128 0x2c
 1988 0dd2 01       		.uleb128 0x1
 1989 0dd3 52       		.byte	0x52
 1990 0dd4 02       		.uleb128 0x2
 1991 0dd5 08       		.byte	0x8
 1992 0dd6 55       		.byte	0x55
 1993 0dd7 00       		.byte	0
 1994 0dd8 2B       		.uleb128 0x2b
 1995 0dd9 3C000000 		.4byte	.LVL6
ARM GAS  C:\cygwin64\tmp\ccrJ3EpT.s 			page 36


 1996 0ddd 930E0000 		.4byte	0xe93
 1997 0de1 EC0D0000 		.4byte	0xdec
 1998 0de5 2C       		.uleb128 0x2c
 1999 0de6 01       		.uleb128 0x1
 2000 0de7 50       		.byte	0x50
 2001 0de8 02       		.uleb128 0x2
 2002 0de9 7D       		.byte	0x7d
 2003 0dea 00       		.sleb128 0
 2004 0deb 00       		.byte	0
 2005 0dec 2D       		.uleb128 0x2d
 2006 0ded 4A000000 		.4byte	.LVL8
 2007 0df1 9E0E0000 		.4byte	0xe9e
 2008 0df5 2C       		.uleb128 0x2c
 2009 0df6 01       		.uleb128 0x1
 2010 0df7 50       		.byte	0x50
 2011 0df8 02       		.uleb128 0x2
 2012 0df9 74       		.byte	0x74
 2013 0dfa 00       		.sleb128 0
 2014 0dfb 2C       		.uleb128 0x2c
 2015 0dfc 01       		.uleb128 0x1
 2016 0dfd 51       		.byte	0x51
 2017 0dfe 01       		.uleb128 0x1
 2018 0dff 30       		.byte	0x30
 2019 0e00 00       		.byte	0
 2020 0e01 00       		.byte	0
 2021 0e02 2E       		.uleb128 0x2e
 2022 0e03 06080000 		.4byte	.LASF156
 2023 0e07 03       		.byte	0x3
 2024 0e08 8201     		.2byte	0x182
 2025 0e0a 03       		.byte	0x3
 2026 0e0b 1D0E0000 		.4byte	0xe1d
 2027 0e0f 2F       		.uleb128 0x2f
 2028 0e10 C5050000 		.4byte	.LASF169
 2029 0e14 2D0E0000 		.4byte	0xe2d
 2030 0e18 06080000 		.4byte	.LASF156
 2031 0e1c 00       		.byte	0
 2032 0e1d 18       		.uleb128 0x18
 2033 0e1e A9070000 		.4byte	0x7a9
 2034 0e22 2D0E0000 		.4byte	0xe2d
 2035 0e26 1A       		.uleb128 0x1a
 2036 0e27 7C040000 		.4byte	0x47c
 2037 0e2b 0B       		.byte	0xb
 2038 0e2c 00       		.byte	0
 2039 0e2d 16       		.uleb128 0x16
 2040 0e2e 1D0E0000 		.4byte	0xe1d
 2041 0e32 30       		.uleb128 0x30
 2042 0e33 FA050000 		.4byte	.LASF153
 2043 0e37 03       		.byte	0x3
 2044 0e38 7601     		.2byte	0x176
 2045 0e3a 03       		.byte	0x3
 2046 0e3b 30       		.uleb128 0x30
 2047 0e3c 93020000 		.4byte	.LASF154
 2048 0e40 0D       		.byte	0xd
 2049 0e41 6A02     		.2byte	0x26a
 2050 0e43 03       		.byte	0x3
 2051 0e44 30       		.uleb128 0x30
 2052 0e45 C5000000 		.4byte	.LASF155
ARM GAS  C:\cygwin64\tmp\ccrJ3EpT.s 			page 37


 2053 0e49 0D       		.byte	0xd
 2054 0e4a 5202     		.2byte	0x252
 2055 0e4c 03       		.byte	0x3
 2056 0e4d 2E       		.uleb128 0x2e
 2057 0e4e E7060000 		.4byte	.LASF157
 2058 0e52 02       		.byte	0x2
 2059 0e53 0601     		.2byte	0x106
 2060 0e55 03       		.byte	0x3
 2061 0e56 670E0000 		.4byte	0xe67
 2062 0e5a 31       		.uleb128 0x31
 2063 0e5b 3C030000 		.4byte	.LASF170
 2064 0e5f 02       		.byte	0x2
 2065 0e60 0601     		.2byte	0x106
 2066 0e62 DA000000 		.4byte	0xda
 2067 0e66 00       		.byte	0
 2068 0e67 32       		.uleb128 0x32
 2069 0e68 C8070000 		.4byte	.LASF158
 2070 0e6c C8070000 		.4byte	.LASF158
 2071 0e70 0F       		.byte	0xf
 2072 0e71 4F       		.byte	0x4f
 2073 0e72 32       		.uleb128 0x32
 2074 0e73 6B040000 		.4byte	.LASF159
 2075 0e77 6B040000 		.4byte	.LASF159
 2076 0e7b 0F       		.byte	0xf
 2077 0e7c 50       		.byte	0x50
 2078 0e7d 32       		.uleb128 0x32
 2079 0e7e B6070000 		.4byte	.LASF160
 2080 0e82 B6070000 		.4byte	.LASF160
 2081 0e86 16       		.byte	0x16
 2082 0e87 94       		.byte	0x94
 2083 0e88 32       		.uleb128 0x32
 2084 0e89 04060000 		.4byte	.LASF161
 2085 0e8d 04060000 		.4byte	.LASF161
 2086 0e91 12       		.byte	0x12
 2087 0e92 ED       		.byte	0xed
 2088 0e93 32       		.uleb128 0x32
 2089 0e94 9A060000 		.4byte	.LASF162
 2090 0e98 9A060000 		.4byte	.LASF162
 2091 0e9c 12       		.byte	0x12
 2092 0e9d EF       		.byte	0xef
 2093 0e9e 33       		.uleb128 0x33
 2094 0e9f 6B070000 		.4byte	.LASF163
 2095 0ea3 6B070000 		.4byte	.LASF163
 2096 0ea7 09       		.byte	0x9
 2097 0ea8 E001     		.2byte	0x1e0
 2098 0eaa 32       		.uleb128 0x32
 2099 0eab 06070000 		.4byte	.LASF164
 2100 0eaf 06070000 		.4byte	.LASF164
 2101 0eb3 15       		.byte	0x15
 2102 0eb4 80       		.byte	0x80
 2103 0eb5 00       		.byte	0
 2104              		.section	.debug_abbrev,"",%progbits
 2105              	.Ldebug_abbrev0:
 2106 0000 01       		.uleb128 0x1
 2107 0001 11       		.uleb128 0x11
 2108 0002 01       		.byte	0x1
 2109 0003 25       		.uleb128 0x25
ARM GAS  C:\cygwin64\tmp\ccrJ3EpT.s 			page 38


 2110 0004 0E       		.uleb128 0xe
 2111 0005 13       		.uleb128 0x13
 2112 0006 0B       		.uleb128 0xb
 2113 0007 03       		.uleb128 0x3
 2114 0008 0E       		.uleb128 0xe
 2115 0009 1B       		.uleb128 0x1b
 2116 000a 0E       		.uleb128 0xe
 2117 000b 55       		.uleb128 0x55
 2118 000c 17       		.uleb128 0x17
 2119 000d 11       		.uleb128 0x11
 2120 000e 01       		.uleb128 0x1
 2121 000f 10       		.uleb128 0x10
 2122 0010 17       		.uleb128 0x17
 2123 0011 00       		.byte	0
 2124 0012 00       		.byte	0
 2125 0013 02       		.uleb128 0x2
 2126 0014 24       		.uleb128 0x24
 2127 0015 00       		.byte	0
 2128 0016 0B       		.uleb128 0xb
 2129 0017 0B       		.uleb128 0xb
 2130 0018 3E       		.uleb128 0x3e
 2131 0019 0B       		.uleb128 0xb
 2132 001a 03       		.uleb128 0x3
 2133 001b 08       		.uleb128 0x8
 2134 001c 00       		.byte	0
 2135 001d 00       		.byte	0
 2136 001e 03       		.uleb128 0x3
 2137 001f 16       		.uleb128 0x16
 2138 0020 00       		.byte	0
 2139 0021 03       		.uleb128 0x3
 2140 0022 0E       		.uleb128 0xe
 2141 0023 3A       		.uleb128 0x3a
 2142 0024 0B       		.uleb128 0xb
 2143 0025 3B       		.uleb128 0x3b
 2144 0026 0B       		.uleb128 0xb
 2145 0027 49       		.uleb128 0x49
 2146 0028 13       		.uleb128 0x13
 2147 0029 00       		.byte	0
 2148 002a 00       		.byte	0
 2149 002b 04       		.uleb128 0x4
 2150 002c 24       		.uleb128 0x24
 2151 002d 00       		.byte	0
 2152 002e 0B       		.uleb128 0xb
 2153 002f 0B       		.uleb128 0xb
 2154 0030 3E       		.uleb128 0x3e
 2155 0031 0B       		.uleb128 0xb
 2156 0032 03       		.uleb128 0x3
 2157 0033 0E       		.uleb128 0xe
 2158 0034 00       		.byte	0
 2159 0035 00       		.byte	0
 2160 0036 05       		.uleb128 0x5
 2161 0037 35       		.uleb128 0x35
 2162 0038 00       		.byte	0
 2163 0039 49       		.uleb128 0x49
 2164 003a 13       		.uleb128 0x13
 2165 003b 00       		.byte	0
 2166 003c 00       		.byte	0
ARM GAS  C:\cygwin64\tmp\ccrJ3EpT.s 			page 39


 2167 003d 06       		.uleb128 0x6
 2168 003e 13       		.uleb128 0x13
 2169 003f 01       		.byte	0x1
 2170 0040 03       		.uleb128 0x3
 2171 0041 0E       		.uleb128 0xe
 2172 0042 0B       		.uleb128 0xb
 2173 0043 0B       		.uleb128 0xb
 2174 0044 3A       		.uleb128 0x3a
 2175 0045 0B       		.uleb128 0xb
 2176 0046 3B       		.uleb128 0x3b
 2177 0047 0B       		.uleb128 0xb
 2178 0048 01       		.uleb128 0x1
 2179 0049 13       		.uleb128 0x13
 2180 004a 00       		.byte	0
 2181 004b 00       		.byte	0
 2182 004c 07       		.uleb128 0x7
 2183 004d 0D       		.uleb128 0xd
 2184 004e 00       		.byte	0
 2185 004f 03       		.uleb128 0x3
 2186 0050 0E       		.uleb128 0xe
 2187 0051 3A       		.uleb128 0x3a
 2188 0052 0B       		.uleb128 0xb
 2189 0053 3B       		.uleb128 0x3b
 2190 0054 0B       		.uleb128 0xb
 2191 0055 49       		.uleb128 0x49
 2192 0056 13       		.uleb128 0x13
 2193 0057 38       		.uleb128 0x38
 2194 0058 0B       		.uleb128 0xb
 2195 0059 00       		.byte	0
 2196 005a 00       		.byte	0
 2197 005b 08       		.uleb128 0x8
 2198 005c 0D       		.uleb128 0xd
 2199 005d 00       		.byte	0
 2200 005e 03       		.uleb128 0x3
 2201 005f 08       		.uleb128 0x8
 2202 0060 3A       		.uleb128 0x3a
 2203 0061 0B       		.uleb128 0xb
 2204 0062 3B       		.uleb128 0x3b
 2205 0063 0B       		.uleb128 0xb
 2206 0064 49       		.uleb128 0x49
 2207 0065 13       		.uleb128 0x13
 2208 0066 38       		.uleb128 0x38
 2209 0067 0B       		.uleb128 0xb
 2210 0068 00       		.byte	0
 2211 0069 00       		.byte	0
 2212 006a 09       		.uleb128 0x9
 2213 006b 0D       		.uleb128 0xd
 2214 006c 00       		.byte	0
 2215 006d 03       		.uleb128 0x3
 2216 006e 08       		.uleb128 0x8
 2217 006f 3A       		.uleb128 0x3a
 2218 0070 0B       		.uleb128 0xb
 2219 0071 3B       		.uleb128 0x3b
 2220 0072 05       		.uleb128 0x5
 2221 0073 49       		.uleb128 0x49
 2222 0074 13       		.uleb128 0x13
 2223 0075 38       		.uleb128 0x38
ARM GAS  C:\cygwin64\tmp\ccrJ3EpT.s 			page 40


 2224 0076 0B       		.uleb128 0xb
 2225 0077 00       		.byte	0
 2226 0078 00       		.byte	0
 2227 0079 0A       		.uleb128 0xa
 2228 007a 0D       		.uleb128 0xd
 2229 007b 00       		.byte	0
 2230 007c 03       		.uleb128 0x3
 2231 007d 0E       		.uleb128 0xe
 2232 007e 3A       		.uleb128 0x3a
 2233 007f 0B       		.uleb128 0xb
 2234 0080 3B       		.uleb128 0x3b
 2235 0081 05       		.uleb128 0x5
 2236 0082 49       		.uleb128 0x49
 2237 0083 13       		.uleb128 0x13
 2238 0084 38       		.uleb128 0x38
 2239 0085 0B       		.uleb128 0xb
 2240 0086 00       		.byte	0
 2241 0087 00       		.byte	0
 2242 0088 0B       		.uleb128 0xb
 2243 0089 0F       		.uleb128 0xf
 2244 008a 00       		.byte	0
 2245 008b 0B       		.uleb128 0xb
 2246 008c 0B       		.uleb128 0xb
 2247 008d 49       		.uleb128 0x49
 2248 008e 13       		.uleb128 0x13
 2249 008f 00       		.byte	0
 2250 0090 00       		.byte	0
 2251 0091 0C       		.uleb128 0xc
 2252 0092 13       		.uleb128 0x13
 2253 0093 01       		.byte	0x1
 2254 0094 03       		.uleb128 0x3
 2255 0095 0E       		.uleb128 0xe
 2256 0096 0B       		.uleb128 0xb
 2257 0097 0B       		.uleb128 0xb
 2258 0098 3A       		.uleb128 0x3a
 2259 0099 0B       		.uleb128 0xb
 2260 009a 3B       		.uleb128 0x3b
 2261 009b 05       		.uleb128 0x5
 2262 009c 01       		.uleb128 0x1
 2263 009d 13       		.uleb128 0x13
 2264 009e 00       		.byte	0
 2265 009f 00       		.byte	0
 2266 00a0 0D       		.uleb128 0xd
 2267 00a1 15       		.uleb128 0x15
 2268 00a2 01       		.byte	0x1
 2269 00a3 27       		.uleb128 0x27
 2270 00a4 19       		.uleb128 0x19
 2271 00a5 01       		.uleb128 0x1
 2272 00a6 13       		.uleb128 0x13
 2273 00a7 00       		.byte	0
 2274 00a8 00       		.byte	0
 2275 00a9 0E       		.uleb128 0xe
 2276 00aa 05       		.uleb128 0x5
 2277 00ab 00       		.byte	0
 2278 00ac 49       		.uleb128 0x49
 2279 00ad 13       		.uleb128 0x13
 2280 00ae 00       		.byte	0
ARM GAS  C:\cygwin64\tmp\ccrJ3EpT.s 			page 41


 2281 00af 00       		.byte	0
 2282 00b0 0F       		.uleb128 0xf
 2283 00b1 0F       		.uleb128 0xf
 2284 00b2 00       		.byte	0
 2285 00b3 0B       		.uleb128 0xb
 2286 00b4 0B       		.uleb128 0xb
 2287 00b5 00       		.byte	0
 2288 00b6 00       		.byte	0
 2289 00b7 10       		.uleb128 0x10
 2290 00b8 34       		.uleb128 0x34
 2291 00b9 00       		.byte	0
 2292 00ba 03       		.uleb128 0x3
 2293 00bb 0E       		.uleb128 0xe
 2294 00bc 3A       		.uleb128 0x3a
 2295 00bd 0B       		.uleb128 0xb
 2296 00be 3B       		.uleb128 0x3b
 2297 00bf 05       		.uleb128 0x5
 2298 00c0 49       		.uleb128 0x49
 2299 00c1 13       		.uleb128 0x13
 2300 00c2 3F       		.uleb128 0x3f
 2301 00c3 19       		.uleb128 0x19
 2302 00c4 3C       		.uleb128 0x3c
 2303 00c5 19       		.uleb128 0x19
 2304 00c6 00       		.byte	0
 2305 00c7 00       		.byte	0
 2306 00c8 11       		.uleb128 0x11
 2307 00c9 34       		.uleb128 0x34
 2308 00ca 00       		.byte	0
 2309 00cb 03       		.uleb128 0x3
 2310 00cc 0E       		.uleb128 0xe
 2311 00cd 3A       		.uleb128 0x3a
 2312 00ce 0B       		.uleb128 0xb
 2313 00cf 3B       		.uleb128 0x3b
 2314 00d0 0B       		.uleb128 0xb
 2315 00d1 49       		.uleb128 0x49
 2316 00d2 13       		.uleb128 0x13
 2317 00d3 3F       		.uleb128 0x3f
 2318 00d4 19       		.uleb128 0x19
 2319 00d5 3C       		.uleb128 0x3c
 2320 00d6 19       		.uleb128 0x19
 2321 00d7 00       		.byte	0
 2322 00d8 00       		.byte	0
 2323 00d9 12       		.uleb128 0x12
 2324 00da 13       		.uleb128 0x13
 2325 00db 01       		.byte	0x1
 2326 00dc 0B       		.uleb128 0xb
 2327 00dd 0B       		.uleb128 0xb
 2328 00de 3A       		.uleb128 0x3a
 2329 00df 0B       		.uleb128 0xb
 2330 00e0 3B       		.uleb128 0x3b
 2331 00e1 0B       		.uleb128 0xb
 2332 00e2 01       		.uleb128 0x1
 2333 00e3 13       		.uleb128 0x13
 2334 00e4 00       		.byte	0
 2335 00e5 00       		.byte	0
 2336 00e6 13       		.uleb128 0x13
 2337 00e7 17       		.uleb128 0x17
ARM GAS  C:\cygwin64\tmp\ccrJ3EpT.s 			page 42


 2338 00e8 01       		.byte	0x1
 2339 00e9 0B       		.uleb128 0xb
 2340 00ea 0B       		.uleb128 0xb
 2341 00eb 3A       		.uleb128 0x3a
 2342 00ec 0B       		.uleb128 0xb
 2343 00ed 3B       		.uleb128 0x3b
 2344 00ee 0B       		.uleb128 0xb
 2345 00ef 01       		.uleb128 0x1
 2346 00f0 13       		.uleb128 0x13
 2347 00f1 00       		.byte	0
 2348 00f2 00       		.byte	0
 2349 00f3 14       		.uleb128 0x14
 2350 00f4 0D       		.uleb128 0xd
 2351 00f5 00       		.byte	0
 2352 00f6 03       		.uleb128 0x3
 2353 00f7 0E       		.uleb128 0xe
 2354 00f8 3A       		.uleb128 0x3a
 2355 00f9 0B       		.uleb128 0xb
 2356 00fa 3B       		.uleb128 0x3b
 2357 00fb 0B       		.uleb128 0xb
 2358 00fc 49       		.uleb128 0x49
 2359 00fd 13       		.uleb128 0x13
 2360 00fe 00       		.byte	0
 2361 00ff 00       		.byte	0
 2362 0100 15       		.uleb128 0x15
 2363 0101 0D       		.uleb128 0xd
 2364 0102 00       		.byte	0
 2365 0103 03       		.uleb128 0x3
 2366 0104 0E       		.uleb128 0xe
 2367 0105 3A       		.uleb128 0x3a
 2368 0106 0B       		.uleb128 0xb
 2369 0107 3B       		.uleb128 0x3b
 2370 0108 05       		.uleb128 0x5
 2371 0109 49       		.uleb128 0x49
 2372 010a 13       		.uleb128 0x13
 2373 010b 00       		.byte	0
 2374 010c 00       		.byte	0
 2375 010d 16       		.uleb128 0x16
 2376 010e 26       		.uleb128 0x26
 2377 010f 00       		.byte	0
 2378 0110 49       		.uleb128 0x49
 2379 0111 13       		.uleb128 0x13
 2380 0112 00       		.byte	0
 2381 0113 00       		.byte	0
 2382 0114 17       		.uleb128 0x17
 2383 0115 34       		.uleb128 0x34
 2384 0116 00       		.byte	0
 2385 0117 03       		.uleb128 0x3
 2386 0118 08       		.uleb128 0x8
 2387 0119 3A       		.uleb128 0x3a
 2388 011a 0B       		.uleb128 0xb
 2389 011b 3B       		.uleb128 0x3b
 2390 011c 05       		.uleb128 0x5
 2391 011d 49       		.uleb128 0x49
 2392 011e 13       		.uleb128 0x13
 2393 011f 3F       		.uleb128 0x3f
 2394 0120 19       		.uleb128 0x19
ARM GAS  C:\cygwin64\tmp\ccrJ3EpT.s 			page 43


 2395 0121 3C       		.uleb128 0x3c
 2396 0122 19       		.uleb128 0x19
 2397 0123 00       		.byte	0
 2398 0124 00       		.byte	0
 2399 0125 18       		.uleb128 0x18
 2400 0126 01       		.uleb128 0x1
 2401 0127 01       		.byte	0x1
 2402 0128 49       		.uleb128 0x49
 2403 0129 13       		.uleb128 0x13
 2404 012a 01       		.uleb128 0x1
 2405 012b 13       		.uleb128 0x13
 2406 012c 00       		.byte	0
 2407 012d 00       		.byte	0
 2408 012e 19       		.uleb128 0x19
 2409 012f 21       		.uleb128 0x21
 2410 0130 00       		.byte	0
 2411 0131 00       		.byte	0
 2412 0132 00       		.byte	0
 2413 0133 1A       		.uleb128 0x1a
 2414 0134 21       		.uleb128 0x21
 2415 0135 00       		.byte	0
 2416 0136 49       		.uleb128 0x49
 2417 0137 13       		.uleb128 0x13
 2418 0138 2F       		.uleb128 0x2f
 2419 0139 0B       		.uleb128 0xb
 2420 013a 00       		.byte	0
 2421 013b 00       		.byte	0
 2422 013c 1B       		.uleb128 0x1b
 2423 013d 15       		.uleb128 0x15
 2424 013e 01       		.byte	0x1
 2425 013f 27       		.uleb128 0x27
 2426 0140 19       		.uleb128 0x19
 2427 0141 49       		.uleb128 0x49
 2428 0142 13       		.uleb128 0x13
 2429 0143 01       		.uleb128 0x1
 2430 0144 13       		.uleb128 0x13
 2431 0145 00       		.byte	0
 2432 0146 00       		.byte	0
 2433 0147 1C       		.uleb128 0x1c
 2434 0148 17       		.uleb128 0x17
 2435 0149 01       		.byte	0x1
 2436 014a 03       		.uleb128 0x3
 2437 014b 0E       		.uleb128 0xe
 2438 014c 0B       		.uleb128 0xb
 2439 014d 0B       		.uleb128 0xb
 2440 014e 3A       		.uleb128 0x3a
 2441 014f 0B       		.uleb128 0xb
 2442 0150 3B       		.uleb128 0x3b
 2443 0151 0B       		.uleb128 0xb
 2444 0152 01       		.uleb128 0x1
 2445 0153 13       		.uleb128 0x13
 2446 0154 00       		.byte	0
 2447 0155 00       		.byte	0
 2448 0156 1D       		.uleb128 0x1d
 2449 0157 2E       		.uleb128 0x2e
 2450 0158 01       		.byte	0x1
 2451 0159 3F       		.uleb128 0x3f
ARM GAS  C:\cygwin64\tmp\ccrJ3EpT.s 			page 44


 2452 015a 19       		.uleb128 0x19
 2453 015b 03       		.uleb128 0x3
 2454 015c 0E       		.uleb128 0xe
 2455 015d 3A       		.uleb128 0x3a
 2456 015e 0B       		.uleb128 0xb
 2457 015f 3B       		.uleb128 0x3b
 2458 0160 0B       		.uleb128 0xb
 2459 0161 27       		.uleb128 0x27
 2460 0162 19       		.uleb128 0x19
 2461 0163 49       		.uleb128 0x49
 2462 0164 13       		.uleb128 0x13
 2463 0165 11       		.uleb128 0x11
 2464 0166 01       		.uleb128 0x1
 2465 0167 12       		.uleb128 0x12
 2466 0168 06       		.uleb128 0x6
 2467 0169 40       		.uleb128 0x40
 2468 016a 18       		.uleb128 0x18
 2469 016b 9742     		.uleb128 0x2117
 2470 016d 19       		.uleb128 0x19
 2471 016e 01       		.uleb128 0x1
 2472 016f 13       		.uleb128 0x13
 2473 0170 00       		.byte	0
 2474 0171 00       		.byte	0
 2475 0172 1E       		.uleb128 0x1e
 2476 0173 05       		.uleb128 0x5
 2477 0174 00       		.byte	0
 2478 0175 03       		.uleb128 0x3
 2479 0176 08       		.uleb128 0x8
 2480 0177 3A       		.uleb128 0x3a
 2481 0178 0B       		.uleb128 0xb
 2482 0179 3B       		.uleb128 0x3b
 2483 017a 0B       		.uleb128 0xb
 2484 017b 49       		.uleb128 0x49
 2485 017c 13       		.uleb128 0x13
 2486 017d 02       		.uleb128 0x2
 2487 017e 17       		.uleb128 0x17
 2488 017f 00       		.byte	0
 2489 0180 00       		.byte	0
 2490 0181 1F       		.uleb128 0x1f
 2491 0182 05       		.uleb128 0x5
 2492 0183 00       		.byte	0
 2493 0184 03       		.uleb128 0x3
 2494 0185 0E       		.uleb128 0xe
 2495 0186 3A       		.uleb128 0x3a
 2496 0187 0B       		.uleb128 0xb
 2497 0188 3B       		.uleb128 0x3b
 2498 0189 0B       		.uleb128 0xb
 2499 018a 49       		.uleb128 0x49
 2500 018b 13       		.uleb128 0x13
 2501 018c 02       		.uleb128 0x2
 2502 018d 17       		.uleb128 0x17
 2503 018e 00       		.byte	0
 2504 018f 00       		.byte	0
 2505 0190 20       		.uleb128 0x20
 2506 0191 05       		.uleb128 0x5
 2507 0192 00       		.byte	0
 2508 0193 03       		.uleb128 0x3
ARM GAS  C:\cygwin64\tmp\ccrJ3EpT.s 			page 45


 2509 0194 08       		.uleb128 0x8
 2510 0195 3A       		.uleb128 0x3a
 2511 0196 0B       		.uleb128 0xb
 2512 0197 3B       		.uleb128 0x3b
 2513 0198 0B       		.uleb128 0xb
 2514 0199 49       		.uleb128 0x49
 2515 019a 13       		.uleb128 0x13
 2516 019b 02       		.uleb128 0x2
 2517 019c 18       		.uleb128 0x18
 2518 019d 00       		.byte	0
 2519 019e 00       		.byte	0
 2520 019f 21       		.uleb128 0x21
 2521 01a0 34       		.uleb128 0x34
 2522 01a1 00       		.byte	0
 2523 01a2 03       		.uleb128 0x3
 2524 01a3 08       		.uleb128 0x8
 2525 01a4 3A       		.uleb128 0x3a
 2526 01a5 0B       		.uleb128 0xb
 2527 01a6 3B       		.uleb128 0x3b
 2528 01a7 0B       		.uleb128 0xb
 2529 01a8 49       		.uleb128 0x49
 2530 01a9 13       		.uleb128 0x13
 2531 01aa 02       		.uleb128 0x2
 2532 01ab 17       		.uleb128 0x17
 2533 01ac 00       		.byte	0
 2534 01ad 00       		.byte	0
 2535 01ae 22       		.uleb128 0x22
 2536 01af 34       		.uleb128 0x34
 2537 01b0 00       		.byte	0
 2538 01b1 03       		.uleb128 0x3
 2539 01b2 0E       		.uleb128 0xe
 2540 01b3 49       		.uleb128 0x49
 2541 01b4 13       		.uleb128 0x13
 2542 01b5 34       		.uleb128 0x34
 2543 01b6 19       		.uleb128 0x19
 2544 01b7 00       		.byte	0
 2545 01b8 00       		.byte	0
 2546 01b9 23       		.uleb128 0x23
 2547 01ba 34       		.uleb128 0x34
 2548 01bb 00       		.byte	0
 2549 01bc 03       		.uleb128 0x3
 2550 01bd 08       		.uleb128 0x8
 2551 01be 3A       		.uleb128 0x3a
 2552 01bf 0B       		.uleb128 0xb
 2553 01c0 3B       		.uleb128 0x3b
 2554 01c1 0B       		.uleb128 0xb
 2555 01c2 49       		.uleb128 0x49
 2556 01c3 13       		.uleb128 0x13
 2557 01c4 02       		.uleb128 0x2
 2558 01c5 18       		.uleb128 0x18
 2559 01c6 00       		.byte	0
 2560 01c7 00       		.byte	0
 2561 01c8 24       		.uleb128 0x24
 2562 01c9 1D       		.uleb128 0x1d
 2563 01ca 01       		.byte	0x1
 2564 01cb 31       		.uleb128 0x31
 2565 01cc 13       		.uleb128 0x13
ARM GAS  C:\cygwin64\tmp\ccrJ3EpT.s 			page 46


 2566 01cd 11       		.uleb128 0x11
 2567 01ce 01       		.uleb128 0x1
 2568 01cf 12       		.uleb128 0x12
 2569 01d0 06       		.uleb128 0x6
 2570 01d1 58       		.uleb128 0x58
 2571 01d2 0B       		.uleb128 0xb
 2572 01d3 59       		.uleb128 0x59
 2573 01d4 0B       		.uleb128 0xb
 2574 01d5 01       		.uleb128 0x1
 2575 01d6 13       		.uleb128 0x13
 2576 01d7 00       		.byte	0
 2577 01d8 00       		.byte	0
 2578 01d9 25       		.uleb128 0x25
 2579 01da 1D       		.uleb128 0x1d
 2580 01db 01       		.byte	0x1
 2581 01dc 31       		.uleb128 0x31
 2582 01dd 13       		.uleb128 0x13
 2583 01de 11       		.uleb128 0x11
 2584 01df 01       		.uleb128 0x1
 2585 01e0 12       		.uleb128 0x12
 2586 01e1 06       		.uleb128 0x6
 2587 01e2 58       		.uleb128 0x58
 2588 01e3 0B       		.uleb128 0xb
 2589 01e4 59       		.uleb128 0x59
 2590 01e5 05       		.uleb128 0x5
 2591 01e6 01       		.uleb128 0x1
 2592 01e7 13       		.uleb128 0x13
 2593 01e8 00       		.byte	0
 2594 01e9 00       		.byte	0
 2595 01ea 26       		.uleb128 0x26
 2596 01eb 1D       		.uleb128 0x1d
 2597 01ec 01       		.byte	0x1
 2598 01ed 31       		.uleb128 0x31
 2599 01ee 13       		.uleb128 0x13
 2600 01ef 11       		.uleb128 0x11
 2601 01f0 01       		.uleb128 0x1
 2602 01f1 12       		.uleb128 0x12
 2603 01f2 06       		.uleb128 0x6
 2604 01f3 58       		.uleb128 0x58
 2605 01f4 0B       		.uleb128 0xb
 2606 01f5 59       		.uleb128 0x59
 2607 01f6 05       		.uleb128 0x5
 2608 01f7 00       		.byte	0
 2609 01f8 00       		.byte	0
 2610 01f9 27       		.uleb128 0x27
 2611 01fa 05       		.uleb128 0x5
 2612 01fb 00       		.byte	0
 2613 01fc 31       		.uleb128 0x31
 2614 01fd 13       		.uleb128 0x13
 2615 01fe 02       		.uleb128 0x2
 2616 01ff 17       		.uleb128 0x17
 2617 0200 00       		.byte	0
 2618 0201 00       		.byte	0
 2619 0202 28       		.uleb128 0x28
 2620 0203 898201   		.uleb128 0x4109
 2621 0206 00       		.byte	0
 2622 0207 11       		.uleb128 0x11
ARM GAS  C:\cygwin64\tmp\ccrJ3EpT.s 			page 47


 2623 0208 01       		.uleb128 0x1
 2624 0209 31       		.uleb128 0x31
 2625 020a 13       		.uleb128 0x13
 2626 020b 00       		.byte	0
 2627 020c 00       		.byte	0
 2628 020d 29       		.uleb128 0x29
 2629 020e 0B       		.uleb128 0xb
 2630 020f 01       		.byte	0x1
 2631 0210 11       		.uleb128 0x11
 2632 0211 01       		.uleb128 0x1
 2633 0212 12       		.uleb128 0x12
 2634 0213 06       		.uleb128 0x6
 2635 0214 00       		.byte	0
 2636 0215 00       		.byte	0
 2637 0216 2A       		.uleb128 0x2a
 2638 0217 34       		.uleb128 0x34
 2639 0218 00       		.byte	0
 2640 0219 31       		.uleb128 0x31
 2641 021a 13       		.uleb128 0x13
 2642 021b 00       		.byte	0
 2643 021c 00       		.byte	0
 2644 021d 2B       		.uleb128 0x2b
 2645 021e 898201   		.uleb128 0x4109
 2646 0221 01       		.byte	0x1
 2647 0222 11       		.uleb128 0x11
 2648 0223 01       		.uleb128 0x1
 2649 0224 31       		.uleb128 0x31
 2650 0225 13       		.uleb128 0x13
 2651 0226 01       		.uleb128 0x1
 2652 0227 13       		.uleb128 0x13
 2653 0228 00       		.byte	0
 2654 0229 00       		.byte	0
 2655 022a 2C       		.uleb128 0x2c
 2656 022b 8A8201   		.uleb128 0x410a
 2657 022e 00       		.byte	0
 2658 022f 02       		.uleb128 0x2
 2659 0230 18       		.uleb128 0x18
 2660 0231 9142     		.uleb128 0x2111
 2661 0233 18       		.uleb128 0x18
 2662 0234 00       		.byte	0
 2663 0235 00       		.byte	0
 2664 0236 2D       		.uleb128 0x2d
 2665 0237 898201   		.uleb128 0x4109
 2666 023a 01       		.byte	0x1
 2667 023b 11       		.uleb128 0x11
 2668 023c 01       		.uleb128 0x1
 2669 023d 31       		.uleb128 0x31
 2670 023e 13       		.uleb128 0x13
 2671 023f 00       		.byte	0
 2672 0240 00       		.byte	0
 2673 0241 2E       		.uleb128 0x2e
 2674 0242 2E       		.uleb128 0x2e
 2675 0243 01       		.byte	0x1
 2676 0244 03       		.uleb128 0x3
 2677 0245 0E       		.uleb128 0xe
 2678 0246 3A       		.uleb128 0x3a
 2679 0247 0B       		.uleb128 0xb
ARM GAS  C:\cygwin64\tmp\ccrJ3EpT.s 			page 48


 2680 0248 3B       		.uleb128 0x3b
 2681 0249 05       		.uleb128 0x5
 2682 024a 27       		.uleb128 0x27
 2683 024b 19       		.uleb128 0x19
 2684 024c 20       		.uleb128 0x20
 2685 024d 0B       		.uleb128 0xb
 2686 024e 01       		.uleb128 0x1
 2687 024f 13       		.uleb128 0x13
 2688 0250 00       		.byte	0
 2689 0251 00       		.byte	0
 2690 0252 2F       		.uleb128 0x2f
 2691 0253 34       		.uleb128 0x34
 2692 0254 00       		.byte	0
 2693 0255 03       		.uleb128 0x3
 2694 0256 0E       		.uleb128 0xe
 2695 0257 49       		.uleb128 0x49
 2696 0258 13       		.uleb128 0x13
 2697 0259 34       		.uleb128 0x34
 2698 025a 19       		.uleb128 0x19
 2699 025b 1C       		.uleb128 0x1c
 2700 025c 0E       		.uleb128 0xe
 2701 025d 00       		.byte	0
 2702 025e 00       		.byte	0
 2703 025f 30       		.uleb128 0x30
 2704 0260 2E       		.uleb128 0x2e
 2705 0261 00       		.byte	0
 2706 0262 03       		.uleb128 0x3
 2707 0263 0E       		.uleb128 0xe
 2708 0264 3A       		.uleb128 0x3a
 2709 0265 0B       		.uleb128 0xb
 2710 0266 3B       		.uleb128 0x3b
 2711 0267 05       		.uleb128 0x5
 2712 0268 27       		.uleb128 0x27
 2713 0269 19       		.uleb128 0x19
 2714 026a 20       		.uleb128 0x20
 2715 026b 0B       		.uleb128 0xb
 2716 026c 00       		.byte	0
 2717 026d 00       		.byte	0
 2718 026e 31       		.uleb128 0x31
 2719 026f 05       		.uleb128 0x5
 2720 0270 00       		.byte	0
 2721 0271 03       		.uleb128 0x3
 2722 0272 0E       		.uleb128 0xe
 2723 0273 3A       		.uleb128 0x3a
 2724 0274 0B       		.uleb128 0xb
 2725 0275 3B       		.uleb128 0x3b
 2726 0276 05       		.uleb128 0x5
 2727 0277 49       		.uleb128 0x49
 2728 0278 13       		.uleb128 0x13
 2729 0279 00       		.byte	0
 2730 027a 00       		.byte	0
 2731 027b 32       		.uleb128 0x32
 2732 027c 2E       		.uleb128 0x2e
 2733 027d 00       		.byte	0
 2734 027e 3F       		.uleb128 0x3f
 2735 027f 19       		.uleb128 0x19
 2736 0280 3C       		.uleb128 0x3c
ARM GAS  C:\cygwin64\tmp\ccrJ3EpT.s 			page 49


 2737 0281 19       		.uleb128 0x19
 2738 0282 6E       		.uleb128 0x6e
 2739 0283 0E       		.uleb128 0xe
 2740 0284 03       		.uleb128 0x3
 2741 0285 0E       		.uleb128 0xe
 2742 0286 3A       		.uleb128 0x3a
 2743 0287 0B       		.uleb128 0xb
 2744 0288 3B       		.uleb128 0x3b
 2745 0289 0B       		.uleb128 0xb
 2746 028a 00       		.byte	0
 2747 028b 00       		.byte	0
 2748 028c 33       		.uleb128 0x33
 2749 028d 2E       		.uleb128 0x2e
 2750 028e 00       		.byte	0
 2751 028f 3F       		.uleb128 0x3f
 2752 0290 19       		.uleb128 0x19
 2753 0291 3C       		.uleb128 0x3c
 2754 0292 19       		.uleb128 0x19
 2755 0293 6E       		.uleb128 0x6e
 2756 0294 0E       		.uleb128 0xe
 2757 0295 03       		.uleb128 0x3
 2758 0296 0E       		.uleb128 0xe
 2759 0297 3A       		.uleb128 0x3a
 2760 0298 0B       		.uleb128 0xb
 2761 0299 3B       		.uleb128 0x3b
 2762 029a 05       		.uleb128 0x5
 2763 029b 00       		.byte	0
 2764 029c 00       		.byte	0
 2765 029d 00       		.byte	0
 2766              		.section	.debug_loc,"",%progbits
 2767              	.Ldebug_loc0:
 2768              	.LLST8:
 2769 0000 00000000 		.4byte	.LVL11
 2770 0004 11000000 		.4byte	.LVL12-1
 2771 0008 0100     		.2byte	0x1
 2772 000a 50       		.byte	0x50
 2773 000b 11000000 		.4byte	.LVL12-1
 2774 000f 62000000 		.4byte	.LFE247
 2775 0013 0100     		.2byte	0x1
 2776 0015 55       		.byte	0x55
 2777 0016 00000000 		.4byte	0
 2778 001a 00000000 		.4byte	0
 2779              	.LLST9:
 2780 001e 00000000 		.4byte	.LVL11
 2781 0022 11000000 		.4byte	.LVL12-1
 2782 0026 0100     		.2byte	0x1
 2783 0028 51       		.byte	0x51
 2784 0029 11000000 		.4byte	.LVL12-1
 2785 002d 62000000 		.4byte	.LFE247
 2786 0031 0100     		.2byte	0x1
 2787 0033 58       		.byte	0x58
 2788 0034 00000000 		.4byte	0
 2789 0038 00000000 		.4byte	0
 2790              	.LLST10:
 2791 003c 00000000 		.4byte	.LVL11
 2792 0040 11000000 		.4byte	.LVL12-1
 2793 0044 0100     		.2byte	0x1
ARM GAS  C:\cygwin64\tmp\ccrJ3EpT.s 			page 50


 2794 0046 52       		.byte	0x52
 2795 0047 11000000 		.4byte	.LVL12-1
 2796 004b 62000000 		.4byte	.LFE247
 2797 004f 0100     		.2byte	0x1
 2798 0051 57       		.byte	0x57
 2799 0052 00000000 		.4byte	0
 2800 0056 00000000 		.4byte	0
 2801              	.LLST11:
 2802 005a 00000000 		.4byte	.LVL11
 2803 005e 11000000 		.4byte	.LVL12-1
 2804 0062 0100     		.2byte	0x1
 2805 0064 53       		.byte	0x53
 2806 0065 11000000 		.4byte	.LVL12-1
 2807 0069 62000000 		.4byte	.LFE247
 2808 006d 0100     		.2byte	0x1
 2809 006f 56       		.byte	0x56
 2810 0070 00000000 		.4byte	0
 2811 0074 00000000 		.4byte	0
 2812              	.LLST12:
 2813 0078 4C000000 		.4byte	.LVL17
 2814 007c 4F000000 		.4byte	.LVL18-1
 2815 0080 0100     		.2byte	0x1
 2816 0082 50       		.byte	0x50
 2817 0083 4F000000 		.4byte	.LVL18-1
 2818 0087 5A000000 		.4byte	.LVL20
 2819 008b 0100     		.2byte	0x1
 2820 008d 54       		.byte	0x54
 2821 008e 00000000 		.4byte	0
 2822 0092 00000000 		.4byte	0
 2823              	.LLST13:
 2824 0096 12000000 		.4byte	.LVL12
 2825 009a 2F000000 		.4byte	.LVL13-1
 2826 009e 0100     		.2byte	0x1
 2827 00a0 50       		.byte	0x50
 2828 00a1 2F000000 		.4byte	.LVL13-1
 2829 00a5 4C000000 		.4byte	.LVL17
 2830 00a9 0100     		.2byte	0x1
 2831 00ab 54       		.byte	0x54
 2832 00ac 00000000 		.4byte	0
 2833 00b0 00000000 		.4byte	0
 2834              	.LLST14:
 2835 00b4 30000000 		.4byte	.LVL13
 2836 00b8 36000000 		.4byte	.LVL14
 2837 00bc 0300     		.2byte	0x3
 2838 00be 08       		.byte	0x8
 2839 00bf 20       		.byte	0x20
 2840 00c0 9F       		.byte	0x9f
 2841 00c1 00000000 		.4byte	0
 2842 00c5 00000000 		.4byte	0
 2843              	.LLST15:
 2844 00c9 54000000 		.4byte	.LVL19
 2845 00cd 5A000000 		.4byte	.LVL20
 2846 00d1 0200     		.2byte	0x2
 2847 00d3 30       		.byte	0x30
 2848 00d4 9F       		.byte	0x9f
 2849 00d5 00000000 		.4byte	0
 2850 00d9 00000000 		.4byte	0
ARM GAS  C:\cygwin64\tmp\ccrJ3EpT.s 			page 51


 2851              	.LLST0:
 2852 00dd 00000000 		.4byte	.LVL0
 2853 00e1 0F000000 		.4byte	.LVL2-1
 2854 00e5 0100     		.2byte	0x1
 2855 00e7 50       		.byte	0x50
 2856 00e8 0F000000 		.4byte	.LVL2-1
 2857 00ec 5A000000 		.4byte	.LFE246
 2858 00f0 0400     		.2byte	0x4
 2859 00f2 F3       		.byte	0xf3
 2860 00f3 01       		.uleb128 0x1
 2861 00f4 50       		.byte	0x50
 2862 00f5 9F       		.byte	0x9f
 2863 00f6 00000000 		.4byte	0
 2864 00fa 00000000 		.4byte	0
 2865              	.LLST1:
 2866 00fe 00000000 		.4byte	.LVL0
 2867 0102 0F000000 		.4byte	.LVL2-1
 2868 0106 0100     		.2byte	0x1
 2869 0108 51       		.byte	0x51
 2870 0109 0F000000 		.4byte	.LVL2-1
 2871 010d 5A000000 		.4byte	.LFE246
 2872 0111 0100     		.2byte	0x1
 2873 0113 56       		.byte	0x56
 2874 0114 00000000 		.4byte	0
 2875 0118 00000000 		.4byte	0
 2876              	.LLST2:
 2877 011c 00000000 		.4byte	.LVL0
 2878 0120 08000000 		.4byte	.LVL1
 2879 0124 0100     		.2byte	0x1
 2880 0126 52       		.byte	0x52
 2881 0127 08000000 		.4byte	.LVL1
 2882 012b 5A000000 		.4byte	.LFE246
 2883 012f 0100     		.2byte	0x1
 2884 0131 57       		.byte	0x57
 2885 0132 00000000 		.4byte	0
 2886 0136 00000000 		.4byte	0
 2887              	.LLST3:
 2888 013a 00000000 		.4byte	.LVL0
 2889 013e 0F000000 		.4byte	.LVL2-1
 2890 0142 0100     		.2byte	0x1
 2891 0144 53       		.byte	0x53
 2892 0145 0F000000 		.4byte	.LVL2-1
 2893 0149 5A000000 		.4byte	.LFE246
 2894 014d 0100     		.2byte	0x1
 2895 014f 55       		.byte	0x55
 2896 0150 00000000 		.4byte	0
 2897 0154 00000000 		.4byte	0
 2898              	.LLST4:
 2899 0158 46000000 		.4byte	.LVL7
 2900 015c 49000000 		.4byte	.LVL8-1
 2901 0160 0100     		.2byte	0x1
 2902 0162 50       		.byte	0x50
 2903 0163 49000000 		.4byte	.LVL8-1
 2904 0167 54000000 		.4byte	.LVL10
 2905 016b 0100     		.2byte	0x1
 2906 016d 54       		.byte	0x54
 2907 016e 00000000 		.4byte	0
ARM GAS  C:\cygwin64\tmp\ccrJ3EpT.s 			page 52


 2908 0172 00000000 		.4byte	0
 2909              	.LLST5:
 2910 0176 10000000 		.4byte	.LVL2
 2911 017a 2B000000 		.4byte	.LVL3-1
 2912 017e 0100     		.2byte	0x1
 2913 0180 50       		.byte	0x50
 2914 0181 2B000000 		.4byte	.LVL3-1
 2915 0185 46000000 		.4byte	.LVL7
 2916 0189 0100     		.2byte	0x1
 2917 018b 54       		.byte	0x54
 2918 018c 00000000 		.4byte	0
 2919 0190 00000000 		.4byte	0
 2920              	.LLST6:
 2921 0194 2C000000 		.4byte	.LVL3
 2922 0198 32000000 		.4byte	.LVL4
 2923 019c 0300     		.2byte	0x3
 2924 019e 08       		.byte	0x8
 2925 019f 20       		.byte	0x20
 2926 01a0 9F       		.byte	0x9f
 2927 01a1 00000000 		.4byte	0
 2928 01a5 00000000 		.4byte	0
 2929              	.LLST7:
 2930 01a9 4E000000 		.4byte	.LVL9
 2931 01ad 54000000 		.4byte	.LVL10
 2932 01b1 0200     		.2byte	0x2
 2933 01b3 30       		.byte	0x30
 2934 01b4 9F       		.byte	0x9f
 2935 01b5 00000000 		.4byte	0
 2936 01b9 00000000 		.4byte	0
 2937              		.section	.debug_aranges,"",%progbits
 2938 0000 24000000 		.4byte	0x24
 2939 0004 0200     		.2byte	0x2
 2940 0006 00000000 		.4byte	.Ldebug_info0
 2941 000a 04       		.byte	0x4
 2942 000b 00       		.byte	0
 2943 000c 0000     		.2byte	0
 2944 000e 0000     		.2byte	0
 2945 0010 00000000 		.4byte	.LFB246
 2946 0014 5A000000 		.4byte	.LFE246-.LFB246
 2947 0018 00000000 		.4byte	.LFB247
 2948 001c 62000000 		.4byte	.LFE247-.LFB247
 2949 0020 00000000 		.4byte	0
 2950 0024 00000000 		.4byte	0
 2951              		.section	.debug_ranges,"",%progbits
 2952              	.Ldebug_ranges0:
 2953 0000 00000000 		.4byte	.LFB246
 2954 0004 5A000000 		.4byte	.LFE246
 2955 0008 00000000 		.4byte	.LFB247
 2956 000c 62000000 		.4byte	.LFE247
 2957 0010 00000000 		.4byte	0
 2958 0014 00000000 		.4byte	0
 2959              		.section	.debug_line,"",%progbits
 2960              	.Ldebug_line0:
 2961 0000 39040000 		.section	.debug_str,"MS",%progbits,1
 2961      0200A503 
 2961      00000201 
 2961      FB0E0D00 
ARM GAS  C:\cygwin64\tmp\ccrJ3EpT.s 			page 53


 2961      01010101 
 2962              	.LASF109:
 2963 0000 7466756E 		.ascii	"tfunc_t\000"
 2963      635F7400 
 2964              	.LASF167:
 2965 0008 433A5C63 		.ascii	"C:\\cygwin64\\home\\calfan\\ardupilot\\build\\fmuv3"
 2965      79677769 
 2965      6E36345C 
 2965      686F6D65 
 2965      5C63616C 
 2966 0035 00       		.ascii	"\000"
 2967              	.LASF57:
 2968 0036 72656164 		.ascii	"ready_list_t\000"
 2968      795F6C69 
 2968      73745F74 
 2968      00
 2969              	.LASF4:
 2970 0043 73697A65 		.ascii	"size_t\000"
 2970      5F7400
 2971              	.LASF53:
 2972 004a 6E657874 		.ascii	"next\000"
 2972      00
 2973              	.LASF63:
 2974 004f 64656C74 		.ascii	"delta\000"
 2974      6100
 2975              	.LASF96:
 2976 0055 7264796D 		.ascii	"rdymsg\000"
 2976      736700
 2977              	.LASF112:
 2978 005c 66756E63 		.ascii	"funcp\000"
 2978      7000
 2979              	.LASF20:
 2980 0062 75696E74 		.ascii	"uint64_t\000"
 2980      36345F74 
 2980      00
 2981              	.LASF76:
 2982 006b 6B65726E 		.ascii	"kernel_stats\000"
 2982      656C5F73 
 2982      74617473 
 2982      00
 2983              	.LASF5:
 2984 0078 5F5F7569 		.ascii	"__uint8_t\000"
 2984      6E74385F 
 2984      7400
 2985              	.LASF56:
 2986 0082 70726576 		.ascii	"prev\000"
 2986      00
 2987              	.LASF83:
 2988 0087 706F7274 		.ascii	"port_intctx\000"
 2988      5F696E74 
 2988      63747800 
 2989              	.LASF145:
 2990 0093 70616765 		.ascii	"pages\000"
 2990      7300
 2991              	.LASF68:
 2992 0099 73797374 		.ascii	"system_debug_t\000"
 2992      656D5F64 
ARM GAS  C:\cygwin64\tmp\ccrJ3EpT.s 			page 54


 2992      65627567 
 2992      5F7400
 2993              	.LASF139:
 2994 00a8 70726F76 		.ascii	"provider\000"
 2994      69646572 
 2994      00
 2995              	.LASF113:
 2996 00b1 74687265 		.ascii	"thread_descriptor_t\000"
 2996      61645F64 
 2996      65736372 
 2996      6970746F 
 2996      725F7400 
 2997              	.LASF155:
 2998 00c5 706F7274 		.ascii	"port_lock\000"
 2998      5F6C6F63 
 2998      6B00
 2999              	.LASF87:
 3000 00cf 776F7273 		.ascii	"worst\000"
 3000      7400
 3001              	.LASF90:
 3002 00d5 74696D65 		.ascii	"time_measurement_t\000"
 3002      5F6D6561 
 3002      73757265 
 3002      6D656E74 
 3002      5F7400
 3003              	.LASF111:
 3004 00e8 77656E64 		.ascii	"wend\000"
 3004      00
 3005              	.LASF15:
 3006 00ed 6C6F6E67 		.ascii	"long long unsigned int\000"
 3006      206C6F6E 
 3006      6720756E 
 3006      7369676E 
 3006      65642069 
 3007              	.LASF97:
 3008 0104 65786974 		.ascii	"exitcode\000"
 3008      636F6465 
 3008      00
 3009              	.LASF75:
 3010 010d 6D61696E 		.ascii	"mainthread\000"
 3010      74687265 
 3010      616400
 3011              	.LASF100:
 3012 0118 73656E74 		.ascii	"sentmsg\000"
 3012      6D736700 
 3013              	.LASF65:
 3014 0120 76697274 		.ascii	"virtual_timers_list_t\000"
 3014      75616C5F 
 3014      74696D65 
 3014      72735F6C 
 3014      6973745F 
 3015              	.LASF78:
 3016 0136 49544D5F 		.ascii	"ITM_RxBuffer\000"
 3016      52784275 
 3016      66666572 
 3016      00
 3017              	.LASF152:
ARM GAS  C:\cygwin64\tmp\ccrJ3EpT.s 			page 55


 3018 0143 68656170 		.ascii	"heapp\000"
 3018      7000
 3019              	.LASF143:
 3020 0149 66726565 		.ascii	"free\000"
 3020      00
 3021              	.LASF22:
 3022 014e 72747469 		.ascii	"rttime_t\000"
 3022      6D655F74 
 3022      00
 3023              	.LASF1:
 3024 0157 6C6F6E67 		.ascii	"long long int\000"
 3024      206C6F6E 
 3024      6720696E 
 3024      7400
 3025              	.LASF3:
 3026 0165 7369676E 		.ascii	"signed char\000"
 3026      65642063 
 3026      68617200 
 3027              	.LASF116:
 3028 0171 73697A65 		.ascii	"size\000"
 3028      00
 3029              	.LASF165:
 3030 0176 474E5520 		.ascii	"GNU C11 6.3.1 20170620 (release) [ARM/embedded-6-br"
 3030      43313120 
 3030      362E332E 
 3030      31203230 
 3030      31373036 
 3031 01a9 616E6368 		.ascii	"anch revision 249437] -mcpu=cortex-m4 -mfloat-abi=h"
 3031      20726576 
 3031      6973696F 
 3031      6E203234 
 3031      39343337 
 3032 01dc 61726420 		.ascii	"ard -mfpu=fpv4-sp-d16 -mno-thumb-interwork -mthumb "
 3032      2D6D6670 
 3032      753D6670 
 3032      76342D73 
 3032      702D6431 
 3033 020f 2D67202D 		.ascii	"-g -Os -fomit-frame-pointer -falign-functions=16 -f"
 3033      4F73202D 
 3033      666F6D69 
 3033      742D6672 
 3033      616D652D 
 3034 0242 66756E63 		.ascii	"function-sections -fdata-sections -fno-common -fsin"
 3034      74696F6E 
 3034      2D736563 
 3034      74696F6E 
 3034      73202D66 
 3035 0275 676C652D 		.ascii	"gle-precision-constant\000"
 3035      70726563 
 3035      6973696F 
 3035      6E2D636F 
 3035      6E737461 
 3036              	.LASF74:
 3037 028c 76746C69 		.ascii	"vtlist\000"
 3037      737400
 3038              	.LASF154:
 3039 0293 706F7274 		.ascii	"port_unlock\000"
ARM GAS  C:\cygwin64\tmp\ccrJ3EpT.s 			page 56


 3039      5F756E6C 
 3039      6F636B00 
 3040              	.LASF43:
 3041 029f 6D736771 		.ascii	"msgqueue\000"
 3041      75657565 
 3041      00
 3042              	.LASF39:
 3043 02a8 73746174 		.ascii	"state\000"
 3043      6500
 3044              	.LASF11:
 3045 02ae 6C6F6E67 		.ascii	"long int\000"
 3045      20696E74 
 3045      00
 3046              	.LASF151:
 3047 02b7 63685468 		.ascii	"chThdCreateFromHeap\000"
 3047      64437265 
 3047      61746546 
 3047      726F6D48 
 3047      65617000 
 3048              	.LASF24:
 3049 02cb 74737461 		.ascii	"tstate_t\000"
 3049      74655F74 
 3049      00
 3050              	.LASF64:
 3051 02d4 66756E63 		.ascii	"func\000"
 3051      00
 3052              	.LASF48:
 3053 02d9 73746174 		.ascii	"stats\000"
 3053      7300
 3054              	.LASF132:
 3055 02df 63686465 		.ascii	"chdebug_t\000"
 3055      6275675F 
 3055      7400
 3056              	.LASF130:
 3057 02e9 6F66665F 		.ascii	"off_preempt\000"
 3057      70726565 
 3057      6D707400 
 3058              	.LASF141:
 3059 02f5 68656170 		.ascii	"heap_header_t\000"
 3059      5F686561 
 3059      6465725F 
 3059      7400
 3060              	.LASF12:
 3061 0303 5F5F7569 		.ascii	"__uint32_t\000"
 3061      6E743332 
 3061      5F7400
 3062              	.LASF80:
 3063 030e 72656761 		.ascii	"regarm_t\000"
 3063      726D5F74 
 3063      00
 3064              	.LASF69:
 3065 0317 63685F73 		.ascii	"ch_system_debug\000"
 3065      79737465 
 3065      6D5F6465 
 3065      62756700 
 3066              	.LASF42:
 3067 0327 77616974 		.ascii	"waiting\000"
ARM GAS  C:\cygwin64\tmp\ccrJ3EpT.s 			page 57


 3067      696E6700 
 3068              	.LASF115:
 3069 032f 7A65726F 		.ascii	"zero\000"
 3069      00
 3070              	.LASF134:
 3071 0334 6D757465 		.ascii	"mutex_t\000"
 3071      785F7400 
 3072              	.LASF170:
 3073 033c 76616C75 		.ascii	"value\000"
 3073      6500
 3074              	.LASF142:
 3075 0342 616C6967 		.ascii	"align\000"
 3075      6E00
 3076              	.LASF82:
 3077 0348 706F7274 		.ascii	"port_context\000"
 3077      5F636F6E 
 3077      74657874 
 3077      00
 3078              	.LASF29:
 3079 0355 636E745F 		.ascii	"cnt_t\000"
 3079      7400
 3080              	.LASF0:
 3081 035b 756E7369 		.ascii	"unsigned int\000"
 3081      676E6564 
 3081      20696E74 
 3081      00
 3082              	.LASF17:
 3083 0368 75696E74 		.ascii	"uint16_t\000"
 3083      31365F74 
 3083      00
 3084              	.LASF79:
 3085 0371 53797374 		.ascii	"SystemCoreClock\000"
 3085      656D436F 
 3085      7265436C 
 3085      6F636B00 
 3086              	.LASF101:
 3087 0381 77747365 		.ascii	"wtsemp\000"
 3087      6D7000
 3088              	.LASF99:
 3089 0388 77747472 		.ascii	"wttrp\000"
 3089      7000
 3090              	.LASF133:
 3091 038e 63685F64 		.ascii	"ch_debug\000"
 3091      65627567 
 3091      00
 3092              	.LASF149:
 3093 0397 6D656D6F 		.ascii	"memory_pool_t\000"
 3093      72795F70 
 3093      6F6F6C5F 
 3093      7400
 3094              	.LASF33:
 3095 03a5 71756575 		.ascii	"queue\000"
 3095      6500
 3096              	.LASF47:
 3097 03ab 6D706F6F 		.ascii	"mpool\000"
 3097      6C00
 3098              	.LASF129:
ARM GAS  C:\cygwin64\tmp\ccrJ3EpT.s 			page 58


 3099 03b1 6F66665F 		.ascii	"off_refs\000"
 3099      72656673 
 3099      00
 3100              	.LASF95:
 3101 03ba 6B65726E 		.ascii	"kernel_stats_t\000"
 3101      656C5F73 
 3101      74617473 
 3101      5F7400
 3102              	.LASF51:
 3103 03c9 63685F74 		.ascii	"ch_thread\000"
 3103      68726561 
 3103      6400
 3104              	.LASF37:
 3105 03d3 6E616D65 		.ascii	"name\000"
 3105      00
 3106              	.LASF27:
 3107 03d8 6D73675F 		.ascii	"msg_t\000"
 3107      7400
 3108              	.LASF88:
 3109 03de 6C617374 		.ascii	"last\000"
 3109      00
 3110              	.LASF30:
 3111 03e3 75636E74 		.ascii	"ucnt_t\000"
 3111      5F7400
 3112              	.LASF44:
 3113 03ea 6570656E 		.ascii	"epending\000"
 3113      64696E67 
 3113      00
 3114              	.LASF137:
 3115 03f3 6D656D6F 		.ascii	"memory_heap_t\000"
 3115      72795F68 
 3115      6561705F 
 3115      7400
 3116              	.LASF122:
 3117 0401 6F66665F 		.ascii	"off_ctx\000"
 3117      63747800 
 3118              	.LASF23:
 3119 0409 746D6F64 		.ascii	"tmode_t\000"
 3119      655F7400 
 3120              	.LASF94:
 3121 0411 6D5F6372 		.ascii	"m_crit_isr\000"
 3121      69745F69 
 3121      737200
 3122              	.LASF58:
 3123 041c 63685F72 		.ascii	"ch_ready_list\000"
 3123      65616479 
 3123      5F6C6973 
 3123      7400
 3124              	.LASF28:
 3125 042a 6576656E 		.ascii	"eventmask_t\000"
 3125      746D6173 
 3125      6B5F7400 
 3126              	.LASF125:
 3127 0436 6F66665F 		.ascii	"off_name\000"
 3127      6E616D65 
 3127      00
 3128              	.LASF10:
ARM GAS  C:\cygwin64\tmp\ccrJ3EpT.s 			page 59


 3129 043f 5F5F696E 		.ascii	"__int32_t\000"
 3129      7433325F 
 3129      7400
 3130              	.LASF81:
 3131 0449 73746B61 		.ascii	"stkalign_t\000"
 3131      6C69676E 
 3131      5F7400
 3132              	.LASF35:
 3133 0454 6E657765 		.ascii	"newer\000"
 3133      7200
 3134              	.LASF46:
 3135 045a 7265616C 		.ascii	"realprio\000"
 3135      7072696F 
 3135      00
 3136              	.LASF117:
 3137 0463 76657273 		.ascii	"version\000"
 3137      696F6E00 
 3138              	.LASF159:
 3139 046b 5F737461 		.ascii	"_stats_stop_measure_crit_thd\000"
 3139      74735F73 
 3139      746F705F 
 3139      6D656173 
 3139      7572655F 
 3140              	.LASF77:
 3141 0488 73697A65 		.ascii	"sizetype\000"
 3141      74797065 
 3141      00
 3142              	.LASF49:
 3143 0491 74687265 		.ascii	"thread_reference_t\000"
 3143      61645F72 
 3143      65666572 
 3143      656E6365 
 3143      5F7400
 3144              	.LASF66:
 3145 04a4 63685F76 		.ascii	"ch_virtual_timers_list\000"
 3145      69727475 
 3145      616C5F74 
 3145      696D6572 
 3145      735F6C69 
 3146              	.LASF2:
 3147 04bb 6C6F6E67 		.ascii	"long double\000"
 3147      20646F75 
 3147      626C6500 
 3148              	.LASF123:
 3149 04c7 6F66665F 		.ascii	"off_newer\000"
 3149      6E657765 
 3149      7200
 3150              	.LASF150:
 3151 04d1 63685468 		.ascii	"chThdCreateFromMemoryPool\000"
 3151      64437265 
 3151      61746546 
 3151      726F6D4D 
 3151      656D6F72 
 3152              	.LASF110:
 3153 04eb 77626173 		.ascii	"wbase\000"
 3153      6500
 3154              	.LASF85:
ARM GAS  C:\cygwin64\tmp\ccrJ3EpT.s 			page 60


 3155 04f1 746D5F63 		.ascii	"tm_calibration_t\000"
 3155      616C6962 
 3155      72617469 
 3155      6F6E5F74 
 3155      00
 3156              	.LASF34:
 3157 0502 7072696F 		.ascii	"prio\000"
 3157      00
 3158              	.LASF59:
 3159 0507 63757272 		.ascii	"current\000"
 3159      656E7400 
 3160              	.LASF14:
 3161 050f 5F5F7569 		.ascii	"__uint64_t\000"
 3161      6E743634 
 3161      5F7400
 3162              	.LASF89:
 3163 051a 63756D75 		.ascii	"cumulative\000"
 3163      6C617469 
 3163      766500
 3164              	.LASF144:
 3165 0525 75736564 		.ascii	"used\000"
 3165      00
 3166              	.LASF25:
 3167 052a 74726566 		.ascii	"trefs_t\000"
 3167      735F7400 
 3168              	.LASF120:
 3169 0532 74687265 		.ascii	"threadsize\000"
 3169      61647369 
 3169      7A6500
 3170              	.LASF41:
 3171 053d 72656673 		.ascii	"refs\000"
 3171      00
 3172              	.LASF61:
 3173 0542 76697274 		.ascii	"virtual_timer_t\000"
 3173      75616C5F 
 3173      74696D65 
 3173      725F7400 
 3174              	.LASF26:
 3175 0552 74707269 		.ascii	"tprio_t\000"
 3175      6F5F7400 
 3176              	.LASF92:
 3177 055a 6E5F6374 		.ascii	"n_ctxswc\000"
 3177      78737763 
 3177      00
 3178              	.LASF135:
 3179 0563 5F426F6F 		.ascii	"_Bool\000"
 3179      6C00
 3180              	.LASF18:
 3181 0569 696E7433 		.ascii	"int32_t\000"
 3181      325F7400 
 3182              	.LASF6:
 3183 0571 756E7369 		.ascii	"unsigned char\000"
 3183      676E6564 
 3183      20636861 
 3183      7200
 3184              	.LASF121:
 3185 057f 6F66665F 		.ascii	"off_prio\000"
ARM GAS  C:\cygwin64\tmp\ccrJ3EpT.s 			page 61


 3185      7072696F 
 3185      00
 3186              	.LASF126:
 3187 0588 6F66665F 		.ascii	"off_stklimit\000"
 3187      73746B6C 
 3187      696D6974 
 3187      00
 3188              	.LASF7:
 3189 0595 73686F72 		.ascii	"short int\000"
 3189      7420696E 
 3189      7400
 3190              	.LASF67:
 3191 059f 6C617374 		.ascii	"lasttime\000"
 3191      74696D65 
 3191      00
 3192              	.LASF168:
 3193 05a8 68656170 		.ascii	"heap_header\000"
 3193      5F686561 
 3193      64657200 
 3194              	.LASF103:
 3195 05b4 65776D61 		.ascii	"ewmask\000"
 3195      736B00
 3196              	.LASF72:
 3197 05bb 63685F73 		.ascii	"ch_system\000"
 3197      79737465 
 3197      6D00
 3198              	.LASF169:
 3199 05c5 5F5F6675 		.ascii	"__func__\000"
 3199      6E635F5F 
 3199      00
 3200              	.LASF166:
 3201 05ce 2E2E2F2E 		.ascii	"../../modules/ChibiOS/os/rt/src/chdynamic.c\000"
 3201      2E2F6D6F 
 3201      64756C65 
 3201      732F4368 
 3201      6962694F 
 3202              	.LASF153:
 3203 05fa 63685379 		.ascii	"chSysLock\000"
 3203      734C6F63 
 3203      6B00
 3204              	.LASF161:
 3205 0604 5F746872 		.ascii	"_thread_memfill\000"
 3205      6561645F 
 3205      6D656D66 
 3205      696C6C00 
 3206              	.LASF38:
 3207 0614 77616261 		.ascii	"wabase\000"
 3207      736500
 3208              	.LASF62:
 3209 061b 63685F76 		.ascii	"ch_virtual_timer\000"
 3209      69727475 
 3209      616C5F74 
 3209      696D6572 
 3209      00
 3210              	.LASF104:
 3211 062c 63685F73 		.ascii	"ch_semaphore\000"
 3211      656D6170 
ARM GAS  C:\cygwin64\tmp\ccrJ3EpT.s 			page 62


 3211      686F7265 
 3211      00
 3212              	.LASF131:
 3213 0639 6F66665F 		.ascii	"off_time\000"
 3213      74696D65 
 3213      00
 3214              	.LASF108:
 3215 0642 63685F69 		.ascii	"ch_idle_thread_wa\000"
 3215      646C655F 
 3215      74687265 
 3215      61645F77 
 3215      6100
 3216              	.LASF119:
 3217 0654 74696D65 		.ascii	"timesize\000"
 3217      73697A65 
 3217      00
 3218              	.LASF19:
 3219 065d 75696E74 		.ascii	"uint32_t\000"
 3219      33325F74 
 3219      00
 3220              	.LASF102:
 3221 0666 77746D74 		.ascii	"wtmtxp\000"
 3221      787000
 3222              	.LASF52:
 3223 066d 63685F74 		.ascii	"ch_threads_list\000"
 3223      68726561 
 3223      64735F6C 
 3223      69737400 
 3224              	.LASF106:
 3225 067d 6F776E65 		.ascii	"owner\000"
 3225      7200
 3226              	.LASF146:
 3227 0683 68656170 		.ascii	"heap\000"
 3227      00
 3228              	.LASF13:
 3229 0688 6C6F6E67 		.ascii	"long unsigned int\000"
 3229      20756E73 
 3229      69676E65 
 3229      6420696E 
 3229      7400
 3230              	.LASF162:
 3231 069a 63685468 		.ascii	"chThdCreateSuspendedI\000"
 3231      64437265 
 3231      61746553 
 3231      75737065 
 3231      6E646564 
 3232              	.LASF107:
 3233 06b0 63686172 		.ascii	"char\000"
 3233      00
 3234              	.LASF36:
 3235 06b5 6F6C6465 		.ascii	"older\000"
 3235      7200
 3236              	.LASF8:
 3237 06bb 5F5F7569 		.ascii	"__uint16_t\000"
 3237      6E743136 
 3237      5F7400
 3238              	.LASF32:
ARM GAS  C:\cygwin64\tmp\ccrJ3EpT.s 			page 63


 3239 06c6 74687265 		.ascii	"thread_t\000"
 3239      61645F74 
 3239      00
 3240              	.LASF86:
 3241 06cf 62657374 		.ascii	"best\000"
 3241      00
 3242              	.LASF31:
 3243 06d4 73797374 		.ascii	"systime_t\000"
 3243      696D655F 
 3243      7400
 3244              	.LASF60:
 3245 06de 76746675 		.ascii	"vtfunc_t\000"
 3245      6E635F74 
 3245      00
 3246              	.LASF157:
 3247 06e7 5F5F7365 		.ascii	"__set_BASEPRI\000"
 3247      745F4241 
 3247      53455052 
 3247      4900
 3248              	.LASF70:
 3249 06f5 70616E69 		.ascii	"panic_msg\000"
 3249      635F6D73 
 3249      6700
 3250              	.LASF84:
 3251 06ff 6F666673 		.ascii	"offset\000"
 3251      657400
 3252              	.LASF164:
 3253 0706 63684865 		.ascii	"chHeapAllocAligned\000"
 3253      6170416C 
 3253      6C6F6341 
 3253      6C69676E 
 3253      656400
 3254              	.LASF105:
 3255 0719 63685F6D 		.ascii	"ch_mutex\000"
 3255      75746578 
 3255      00
 3256              	.LASF124:
 3257 0722 6F66665F 		.ascii	"off_older\000"
 3257      6F6C6465 
 3257      7200
 3258              	.LASF9:
 3259 072c 73686F72 		.ascii	"short unsigned int\000"
 3259      7420756E 
 3259      7369676E 
 3259      65642069 
 3259      6E7400
 3260              	.LASF71:
 3261 073f 63685F73 		.ascii	"ch_system_t\000"
 3261      79737465 
 3261      6D5F7400 
 3262              	.LASF114:
 3263 074b 6964656E 		.ascii	"identifier\000"
 3263      74696669 
 3263      657200
 3264              	.LASF21:
 3265 0756 7274636E 		.ascii	"rtcnt_t\000"
 3265      745F7400 
ARM GAS  C:\cygwin64\tmp\ccrJ3EpT.s 			page 64


 3266              	.LASF136:
 3267 075e 6D656D67 		.ascii	"memgetfunc_t\000"
 3267      65746675 
 3267      6E635F74 
 3267      00
 3268              	.LASF163:
 3269 076b 63685363 		.ascii	"chSchWakeupS\000"
 3269      6857616B 
 3269      65757053 
 3269      00
 3270              	.LASF148:
 3271 0778 6F626A65 		.ascii	"object_size\000"
 3271      63745F73 
 3271      697A6500 
 3272              	.LASF118:
 3273 0784 70747273 		.ascii	"ptrsize\000"
 3273      697A6500 
 3274              	.LASF54:
 3275 078c 74687265 		.ascii	"threads_queue_t\000"
 3275      6164735F 
 3275      71756575 
 3275      655F7400 
 3276              	.LASF147:
 3277 079c 706F6F6C 		.ascii	"pool_header\000"
 3277      5F686561 
 3277      64657200 
 3278              	.LASF73:
 3279 07a8 726C6973 		.ascii	"rlist\000"
 3279      7400
 3280              	.LASF16:
 3281 07ae 75696E74 		.ascii	"uint8_t\000"
 3281      385F7400 
 3282              	.LASF160:
 3283 07b6 6368506F 		.ascii	"chPoolAlloc\000"
 3283      6F6C416C 
 3283      6C6F6300 
 3284              	.LASF40:
 3285 07c2 666C6167 		.ascii	"flags\000"
 3285      7300
 3286              	.LASF158:
 3287 07c8 5F737461 		.ascii	"_stats_start_measure_crit_thd\000"
 3287      74735F73 
 3287      74617274 
 3287      5F6D6561 
 3287      73757265 
 3288              	.LASF98:
 3289 07e6 77746F62 		.ascii	"wtobjp\000"
 3289      6A7000
 3290              	.LASF50:
 3291 07ed 74687265 		.ascii	"threads_list_t\000"
 3291      6164735F 
 3291      6C697374 
 3291      5F7400
 3292              	.LASF127:
 3293 07fc 6F66665F 		.ascii	"off_state\000"
 3293      73746174 
 3293      6500
ARM GAS  C:\cygwin64\tmp\ccrJ3EpT.s 			page 65


 3294              	.LASF156:
 3295 0806 63685379 		.ascii	"chSysUnlock\000"
 3295      73556E6C 
 3295      6F636B00 
 3296              	.LASF128:
 3297 0812 6F66665F 		.ascii	"off_flags\000"
 3297      666C6167 
 3297      7300
 3298              	.LASF45:
 3299 081c 6D74786C 		.ascii	"mtxlist\000"
 3299      69737400 
 3300              	.LASF93:
 3301 0824 6D5F6372 		.ascii	"m_crit_thd\000"
 3301      69745F74 
 3301      686400
 3302              	.LASF140:
 3303 082f 68656164 		.ascii	"header\000"
 3303      657200
 3304              	.LASF91:
 3305 0836 6E5F6972 		.ascii	"n_irq\000"
 3305      7100
 3306              	.LASF55:
 3307 083c 63685F74 		.ascii	"ch_threads_queue\000"
 3307      68726561 
 3307      64735F71 
 3307      75657565 
 3307      00
 3308              	.LASF138:
 3309 084d 6D656D6F 		.ascii	"memory_heap\000"
 3309      72795F68 
 3309      65617000 
 3310              		.ident	"GCC: (GNU Tools for ARM Embedded Processors 6-2017-q2-update) 6.3.1 20170620 (release) [AR
ARM GAS  C:\cygwin64\tmp\ccrJ3EpT.s 			page 66


DEFINED SYMBOLS
                            *ABS*:00000000 chdynamic.c
C:\cygwin64\tmp\ccrJ3EpT.s:18     .text.chThdCreateFromHeap:00000000 $t
C:\cygwin64\tmp\ccrJ3EpT.s:25     .text.chThdCreateFromHeap:00000000 chThdCreateFromHeap
C:\cygwin64\tmp\ccrJ3EpT.s:145    .text.chThdCreateFromMemoryPool:00000000 $t
C:\cygwin64\tmp\ccrJ3EpT.s:152    .text.chThdCreateFromMemoryPool:00000000 chThdCreateFromMemoryPool
                     .debug_frame:00000010 $d

UNDEFINED SYMBOLS
chHeapAllocAligned
_thread_memfill
_stats_start_measure_crit_thd
chThdCreateSuspendedI
chSchWakeupS
_stats_stop_measure_crit_thd
chPoolAlloc
