ARM GAS  C:\cygwin64\tmp\cceZag5Q.s 			page 1


   1              		.cpu cortex-m4
   2              		.eabi_attribute 27, 1
   3              		.eabi_attribute 28, 1
   4              		.eabi_attribute 20, 1
   5              		.eabi_attribute 21, 1
   6              		.eabi_attribute 23, 3
   7              		.eabi_attribute 24, 1
   8              		.eabi_attribute 25, 1
   9              		.eabi_attribute 26, 1
  10              		.eabi_attribute 30, 4
  11              		.eabi_attribute 34, 1
  12              		.eabi_attribute 18, 4
  13              		.file	"chevents.c"
  14              		.text
  15              	.Ltext0:
  16              		.cfi_sections	.debug_frame
  17              		.section	.text.chSysLock,"ax",%progbits
  18              		.align	1
  19              		.syntax unified
  20              		.thumb
  21              		.thumb_func
  22              		.fpu fpv4-sp-d16
  23              		.type	chSysLock, %function
  24              	chSysLock:
  25              	.LFB167:
  26              		.file 1 "../../modules/ChibiOS/os/rt/include/chsys.h"
  27              		.loc 1 374 0
  28              		.cfi_startproc
  29              		@ args = 0, pretend = 0, frame = 0
  30              		@ frame_needed = 0, uses_anonymous_args = 0
  31              		@ link register save eliminated.
  32              	.LVL0:
  33              	.LBB14:
  34              	.LBB15:
  35              	.LBB16:
  36              		.file 2 "../../modules/ChibiOS/os/common/ext/CMSIS/include/cmsis_gcc.h"
  37              		.loc 2 264 0
  38 0000 2023     		movs	r3, #32
  39              		.syntax unified
  40              	@ 264 "../../modules/ChibiOS/os/common/ext/CMSIS/include/cmsis_gcc.h" 1
  41 0002 83F31188 		MSR basepri, r3
  42              	@ 0 "" 2
  43              	.LVL1:
  44              		.thumb
  45              		.syntax unified
  46              	.LBE16:
  47              	.LBE15:
  48              	.LBE14:
  49              		.loc 1 377 0
  50 0006 FFF7FEBF 		b	_stats_start_measure_crit_thd
  51              	.LVL2:
  52              		.cfi_endproc
  53              	.LFE167:
  54              		.size	chSysLock, .-chSysLock
  55              		.section	.text.chSysUnlock,"ax",%progbits
  56              		.align	1
  57              		.syntax unified
ARM GAS  C:\cygwin64\tmp\cceZag5Q.s 			page 2


  58              		.thumb
  59              		.thumb_func
  60              		.fpu fpv4-sp-d16
  61              		.type	chSysUnlock, %function
  62              	chSysUnlock:
  63              	.LFB168:
  64              		.loc 1 386 0
  65              		.cfi_startproc
  66              		@ args = 0, pretend = 0, frame = 0
  67              		@ frame_needed = 0, uses_anonymous_args = 0
  68 0000 08B5     		push	{r3, lr}
  69              		.cfi_def_cfa_offset 8
  70              		.cfi_offset 3, -8
  71              		.cfi_offset 14, -4
  72              		.loc 1 389 0
  73 0002 FFF7FEFF 		bl	_stats_stop_measure_crit_thd
  74              	.LVL3:
  75              	.LBB17:
  76              	.LBB18:
  77              	.LBB19:
  78              		.loc 2 264 0
  79 0006 0023     		movs	r3, #0
  80              		.syntax unified
  81              	@ 264 "../../modules/ChibiOS/os/common/ext/CMSIS/include/cmsis_gcc.h" 1
  82 0008 83F31188 		MSR basepri, r3
  83              	@ 0 "" 2
  84              	.LVL4:
  85              		.thumb
  86              		.syntax unified
  87 000c 08BD     		pop	{r3, pc}
  88              	.LBE19:
  89              	.LBE18:
  90              	.LBE17:
  91              		.cfi_endproc
  92              	.LFE168:
  93              		.size	chSysUnlock, .-chSysUnlock
  94              		.section	.text.chEvtRegisterMaskWithFlags,"ax",%progbits
  95              		.align	1
  96              		.global	chEvtRegisterMaskWithFlags
  97              		.syntax unified
  98              		.thumb
  99              		.thumb_func
 100              		.fpu fpv4-sp-d16
 101              		.type	chEvtRegisterMaskWithFlags, %function
 102              	chEvtRegisterMaskWithFlags:
 103              	.LFB246:
 104              		.file 3 "../../modules/ChibiOS/os/rt/src/chevents.c"
 105              		.loc 3 106 0
 106              		.cfi_startproc
 107              		@ args = 0, pretend = 0, frame = 0
 108              		@ frame_needed = 0, uses_anonymous_args = 0
 109              	.LVL5:
 110 0000 F8B5     		push	{r3, r4, r5, r6, r7, lr}
 111              		.cfi_def_cfa_offset 24
 112              		.cfi_offset 3, -24
 113              		.cfi_offset 4, -20
 114              		.cfi_offset 5, -16
ARM GAS  C:\cygwin64\tmp\cceZag5Q.s 			page 3


 115              		.cfi_offset 6, -12
 116              		.cfi_offset 7, -8
 117              		.cfi_offset 14, -4
 118              		.loc 3 106 0
 119 0002 0546     		mov	r5, r0
 120 0004 0C46     		mov	r4, r1
 121 0006 1E46     		mov	r6, r3
 122 0008 1746     		mov	r7, r2
 123              		.loc 3 110 0
 124 000a FFF7FEFF 		bl	chSysLock
 125              	.LVL6:
 126              		.loc 3 111 0
 127 000e 2B68     		ldr	r3, [r5]
 128 0010 2360     		str	r3, [r4]
 129              		.loc 3 113 0
 130 0012 064B     		ldr	r3, .L4
 131              		.loc 3 112 0
 132 0014 2C60     		str	r4, [r5]
 133              		.loc 3 113 0
 134 0016 9B69     		ldr	r3, [r3, #24]
 135 0018 6360     		str	r3, [r4, #4]
 136              		.loc 3 115 0
 137 001a 0023     		movs	r3, #0
 138              		.loc 3 114 0
 139 001c A760     		str	r7, [r4, #8]
 140              		.loc 3 115 0
 141 001e E360     		str	r3, [r4, #12]
 142              		.loc 3 116 0
 143 0020 2661     		str	r6, [r4, #16]
 144              		.loc 3 118 0
 145 0022 BDE8F840 		pop	{r3, r4, r5, r6, r7, lr}
 146              		.cfi_restore 14
 147              		.cfi_restore 7
 148              		.cfi_restore 6
 149              		.cfi_restore 5
 150              		.cfi_restore 4
 151              		.cfi_restore 3
 152              		.cfi_def_cfa_offset 0
 153              	.LVL7:
 154              		.loc 3 117 0
 155 0026 FFF7FEBF 		b	chSysUnlock
 156              	.LVL8:
 157              	.L5:
 158 002a 00BF     		.align	2
 159              	.L4:
 160 002c 00000000 		.word	ch
 161              		.cfi_endproc
 162              	.LFE246:
 163              		.size	chEvtRegisterMaskWithFlags, .-chEvtRegisterMaskWithFlags
 164              		.section	.text.chEvtUnregister,"ax",%progbits
 165              		.align	1
 166              		.global	chEvtUnregister
 167              		.syntax unified
 168              		.thumb
 169              		.thumb_func
 170              		.fpu fpv4-sp-d16
 171              		.type	chEvtUnregister, %function
ARM GAS  C:\cygwin64\tmp\cceZag5Q.s 			page 4


 172              	chEvtUnregister:
 173              	.LFB247:
 174              		.loc 3 133 0
 175              		.cfi_startproc
 176              		@ args = 0, pretend = 0, frame = 0
 177              		@ frame_needed = 0, uses_anonymous_args = 0
 178              	.LVL9:
 179 0000 38B5     		push	{r3, r4, r5, lr}
 180              		.cfi_def_cfa_offset 16
 181              		.cfi_offset 3, -16
 182              		.cfi_offset 4, -12
 183              		.cfi_offset 5, -8
 184              		.cfi_offset 14, -4
 185              		.loc 3 133 0
 186 0002 0446     		mov	r4, r0
 187              	.LVL10:
 188 0004 0D46     		mov	r5, r1
 189              		.loc 3 141 0
 190 0006 FFF7FEFF 		bl	chSysLock
 191              	.LVL11:
 192              		.loc 3 139 0
 193 000a 2246     		mov	r2, r4
 194              	.LVL12:
 195              	.L7:
 196              		.loc 3 143 0
 197 000c 1368     		ldr	r3, [r2]
 198 000e 9C42     		cmp	r4, r3
 199 0010 03D0     		beq	.L8
 200              		.loc 3 145 0
 201 0012 AB42     		cmp	r3, r5
 202 0014 05D1     		bne	.L10
 203              		.loc 3 146 0
 204 0016 2B68     		ldr	r3, [r5]
 205 0018 1360     		str	r3, [r2]
 206              	.L8:
 207              		.loc 3 152 0
 208 001a BDE83840 		pop	{r3, r4, r5, lr}
 209              		.cfi_remember_state
 210              		.cfi_restore 14
 211              		.cfi_restore 5
 212              		.cfi_restore 4
 213              		.cfi_restore 3
 214              		.cfi_def_cfa_offset 0
 215              	.LVL13:
 216              		.loc 3 151 0
 217 001e FFF7FEBF 		b	chSysUnlock
 218              	.LVL14:
 219              	.L10:
 220              		.cfi_restore_state
 221 0022 1A46     		mov	r2, r3
 222              	.LVL15:
 223 0024 F2E7     		b	.L7
 224              		.cfi_endproc
 225              	.LFE247:
 226              		.size	chEvtUnregister, .-chEvtUnregister
 227              		.section	.text.chEvtGetAndClearEvents,"ax",%progbits
 228              		.align	1
ARM GAS  C:\cygwin64\tmp\cceZag5Q.s 			page 5


 229              		.global	chEvtGetAndClearEvents
 230              		.syntax unified
 231              		.thumb
 232              		.thumb_func
 233              		.fpu fpv4-sp-d16
 234              		.type	chEvtGetAndClearEvents, %function
 235              	chEvtGetAndClearEvents:
 236              	.LFB248:
 237              		.loc 3 162 0
 238              		.cfi_startproc
 239              		@ args = 0, pretend = 0, frame = 0
 240              		@ frame_needed = 0, uses_anonymous_args = 0
 241              	.LVL16:
 242 0000 38B5     		push	{r3, r4, r5, lr}
 243              		.cfi_def_cfa_offset 16
 244              		.cfi_offset 3, -16
 245              		.cfi_offset 4, -12
 246              		.cfi_offset 5, -8
 247              		.cfi_offset 14, -4
 248              		.loc 3 162 0
 249 0002 0446     		mov	r4, r0
 250              		.loc 3 165 0
 251 0004 FFF7FEFF 		bl	chSysLock
 252              	.LVL17:
 253              		.loc 3 166 0
 254 0008 054B     		ldr	r3, .L12
 255 000a 9A69     		ldr	r2, [r3, #24]
 256 000c 536B     		ldr	r3, [r2, #52]
 257 000e 03EA0405 		and	r5, r3, r4
 258              	.LVL18:
 259              		.loc 3 167 0
 260 0012 23EA0403 		bic	r3, r3, r4
 261 0016 5363     		str	r3, [r2, #52]
 262              		.loc 3 168 0
 263 0018 FFF7FEFF 		bl	chSysUnlock
 264              	.LVL19:
 265              		.loc 3 171 0
 266 001c 2846     		mov	r0, r5
 267 001e 38BD     		pop	{r3, r4, r5, pc}
 268              	.LVL20:
 269              	.L13:
 270              		.align	2
 271              	.L12:
 272 0020 00000000 		.word	ch
 273              		.cfi_endproc
 274              	.LFE248:
 275              		.size	chEvtGetAndClearEvents, .-chEvtGetAndClearEvents
 276              		.section	.text.chEvtAddEvents,"ax",%progbits
 277              		.align	1
 278              		.global	chEvtAddEvents
 279              		.syntax unified
 280              		.thumb
 281              		.thumb_func
 282              		.fpu fpv4-sp-d16
 283              		.type	chEvtAddEvents, %function
 284              	chEvtAddEvents:
 285              	.LFB249:
ARM GAS  C:\cygwin64\tmp\cceZag5Q.s 			page 6


 286              		.loc 3 182 0
 287              		.cfi_startproc
 288              		@ args = 0, pretend = 0, frame = 0
 289              		@ frame_needed = 0, uses_anonymous_args = 0
 290              	.LVL21:
 291 0000 10B5     		push	{r4, lr}
 292              		.cfi_def_cfa_offset 8
 293              		.cfi_offset 4, -8
 294              		.cfi_offset 14, -4
 295              		.loc 3 182 0
 296 0002 0446     		mov	r4, r0
 297              		.loc 3 184 0
 298 0004 FFF7FEFF 		bl	chSysLock
 299              	.LVL22:
 300              		.loc 3 185 0
 301 0008 044B     		ldr	r3, .L15
 302 000a 9B69     		ldr	r3, [r3, #24]
 303 000c 586B     		ldr	r0, [r3, #52]
 304 000e 0443     		orrs	r4, r4, r0
 305              	.LVL23:
 306 0010 5C63     		str	r4, [r3, #52]
 307              	.LVL24:
 308              		.loc 3 187 0
 309 0012 FFF7FEFF 		bl	chSysUnlock
 310              	.LVL25:
 311              		.loc 3 190 0
 312 0016 2046     		mov	r0, r4
 313 0018 10BD     		pop	{r4, pc}
 314              	.LVL26:
 315              	.L16:
 316 001a 00BF     		.align	2
 317              	.L15:
 318 001c 00000000 		.word	ch
 319              		.cfi_endproc
 320              	.LFE249:
 321              		.size	chEvtAddEvents, .-chEvtAddEvents
 322              		.section	.text.chEvtGetAndClearFlags,"ax",%progbits
 323              		.align	1
 324              		.global	chEvtGetAndClearFlags
 325              		.syntax unified
 326              		.thumb
 327              		.thumb_func
 328              		.fpu fpv4-sp-d16
 329              		.type	chEvtGetAndClearFlags, %function
 330              	chEvtGetAndClearFlags:
 331              	.LFB251:
 332              		.loc 3 241 0
 333              		.cfi_startproc
 334              		@ args = 0, pretend = 0, frame = 0
 335              		@ frame_needed = 0, uses_anonymous_args = 0
 336              	.LVL27:
 337 0000 38B5     		push	{r3, r4, r5, lr}
 338              		.cfi_def_cfa_offset 16
 339              		.cfi_offset 3, -16
 340              		.cfi_offset 4, -12
 341              		.cfi_offset 5, -8
 342              		.cfi_offset 14, -4
ARM GAS  C:\cygwin64\tmp\cceZag5Q.s 			page 7


 343              		.loc 3 241 0
 344 0002 0446     		mov	r4, r0
 345              		.loc 3 244 0
 346 0004 FFF7FEFF 		bl	chSysLock
 347              	.LVL28:
 348              		.loc 3 245 0
 349 0008 E568     		ldr	r5, [r4, #12]
 350              	.LVL29:
 351              		.loc 3 246 0
 352 000a 0023     		movs	r3, #0
 353 000c E360     		str	r3, [r4, #12]
 354              		.loc 3 247 0
 355 000e FFF7FEFF 		bl	chSysUnlock
 356              	.LVL30:
 357              		.loc 3 250 0
 358 0012 2846     		mov	r0, r5
 359 0014 38BD     		pop	{r3, r4, r5, pc}
 360              		.cfi_endproc
 361              	.LFE251:
 362              		.size	chEvtGetAndClearFlags, .-chEvtGetAndClearFlags
 363              		.section	.text.chEvtSignalI,"ax",%progbits
 364              		.align	1
 365              		.global	chEvtSignalI
 366              		.syntax unified
 367              		.thumb
 368              		.thumb_func
 369              		.fpu fpv4-sp-d16
 370              		.type	chEvtSignalI, %function
 371              	chEvtSignalI:
 372              	.LFB253:
 373              		.loc 3 282 0
 374              		.cfi_startproc
 375              		@ args = 0, pretend = 0, frame = 0
 376              		@ frame_needed = 0, uses_anonymous_args = 0
 377              		@ link register save eliminated.
 378              	.LVL31:
 379              		.loc 3 287 0
 380 0000 436B     		ldr	r3, [r0, #52]
 381 0002 1943     		orrs	r1, r1, r3
 382              	.LVL32:
 383              		.loc 3 289 0
 384 0004 90F82030 		ldrb	r3, [r0, #32]	@ zero_extendqisi2
 385              		.loc 3 287 0
 386 0008 4163     		str	r1, [r0, #52]
 387              		.loc 3 289 0
 388 000a 0A2B     		cmp	r3, #10
 389 000c 03D1     		bne	.L19
 390              		.loc 3 290 0 discriminator 1
 391 000e 436A     		ldr	r3, [r0, #36]
 392              		.loc 3 289 0 discriminator 1
 393 0010 1942     		tst	r1, r3
 394 0012 05D1     		bne	.L20
 395 0014 7047     		bx	lr
 396              	.L19:
 397              		.loc 3 290 0
 398 0016 0B2B     		cmp	r3, #11
 399 0018 06D1     		bne	.L18
ARM GAS  C:\cygwin64\tmp\cceZag5Q.s 			page 8


 400              		.loc 3 292 0
 401 001a 436A     		ldr	r3, [r0, #36]
 402              		.loc 3 291 0
 403 001c 8B43     		bics	r3, r3, r1
 404 001e 03D1     		bne	.L18
 405              	.L20:
 406              		.loc 3 293 0
 407 0020 0023     		movs	r3, #0
 408 0022 4362     		str	r3, [r0, #36]
 409              		.loc 3 294 0
 410 0024 FFF7FEBF 		b	chSchReadyI
 411              	.LVL33:
 412              	.L18:
 413 0028 7047     		bx	lr
 414              		.cfi_endproc
 415              	.LFE253:
 416              		.size	chEvtSignalI, .-chEvtSignalI
 417              		.section	.text.chEvtBroadcastFlagsI,"ax",%progbits
 418              		.align	1
 419              		.global	chEvtBroadcastFlagsI
 420              		.syntax unified
 421              		.thumb
 422              		.thumb_func
 423              		.fpu fpv4-sp-d16
 424              		.type	chEvtBroadcastFlagsI, %function
 425              	chEvtBroadcastFlagsI:
 426              	.LFB250:
 427              		.loc 3 209 0
 428              		.cfi_startproc
 429              		@ args = 0, pretend = 0, frame = 0
 430              		@ frame_needed = 0, uses_anonymous_args = 0
 431              	.LVL34:
 432 0000 70B5     		push	{r4, r5, r6, lr}
 433              		.cfi_def_cfa_offset 16
 434              		.cfi_offset 4, -16
 435              		.cfi_offset 5, -12
 436              		.cfi_offset 6, -8
 437              		.cfi_offset 14, -4
 438              		.loc 3 215 0
 439 0002 0468     		ldr	r4, [r0]
 440              	.LVL35:
 441              		.loc 3 209 0
 442 0004 0546     		mov	r5, r0
 443 0006 0E46     		mov	r6, r1
 444              	.LVL36:
 445              	.L23:
 446              		.loc 3 217 0
 447 0008 AC42     		cmp	r4, r5
 448 000a 00D1     		bne	.L26
 449              		.loc 3 228 0
 450 000c 70BD     		pop	{r4, r5, r6, pc}
 451              	.LVL37:
 452              	.L26:
 453              		.loc 3 219 0
 454 000e E368     		ldr	r3, [r4, #12]
 455 0010 3343     		orrs	r3, r3, r6
 456 0012 E360     		str	r3, [r4, #12]
ARM GAS  C:\cygwin64\tmp\cceZag5Q.s 			page 9


 457              		.loc 3 222 0
 458 0014 16B1     		cbz	r6, .L24
 459              		.loc 3 223 0 discriminator 1
 460 0016 2269     		ldr	r2, [r4, #16]
 461              		.loc 3 222 0 discriminator 1
 462 0018 1342     		tst	r3, r2
 463 001a 03D0     		beq	.L25
 464              	.L24:
 465              		.loc 3 224 0
 466 001c A168     		ldr	r1, [r4, #8]
 467 001e 6068     		ldr	r0, [r4, #4]
 468 0020 FFF7FEFF 		bl	chEvtSignalI
 469              	.LVL38:
 470              	.L25:
 471              		.loc 3 226 0
 472 0024 2468     		ldr	r4, [r4]
 473              	.LVL39:
 474 0026 EFE7     		b	.L23
 475              		.cfi_endproc
 476              	.LFE250:
 477              		.size	chEvtBroadcastFlagsI, .-chEvtBroadcastFlagsI
 478              		.section	.text.chEvtSignal,"ax",%progbits
 479              		.align	1
 480              		.global	chEvtSignal
 481              		.syntax unified
 482              		.thumb
 483              		.thumb_func
 484              		.fpu fpv4-sp-d16
 485              		.type	chEvtSignal, %function
 486              	chEvtSignal:
 487              	.LFB252:
 488              		.loc 3 260 0
 489              		.cfi_startproc
 490              		@ args = 0, pretend = 0, frame = 0
 491              		@ frame_needed = 0, uses_anonymous_args = 0
 492              	.LVL40:
 493 0000 38B5     		push	{r3, r4, r5, lr}
 494              		.cfi_def_cfa_offset 16
 495              		.cfi_offset 3, -16
 496              		.cfi_offset 4, -12
 497              		.cfi_offset 5, -8
 498              		.cfi_offset 14, -4
 499              		.loc 3 260 0
 500 0002 0446     		mov	r4, r0
 501 0004 0D46     		mov	r5, r1
 502              		.loc 3 264 0
 503 0006 FFF7FEFF 		bl	chSysLock
 504              	.LVL41:
 505              		.loc 3 265 0
 506 000a 2946     		mov	r1, r5
 507 000c 2046     		mov	r0, r4
 508 000e FFF7FEFF 		bl	chEvtSignalI
 509              	.LVL42:
 510              		.loc 3 266 0
 511 0012 FFF7FEFF 		bl	chSchRescheduleS
 512              	.LVL43:
 513              		.loc 3 268 0
ARM GAS  C:\cygwin64\tmp\cceZag5Q.s 			page 10


 514 0016 BDE83840 		pop	{r3, r4, r5, lr}
 515              		.cfi_restore 14
 516              		.cfi_restore 5
 517              		.cfi_restore 4
 518              		.cfi_restore 3
 519              		.cfi_def_cfa_offset 0
 520              	.LVL44:
 521              		.loc 3 267 0
 522 001a FFF7FEBF 		b	chSysUnlock
 523              	.LVL45:
 524              		.cfi_endproc
 525              	.LFE252:
 526              		.size	chEvtSignal, .-chEvtSignal
 527              		.section	.text.chEvtBroadcastFlags,"ax",%progbits
 528              		.align	1
 529              		.global	chEvtBroadcastFlags
 530              		.syntax unified
 531              		.thumb
 532              		.thumb_func
 533              		.fpu fpv4-sp-d16
 534              		.type	chEvtBroadcastFlags, %function
 535              	chEvtBroadcastFlags:
 536              	.LFB254:
 537              		.loc 3 311 0
 538              		.cfi_startproc
 539              		@ args = 0, pretend = 0, frame = 0
 540              		@ frame_needed = 0, uses_anonymous_args = 0
 541              	.LVL46:
 542 0000 38B5     		push	{r3, r4, r5, lr}
 543              		.cfi_def_cfa_offset 16
 544              		.cfi_offset 3, -16
 545              		.cfi_offset 4, -12
 546              		.cfi_offset 5, -8
 547              		.cfi_offset 14, -4
 548              		.loc 3 311 0
 549 0002 0446     		mov	r4, r0
 550 0004 0D46     		mov	r5, r1
 551              		.loc 3 313 0
 552 0006 FFF7FEFF 		bl	chSysLock
 553              	.LVL47:
 554              		.loc 3 314 0
 555 000a 2946     		mov	r1, r5
 556 000c 2046     		mov	r0, r4
 557 000e FFF7FEFF 		bl	chEvtBroadcastFlagsI
 558              	.LVL48:
 559              		.loc 3 315 0
 560 0012 FFF7FEFF 		bl	chSchRescheduleS
 561              	.LVL49:
 562              		.loc 3 317 0
 563 0016 BDE83840 		pop	{r3, r4, r5, lr}
 564              		.cfi_restore 14
 565              		.cfi_restore 5
 566              		.cfi_restore 4
 567              		.cfi_restore 3
 568              		.cfi_def_cfa_offset 0
 569              	.LVL50:
 570              		.loc 3 316 0
ARM GAS  C:\cygwin64\tmp\cceZag5Q.s 			page 11


 571 001a FFF7FEBF 		b	chSysUnlock
 572              	.LVL51:
 573              		.cfi_endproc
 574              	.LFE254:
 575              		.size	chEvtBroadcastFlags, .-chEvtBroadcastFlags
 576              		.section	.text.chEvtGetAndClearFlagsI,"ax",%progbits
 577              		.align	1
 578              		.global	chEvtGetAndClearFlagsI
 579              		.syntax unified
 580              		.thumb
 581              		.thumb_func
 582              		.fpu fpv4-sp-d16
 583              		.type	chEvtGetAndClearFlagsI, %function
 584              	chEvtGetAndClearFlagsI:
 585              	.LFB255:
 586              		.loc 3 330 0
 587              		.cfi_startproc
 588              		@ args = 0, pretend = 0, frame = 0
 589              		@ frame_needed = 0, uses_anonymous_args = 0
 590              		@ link register save eliminated.
 591              	.LVL52:
 592              		.loc 3 330 0
 593 0000 0346     		mov	r3, r0
 594              		.loc 3 334 0
 595 0002 0022     		movs	r2, #0
 596              		.loc 3 333 0
 597 0004 C068     		ldr	r0, [r0, #12]
 598              	.LVL53:
 599              		.loc 3 334 0
 600 0006 DA60     		str	r2, [r3, #12]
 601              		.loc 3 337 0
 602 0008 7047     		bx	lr
 603              		.cfi_endproc
 604              	.LFE255:
 605              		.size	chEvtGetAndClearFlagsI, .-chEvtGetAndClearFlagsI
 606              		.section	.text.chEvtDispatch,"ax",%progbits
 607              		.align	1
 608              		.global	chEvtDispatch
 609              		.syntax unified
 610              		.thumb
 611              		.thumb_func
 612              		.fpu fpv4-sp-d16
 613              		.type	chEvtDispatch, %function
 614              	chEvtDispatch:
 615              	.LFB256:
 616              		.loc 3 348 0
 617              		.cfi_startproc
 618              		@ args = 0, pretend = 0, frame = 0
 619              		@ frame_needed = 0, uses_anonymous_args = 0
 620              	.LVL54:
 621 0000 F8B5     		push	{r3, r4, r5, r6, r7, lr}
 622              		.cfi_def_cfa_offset 24
 623              		.cfi_offset 3, -24
 624              		.cfi_offset 4, -20
 625              		.cfi_offset 5, -16
 626              		.cfi_offset 6, -12
 627              		.cfi_offset 7, -8
ARM GAS  C:\cygwin64\tmp\cceZag5Q.s 			page 12


 628              		.cfi_offset 14, -4
 629              		.loc 3 348 0
 630 0002 0646     		mov	r6, r0
 631 0004 0D46     		mov	r5, r1
 632              		.loc 3 353 0
 633 0006 0024     		movs	r4, #0
 634              		.loc 3 357 0
 635 0008 0127     		movs	r7, #1
 636              	.LVL55:
 637              	.L37:
 638              		.loc 3 354 0
 639 000a 05B9     		cbnz	r5, .L39
 640              		.loc 3 362 0
 641 000c F8BD     		pop	{r3, r4, r5, r6, r7, pc}
 642              	.LVL56:
 643              	.L39:
 644              		.loc 3 355 0
 645 000e 25FA04F3 		lsr	r3, r5, r4
 646 0012 DB07     		lsls	r3, r3, #31
 647 0014 07D5     		bpl	.L38
 648              		.loc 3 357 0
 649 0016 07FA04F3 		lsl	r3, r7, r4
 650 001a 25EA0305 		bic	r5, r5, r3
 651              	.LVL57:
 652              		.loc 3 358 0
 653 001e 2046     		mov	r0, r4
 654 0020 56F82430 		ldr	r3, [r6, r4, lsl #2]
 655 0024 9847     		blx	r3
 656              	.LVL58:
 657              	.L38:
 658              		.loc 3 360 0
 659 0026 0134     		adds	r4, r4, #1
 660              	.LVL59:
 661 0028 EFE7     		b	.L37
 662              		.cfi_endproc
 663              	.LFE256:
 664              		.size	chEvtDispatch, .-chEvtDispatch
 665              		.section	.text.chEvtWaitOne,"ax",%progbits
 666              		.align	1
 667              		.global	chEvtWaitOne
 668              		.syntax unified
 669              		.thumb
 670              		.thumb_func
 671              		.fpu fpv4-sp-d16
 672              		.type	chEvtWaitOne, %function
 673              	chEvtWaitOne:
 674              	.LFB257:
 675              		.loc 3 383 0
 676              		.cfi_startproc
 677              		@ args = 0, pretend = 0, frame = 0
 678              		@ frame_needed = 0, uses_anonymous_args = 0
 679              	.LVL60:
 680 0000 38B5     		push	{r3, r4, r5, lr}
 681              		.cfi_def_cfa_offset 16
 682              		.cfi_offset 3, -16
 683              		.cfi_offset 4, -12
 684              		.cfi_offset 5, -8
ARM GAS  C:\cygwin64\tmp\cceZag5Q.s 			page 13


 685              		.cfi_offset 14, -4
 686              		.loc 3 384 0
 687 0002 0C4B     		ldr	r3, .L45
 688 0004 9D69     		ldr	r5, [r3, #24]
 689              	.LVL61:
 690              		.loc 3 383 0
 691 0006 0446     		mov	r4, r0
 692              		.loc 3 387 0
 693 0008 FFF7FEFF 		bl	chSysLock
 694              	.LVL62:
 695              		.loc 3 388 0
 696 000c 686B     		ldr	r0, [r5, #52]
 697              	.LVL63:
 698              		.loc 3 389 0
 699 000e 2040     		ands	r0, r4, r0
 700              	.LVL64:
 701 0010 05D1     		bne	.L44
 702              		.loc 3 391 0
 703 0012 0A20     		movs	r0, #10
 704              	.LVL65:
 705              		.loc 3 390 0
 706 0014 6C62     		str	r4, [r5, #36]
 707              		.loc 3 391 0
 708 0016 FFF7FEFF 		bl	chSchGoSleepS
 709              	.LVL66:
 710              		.loc 3 392 0
 711 001a 686B     		ldr	r0, [r5, #52]
 712 001c 2040     		ands	r0, r0, r4
 713              	.LVL67:
 714              	.L44:
 715              		.loc 3 395 0
 716 001e 6B6B     		ldr	r3, [r5, #52]
 717              		.loc 3 394 0
 718 0020 4442     		negs	r4, r0
 719              	.LVL68:
 720 0022 0440     		ands	r4, r4, r0
 721              	.LVL69:
 722              		.loc 3 395 0
 723 0024 23EA0403 		bic	r3, r3, r4
 724 0028 6B63     		str	r3, [r5, #52]
 725              		.loc 3 396 0
 726 002a FFF7FEFF 		bl	chSysUnlock
 727              	.LVL70:
 728              		.loc 3 399 0
 729 002e 2046     		mov	r0, r4
 730 0030 38BD     		pop	{r3, r4, r5, pc}
 731              	.LVL71:
 732              	.L46:
 733 0032 00BF     		.align	2
 734              	.L45:
 735 0034 00000000 		.word	ch
 736              		.cfi_endproc
 737              	.LFE257:
 738              		.size	chEvtWaitOne, .-chEvtWaitOne
 739              		.section	.text.chEvtWaitAny,"ax",%progbits
 740              		.align	1
 741              		.global	chEvtWaitAny
ARM GAS  C:\cygwin64\tmp\cceZag5Q.s 			page 14


 742              		.syntax unified
 743              		.thumb
 744              		.thumb_func
 745              		.fpu fpv4-sp-d16
 746              		.type	chEvtWaitAny, %function
 747              	chEvtWaitAny:
 748              	.LFB258:
 749              		.loc 3 413 0
 750              		.cfi_startproc
 751              		@ args = 0, pretend = 0, frame = 0
 752              		@ frame_needed = 0, uses_anonymous_args = 0
 753              	.LVL72:
 754              		.loc 3 414 0
 755 0000 0B4B     		ldr	r3, .L49
 756              		.loc 3 413 0
 757 0002 70B5     		push	{r4, r5, r6, lr}
 758              		.cfi_def_cfa_offset 16
 759              		.cfi_offset 4, -16
 760              		.cfi_offset 5, -12
 761              		.cfi_offset 6, -8
 762              		.cfi_offset 14, -4
 763              		.loc 3 414 0
 764 0004 9D69     		ldr	r5, [r3, #24]
 765              	.LVL73:
 766              		.loc 3 413 0
 767 0006 0646     		mov	r6, r0
 768              		.loc 3 417 0
 769 0008 FFF7FEFF 		bl	chSysLock
 770              	.LVL74:
 771              		.loc 3 418 0
 772 000c 6C6B     		ldr	r4, [r5, #52]
 773              	.LVL75:
 774              		.loc 3 419 0
 775 000e 3440     		ands	r4, r6, r4
 776              	.LVL76:
 777 0010 05D1     		bne	.L48
 778              		.loc 3 420 0
 779 0012 6E62     		str	r6, [r5, #36]
 780              		.loc 3 421 0
 781 0014 0A20     		movs	r0, #10
 782 0016 FFF7FEFF 		bl	chSchGoSleepS
 783              	.LVL77:
 784              		.loc 3 422 0
 785 001a 6C6B     		ldr	r4, [r5, #52]
 786              	.LVL78:
 787 001c 3440     		ands	r4, r4, r6
 788              	.LVL79:
 789              	.L48:
 790              		.loc 3 424 0
 791 001e 6B6B     		ldr	r3, [r5, #52]
 792 0020 23EA0403 		bic	r3, r3, r4
 793 0024 6B63     		str	r3, [r5, #52]
 794              		.loc 3 425 0
 795 0026 FFF7FEFF 		bl	chSysUnlock
 796              	.LVL80:
 797              		.loc 3 428 0
 798 002a 2046     		mov	r0, r4
ARM GAS  C:\cygwin64\tmp\cceZag5Q.s 			page 15


 799 002c 70BD     		pop	{r4, r5, r6, pc}
 800              	.LVL81:
 801              	.L50:
 802 002e 00BF     		.align	2
 803              	.L49:
 804 0030 00000000 		.word	ch
 805              		.cfi_endproc
 806              	.LFE258:
 807              		.size	chEvtWaitAny, .-chEvtWaitAny
 808              		.section	.text.chEvtWaitAll,"ax",%progbits
 809              		.align	1
 810              		.global	chEvtWaitAll
 811              		.syntax unified
 812              		.thumb
 813              		.thumb_func
 814              		.fpu fpv4-sp-d16
 815              		.type	chEvtWaitAll, %function
 816              	chEvtWaitAll:
 817              	.LFB259:
 818              		.loc 3 441 0
 819              		.cfi_startproc
 820              		@ args = 0, pretend = 0, frame = 0
 821              		@ frame_needed = 0, uses_anonymous_args = 0
 822              	.LVL82:
 823 0000 38B5     		push	{r3, r4, r5, lr}
 824              		.cfi_def_cfa_offset 16
 825              		.cfi_offset 3, -16
 826              		.cfi_offset 4, -12
 827              		.cfi_offset 5, -8
 828              		.cfi_offset 14, -4
 829              		.loc 3 442 0
 830 0002 0A4B     		ldr	r3, .L53
 831 0004 9D69     		ldr	r5, [r3, #24]
 832              	.LVL83:
 833              		.loc 3 441 0
 834 0006 0446     		mov	r4, r0
 835              		.loc 3 444 0
 836 0008 FFF7FEFF 		bl	chSysLock
 837              	.LVL84:
 838              		.loc 3 445 0
 839 000c 6B6B     		ldr	r3, [r5, #52]
 840 000e 34EA0303 		bics	r3, r4, r3
 841 0012 03D0     		beq	.L52
 842              		.loc 3 446 0
 843 0014 6C62     		str	r4, [r5, #36]
 844              		.loc 3 447 0
 845 0016 0B20     		movs	r0, #11
 846 0018 FFF7FEFF 		bl	chSchGoSleepS
 847              	.LVL85:
 848              	.L52:
 849              		.loc 3 449 0
 850 001c 6B6B     		ldr	r3, [r5, #52]
 851 001e 23EA0403 		bic	r3, r3, r4
 852 0022 6B63     		str	r3, [r5, #52]
 853              		.loc 3 450 0
 854 0024 FFF7FEFF 		bl	chSysUnlock
 855              	.LVL86:
ARM GAS  C:\cygwin64\tmp\cceZag5Q.s 			page 16


 856              		.loc 3 453 0
 857 0028 2046     		mov	r0, r4
 858 002a 38BD     		pop	{r3, r4, r5, pc}
 859              	.LVL87:
 860              	.L54:
 861              		.align	2
 862              	.L53:
 863 002c 00000000 		.word	ch
 864              		.cfi_endproc
 865              	.LFE259:
 866              		.size	chEvtWaitAll, .-chEvtWaitAll
 867              		.section	.text.chEvtWaitOneTimeout,"ax",%progbits
 868              		.align	1
 869              		.global	chEvtWaitOneTimeout
 870              		.syntax unified
 871              		.thumb
 872              		.thumb_func
 873              		.fpu fpv4-sp-d16
 874              		.type	chEvtWaitOneTimeout, %function
 875              	chEvtWaitOneTimeout:
 876              	.LFB260:
 877              		.loc 3 479 0
 878              		.cfi_startproc
 879              		@ args = 0, pretend = 0, frame = 0
 880              		@ frame_needed = 0, uses_anonymous_args = 0
 881              	.LVL88:
 882 0000 F8B5     		push	{r3, r4, r5, r6, r7, lr}
 883              		.cfi_def_cfa_offset 24
 884              		.cfi_offset 3, -24
 885              		.cfi_offset 4, -20
 886              		.cfi_offset 5, -16
 887              		.cfi_offset 6, -12
 888              		.cfi_offset 7, -8
 889              		.cfi_offset 14, -4
 890              		.loc 3 480 0
 891 0002 0F4B     		ldr	r3, .L61
 892 0004 9D69     		ldr	r5, [r3, #24]
 893              	.LVL89:
 894              		.loc 3 479 0
 895 0006 0646     		mov	r6, r0
 896 0008 0F46     		mov	r7, r1
 897              		.loc 3 483 0
 898 000a FFF7FEFF 		bl	chSysLock
 899              	.LVL90:
 900              		.loc 3 484 0
 901 000e 6C6B     		ldr	r4, [r5, #52]
 902              	.LVL91:
 903              		.loc 3 485 0
 904 0010 3440     		ands	r4, r6, r4
 905              	.LVL92:
 906 0012 0DD1     		bne	.L56
 907              		.loc 3 486 0
 908 0014 1FB9     		cbnz	r7, .L57
 909              	.L60:
 910              		.loc 3 499 0
 911 0016 FFF7FEFF 		bl	chSysUnlock
 912              	.LVL93:
ARM GAS  C:\cygwin64\tmp\cceZag5Q.s 			page 17


 913              		.loc 3 502 0
 914 001a 2046     		mov	r0, r4
 915 001c F8BD     		pop	{r3, r4, r5, r6, r7, pc}
 916              	.LVL94:
 917              	.L57:
 918              		.loc 3 490 0
 919 001e 6E62     		str	r6, [r5, #36]
 920              		.loc 3 491 0
 921 0020 3946     		mov	r1, r7
 922 0022 0A20     		movs	r0, #10
 923 0024 FFF7FEFF 		bl	chSchGoSleepTimeoutS
 924              	.LVL95:
 925 0028 0028     		cmp	r0, #0
 926 002a F4DB     		blt	.L60
 927              		.loc 3 495 0
 928 002c 6C6B     		ldr	r4, [r5, #52]
 929              	.LVL96:
 930 002e 3440     		ands	r4, r4, r6
 931              	.LVL97:
 932              	.L56:
 933              		.loc 3 497 0
 934 0030 6342     		negs	r3, r4
 935 0032 1C40     		ands	r4, r4, r3
 936              	.LVL98:
 937              		.loc 3 498 0
 938 0034 6B6B     		ldr	r3, [r5, #52]
 939 0036 23EA0403 		bic	r3, r3, r4
 940 003a 6B63     		str	r3, [r5, #52]
 941 003c EBE7     		b	.L60
 942              	.L62:
 943 003e 00BF     		.align	2
 944              	.L61:
 945 0040 00000000 		.word	ch
 946              		.cfi_endproc
 947              	.LFE260:
 948              		.size	chEvtWaitOneTimeout, .-chEvtWaitOneTimeout
 949              		.section	.text.chEvtWaitAnyTimeout,"ax",%progbits
 950              		.align	1
 951              		.global	chEvtWaitAnyTimeout
 952              		.syntax unified
 953              		.thumb
 954              		.thumb_func
 955              		.fpu fpv4-sp-d16
 956              		.type	chEvtWaitAnyTimeout, %function
 957              	chEvtWaitAnyTimeout:
 958              	.LFB261:
 959              		.loc 3 522 0
 960              		.cfi_startproc
 961              		@ args = 0, pretend = 0, frame = 0
 962              		@ frame_needed = 0, uses_anonymous_args = 0
 963              	.LVL99:
 964 0000 F8B5     		push	{r3, r4, r5, r6, r7, lr}
 965              		.cfi_def_cfa_offset 24
 966              		.cfi_offset 3, -24
 967              		.cfi_offset 4, -20
 968              		.cfi_offset 5, -16
 969              		.cfi_offset 6, -12
ARM GAS  C:\cygwin64\tmp\cceZag5Q.s 			page 18


 970              		.cfi_offset 7, -8
 971              		.cfi_offset 14, -4
 972              		.loc 3 523 0
 973 0002 0E4B     		ldr	r3, .L69
 974 0004 9D69     		ldr	r5, [r3, #24]
 975              	.LVL100:
 976              		.loc 3 522 0
 977 0006 0646     		mov	r6, r0
 978 0008 0F46     		mov	r7, r1
 979              		.loc 3 526 0
 980 000a FFF7FEFF 		bl	chSysLock
 981              	.LVL101:
 982              		.loc 3 527 0
 983 000e 6C6B     		ldr	r4, [r5, #52]
 984              	.LVL102:
 985              		.loc 3 528 0
 986 0010 3440     		ands	r4, r6, r4
 987              	.LVL103:
 988 0012 0DD1     		bne	.L64
 989              		.loc 3 529 0
 990 0014 1FB9     		cbnz	r7, .L65
 991              	.L68:
 992              		.loc 3 541 0
 993 0016 FFF7FEFF 		bl	chSysUnlock
 994              	.LVL104:
 995              		.loc 3 544 0
 996 001a 2046     		mov	r0, r4
 997 001c F8BD     		pop	{r3, r4, r5, r6, r7, pc}
 998              	.LVL105:
 999              	.L65:
 1000              		.loc 3 533 0
 1001 001e 6E62     		str	r6, [r5, #36]
 1002              		.loc 3 534 0
 1003 0020 3946     		mov	r1, r7
 1004 0022 0A20     		movs	r0, #10
 1005 0024 FFF7FEFF 		bl	chSchGoSleepTimeoutS
 1006              	.LVL106:
 1007 0028 0028     		cmp	r0, #0
 1008 002a F4DB     		blt	.L68
 1009              		.loc 3 538 0
 1010 002c 6C6B     		ldr	r4, [r5, #52]
 1011              	.LVL107:
 1012 002e 3440     		ands	r4, r4, r6
 1013              	.LVL108:
 1014              	.L64:
 1015              		.loc 3 540 0
 1016 0030 6B6B     		ldr	r3, [r5, #52]
 1017 0032 23EA0403 		bic	r3, r3, r4
 1018 0036 6B63     		str	r3, [r5, #52]
 1019 0038 EDE7     		b	.L68
 1020              	.L70:
 1021 003a 00BF     		.align	2
 1022              	.L69:
 1023 003c 00000000 		.word	ch
 1024              		.cfi_endproc
 1025              	.LFE261:
 1026              		.size	chEvtWaitAnyTimeout, .-chEvtWaitAnyTimeout
ARM GAS  C:\cygwin64\tmp\cceZag5Q.s 			page 19


 1027              		.section	.text.chEvtWaitAllTimeout,"ax",%progbits
 1028              		.align	1
 1029              		.global	chEvtWaitAllTimeout
 1030              		.syntax unified
 1031              		.thumb
 1032              		.thumb_func
 1033              		.fpu fpv4-sp-d16
 1034              		.type	chEvtWaitAllTimeout, %function
 1035              	chEvtWaitAllTimeout:
 1036              	.LFB262:
 1037              		.loc 3 563 0
 1038              		.cfi_startproc
 1039              		@ args = 0, pretend = 0, frame = 0
 1040              		@ frame_needed = 0, uses_anonymous_args = 0
 1041              	.LVL109:
 1042              		.loc 3 564 0
 1043 0000 0F4B     		ldr	r3, .L76
 1044              		.loc 3 563 0
 1045 0002 70B5     		push	{r4, r5, r6, lr}
 1046              		.cfi_def_cfa_offset 16
 1047              		.cfi_offset 4, -16
 1048              		.cfi_offset 5, -12
 1049              		.cfi_offset 6, -8
 1050              		.cfi_offset 14, -4
 1051              		.loc 3 564 0
 1052 0004 9D69     		ldr	r5, [r3, #24]
 1053              	.LVL110:
 1054              		.loc 3 563 0
 1055 0006 0446     		mov	r4, r0
 1056 0008 0E46     		mov	r6, r1
 1057              		.loc 3 566 0
 1058 000a FFF7FEFF 		bl	chSysLock
 1059              	.LVL111:
 1060              		.loc 3 567 0
 1061 000e 6B6B     		ldr	r3, [r5, #52]
 1062 0010 34EA0303 		bics	r3, r4, r3
 1063 0014 0CD0     		beq	.L72
 1064              		.loc 3 568 0
 1065 0016 26B9     		cbnz	r6, .L73
 1066              	.L75:
 1067              		.loc 3 569 0
 1068 0018 FFF7FEFF 		bl	chSysUnlock
 1069              	.LVL112:
 1070              		.loc 3 570 0
 1071 001c 0024     		movs	r4, #0
 1072              	.LVL113:
 1073              	.L74:
 1074              		.loc 3 582 0
 1075 001e 2046     		mov	r0, r4
 1076 0020 70BD     		pop	{r4, r5, r6, pc}
 1077              	.LVL114:
 1078              	.L73:
 1079              		.loc 3 572 0
 1080 0022 6C62     		str	r4, [r5, #36]
 1081              		.loc 3 573 0
 1082 0024 3146     		mov	r1, r6
 1083 0026 0B20     		movs	r0, #11
ARM GAS  C:\cygwin64\tmp\cceZag5Q.s 			page 20


 1084 0028 FFF7FEFF 		bl	chSchGoSleepTimeoutS
 1085              	.LVL115:
 1086 002c 0028     		cmp	r0, #0
 1087 002e F3DB     		blt	.L75
 1088              	.L72:
 1089              		.loc 3 578 0
 1090 0030 6B6B     		ldr	r3, [r5, #52]
 1091 0032 23EA0403 		bic	r3, r3, r4
 1092 0036 6B63     		str	r3, [r5, #52]
 1093              		.loc 3 579 0
 1094 0038 FFF7FEFF 		bl	chSysUnlock
 1095              	.LVL116:
 1096              		.loc 3 581 0
 1097 003c EFE7     		b	.L74
 1098              	.L77:
 1099 003e 00BF     		.align	2
 1100              	.L76:
 1101 0040 00000000 		.word	ch
 1102              		.cfi_endproc
 1103              	.LFE262:
 1104              		.size	chEvtWaitAllTimeout, .-chEvtWaitAllTimeout
 1105              		.text
 1106              	.Letext0:
 1107              		.file 4 "c:\\program files (x86)\\gnu tools arm embedded\\6 2017-q2-update\\arm-none-eabi\\include
 1108              		.file 5 "c:\\program files (x86)\\gnu tools arm embedded\\6 2017-q2-update\\arm-none-eabi\\include
 1109              		.file 6 "../../modules/ChibiOS/os/common/ports/ARMCMx/compilers/GCC/chtypes.h"
 1110              		.file 7 "../../modules/ChibiOS/os/rt/include/chsystypes.h"
 1111              		.file 8 "../../modules/ChibiOS/os/rt/include/chschd.h"
 1112              		.file 9 "../../modules/ChibiOS/os/common/ext/CMSIS/include/core_cm4.h"
 1113              		.file 10 "../../modules/ChibiOS/os/common/ext/CMSIS/ST/STM32F4xx/system_stm32f4xx.h"
 1114              		.file 11 "../../modules/ChibiOS/os/common/ports/ARMCMx/chcore.h"
 1115              		.file 12 "../../modules/ChibiOS/os/common/ports/ARMCMx/chcore_v7m.h"
 1116              		.file 13 "../../modules/ChibiOS/os/rt/include/chtm.h"
 1117              		.file 14 "../../modules/ChibiOS/os/rt/include/chstats.h"
 1118              		.file 15 "../../modules/ChibiOS/os/rt/include/chsem.h"
 1119              		.file 16 "../../modules/ChibiOS/os/rt/include/chmtx.h"
 1120              		.file 17 "../../modules/ChibiOS/os/rt/include/chregistry.h"
 1121              		.file 18 "../../modules/ChibiOS/os/rt/include/chevents.h"