ARM GAS  C:\cygwin64\tmp\cceZag5Q.s 			page 1


   1              		.cpu cortex-m4
   2              		.eabi_attribute 27, 1
   3              		.eabi_attribute 28, 1
   4              		.eabi_attribute 20, 1
   5              		.eabi_attribute 21, 1
   6              		.eabi_attribute 23, 3
   7              		.eabi_attribute 24, 1
   8              		.eabi_attribute 25, 1
   9              		.eabi_attribute 26, 1
  10              		.eabi_attribute 30, 4
  11              		.eabi_attribute 34, 1
  12              		.eabi_attribute 18, 4
  13              		.file	"chevents.c"
  14              		.text
  15              	.Ltext0:
  16              		.cfi_sections	.debug_frame
  17              		.section	.text.chSysLock,"ax",%progbits
  18              		.align	1
  19              		.syntax unified
  20              		.thumb
  21              		.thumb_func
  22              		.fpu fpv4-sp-d16
  23              		.type	chSysLock, %function
  24              	chSysLock:
  25              	.LFB167:
  26              		.file 1 "../../modules/ChibiOS/os/rt/include/chsys.h"
  27              		.loc 1 374 0
  28              		.cfi_startproc
  29              		@ args = 0, pretend = 0, frame = 0
  30              		@ frame_needed = 0, uses_anonymous_args = 0
  31              		@ link register save eliminated.
  32              	.LVL0:
  33              	.LBB14:
  34              	.LBB15:
  35              	.LBB16:
  36              		.file 2 "../../modules/ChibiOS/os/common/ext/CMSIS/include/cmsis_gcc.h"
  37              		.loc 2 264 0
  38 0000 2023     		movs	r3, #32
  39              		.syntax unified
  40              	@ 264 "../../modules/ChibiOS/os/common/ext/CMSIS/include/cmsis_gcc.h" 1
  41 0002 83F31188 		MSR basepri, r3
  42              	@ 0 "" 2
  43              	.LVL1:
  44              		.thumb
  45              		.syntax unified
  46              	.LBE16:
  47              	.LBE15:
  48              	.LBE14:
  49              		.loc 1 377 0
  50 0006 FFF7FEBF 		b	_stats_start_measure_crit_thd
  51              	.LVL2:
  52              		.cfi_endproc
  53              	.LFE167:
  54              		.size	chSysLock, .-chSysLock
  55              		.section	.text.chSysUnlock,"ax",%progbits
  56              		.align	1
  57              		.syntax unified
ARM GAS  C:\cygwin64\tmp\cceZag5Q.s 			page 2


  58              		.thumb
  59              		.thumb_func
  60              		.fpu fpv4-sp-d16
  61              		.type	chSysUnlock, %function
  62              	chSysUnlock:
  63              	.LFB168:
  64              		.loc 1 386 0
  65              		.cfi_startproc
  66              		@ args = 0, pretend = 0, frame = 0
  67              		@ frame_needed = 0, uses_anonymous_args = 0
  68 0000 08B5     		push	{r3, lr}
  69              		.cfi_def_cfa_offset 8
  70              		.cfi_offset 3, -8
  71              		.cfi_offset 14, -4
  72              		.loc 1 389 0
  73 0002 FFF7FEFF 		bl	_stats_stop_measure_crit_thd
  74              	.LVL3:
  75              	.LBB17:
  76              	.LBB18:
  77              	.LBB19:
  78              		.loc 2 264 0
  79 0006 0023     		movs	r3, #0
  80              		.syntax unified
  81              	@ 264 "../../modules/ChibiOS/os/common/ext/CMSIS/include/cmsis_gcc.h" 1
  82 0008 83F31188 		MSR basepri, r3
  83              	@ 0 "" 2
  84              	.LVL4:
  85              		.thumb
  86              		.syntax unified
  87 000c 08BD     		pop	{r3, pc}
  88              	.LBE19:
  89              	.LBE18:
  90              	.LBE17:
  91              		.cfi_endproc
  92              	.LFE168:
  93              		.size	chSysUnlock, .-chSysUnlock
  94              		.section	.text.chEvtRegisterMaskWithFlags,"ax",%progbits
  95              		.align	1
  96              		.global	chEvtRegisterMaskWithFlags
  97              		.syntax unified
  98              		.thumb
  99              		.thumb_func
 100              		.fpu fpv4-sp-d16
 101              		.type	chEvtRegisterMaskWithFlags, %function
 102              	chEvtRegisterMaskWithFlags:
 103              	.LFB246:
 104              		.file 3 "../../modules/ChibiOS/os/rt/src/chevents.c"
 105              		.loc 3 106 0
 106              		.cfi_startproc
 107              		@ args = 0, pretend = 0, frame = 0
 108              		@ frame_needed = 0, uses_anonymous_args = 0
 109              	.LVL5:
 110 0000 F8B5     		push	{r3, r4, r5, r6, r7, lr}
 111              		.cfi_def_cfa_offset 24
 112              		.cfi_offset 3, -24
 113              		.cfi_offset 4, -20
 114              		.cfi_offset 5, -16
ARM GAS  C:\cygwin64\tmp\cceZag5Q.s 			page 3


 115              		.cfi_offset 6, -12
 116              		.cfi_offset 7, -8
 117              		.cfi_offset 14, -4
 118              		.loc 3 106 0
 119 0002 0546     		mov	r5, r0
 120 0004 0C46     		mov	r4, r1
 121 0006 1E46     		mov	r6, r3
 122 0008 1746     		mov	r7, r2
 123              		.loc 3 110 0
 124 000a FFF7FEFF 		bl	chSysLock
 125              	.LVL6:
 126              		.loc 3 111 0
 127 000e 2B68     		ldr	r3, [r5]
 128 0010 2360     		str	r3, [r4]
 129              		.loc 3 113 0
 130 0012 064B     		ldr	r3, .L4
 131              		.loc 3 112 0
 132 0014 2C60     		str	r4, [r5]
 133              		.loc 3 113 0
 134 0016 9B69     		ldr	r3, [r3, #24]
 135 0018 6360     		str	r3, [r4, #4]
 136              		.loc 3 115 0
 137 001a 0023     		movs	r3, #0
 138              		.loc 3 114 0
 139 001c A760     		str	r7, [r4, #8]
 140              		.loc 3 115 0
 141 001e E360     		str	r3, [r4, #12]
 142              		.loc 3 116 0
 143 0020 2661     		str	r6, [r4, #16]
 144              		.loc 3 118 0
 145 0022 BDE8F840 		pop	{r3, r4, r5, r6, r7, lr}
 146              		.cfi_restore 14
 147              		.cfi_restore 7
 148              		.cfi_restore 6
 149              		.cfi_restore 5
 150              		.cfi_restore 4
 151              		.cfi_restore 3
 152              		.cfi_def_cfa_offset 0
 153              	.LVL7:
 154              		.loc 3 117 0
 155 0026 FFF7FEBF 		b	chSysUnlock
 156              	.LVL8:
 157              	.L5:
 158 002a 00BF     		.align	2
 159              	.L4:
 160 002c 00000000 		.word	ch
 161              		.cfi_endproc
 162              	.LFE246:
 163              		.size	chEvtRegisterMaskWithFlags, .-chEvtRegisterMaskWithFlags
 164              		.section	.text.chEvtUnregister,"ax",%progbits
 165              		.align	1
 166              		.global	chEvtUnregister
 167              		.syntax unified
 168              		.thumb
 169              		.thumb_func
 170              		.fpu fpv4-sp-d16
 171              		.type	chEvtUnregister, %function
ARM GAS  C:\cygwin64\tmp\cceZag5Q.s 			page 4


 172              	chEvtUnregister:
 173              	.LFB247:
 174              		.loc 3 133 0
 175              		.cfi_startproc
 176              		@ args = 0, pretend = 0, frame = 0
 177              		@ frame_needed = 0, uses_anonymous_args = 0
 178              	.LVL9:
 179 0000 38B5     		push	{r3, r4, r5, lr}
 180              		.cfi_def_cfa_offset 16
 181              		.cfi_offset 3, -16
 182              		.cfi_offset 4, -12
 183              		.cfi_offset 5, -8
 184              		.cfi_offset 14, -4
 185              		.loc 3 133 0
 186 0002 0446     		mov	r4, r0
 187              	.LVL10:
 188 0004 0D46     		mov	r5, r1
 189              		.loc 3 141 0
 190 0006 FFF7FEFF 		bl	chSysLock
 191              	.LVL11:
 192              		.loc 3 139 0
 193 000a 2246     		mov	r2, r4
 194              	.LVL12:
 195              	.L7:
 196              		.loc 3 143 0
 197 000c 1368     		ldr	r3, [r2]
 198 000e 9C42     		cmp	r4, r3
 199 0010 03D0     		beq	.L8
 200              		.loc 3 145 0
 201 0012 AB42     		cmp	r3, r5
 202 0014 05D1     		bne	.L10
 203              		.loc 3 146 0
 204 0016 2B68     		ldr	r3, [r5]
 205 0018 1360     		str	r3, [r2]
 206              	.L8:
 207              		.loc 3 152 0
 208 001a BDE83840 		pop	{r3, r4, r5, lr}
 209              		.cfi_remember_state
 210              		.cfi_restore 14
 211              		.cfi_restore 5
 212              		.cfi_restore 4
 213              		.cfi_restore 3
 214              		.cfi_def_cfa_offset 0
 215              	.LVL13:
 216              		.loc 3 151 0
 217 001e FFF7FEBF 		b	chSysUnlock
 218              	.LVL14:
 219              	.L10:
 220              		.cfi_restore_state
 221 0022 1A46     		mov	r2, r3
 222              	.LVL15:
 223 0024 F2E7     		b	.L7
 224              		.cfi_endproc
 225              	.LFE247:
 226              		.size	chEvtUnregister, .-chEvtUnregister
 227              		.section	.text.chEvtGetAndClearEvents,"ax",%progbits
 228              		.align	1
ARM GAS  C:\cygwin64\tmp\cceZag5Q.s 			page 5


 229              		.global	chEvtGetAndClearEvents
 230              		.syntax unified
 231              		.thumb
 232              		.thumb_func
 233              		.fpu fpv4-sp-d16
 234              		.type	chEvtGetAndClearEvents, %function
 235              	chEvtGetAndClearEvents:
 236              	.LFB248:
 237              		.loc 3 162 0
 238              		.cfi_startproc
 239              		@ args = 0, pretend = 0, frame = 0
 240              		@ frame_needed = 0, uses_anonymous_args = 0
 241              	.LVL16:
 242 0000 38B5     		push	{r3, r4, r5, lr}
 243              		.cfi_def_cfa_offset 16
 244              		.cfi_offset 3, -16
 245              		.cfi_offset 4, -12
 246              		.cfi_offset 5, -8
 247              		.cfi_offset 14, -4
 248              		.loc 3 162 0
 249 0002 0446     		mov	r4, r0
 250              		.loc 3 165 0
 251 0004 FFF7FEFF 		bl	chSysLock
 252              	.LVL17:
 253              		.loc 3 166 0
 254 0008 054B     		ldr	r3, .L12
 255 000a 9A69     		ldr	r2, [r3, #24]
 256 000c 536B     		ldr	r3, [r2, #52]
 257 000e 03EA0405 		and	r5, r3, r4
 258              	.LVL18:
 259              		.loc 3 167 0
 260 0012 23EA0403 		bic	r3, r3, r4
 261 0016 5363     		str	r3, [r2, #52]
 262              		.loc 3 168 0
 263 0018 FFF7FEFF 		bl	chSysUnlock
 264              	.LVL19:
 265              		.loc 3 171 0
 266 001c 2846     		mov	r0, r5
 267 001e 38BD     		pop	{r3, r4, r5, pc}
 268              	.LVL20:
 269              	.L13:
 270              		.align	2
 271              	.L12:
 272 0020 00000000 		.word	ch
 273              		.cfi_endproc
 274              	.LFE248:
 275              		.size	chEvtGetAndClearEvents, .-chEvtGetAndClearEvents
 276              		.section	.text.chEvtAddEvents,"ax",%progbits
 277              		.align	1
 278              		.global	chEvtAddEvents
 279              		.syntax unified
 280              		.thumb
 281              		.thumb_func
 282              		.fpu fpv4-sp-d16
 283              		.type	chEvtAddEvents, %function
 284              	chEvtAddEvents:
 285              	.LFB249:
ARM GAS  C:\cygwin64\tmp\cceZag5Q.s 			page 6


 286              		.loc 3 182 0
 287              		.cfi_startproc
 288              		@ args = 0, pretend = 0, frame = 0
 289              		@ frame_needed = 0, uses_anonymous_args = 0
 290              	.LVL21:
 291 0000 10B5     		push	{r4, lr}
 292              		.cfi_def_cfa_offset 8
 293              		.cfi_offset 4, -8
 294              		.cfi_offset 14, -4
 295              		.loc 3 182 0
 296 0002 0446     		mov	r4, r0
 297              		.loc 3 184 0
 298 0004 FFF7FEFF 		bl	chSysLock
 299              	.LVL22:
 300              		.loc 3 185 0
 301 0008 044B     		ldr	r3, .L15
 302 000a 9B69     		ldr	r3, [r3, #24]
 303 000c 586B     		ldr	r0, [r3, #52]
 304 000e 0443     		orrs	r4, r4, r0
 305              	.LVL23:
 306 0010 5C63     		str	r4, [r3, #52]
 307              	.LVL24:
 308              		.loc 3 187 0
 309 0012 FFF7FEFF 		bl	chSysUnlock
 310              	.LVL25:
 311              		.loc 3 190 0
 312 0016 2046     		mov	r0, r4
 313 0018 10BD     		pop	{r4, pc}
 314              	.LVL26:
 315              	.L16:
 316 001a 00BF     		.align	2
 317              	.L15:
 318 001c 00000000 		.word	ch
 319              		.cfi_endproc
 320              	.LFE249:
 321              		.size	chEvtAddEvents, .-chEvtAddEvents
 322              		.section	.text.chEvtGetAndClearFlags,"ax",%progbits
 323              		.align	1
 324              		.global	chEvtGetAndClearFlags
 325              		.syntax unified
 326              		.thumb
 327              		.thumb_func
 328              		.fpu fpv4-sp-d16
 329              		.type	chEvtGetAndClearFlags, %function
 330              	chEvtGetAndClearFlags:
 331              	.LFB251:
 332              		.loc 3 241 0
 333              		.cfi_startproc
 334              		@ args = 0, pretend = 0, frame = 0
 335              		@ frame_needed = 0, uses_anonymous_args = 0
 336              	.LVL27:
 337 0000 38B5     		push	{r3, r4, r5, lr}
 338              		.cfi_def_cfa_offset 16
 339              		.cfi_offset 3, -16
 340              		.cfi_offset 4, -12
 341              		.cfi_offset 5, -8
 342              		.cfi_offset 14, -4
ARM GAS  C:\cygwin64\tmp\cceZag5Q.s 			page 7


 343              		.loc 3 241 0
 344 0002 0446     		mov	r4, r0
 345              		.loc 3 244 0
 346 0004 FFF7FEFF 		bl	chSysLock
 347              	.LVL28:
 348              		.loc 3 245 0
 349 0008 E568     		ldr	r5, [r4, #12]
 350              	.LVL29:
 351              		.loc 3 246 0
 352 000a 0023     		movs	r3, #0
 353 000c E360     		str	r3, [r4, #12]
 354              		.loc 3 247 0
 355 000e FFF7FEFF 		bl	chSysUnlock
 356              	.LVL30:
 357              		.loc 3 250 0
 358 0012 2846     		mov	r0, r5
 359 0014 38BD     		pop	{r3, r4, r5, pc}
 360              		.cfi_endproc
 361              	.LFE251:
 362              		.size	chEvtGetAndClearFlags, .-chEvtGetAndClearFlags
 363              		.section	.text.chEvtSignalI,"ax",%progbits
 364              		.align	1
 365              		.global	chEvtSignalI
 366              		.syntax unified
 367              		.thumb
 368              		.thumb_func
 369              		.fpu fpv4-sp-d16
 370              		.type	chEvtSignalI, %function
 371              	chEvtSignalI:
 372              	.LFB253:
 373              		.loc 3 282 0
 374              		.cfi_startproc
 375              		@ args = 0, pretend = 0, frame = 0
 376              		@ frame_needed = 0, uses_anonymous_args = 0
 377              		@ link register save eliminated.
 378              	.LVL31:
 379              		.loc 3 287 0
 380 0000 436B     		ldr	r3, [r0, #52]
 381 0002 1943     		orrs	r1, r1, r3
 382              	.LVL32:
 383              		.loc 3 289 0
 384 0004 90F82030 		ldrb	r3, [r0, #32]	@ zero_extendqisi2
 385              		.loc 3 287 0
 386 0008 4163     		str	r1, [r0, #52]
 387              		.loc 3 289 0
 388 000a 0A2B     		cmp	r3, #10
 389 000c 03D1     		bne	.L19
 390              		.loc 3 290 0 discriminator 1
 391 000e 436A     		ldr	r3, [r0, #36]
 392              		.loc 3 289 0 discriminator 1
 393 0010 1942     		tst	r1, r3
 394 0012 05D1     		bne	.L20
 395 0014 7047     		bx	lr
 396              	.L19:
 397              		.loc 3 290 0
 398 0016 0B2B     		cmp	r3, #11
 399 0018 06D1     		bne	.L18
ARM GAS  C:\cygwin64\tmp\cceZag5Q.s 			page 8


 400              		.loc 3 292 0
 401 001a 436A     		ldr	r3, [r0, #36]
 402              		.loc 3 291 0
 403 001c 8B43     		bics	r3, r3, r1
 404 001e 03D1     		bne	.L18
 405              	.L20:
 406              		.loc 3 293 0
 407 0020 0023     		movs	r3, #0
 408 0022 4362     		str	r3, [r0, #36]
 409              		.loc 3 294 0
 410 0024 FFF7FEBF 		b	chSchReadyI
 411              	.LVL33:
 412              	.L18:
 413 0028 7047     		bx	lr
 414              		.cfi_endproc
 415              	.LFE253:
 416              		.size	chEvtSignalI, .-chEvtSignalI
 417              		.section	.text.chEvtBroadcastFlagsI,"ax",%progbits
 418              		.align	1
 419              		.global	chEvtBroadcastFlagsI
 420              		.syntax unified
 421              		.thumb
 422              		.thumb_func
 423              		.fpu fpv4-sp-d16
 424              		.type	chEvtBroadcastFlagsI, %function
 425              	chEvtBroadcastFlagsI:
 426              	.LFB250:
 427              		.loc 3 209 0
 428              		.cfi_startproc
 429              		@ args = 0, pretend = 0, frame = 0
 430              		@ frame_needed = 0, uses_anonymous_args = 0
 431              	.LVL34:
 432 0000 70B5     		push	{r4, r5, r6, lr}
 433              		.cfi_def_cfa_offset 16
 434              		.cfi_offset 4, -16
 435              		.cfi_offset 5, -12
 436              		.cfi_offset 6, -8
 437              		.cfi_offset 14, -4
 438              		.loc 3 215 0
 439 0002 0468     		ldr	r4, [r0]
 440              	.LVL35:
 441              		.loc 3 209 0
 442 0004 0546     		mov	r5, r0
 443 0006 0E46     		mov	r6, r1
 444              	.LVL36:
 445              	.L23:
 446              		.loc 3 217 0
 447 0008 AC42     		cmp	r4, r5
 448 000a 00D1     		bne	.L26
 449              		.loc 3 228 0
 450 000c 70BD     		pop	{r4, r5, r6, pc}
 451              	.LVL37:
 452              	.L26:
 453              		.loc 3 219 0
 454 000e E368     		ldr	r3, [r4, #12]
 455 0010 3343     		orrs	r3, r3, r6
 456 0012 E360     		str	r3, [r4, #12]
ARM GAS  C:\cygwin64\tmp\cceZag5Q.s 			page 9


 457              		.loc 3 222 0
 458 0014 16B1     		cbz	r6, .L24
 459              		.loc 3 223 0 discriminator 1
 460 0016 2269     		ldr	r2, [r4, #16]
 461              		.loc 3 222 0 discriminator 1
 462 0018 1342     		tst	r3, r2
 463 001a 03D0     		beq	.L25
 464              	.L24:
 465              		.loc 3 224 0
 466 001c A168     		ldr	r1, [r4, #8]
 467 001e 6068     		ldr	r0, [r4, #4]
 468 0020 FFF7FEFF 		bl	chEvtSignalI
 469              	.LVL38:
 470              	.L25:
 471              		.loc 3 226 0
 472 0024 2468     		ldr	r4, [r4]
 473              	.LVL39:
 474 0026 EFE7     		b	.L23
 475              		.cfi_endproc
 476              	.LFE250:
 477              		.size	chEvtBroadcastFlagsI, .-chEvtBroadcastFlagsI
 478              		.section	.text.chEvtSignal,"ax",%progbits
 479              		.align	1
 480              		.global	chEvtSignal
 481              		.syntax unified
 482              		.thumb
 483              		.thumb_func
 484              		.fpu fpv4-sp-d16
 485              		.type	chEvtSignal, %function
 486              	chEvtSignal:
 487              	.LFB252:
 488              		.loc 3 260 0
 489              		.cfi_startproc
 490              		@ args = 0, pretend = 0, frame = 0
 491              		@ frame_needed = 0, uses_anonymous_args = 0
 492              	.LVL40:
 493 0000 38B5     		push	{r3, r4, r5, lr}
 494              		.cfi_def_cfa_offset 16
 495              		.cfi_offset 3, -16
 496              		.cfi_offset 4, -12
 497              		.cfi_offset 5, -8
 498              		.cfi_offset 14, -4
 499              		.loc 3 260 0
 500 0002 0446     		mov	r4, r0
 501 0004 0D46     		mov	r5, r1
 502              		.loc 3 264 0
 503 0006 FFF7FEFF 		bl	chSysLock
 504              	.LVL41:
 505              		.loc 3 265 0
 506 000a 2946     		mov	r1, r5
 507 000c 2046     		mov	r0, r4
 508 000e FFF7FEFF 		bl	chEvtSignalI
 509              	.LVL42:
 510              		.loc 3 266 0
 511 0012 FFF7FEFF 		bl	chSchRescheduleS
 512              	.LVL43:
 513              		.loc 3 268 0
ARM GAS  C:\cygwin64\tmp\cceZag5Q.s 			page 10


 514 0016 BDE83840 		pop	{r3, r4, r5, lr}
 515              		.cfi_restore 14
 516              		.cfi_restore 5
 517              		.cfi_restore 4
 518              		.cfi_restore 3
 519              		.cfi_def_cfa_offset 0
 520              	.LVL44:
 521              		.loc 3 267 0
 522 001a FFF7FEBF 		b	chSysUnlock
 523              	.LVL45:
 524              		.cfi_endproc
 525              	.LFE252:
 526              		.size	chEvtSignal, .-chEvtSignal
 527              		.section	.text.chEvtBroadcastFlags,"ax",%progbits
 528              		.align	1
 529              		.global	chEvtBroadcastFlags
 530              		.syntax unified
 531              		.thumb
 532              		.thumb_func
 533              		.fpu fpv4-sp-d16
 534              		.type	chEvtBroadcastFlags, %function
 535              	chEvtBroadcastFlags:
 536              	.LFB254:
 537              		.loc 3 311 0
 538              		.cfi_startproc
 539              		@ args = 0, pretend = 0, frame = 0
 540              		@ frame_needed = 0, uses_anonymous_args = 0
 541              	.LVL46:
 542 0000 38B5     		push	{r3, r4, r5, lr}
 543              		.cfi_def_cfa_offset 16
 544              		.cfi_offset 3, -16
 545              		.cfi_offset 4, -12
 546              		.cfi_offset 5, -8
 547              		.cfi_offset 14, -4
 548              		.loc 3 311 0
 549 0002 0446     		mov	r4, r0
 550 0004 0D46     		mov	r5, r1
 551              		.loc 3 313 0
 552 0006 FFF7FEFF 		bl	chSysLock
 553              	.LVL47:
 554              		.loc 3 314 0
 555 000a 2946     		mov	r1, r5
 556 000c 2046     		mov	r0, r4
 557 000e FFF7FEFF 		bl	chEvtBroadcastFlagsI
 558              	.LVL48:
 559              		.loc 3 315 0
 560 0012 FFF7FEFF 		bl	chSchRescheduleS
 561              	.LVL49:
 562              		.loc 3 317 0
 563 0016 BDE83840 		pop	{r3, r4, r5, lr}
 564              		.cfi_restore 14
 565              		.cfi_restore 5
 566              		.cfi_restore 4
 567              		.cfi_restore 3
 568              		.cfi_def_cfa_offset 0
 569              	.LVL50:
 570              		.loc 3 316 0
ARM GAS  C:\cygwin64\tmp\cceZag5Q.s 			page 11


 571 001a FFF7FEBF 		b	chSysUnlock
 572              	.LVL51:
 573              		.cfi_endproc
 574              	.LFE254:
 575              		.size	chEvtBroadcastFlags, .-chEvtBroadcastFlags
 576              		.section	.text.chEvtGetAndClearFlagsI,"ax",%progbits
 577              		.align	1
 578              		.global	chEvtGetAndClearFlagsI
 579              		.syntax unified
 580              		.thumb
 581              		.thumb_func
 582              		.fpu fpv4-sp-d16
 583              		.type	chEvtGetAndClearFlagsI, %function
 584              	chEvtGetAndClearFlagsI:
 585              	.LFB255:
 586              		.loc 3 330 0
 587              		.cfi_startproc
 588              		@ args = 0, pretend = 0, frame = 0
 589              		@ frame_needed = 0, uses_anonymous_args = 0
 590              		@ link register save eliminated.
 591              	.LVL52:
 592              		.loc 3 330 0
 593 0000 0346     		mov	r3, r0
 594              		.loc 3 334 0
 595 0002 0022     		movs	r2, #0
 596              		.loc 3 333 0
 597 0004 C068     		ldr	r0, [r0, #12]
 598              	.LVL53:
 599              		.loc 3 334 0
 600 0006 DA60     		str	r2, [r3, #12]
 601              		.loc 3 337 0
 602 0008 7047     		bx	lr
 603              		.cfi_endproc
 604              	.LFE255:
 605              		.size	chEvtGetAndClearFlagsI, .-chEvtGetAndClearFlagsI
 606              		.section	.text.chEvtDispatch,"ax",%progbits
 607              		.align	1
 608              		.global	chEvtDispatch
 609              		.syntax unified
 610              		.thumb
 611              		.thumb_func
 612              		.fpu fpv4-sp-d16
 613              		.type	chEvtDispatch, %function
 614              	chEvtDispatch:
 615              	.LFB256:
 616              		.loc 3 348 0
 617              		.cfi_startproc
 618              		@ args = 0, pretend = 0, frame = 0
 619              		@ frame_needed = 0, uses_anonymous_args = 0
 620              	.LVL54:
 621 0000 F8B5     		push	{r3, r4, r5, r6, r7, lr}
 622              		.cfi_def_cfa_offset 24
 623              		.cfi_offset 3, -24
 624              		.cfi_offset 4, -20
 625              		.cfi_offset 5, -16
 626              		.cfi_offset 6, -12
 627              		.cfi_offset 7, -8
ARM GAS  C:\cygwin64\tmp\cceZag5Q.s 			page 12


 628              		.cfi_offset 14, -4
 629              		.loc 3 348 0
 630 0002 0646     		mov	r6, r0
 631 0004 0D46     		mov	r5, r1
 632              		.loc 3 353 0
 633 0006 0024     		movs	r4, #0
 634              		.loc 3 357 0
 635 0008 0127     		movs	r7, #1
 636              	.LVL55:
 637              	.L37:
 638              		.loc 3 354 0
 639 000a 05B9     		cbnz	r5, .L39
 640              		.loc 3 362 0
 641 000c F8BD     		pop	{r3, r4, r5, r6, r7, pc}
 642              	.LVL56:
 643              	.L39:
 644              		.loc 3 355 0
 645 000e 25FA04F3 		lsr	r3, r5, r4
 646 0012 DB07     		lsls	r3, r3, #31
 647 0014 07D5     		bpl	.L38
 648              		.loc 3 357 0
 649 0016 07FA04F3 		lsl	r3, r7, r4
 650 001a 25EA0305 		bic	r5, r5, r3
 651              	.LVL57:
 652              		.loc 3 358 0
 653 001e 2046     		mov	r0, r4
 654 0020 56F82430 		ldr	r3, [r6, r4, lsl #2]
 655 0024 9847     		blx	r3
 656              	.LVL58:
 657              	.L38:
 658              		.loc 3 360 0
 659 0026 0134     		adds	r4, r4, #1
 660              	.LVL59:
 661 0028 EFE7     		b	.L37
 662              		.cfi_endproc
 663              	.LFE256:
 664              		.size	chEvtDispatch, .-chEvtDispatch
 665              		.section	.text.chEvtWaitOne,"ax",%progbits
 666              		.align	1
 667              		.global	chEvtWaitOne
 668              		.syntax unified
 669              		.thumb
 670              		.thumb_func
 671              		.fpu fpv4-sp-d16
 672              		.type	chEvtWaitOne, %function
 673              	chEvtWaitOne:
 674              	.LFB257:
 675              		.loc 3 383 0
 676              		.cfi_startproc
 677              		@ args = 0, pretend = 0, frame = 0
 678              		@ frame_needed = 0, uses_anonymous_args = 0
 679              	.LVL60:
 680 0000 38B5     		push	{r3, r4, r5, lr}
 681              		.cfi_def_cfa_offset 16
 682              		.cfi_offset 3, -16
 683              		.cfi_offset 4, -12
 684              		.cfi_offset 5, -8
ARM GAS  C:\cygwin64\tmp\cceZag5Q.s 			page 13


 685              		.cfi_offset 14, -4
 686              		.loc 3 384 0
 687 0002 0C4B     		ldr	r3, .L45
 688 0004 9D69     		ldr	r5, [r3, #24]
 689              	.LVL61:
 690              		.loc 3 383 0
 691 0006 0446     		mov	r4, r0
 692              		.loc 3 387 0
 693 0008 FFF7FEFF 		bl	chSysLock
 694              	.LVL62:
 695              		.loc 3 388 0
 696 000c 686B     		ldr	r0, [r5, #52]
 697              	.LVL63:
 698              		.loc 3 389 0
 699 000e 2040     		ands	r0, r4, r0
 700              	.LVL64:
 701 0010 05D1     		bne	.L44
 702              		.loc 3 391 0
 703 0012 0A20     		movs	r0, #10
 704              	.LVL65:
 705              		.loc 3 390 0
 706 0014 6C62     		str	r4, [r5, #36]
 707              		.loc 3 391 0
 708 0016 FFF7FEFF 		bl	chSchGoSleepS
 709              	.LVL66:
 710              		.loc 3 392 0
 711 001a 686B     		ldr	r0, [r5, #52]
 712 001c 2040     		ands	r0, r0, r4
 713              	.LVL67:
 714              	.L44:
 715              		.loc 3 395 0
 716 001e 6B6B     		ldr	r3, [r5, #52]
 717              		.loc 3 394 0
 718 0020 4442     		negs	r4, r0
 719              	.LVL68:
 720 0022 0440     		ands	r4, r4, r0
 721              	.LVL69:
 722              		.loc 3 395 0
 723 0024 23EA0403 		bic	r3, r3, r4
 724 0028 6B63     		str	r3, [r5, #52]
 725              		.loc 3 396 0
 726 002a FFF7FEFF 		bl	chSysUnlock
 727              	.LVL70:
 728              		.loc 3 399 0
 729 002e 2046     		mov	r0, r4
 730 0030 38BD     		pop	{r3, r4, r5, pc}
 731              	.LVL71:
 732              	.L46:
 733 0032 00BF     		.align	2
 734              	.L45:
 735 0034 00000000 		.word	ch
 736              		.cfi_endproc
 737              	.LFE257:
 738              		.size	chEvtWaitOne, .-chEvtWaitOne
 739              		.section	.text.chEvtWaitAny,"ax",%progbits
 740              		.align	1
 741              		.global	chEvtWaitAny
ARM GAS  C:\cygwin64\tmp\cceZag5Q.s 			page 14


 742              		.syntax unified
 743              		.thumb
 744              		.thumb_func
 745              		.fpu fpv4-sp-d16
 746              		.type	chEvtWaitAny, %function
 747              	chEvtWaitAny:
 748              	.LFB258:
 749              		.loc 3 413 0
 750              		.cfi_startproc
 751              		@ args = 0, pretend = 0, frame = 0
 752              		@ frame_needed = 0, uses_anonymous_args = 0
 753              	.LVL72:
 754              		.loc 3 414 0
 755 0000 0B4B     		ldr	r3, .L49
 756              		.loc 3 413 0
 757 0002 70B5     		push	{r4, r5, r6, lr}
 758              		.cfi_def_cfa_offset 16
 759              		.cfi_offset 4, -16
 760              		.cfi_offset 5, -12
 761              		.cfi_offset 6, -8
 762              		.cfi_offset 14, -4
 763              		.loc 3 414 0
 764 0004 9D69     		ldr	r5, [r3, #24]
 765              	.LVL73:
 766              		.loc 3 413 0
 767 0006 0646     		mov	r6, r0
 768              		.loc 3 417 0
 769 0008 FFF7FEFF 		bl	chSysLock
 770              	.LVL74:
 771              		.loc 3 418 0
 772 000c 6C6B     		ldr	r4, [r5, #52]
 773              	.LVL75:
 774              		.loc 3 419 0
 775 000e 3440     		ands	r4, r6, r4
 776              	.LVL76:
 777 0010 05D1     		bne	.L48
 778              		.loc 3 420 0
 779 0012 6E62     		str	r6, [r5, #36]
 780              		.loc 3 421 0
 781 0014 0A20     		movs	r0, #10
 782 0016 FFF7FEFF 		bl	chSchGoSleepS
 783              	.LVL77:
 784              		.loc 3 422 0
 785 001a 6C6B     		ldr	r4, [r5, #52]
 786              	.LVL78:
 787 001c 3440     		ands	r4, r4, r6
 788              	.LVL79:
 789              	.L48:
 790              		.loc 3 424 0
 791 001e 6B6B     		ldr	r3, [r5, #52]
 792 0020 23EA0403 		bic	r3, r3, r4
 793 0024 6B63     		str	r3, [r5, #52]
 794              		.loc 3 425 0
 795 0026 FFF7FEFF 		bl	chSysUnlock
 796              	.LVL80:
 797              		.loc 3 428 0
 798 002a 2046     		mov	r0, r4
ARM GAS  C:\cygwin64\tmp\cceZag5Q.s 			page 15


 799 002c 70BD     		pop	{r4, r5, r6, pc}
 800              	.LVL81:
 801              	.L50:
 802 002e 00BF     		.align	2
 803              	.L49:
 804 0030 00000000 		.word	ch
 805              		.cfi_endproc
 806              	.LFE258:
 807              		.size	chEvtWaitAny, .-chEvtWaitAny
 808              		.section	.text.chEvtWaitAll,"ax",%progbits
 809              		.align	1
 810              		.global	chEvtWaitAll
 811              		.syntax unified
 812              		.thumb
 813              		.thumb_func
 814              		.fpu fpv4-sp-d16
 815              		.type	chEvtWaitAll, %function
 816              	chEvtWaitAll:
 817              	.LFB259:
 818              		.loc 3 441 0
 819              		.cfi_startproc
 820              		@ args = 0, pretend = 0, frame = 0
 821              		@ frame_needed = 0, uses_anonymous_args = 0
 822              	.LVL82:
 823 0000 38B5     		push	{r3, r4, r5, lr}
 824              		.cfi_def_cfa_offset 16
 825              		.cfi_offset 3, -16
 826              		.cfi_offset 4, -12
 827              		.cfi_offset 5, -8
 828              		.cfi_offset 14, -4
 829              		.loc 3 442 0
 830 0002 0A4B     		ldr	r3, .L53
 831 0004 9D69     		ldr	r5, [r3, #24]
 832              	.LVL83:
 833              		.loc 3 441 0
 834 0006 0446     		mov	r4, r0
 835              		.loc 3 444 0
 836 0008 FFF7FEFF 		bl	chSysLock
 837              	.LVL84:
 838              		.loc 3 445 0
 839 000c 6B6B     		ldr	r3, [r5, #52]
 840 000e 34EA0303 		bics	r3, r4, r3
 841 0012 03D0     		beq	.L52
 842              		.loc 3 446 0
 843 0014 6C62     		str	r4, [r5, #36]
 844              		.loc 3 447 0
 845 0016 0B20     		movs	r0, #11
 846 0018 FFF7FEFF 		bl	chSchGoSleepS
 847              	.LVL85:
 848              	.L52:
 849              		.loc 3 449 0
 850 001c 6B6B     		ldr	r3, [r5, #52]
 851 001e 23EA0403 		bic	r3, r3, r4
 852 0022 6B63     		str	r3, [r5, #52]
 853              		.loc 3 450 0
 854 0024 FFF7FEFF 		bl	chSysUnlock
 855              	.LVL86:
ARM GAS  C:\cygwin64\tmp\cceZag5Q.s 			page 16


 856              		.loc 3 453 0
 857 0028 2046     		mov	r0, r4
 858 002a 38BD     		pop	{r3, r4, r5, pc}
 859              	.LVL87:
 860              	.L54:
 861              		.align	2
 862              	.L53:
 863 002c 00000000 		.word	ch
 864              		.cfi_endproc
 865              	.LFE259:
 866              		.size	chEvtWaitAll, .-chEvtWaitAll
 867              		.section	.text.chEvtWaitOneTimeout,"ax",%progbits
 868              		.align	1
 869              		.global	chEvtWaitOneTimeout
 870              		.syntax unified
 871              		.thumb
 872              		.thumb_func
 873              		.fpu fpv4-sp-d16
 874              		.type	chEvtWaitOneTimeout, %function
 875              	chEvtWaitOneTimeout:
 876              	.LFB260:
 877              		.loc 3 479 0
 878              		.cfi_startproc
 879              		@ args = 0, pretend = 0, frame = 0
 880              		@ frame_needed = 0, uses_anonymous_args = 0
 881              	.LVL88:
 882 0000 F8B5     		push	{r3, r4, r5, r6, r7, lr}
 883              		.cfi_def_cfa_offset 24
 884              		.cfi_offset 3, -24
 885              		.cfi_offset 4, -20
 886              		.cfi_offset 5, -16
 887              		.cfi_offset 6, -12
 888              		.cfi_offset 7, -8
 889              		.cfi_offset 14, -4
 890              		.loc 3 480 0
 891 0002 0F4B     		ldr	r3, .L61
 892 0004 9D69     		ldr	r5, [r3, #24]
 893              	.LVL89:
 894              		.loc 3 479 0
 895 0006 0646     		mov	r6, r0
 896 0008 0F46     		mov	r7, r1
 897              		.loc 3 483 0
 898 000a FFF7FEFF 		bl	chSysLock
 899              	.LVL90:
 900              		.loc 3 484 0
 901 000e 6C6B     		ldr	r4, [r5, #52]
 902              	.LVL91:
 903              		.loc 3 485 0
 904 0010 3440     		ands	r4, r6, r4
 905              	.LVL92:
 906 0012 0DD1     		bne	.L56
 907              		.loc 3 486 0
 908 0014 1FB9     		cbnz	r7, .L57
 909              	.L60:
 910              		.loc 3 499 0
 911 0016 FFF7FEFF 		bl	chSysUnlock
 912              	.LVL93:
ARM GAS  C:\cygwin64\tmp\cceZag5Q.s 			page 17


 913              		.loc 3 502 0
 914 001a 2046     		mov	r0, r4
 915 001c F8BD     		pop	{r3, r4, r5, r6, r7, pc}
 916              	.LVL94:
 917              	.L57:
 918              		.loc 3 490 0
 919 001e 6E62     		str	r6, [r5, #36]
 920              		.loc 3 491 0
 921 0020 3946     		mov	r1, r7
 922 0022 0A20     		movs	r0, #10
 923 0024 FFF7FEFF 		bl	chSchGoSleepTimeoutS
 924              	.LVL95:
 925 0028 0028     		cmp	r0, #0
 926 002a F4DB     		blt	.L60
 927              		.loc 3 495 0
 928 002c 6C6B     		ldr	r4, [r5, #52]
 929              	.LVL96:
 930 002e 3440     		ands	r4, r4, r6
 931              	.LVL97:
 932              	.L56:
 933              		.loc 3 497 0
 934 0030 6342     		negs	r3, r4
 935 0032 1C40     		ands	r4, r4, r3
 936              	.LVL98:
 937              		.loc 3 498 0
 938 0034 6B6B     		ldr	r3, [r5, #52]
 939 0036 23EA0403 		bic	r3, r3, r4
 940 003a 6B63     		str	r3, [r5, #52]
 941 003c EBE7     		b	.L60
 942              	.L62:
 943 003e 00BF     		.align	2
 944              	.L61:
 945 0040 00000000 		.word	ch
 946              		.cfi_endproc
 947              	.LFE260:
 948              		.size	chEvtWaitOneTimeout, .-chEvtWaitOneTimeout
 949              		.section	.text.chEvtWaitAnyTimeout,"ax",%progbits
 950              		.align	1
 951              		.global	chEvtWaitAnyTimeout
 952              		.syntax unified
 953              		.thumb
 954              		.thumb_func
 955              		.fpu fpv4-sp-d16
 956              		.type	chEvtWaitAnyTimeout, %function
 957              	chEvtWaitAnyTimeout:
 958              	.LFB261:
 959              		.loc 3 522 0
 960              		.cfi_startproc
 961              		@ args = 0, pretend = 0, frame = 0
 962              		@ frame_needed = 0, uses_anonymous_args = 0
 963              	.LVL99:
 964 0000 F8B5     		push	{r3, r4, r5, r6, r7, lr}
 965              		.cfi_def_cfa_offset 24
 966              		.cfi_offset 3, -24
 967              		.cfi_offset 4, -20
 968              		.cfi_offset 5, -16
 969              		.cfi_offset 6, -12
ARM GAS  C:\cygwin64\tmp\cceZag5Q.s 			page 18


 970              		.cfi_offset 7, -8
 971              		.cfi_offset 14, -4
 972              		.loc 3 523 0
 973 0002 0E4B     		ldr	r3, .L69
 974 0004 9D69     		ldr	r5, [r3, #24]
 975              	.LVL100:
 976              		.loc 3 522 0
 977 0006 0646     		mov	r6, r0
 978 0008 0F46     		mov	r7, r1
 979              		.loc 3 526 0
 980 000a FFF7FEFF 		bl	chSysLock
 981              	.LVL101:
 982              		.loc 3 527 0
 983 000e 6C6B     		ldr	r4, [r5, #52]
 984              	.LVL102:
 985              		.loc 3 528 0
 986 0010 3440     		ands	r4, r6, r4
 987              	.LVL103:
 988 0012 0DD1     		bne	.L64
 989              		.loc 3 529 0
 990 0014 1FB9     		cbnz	r7, .L65
 991              	.L68:
 992              		.loc 3 541 0
 993 0016 FFF7FEFF 		bl	chSysUnlock
 994              	.LVL104:
 995              		.loc 3 544 0
 996 001a 2046     		mov	r0, r4
 997 001c F8BD     		pop	{r3, r4, r5, r6, r7, pc}
 998              	.LVL105:
 999              	.L65:
 1000              		.loc 3 533 0
 1001 001e 6E62     		str	r6, [r5, #36]
 1002              		.loc 3 534 0
 1003 0020 3946     		mov	r1, r7
 1004 0022 0A20     		movs	r0, #10
 1005 0024 FFF7FEFF 		bl	chSchGoSleepTimeoutS
 1006              	.LVL106:
 1007 0028 0028     		cmp	r0, #0
 1008 002a F4DB     		blt	.L68
 1009              		.loc 3 538 0
 1010 002c 6C6B     		ldr	r4, [r5, #52]
 1011              	.LVL107:
 1012 002e 3440     		ands	r4, r4, r6
 1013              	.LVL108:
 1014              	.L64:
 1015              		.loc 3 540 0
 1016 0030 6B6B     		ldr	r3, [r5, #52]
 1017 0032 23EA0403 		bic	r3, r3, r4
 1018 0036 6B63     		str	r3, [r5, #52]
 1019 0038 EDE7     		b	.L68
 1020              	.L70:
 1021 003a 00BF     		.align	2
 1022              	.L69:
 1023 003c 00000000 		.word	ch
 1024              		.cfi_endproc
 1025              	.LFE261:
 1026              		.size	chEvtWaitAnyTimeout, .-chEvtWaitAnyTimeout
ARM GAS  C:\cygwin64\tmp\cceZag5Q.s 			page 19


 1027              		.section	.text.chEvtWaitAllTimeout,"ax",%progbits
 1028              		.align	1
 1029              		.global	chEvtWaitAllTimeout
 1030              		.syntax unified
 1031              		.thumb
 1032              		.thumb_func
 1033              		.fpu fpv4-sp-d16
 1034              		.type	chEvtWaitAllTimeout, %function
 1035              	chEvtWaitAllTimeout:
 1036              	.LFB262:
 1037              		.loc 3 563 0
 1038              		.cfi_startproc
 1039              		@ args = 0, pretend = 0, frame = 0
 1040              		@ frame_needed = 0, uses_anonymous_args = 0
 1041              	.LVL109:
 1042              		.loc 3 564 0
 1043 0000 0F4B     		ldr	r3, .L76
 1044              		.loc 3 563 0
 1045 0002 70B5     		push	{r4, r5, r6, lr}
 1046              		.cfi_def_cfa_offset 16
 1047              		.cfi_offset 4, -16
 1048              		.cfi_offset 5, -12
 1049              		.cfi_offset 6, -8
 1050              		.cfi_offset 14, -4
 1051              		.loc 3 564 0
 1052 0004 9D69     		ldr	r5, [r3, #24]
 1053              	.LVL110:
 1054              		.loc 3 563 0
 1055 0006 0446     		mov	r4, r0
 1056 0008 0E46     		mov	r6, r1
 1057              		.loc 3 566 0
 1058 000a FFF7FEFF 		bl	chSysLock
 1059              	.LVL111:
 1060              		.loc 3 567 0
 1061 000e 6B6B     		ldr	r3, [r5, #52]
 1062 0010 34EA0303 		bics	r3, r4, r3
 1063 0014 0CD0     		beq	.L72
 1064              		.loc 3 568 0
 1065 0016 26B9     		cbnz	r6, .L73
 1066              	.L75:
 1067              		.loc 3 569 0
 1068 0018 FFF7FEFF 		bl	chSysUnlock
 1069              	.LVL112:
 1070              		.loc 3 570 0
 1071 001c 0024     		movs	r4, #0
 1072              	.LVL113:
 1073              	.L74:
 1074              		.loc 3 582 0
 1075 001e 2046     		mov	r0, r4
 1076 0020 70BD     		pop	{r4, r5, r6, pc}
 1077              	.LVL114:
 1078              	.L73:
 1079              		.loc 3 572 0
 1080 0022 6C62     		str	r4, [r5, #36]
 1081              		.loc 3 573 0
 1082 0024 3146     		mov	r1, r6
 1083 0026 0B20     		movs	r0, #11
ARM GAS  C:\cygwin64\tmp\cceZag5Q.s 			page 20


 1084 0028 FFF7FEFF 		bl	chSchGoSleepTimeoutS
 1085              	.LVL115:
 1086 002c 0028     		cmp	r0, #0
 1087 002e F3DB     		blt	.L75
 1088              	.L72:
 1089              		.loc 3 578 0
 1090 0030 6B6B     		ldr	r3, [r5, #52]
 1091 0032 23EA0403 		bic	r3, r3, r4
 1092 0036 6B63     		str	r3, [r5, #52]
 1093              		.loc 3 579 0
 1094 0038 FFF7FEFF 		bl	chSysUnlock
 1095              	.LVL116:
 1096              		.loc 3 581 0
 1097 003c EFE7     		b	.L74
 1098              	.L77:
 1099 003e 00BF     		.align	2
 1100              	.L76:
 1101 0040 00000000 		.word	ch
 1102              		.cfi_endproc
 1103              	.LFE262:
 1104              		.size	chEvtWaitAllTimeout, .-chEvtWaitAllTimeout
 1105              		.text
 1106              	.Letext0:
 1107              		.file 4 "c:\\program files (x86)\\gnu tools arm embedded\\6 2017-q2-update\\arm-none-eabi\\include
 1108              		.file 5 "c:\\program files (x86)\\gnu tools arm embedded\\6 2017-q2-update\\arm-none-eabi\\include
 1109              		.file 6 "../../modules/ChibiOS/os/common/ports/ARMCMx/compilers/GCC/chtypes.h"
 1110              		.file 7 "../../modules/ChibiOS/os/rt/include/chsystypes.h"
 1111              		.file 8 "../../modules/ChibiOS/os/rt/include/chschd.h"
 1112              		.file 9 "../../modules/ChibiOS/os/common/ext/CMSIS/include/core_cm4.h"
 1113              		.file 10 "../../modules/ChibiOS/os/common/ext/CMSIS/ST/STM32F4xx/system_stm32f4xx.h"
 1114              		.file 11 "../../modules/ChibiOS/os/common/ports/ARMCMx/chcore.h"
 1115              		.file 12 "../../modules/ChibiOS/os/common/ports/ARMCMx/chcore_v7m.h"
 1116              		.file 13 "../../modules/ChibiOS/os/rt/include/chtm.h"
 1117              		.file 14 "../../modules/ChibiOS/os/rt/include/chstats.h"
 1118              		.file 15 "../../modules/ChibiOS/os/rt/include/chsem.h"
 1119              		.file 16 "../../modules/ChibiOS/os/rt/include/chmtx.h"
 1120              		.file 17 "../../modules/ChibiOS/os/rt/include/chregistry.h"
 1121              		.file 18 "../../modules/ChibiOS/os/rt/include/chevents.h"
 1122              		.section	.debug_info,"",%progbits
 1123              	.Ldebug_info0:
 1124 0000 AB110000 		.4byte	0x11ab
 1125 0004 0400     		.2byte	0x4
 1126 0006 00000000 		.4byte	.Ldebug_abbrev0
 1127 000a 04       		.byte	0x4
 1128 000b 01       		.uleb128 0x1
 1129 000c 74010000 		.4byte	.LASF170
 1130 0010 0C       		.byte	0xc
 1131 0011 C3040000 		.4byte	.LASF171
 1132 0015 00000000 		.4byte	.LASF172
 1133 0019 00000000 		.4byte	.Ldebug_ranges0+0
 1134 001d 00000000 		.4byte	0
 1135 0021 00000000 		.4byte	.Ldebug_line0
 1136 0025 02       		.uleb128 0x2
 1137 0026 04       		.byte	0x4
 1138 0027 05       		.byte	0x5
 1139 0028 696E7400 		.ascii	"int\000"
 1140 002c 03       		.uleb128 0x3
ARM GAS  C:\cygwin64\tmp\cceZag5Q.s 			page 21


 1141 002d 04       		.byte	0x4
 1142 002e 07       		.byte	0x7
 1143 002f 96030000 		.4byte	.LASF0
 1144 0033 03       		.uleb128 0x3
 1145 0034 08       		.byte	0x8
 1146 0035 05       		.byte	0x5
 1147 0036 41010000 		.4byte	.LASF1
 1148 003a 03       		.uleb128 0x3
 1149 003b 08       		.byte	0x8
 1150 003c 04       		.byte	0x4
 1151 003d 9C050000 		.4byte	.LASF2
 1152 0041 03       		.uleb128 0x3
 1153 0042 01       		.byte	0x1
 1154 0043 06       		.byte	0x6
 1155 0044 4F010000 		.4byte	.LASF3
 1156 0048 04       		.uleb128 0x4
 1157 0049 64000000 		.4byte	.LASF6
 1158 004d 04       		.byte	0x4
 1159 004e 2B       		.byte	0x2b
 1160 004f 53000000 		.4byte	0x53
 1161 0053 03       		.uleb128 0x3
 1162 0054 01       		.byte	0x1
 1163 0055 08       		.byte	0x8
 1164 0056 71060000 		.4byte	.LASF4
 1165 005a 03       		.uleb128 0x3
 1166 005b 02       		.byte	0x2
 1167 005c 05       		.byte	0x5
 1168 005d 95060000 		.4byte	.LASF5
 1169 0061 04       		.uleb128 0x4
 1170 0062 82070000 		.4byte	.LASF7
 1171 0066 04       		.byte	0x4
 1172 0067 39       		.byte	0x39
 1173 0068 6C000000 		.4byte	0x6c
 1174 006c 03       		.uleb128 0x3
 1175 006d 02       		.byte	0x2
 1176 006e 07       		.byte	0x7
 1177 006f EC070000 		.4byte	.LASF8
 1178 0073 04       		.uleb128 0x4
 1179 0074 B9040000 		.4byte	.LASF9
 1180 0078 04       		.byte	0x4
 1181 0079 4D       		.byte	0x4d
 1182 007a 7E000000 		.4byte	0x7e
 1183 007e 03       		.uleb128 0x3
 1184 007f 04       		.byte	0x4
 1185 0080 05       		.byte	0x5
 1186 0081 AC020000 		.4byte	.LASF10
 1187 0085 04       		.uleb128 0x4
 1188 0086 18030000 		.4byte	.LASF11
 1189 008a 04       		.byte	0x4
 1190 008b 4F       		.byte	0x4f
 1191 008c 90000000 		.4byte	0x90
 1192 0090 03       		.uleb128 0x3
 1193 0091 04       		.byte	0x4
 1194 0092 07       		.byte	0x7
 1195 0093 5E070000 		.4byte	.LASF12
 1196 0097 04       		.uleb128 0x4
 1197 0098 FD050000 		.4byte	.LASF13
ARM GAS  C:\cygwin64\tmp\cceZag5Q.s 			page 22


 1198 009c 04       		.byte	0x4
 1199 009d 69       		.byte	0x69
 1200 009e A2000000 		.4byte	0xa2
 1201 00a2 03       		.uleb128 0x3
 1202 00a3 08       		.byte	0x8
 1203 00a4 07       		.byte	0x7
 1204 00a5 CE000000 		.4byte	.LASF14
 1205 00a9 04       		.uleb128 0x4
 1206 00aa 46080000 		.4byte	.LASF15
 1207 00ae 05       		.byte	0x5
 1208 00af 18       		.byte	0x18
 1209 00b0 48000000 		.4byte	0x48
 1210 00b4 04       		.uleb128 0x4
 1211 00b5 A3030000 		.4byte	.LASF16
 1212 00b9 05       		.byte	0x5
 1213 00ba 24       		.byte	0x24
 1214 00bb 61000000 		.4byte	0x61
 1215 00bf 04       		.uleb128 0x4
 1216 00c0 69060000 		.4byte	.LASF17
 1217 00c4 05       		.byte	0x5
 1218 00c5 2C       		.byte	0x2c
 1219 00c6 73000000 		.4byte	0x73
 1220 00ca 05       		.uleb128 0x5
 1221 00cb BF000000 		.4byte	0xbf
 1222 00cf 04       		.uleb128 0x4
 1223 00d0 2C070000 		.4byte	.LASF18
 1224 00d4 05       		.byte	0x5
 1225 00d5 30       		.byte	0x30
 1226 00d6 85000000 		.4byte	0x85
 1227 00da 04       		.uleb128 0x4
 1228 00db 4E000000 		.4byte	.LASF19
 1229 00df 05       		.byte	0x5
 1230 00e0 3C       		.byte	0x3c
 1231 00e1 97000000 		.4byte	0x97
 1232 00e5 04       		.uleb128 0x4
 1233 00e6 0A080000 		.4byte	.LASF20
 1234 00ea 06       		.byte	0x6
 1235 00eb 39       		.byte	0x39
 1236 00ec CF000000 		.4byte	0xcf
 1237 00f0 04       		.uleb128 0x4
 1238 00f1 38010000 		.4byte	.LASF21
 1239 00f5 06       		.byte	0x6
 1240 00f6 3A       		.byte	0x3a
 1241 00f7 DA000000 		.4byte	0xda
 1242 00fb 04       		.uleb128 0x4
 1243 00fc 83040000 		.4byte	.LASF22
 1244 0100 06       		.byte	0x6
 1245 0101 3C       		.byte	0x3c
 1246 0102 A9000000 		.4byte	0xa9
 1247 0106 04       		.uleb128 0x4
 1248 0107 E3020000 		.4byte	.LASF23
 1249 010b 06       		.byte	0x6
 1250 010c 3D       		.byte	0x3d
 1251 010d A9000000 		.4byte	0xa9
 1252 0111 04       		.uleb128 0x4
 1253 0112 1C060000 		.4byte	.LASF24
 1254 0116 06       		.byte	0x6
ARM GAS  C:\cygwin64\tmp\cceZag5Q.s 			page 23


 1255 0117 3E       		.byte	0x3e
 1256 0118 A9000000 		.4byte	0xa9
 1257 011c 04       		.uleb128 0x4
 1258 011d 44060000 		.4byte	.LASF25
 1259 0121 06       		.byte	0x6
 1260 0122 40       		.byte	0x40
 1261 0123 CF000000 		.4byte	0xcf
 1262 0127 04       		.uleb128 0x4
 1263 0128 24040000 		.4byte	.LASF26
 1264 012c 06       		.byte	0x6
 1265 012d 41       		.byte	0x41
 1266 012e BF000000 		.4byte	0xbf
 1267 0132 04       		.uleb128 0x4
 1268 0133 58030000 		.4byte	.LASF27
 1269 0137 06       		.byte	0x6
 1270 0138 42       		.byte	0x42
 1271 0139 BF000000 		.4byte	0xbf
 1272 013d 04       		.uleb128 0x4
 1273 013e A4040000 		.4byte	.LASF28
 1274 0142 06       		.byte	0x6
 1275 0143 43       		.byte	0x43
 1276 0144 CF000000 		.4byte	0xcf
 1277 0148 04       		.uleb128 0x4
 1278 0149 17040000 		.4byte	.LASF29
 1279 014d 06       		.byte	0x6
 1280 014e 44       		.byte	0x44
 1281 014f CF000000 		.4byte	0xcf
 1282 0153 04       		.uleb128 0x4
 1283 0154 90030000 		.4byte	.LASF30
 1284 0158 06       		.byte	0x6
 1285 0159 45       		.byte	0x45
 1286 015a BF000000 		.4byte	0xbf
 1287 015e 04       		.uleb128 0x4
 1288 015f 2F040000 		.4byte	.LASF31
 1289 0163 06       		.byte	0x6
 1290 0164 46       		.byte	0x46
 1291 0165 CF000000 		.4byte	0xcf
 1292 0169 04       		.uleb128 0x4
 1293 016a B0070000 		.4byte	.LASF32
 1294 016e 07       		.byte	0x7
 1295 016f 33       		.byte	0x33
 1296 0170 CF000000 		.4byte	0xcf
 1297 0174 04       		.uleb128 0x4
 1298 0175 8D070000 		.4byte	.LASF33
 1299 0179 07       		.byte	0x7
 1300 017a 3F       		.byte	0x3f
 1301 017b 7F010000 		.4byte	0x17f
 1302 017f 06       		.uleb128 0x6
 1303 0180 0D040000 		.4byte	.LASF52
 1304 0184 60       		.byte	0x60
 1305 0185 08       		.byte	0x8
 1306 0186 9A       		.byte	0x9a
 1307 0187 6A020000 		.4byte	0x26a
 1308 018b 07       		.uleb128 0x7
 1309 018c E9030000 		.4byte	.LASF34
 1310 0190 08       		.byte	0x8
 1311 0191 9B       		.byte	0x9b
ARM GAS  C:\cygwin64\tmp\cceZag5Q.s 			page 24


 1312 0192 9F020000 		.4byte	0x29f
 1313 0196 00       		.byte	0
 1314 0197 07       		.uleb128 0x7
 1315 0198 F0050000 		.4byte	.LASF35
 1316 019c 08       		.byte	0x8
 1317 019d 9C       		.byte	0x9c
 1318 019e 1C010000 		.4byte	0x11c
 1319 01a2 08       		.byte	0x8
 1320 01a3 08       		.uleb128 0x8
 1321 01a4 63747800 		.ascii	"ctx\000"
 1322 01a8 08       		.byte	0x8
 1323 01a9 9D       		.byte	0x9d
 1324 01aa BB040000 		.4byte	0x4bb
 1325 01ae 0C       		.byte	0xc
 1326 01af 07       		.uleb128 0x7
 1327 01b0 F9040000 		.4byte	.LASF36
 1328 01b4 08       		.byte	0x8
 1329 01b5 9F       		.byte	0x9f
 1330 01b6 75020000 		.4byte	0x275
 1331 01ba 10       		.byte	0x10
 1332 01bb 07       		.uleb128 0x7
 1333 01bc 7C070000 		.4byte	.LASF37
 1334 01c0 08       		.byte	0x8
 1335 01c1 A0       		.byte	0xa0
 1336 01c2 75020000 		.4byte	0x275
 1337 01c6 14       		.byte	0x14
 1338 01c7 07       		.uleb128 0x7
 1339 01c8 3F040000 		.4byte	.LASF38
 1340 01cc 08       		.byte	0x8
 1341 01cd A7       		.byte	0xa7
 1342 01ce A2070000 		.4byte	0x7a2
 1343 01d2 18       		.byte	0x18
 1344 01d3 07       		.uleb128 0x7
 1345 01d4 70070000 		.4byte	.LASF39
 1346 01d8 08       		.byte	0x8
 1347 01d9 B0       		.byte	0xb0
 1348 01da B9070000 		.4byte	0x7b9
 1349 01de 1C       		.byte	0x1c
 1350 01df 07       		.uleb128 0x7
 1351 01e0 A6020000 		.4byte	.LASF40
 1352 01e4 08       		.byte	0x8
 1353 01e5 B5       		.byte	0xb5
 1354 01e6 06010000 		.4byte	0x106
 1355 01ea 20       		.byte	0x20
 1356 01eb 07       		.uleb128 0x7
 1357 01ec 4E080000 		.4byte	.LASF41
 1358 01f0 08       		.byte	0x8
 1359 01f1 B9       		.byte	0xb9
 1360 01f2 FB000000 		.4byte	0xfb
 1361 01f6 21       		.byte	0x21
 1362 01f7 07       		.uleb128 0x7
 1363 01f8 2F060000 		.4byte	.LASF42
 1364 01fc 08       		.byte	0x8
 1365 01fd BE       		.byte	0xbe
 1366 01fe 11010000 		.4byte	0x111
 1367 0202 22       		.byte	0x22
 1368 0203 09       		.uleb128 0x9
ARM GAS  C:\cygwin64\tmp\cceZag5Q.s 			page 25


 1369 0204 7500     		.ascii	"u\000"
 1370 0206 08       		.byte	0x8
 1371 0207 0F01     		.2byte	0x10f
 1372 0209 D7060000 		.4byte	0x6d7
 1373 020d 24       		.byte	0x24
 1374 020e 0A       		.uleb128 0xa
 1375 020f 50030000 		.4byte	.LASF43
 1376 0213 08       		.byte	0x8
 1377 0214 1401     		.2byte	0x114
 1378 0216 7B020000 		.4byte	0x27b
 1379 021a 28       		.byte	0x28
 1380 021b 0A       		.uleb128 0xa
 1381 021c 9D020000 		.4byte	.LASF44
 1382 0220 08       		.byte	0x8
 1383 0221 1A01     		.2byte	0x11a
 1384 0223 9F020000 		.4byte	0x29f
 1385 0227 2C       		.byte	0x2c
 1386 0228 0A       		.uleb128 0xa
 1387 0229 36040000 		.4byte	.LASF45
 1388 022d 08       		.byte	0x8
 1389 022e 2001     		.2byte	0x120
 1390 0230 3D010000 		.4byte	0x13d
 1391 0234 34       		.byte	0x34
 1392 0235 0A       		.uleb128 0xa
 1393 0236 D2080000 		.4byte	.LASF46
 1394 023a 08       		.byte	0x8
 1395 023b 2701     		.2byte	0x127
 1396 023d 9C070000 		.4byte	0x79c
 1397 0241 38       		.byte	0x38
 1398 0242 0A       		.uleb128 0xa
 1399 0243 10050000 		.4byte	.LASF47
 1400 0247 08       		.byte	0x8
 1401 0248 2B01     		.2byte	0x12b
 1402 024a 1C010000 		.4byte	0x11c
 1403 024e 3C       		.byte	0x3c
 1404 024f 0A       		.uleb128 0xa
 1405 0250 EF030000 		.4byte	.LASF48
 1406 0254 08       		.byte	0x8
 1407 0255 3201     		.2byte	0x132
 1408 0257 52030000 		.4byte	0x352
 1409 025b 40       		.byte	0x40
 1410 025c 0A       		.uleb128 0xa
 1411 025d C7020000 		.4byte	.LASF49
 1412 0261 08       		.byte	0x8
 1413 0262 3801     		.2byte	0x138
 1414 0264 88060000 		.4byte	0x688
 1415 0268 48       		.byte	0x48
 1416 0269 00       		.byte	0
 1417 026a 04       		.uleb128 0x4
 1418 026b 69050000 		.4byte	.LASF50
 1419 026f 07       		.byte	0x7
 1420 0270 44       		.byte	0x44
 1421 0271 75020000 		.4byte	0x275
 1422 0275 0B       		.uleb128 0xb
 1423 0276 04       		.byte	0x4
 1424 0277 74010000 		.4byte	0x174
 1425 027b 04       		.uleb128 0x4
ARM GAS  C:\cygwin64\tmp\cceZag5Q.s 			page 26


 1426 027c 8D080000 		.4byte	.LASF51
 1427 0280 07       		.byte	0x7
 1428 0281 49       		.byte	0x49
 1429 0282 86020000 		.4byte	0x286
 1430 0286 06       		.uleb128 0x6
 1431 0287 48070000 		.4byte	.LASF53
 1432 028b 04       		.byte	0x4
 1433 028c 08       		.byte	0x8
 1434 028d 88       		.byte	0x88
 1435 028e 9F020000 		.4byte	0x29f
 1436 0292 07       		.uleb128 0x7
 1437 0293 33010000 		.4byte	.LASF54
 1438 0297 08       		.byte	0x8
 1439 0298 89       		.byte	0x89
 1440 0299 75020000 		.4byte	0x275
 1441 029d 00       		.byte	0
 1442 029e 00       		.byte	0
 1443 029f 04       		.uleb128 0x4
 1444 02a0 1A080000 		.4byte	.LASF55
 1445 02a4 07       		.byte	0x7
 1446 02a5 50       		.byte	0x50
 1447 02a6 AA020000 		.4byte	0x2aa
 1448 02aa 06       		.uleb128 0x6
 1449 02ab 7F000000 		.4byte	.LASF56
 1450 02af 08       		.byte	0x8
 1451 02b0 08       		.byte	0x8
 1452 02b1 8F       		.byte	0x8f
 1453 02b2 CF020000 		.4byte	0x2cf
 1454 02b6 07       		.uleb128 0x7
 1455 02b7 33010000 		.4byte	.LASF54
 1456 02bb 08       		.byte	0x8
 1457 02bc 90       		.byte	0x90
 1458 02bd 75020000 		.4byte	0x275
 1459 02c1 00       		.byte	0
 1460 02c2 07       		.uleb128 0x7
 1461 02c3 6E000000 		.4byte	.LASF57
 1462 02c7 08       		.byte	0x8
 1463 02c8 91       		.byte	0x91
 1464 02c9 75020000 		.4byte	0x275
 1465 02cd 04       		.byte	0x4
 1466 02ce 00       		.byte	0
 1467 02cf 04       		.uleb128 0x4
 1468 02d0 2E000000 		.4byte	.LASF58
 1469 02d4 07       		.byte	0x7
 1470 02d5 57       		.byte	0x57
 1471 02d6 DA020000 		.4byte	0x2da
 1472 02da 0C       		.uleb128 0xc
 1473 02db 96040000 		.4byte	.LASF59
 1474 02df 1C       		.byte	0x1c
 1475 02e0 08       		.byte	0x8
 1476 02e1 6A01     		.2byte	0x16a
 1477 02e3 36030000 		.4byte	0x336
 1478 02e7 0A       		.uleb128 0xa
 1479 02e8 E9030000 		.4byte	.LASF34
 1480 02ec 08       		.byte	0x8
 1481 02ed 6B01     		.2byte	0x16b
 1482 02ef 9F020000 		.4byte	0x29f
ARM GAS  C:\cygwin64\tmp\cceZag5Q.s 			page 27


 1483 02f3 00       		.byte	0
 1484 02f4 0A       		.uleb128 0xa
 1485 02f5 F0050000 		.4byte	.LASF35
 1486 02f9 08       		.byte	0x8
 1487 02fa 6C01     		.2byte	0x16c
 1488 02fc 1C010000 		.4byte	0x11c
 1489 0300 08       		.byte	0x8
 1490 0301 09       		.uleb128 0x9
 1491 0302 63747800 		.ascii	"ctx\000"
 1492 0306 08       		.byte	0x8
 1493 0307 6E01     		.2byte	0x16e
 1494 0309 BB040000 		.4byte	0x4bb
 1495 030d 0C       		.byte	0xc
 1496 030e 0A       		.uleb128 0xa
 1497 030f F9040000 		.4byte	.LASF36
 1498 0313 08       		.byte	0x8
 1499 0314 7101     		.2byte	0x171
 1500 0316 75020000 		.4byte	0x275
 1501 031a 10       		.byte	0x10
 1502 031b 0A       		.uleb128 0xa
 1503 031c 7C070000 		.4byte	.LASF37
 1504 0320 08       		.byte	0x8
 1505 0321 7201     		.2byte	0x172
 1506 0323 75020000 		.4byte	0x275
 1507 0327 14       		.byte	0x14
 1508 0328 0A       		.uleb128 0xa
 1509 0329 F5050000 		.4byte	.LASF60
 1510 032d 08       		.byte	0x8
 1511 032e 7501     		.2byte	0x175
 1512 0330 75020000 		.4byte	0x275
 1513 0334 18       		.byte	0x18
 1514 0335 00       		.byte	0
 1515 0336 04       		.uleb128 0x4
 1516 0337 BA070000 		.4byte	.LASF61
 1517 033b 07       		.byte	0x7
 1518 033c 5C       		.byte	0x5c
 1519 033d 41030000 		.4byte	0x341
 1520 0341 0B       		.uleb128 0xb
 1521 0342 04       		.byte	0x4
 1522 0343 47030000 		.4byte	0x347
 1523 0347 0D       		.uleb128 0xd
 1524 0348 52030000 		.4byte	0x352
 1525 034c 0E       		.uleb128 0xe
 1526 034d 52030000 		.4byte	0x352
 1527 0351 00       		.byte	0
 1528 0352 0F       		.uleb128 0xf
 1529 0353 04       		.byte	0x4
 1530 0354 04       		.uleb128 0x4
 1531 0355 34060000 		.4byte	.LASF62
 1532 0359 07       		.byte	0x7
 1533 035a 61       		.byte	0x61
 1534 035b 5F030000 		.4byte	0x35f
 1535 035f 0C       		.uleb128 0xc
 1536 0360 E3060000 		.4byte	.LASF63
 1537 0364 14       		.byte	0x14
 1538 0365 08       		.byte	0x8
 1539 0366 4501     		.2byte	0x145
ARM GAS  C:\cygwin64\tmp\cceZag5Q.s 			page 28


 1540 0368 AE030000 		.4byte	0x3ae
 1541 036c 0A       		.uleb128 0xa
 1542 036d 33010000 		.4byte	.LASF54
 1543 0371 08       		.byte	0x8
 1544 0372 4601     		.2byte	0x146
 1545 0374 BF070000 		.4byte	0x7bf
 1546 0378 00       		.byte	0
 1547 0379 0A       		.uleb128 0xa
 1548 037a 6E000000 		.4byte	.LASF57
 1549 037e 08       		.byte	0x8
 1550 037f 4701     		.2byte	0x147
 1551 0381 BF070000 		.4byte	0x7bf
 1552 0385 04       		.byte	0x4
 1553 0386 0A       		.uleb128 0xa
 1554 0387 41000000 		.4byte	.LASF64
 1555 038b 08       		.byte	0x8
 1556 038c 4801     		.2byte	0x148
 1557 038e 69010000 		.4byte	0x169
 1558 0392 08       		.byte	0x8
 1559 0393 0A       		.uleb128 0xa
 1560 0394 B5020000 		.4byte	.LASF65
 1561 0398 08       		.byte	0x8
 1562 0399 4901     		.2byte	0x149
 1563 039b 36030000 		.4byte	0x336
 1564 039f 0C       		.byte	0xc
 1565 03a0 09       		.uleb128 0x9
 1566 03a1 70617200 		.ascii	"par\000"
 1567 03a5 08       		.byte	0x8
 1568 03a6 4B01     		.2byte	0x14b
 1569 03a8 52030000 		.4byte	0x352
 1570 03ac 10       		.byte	0x10
 1571 03ad 00       		.byte	0
 1572 03ae 04       		.uleb128 0x4
 1573 03af 10010000 		.4byte	.LASF66
 1574 03b3 07       		.byte	0x7
 1575 03b4 66       		.byte	0x66
 1576 03b5 B9030000 		.4byte	0x3b9
 1577 03b9 0C       		.uleb128 0xc
 1578 03ba 85050000 		.4byte	.LASF67
 1579 03be 10       		.byte	0x10
 1580 03bf 08       		.byte	0x8
 1581 03c0 5501     		.2byte	0x155
 1582 03c2 FB030000 		.4byte	0x3fb
 1583 03c6 0A       		.uleb128 0xa
 1584 03c7 33010000 		.4byte	.LASF54
 1585 03cb 08       		.byte	0x8
 1586 03cc 5601     		.2byte	0x156
 1587 03ce BF070000 		.4byte	0x7bf
 1588 03d2 00       		.byte	0
 1589 03d3 0A       		.uleb128 0xa
 1590 03d4 6E000000 		.4byte	.LASF57
 1591 03d8 08       		.byte	0x8
 1592 03d9 5801     		.2byte	0x158
 1593 03db BF070000 		.4byte	0x7bf
 1594 03df 04       		.byte	0x4
 1595 03e0 0A       		.uleb128 0xa
 1596 03e1 41000000 		.4byte	.LASF64
ARM GAS  C:\cygwin64\tmp\cceZag5Q.s 			page 29


 1597 03e5 08       		.byte	0x8
 1598 03e6 5A01     		.2byte	0x15a
 1599 03e8 69010000 		.4byte	0x169
 1600 03ec 08       		.byte	0x8
 1601 03ed 0A       		.uleb128 0xa
 1602 03ee 9F060000 		.4byte	.LASF68
 1603 03f2 08       		.byte	0x8
 1604 03f3 6201     		.2byte	0x162
 1605 03f5 69010000 		.4byte	0x169
 1606 03f9 0C       		.byte	0xc
 1607 03fa 00       		.byte	0
 1608 03fb 04       		.uleb128 0x4
 1609 03fc 90000000 		.4byte	.LASF69
 1610 0400 07       		.byte	0x7
 1611 0401 6B       		.byte	0x6b
 1612 0402 06040000 		.4byte	0x406
 1613 0406 0C       		.uleb128 0xc
 1614 0407 40030000 		.4byte	.LASF70
 1615 040b 04       		.byte	0x4
 1616 040c 08       		.byte	0x8
 1617 040d 7C01     		.2byte	0x17c
 1618 040f 21040000 		.4byte	0x421
 1619 0413 0A       		.uleb128 0xa
 1620 0414 D1070000 		.4byte	.LASF71
 1621 0418 08       		.byte	0x8
 1622 0419 8401     		.2byte	0x184
 1623 041b A8070000 		.4byte	0x7a8
 1624 041f 00       		.byte	0
 1625 0420 00       		.byte	0
 1626 0421 04       		.uleb128 0x4
 1627 0422 54040000 		.4byte	.LASF72
 1628 0426 07       		.byte	0x7
 1629 0427 70       		.byte	0x70
 1630 0428 2C040000 		.4byte	0x42c
 1631 042c 0C       		.uleb128 0xc
 1632 042d C6060000 		.4byte	.LASF73
 1633 0431 D0       		.byte	0xd0
 1634 0432 08       		.byte	0x8
 1635 0433 9C01     		.2byte	0x19c
 1636 0435 87040000 		.4byte	0x487
 1637 0439 0A       		.uleb128 0xa
 1638 043a 33080000 		.4byte	.LASF74
 1639 043e 08       		.byte	0x8
 1640 043f A001     		.2byte	0x1a0
 1641 0441 CF020000 		.4byte	0x2cf
 1642 0445 00       		.byte	0
 1643 0446 0A       		.uleb128 0xa
 1644 0447 8A020000 		.4byte	.LASF75
 1645 044b 08       		.byte	0x8
 1646 044c A401     		.2byte	0x1a4
 1647 044e AE030000 		.4byte	0x3ae
 1648 0452 1C       		.byte	0x1c
 1649 0453 09       		.uleb128 0x9
 1650 0454 64626700 		.ascii	"dbg\000"
 1651 0458 08       		.byte	0x8
 1652 0459 A801     		.2byte	0x1a8
 1653 045b FB030000 		.4byte	0x3fb
ARM GAS  C:\cygwin64\tmp\cceZag5Q.s 			page 30


 1654 045f 2C       		.byte	0x2c
 1655 0460 0A       		.uleb128 0xa
 1656 0461 FD000000 		.4byte	.LASF76
 1657 0465 08       		.byte	0x8
 1658 0466 AC01     		.2byte	0x1ac
 1659 0468 74010000 		.4byte	0x174
 1660 046c 30       		.byte	0x30
 1661 046d 09       		.uleb128 0x9
 1662 046e 746D00   		.ascii	"tm\000"
 1663 0471 08       		.byte	0x8
 1664 0472 B101     		.2byte	0x1b1
 1665 0474 3A060000 		.4byte	0x63a
 1666 0478 90       		.byte	0x90
 1667 0479 0A       		.uleb128 0xa
 1668 047a 57000000 		.4byte	.LASF77
 1669 047e 08       		.byte	0x8
 1670 047f B701     		.2byte	0x1b7
 1671 0481 CC060000 		.4byte	0x6cc
 1672 0485 98       		.byte	0x98
 1673 0486 00       		.byte	0
 1674 0487 03       		.uleb128 0x3
 1675 0488 04       		.byte	0x4
 1676 0489 07       		.byte	0x7
 1677 048a 60050000 		.4byte	.LASF78
 1678 048e 10       		.uleb128 0x10
 1679 048f 26010000 		.4byte	.LASF79
 1680 0493 09       		.byte	0x9
 1681 0494 4407     		.2byte	0x744
 1682 0496 CA000000 		.4byte	0xca
 1683 049a 11       		.uleb128 0x11
 1684 049b AC030000 		.4byte	.LASF80
 1685 049f 0A       		.byte	0xa
 1686 04a0 4C       		.byte	0x4c
 1687 04a1 CF000000 		.4byte	0xcf
 1688 04a5 04       		.uleb128 0x4
 1689 04a6 23030000 		.4byte	.LASF81
 1690 04aa 0B       		.byte	0xb
 1691 04ab 65       		.byte	0x65
 1692 04ac 52030000 		.4byte	0x352
 1693 04b0 04       		.uleb128 0x4
 1694 04b1 EE040000 		.4byte	.LASF82
 1695 04b5 0B       		.byte	0xb
 1696 04b6 6D       		.byte	0x6d
 1697 04b7 DA000000 		.4byte	0xda
 1698 04bb 06       		.uleb128 0x6
 1699 04bc C0050000 		.4byte	.LASF83
 1700 04c0 04       		.byte	0x4
 1701 04c1 0B       		.byte	0xb
 1702 04c2 89       		.byte	0x89
 1703 04c3 D3040000 		.4byte	0x4d3
 1704 04c7 08       		.uleb128 0x8
 1705 04c8 737000   		.ascii	"sp\000"
 1706 04cb 0B       		.byte	0xb
 1707 04cc 8A       		.byte	0x8a
 1708 04cd 1F060000 		.4byte	0x61f
 1709 04d1 00       		.byte	0
 1710 04d2 00       		.byte	0
ARM GAS  C:\cygwin64\tmp\cceZag5Q.s 			page 31


 1711 04d3 0C       		.uleb128 0xc
 1712 04d4 73000000 		.4byte	.LASF84
 1713 04d8 64       		.byte	0x64
 1714 04d9 0C       		.byte	0xc
 1715 04da 5901     		.2byte	0x159
 1716 04dc 1F060000 		.4byte	0x61f
 1717 04e0 09       		.uleb128 0x9
 1718 04e1 73313600 		.ascii	"s16\000"
 1719 04e5 0C       		.byte	0xc
 1720 04e6 5B01     		.2byte	0x15b
 1721 04e8 A5040000 		.4byte	0x4a5
 1722 04ec 00       		.byte	0
 1723 04ed 09       		.uleb128 0x9
 1724 04ee 73313700 		.ascii	"s17\000"
 1725 04f2 0C       		.byte	0xc
 1726 04f3 5C01     		.2byte	0x15c
 1727 04f5 A5040000 		.4byte	0x4a5
 1728 04f9 04       		.byte	0x4
 1729 04fa 09       		.uleb128 0x9
 1730 04fb 73313800 		.ascii	"s18\000"
 1731 04ff 0C       		.byte	0xc
 1732 0500 5D01     		.2byte	0x15d
 1733 0502 A5040000 		.4byte	0x4a5
 1734 0506 08       		.byte	0x8
 1735 0507 09       		.uleb128 0x9
 1736 0508 73313900 		.ascii	"s19\000"
 1737 050c 0C       		.byte	0xc
 1738 050d 5E01     		.2byte	0x15e
 1739 050f A5040000 		.4byte	0x4a5
 1740 0513 0C       		.byte	0xc
 1741 0514 09       		.uleb128 0x9
 1742 0515 73323000 		.ascii	"s20\000"
 1743 0519 0C       		.byte	0xc
 1744 051a 5F01     		.2byte	0x15f
 1745 051c A5040000 		.4byte	0x4a5
 1746 0520 10       		.byte	0x10
 1747 0521 09       		.uleb128 0x9
 1748 0522 73323100 		.ascii	"s21\000"
 1749 0526 0C       		.byte	0xc
 1750 0527 6001     		.2byte	0x160
 1751 0529 A5040000 		.4byte	0x4a5
 1752 052d 14       		.byte	0x14
 1753 052e 09       		.uleb128 0x9
 1754 052f 73323200 		.ascii	"s22\000"
 1755 0533 0C       		.byte	0xc
 1756 0534 6101     		.2byte	0x161
 1757 0536 A5040000 		.4byte	0x4a5
 1758 053a 18       		.byte	0x18
 1759 053b 09       		.uleb128 0x9
 1760 053c 73323300 		.ascii	"s23\000"
 1761 0540 0C       		.byte	0xc
 1762 0541 6201     		.2byte	0x162
 1763 0543 A5040000 		.4byte	0x4a5
 1764 0547 1C       		.byte	0x1c
 1765 0548 09       		.uleb128 0x9
 1766 0549 73323400 		.ascii	"s24\000"
 1767 054d 0C       		.byte	0xc
ARM GAS  C:\cygwin64\tmp\cceZag5Q.s 			page 32


 1768 054e 6301     		.2byte	0x163
 1769 0550 A5040000 		.4byte	0x4a5
 1770 0554 20       		.byte	0x20
 1771 0555 09       		.uleb128 0x9
 1772 0556 73323500 		.ascii	"s25\000"
 1773 055a 0C       		.byte	0xc
 1774 055b 6401     		.2byte	0x164
 1775 055d A5040000 		.4byte	0x4a5
 1776 0561 24       		.byte	0x24
 1777 0562 09       		.uleb128 0x9
 1778 0563 73323600 		.ascii	"s26\000"
 1779 0567 0C       		.byte	0xc
 1780 0568 6501     		.2byte	0x165
 1781 056a A5040000 		.4byte	0x4a5
 1782 056e 28       		.byte	0x28
 1783 056f 09       		.uleb128 0x9
 1784 0570 73323700 		.ascii	"s27\000"
 1785 0574 0C       		.byte	0xc
 1786 0575 6601     		.2byte	0x166
 1787 0577 A5040000 		.4byte	0x4a5
 1788 057b 2C       		.byte	0x2c
 1789 057c 09       		.uleb128 0x9
 1790 057d 73323800 		.ascii	"s28\000"
 1791 0581 0C       		.byte	0xc
 1792 0582 6701     		.2byte	0x167
 1793 0584 A5040000 		.4byte	0x4a5
 1794 0588 30       		.byte	0x30
 1795 0589 09       		.uleb128 0x9
 1796 058a 73323900 		.ascii	"s29\000"
 1797 058e 0C       		.byte	0xc
 1798 058f 6801     		.2byte	0x168
 1799 0591 A5040000 		.4byte	0x4a5
 1800 0595 34       		.byte	0x34
 1801 0596 09       		.uleb128 0x9
 1802 0597 73333000 		.ascii	"s30\000"
 1803 059b 0C       		.byte	0xc
 1804 059c 6901     		.2byte	0x169
 1805 059e A5040000 		.4byte	0x4a5
 1806 05a2 38       		.byte	0x38
 1807 05a3 09       		.uleb128 0x9
 1808 05a4 73333100 		.ascii	"s31\000"
 1809 05a8 0C       		.byte	0xc
 1810 05a9 6A01     		.2byte	0x16a
 1811 05ab A5040000 		.4byte	0x4a5
 1812 05af 3C       		.byte	0x3c
 1813 05b0 09       		.uleb128 0x9
 1814 05b1 723400   		.ascii	"r4\000"
 1815 05b4 0C       		.byte	0xc
 1816 05b5 6C01     		.2byte	0x16c
 1817 05b7 A5040000 		.4byte	0x4a5
 1818 05bb 40       		.byte	0x40
 1819 05bc 09       		.uleb128 0x9
 1820 05bd 723500   		.ascii	"r5\000"
 1821 05c0 0C       		.byte	0xc
 1822 05c1 6D01     		.2byte	0x16d
 1823 05c3 A5040000 		.4byte	0x4a5
 1824 05c7 44       		.byte	0x44
ARM GAS  C:\cygwin64\tmp\cceZag5Q.s 			page 33


 1825 05c8 09       		.uleb128 0x9
 1826 05c9 723600   		.ascii	"r6\000"
 1827 05cc 0C       		.byte	0xc
 1828 05cd 6E01     		.2byte	0x16e
 1829 05cf A5040000 		.4byte	0x4a5
 1830 05d3 48       		.byte	0x48
 1831 05d4 09       		.uleb128 0x9
 1832 05d5 723700   		.ascii	"r7\000"
 1833 05d8 0C       		.byte	0xc
 1834 05d9 6F01     		.2byte	0x16f
 1835 05db A5040000 		.4byte	0x4a5
 1836 05df 4C       		.byte	0x4c
 1837 05e0 09       		.uleb128 0x9
 1838 05e1 723800   		.ascii	"r8\000"
 1839 05e4 0C       		.byte	0xc
 1840 05e5 7001     		.2byte	0x170
 1841 05e7 A5040000 		.4byte	0x4a5
 1842 05eb 50       		.byte	0x50
 1843 05ec 09       		.uleb128 0x9
 1844 05ed 723900   		.ascii	"r9\000"
 1845 05f0 0C       		.byte	0xc
 1846 05f1 7101     		.2byte	0x171
 1847 05f3 A5040000 		.4byte	0x4a5
 1848 05f7 54       		.byte	0x54
 1849 05f8 09       		.uleb128 0x9
 1850 05f9 72313000 		.ascii	"r10\000"
 1851 05fd 0C       		.byte	0xc
 1852 05fe 7201     		.2byte	0x172
 1853 0600 A5040000 		.4byte	0x4a5
 1854 0604 58       		.byte	0x58
 1855 0605 09       		.uleb128 0x9
 1856 0606 72313100 		.ascii	"r11\000"
 1857 060a 0C       		.byte	0xc
 1858 060b 7301     		.2byte	0x173
 1859 060d A5040000 		.4byte	0x4a5
 1860 0611 5C       		.byte	0x5c
 1861 0612 09       		.uleb128 0x9
 1862 0613 6C7200   		.ascii	"lr\000"
 1863 0616 0C       		.byte	0xc
 1864 0617 7401     		.2byte	0x174
 1865 0619 A5040000 		.4byte	0x4a5
 1866 061d 60       		.byte	0x60
 1867 061e 00       		.byte	0
 1868 061f 0B       		.uleb128 0xb
 1869 0620 04       		.byte	0x4
 1870 0621 D3040000 		.4byte	0x4d3
 1871 0625 12       		.uleb128 0x12
 1872 0626 04       		.byte	0x4
 1873 0627 0D       		.byte	0xd
 1874 0628 38       		.byte	0x38
 1875 0629 3A060000 		.4byte	0x63a
 1876 062d 07       		.uleb128 0x7
 1877 062e DB070000 		.4byte	.LASF85
 1878 0632 0D       		.byte	0xd
 1879 0633 3C       		.byte	0x3c
 1880 0634 E5000000 		.4byte	0xe5
 1881 0638 00       		.byte	0
ARM GAS  C:\cygwin64\tmp\cceZag5Q.s 			page 34


 1882 0639 00       		.byte	0
 1883 063a 04       		.uleb128 0x4
 1884 063b CD050000 		.4byte	.LASF86
 1885 063f 0D       		.byte	0xd
 1886 0640 3D       		.byte	0x3d
 1887 0641 25060000 		.4byte	0x625
 1888 0645 12       		.uleb128 0x12
 1889 0646 18       		.byte	0x18
 1890 0647 0D       		.byte	0xd
 1891 0648 48       		.byte	0x48
 1892 0649 88060000 		.4byte	0x688
 1893 064d 07       		.uleb128 0x7
 1894 064e 96070000 		.4byte	.LASF87
 1895 0652 0D       		.byte	0xd
 1896 0653 49       		.byte	0x49
 1897 0654 E5000000 		.4byte	0xe5
 1898 0658 00       		.byte	0
 1899 0659 07       		.uleb128 0x7
 1900 065a B5000000 		.4byte	.LASF88
 1901 065e 0D       		.byte	0xd
 1902 065f 4A       		.byte	0x4a
 1903 0660 E5000000 		.4byte	0xe5
 1904 0664 04       		.byte	0x4
 1905 0665 07       		.uleb128 0x7
 1906 0666 2A040000 		.4byte	.LASF89
 1907 066a 0D       		.byte	0xd
 1908 066b 4B       		.byte	0x4b
 1909 066c E5000000 		.4byte	0xe5
 1910 0670 08       		.byte	0x8
 1911 0671 08       		.uleb128 0x8
 1912 0672 6E00     		.ascii	"n\000"
 1913 0674 0D       		.byte	0xd
 1914 0675 4C       		.byte	0x4c
 1915 0676 5E010000 		.4byte	0x15e
 1916 067a 0C       		.byte	0xc
 1917 067b 07       		.uleb128 0x7
 1918 067c 08060000 		.4byte	.LASF90
 1919 0680 0D       		.byte	0xd
 1920 0681 4D       		.byte	0x4d
 1921 0682 F0000000 		.4byte	0xf0
 1922 0686 10       		.byte	0x10
 1923 0687 00       		.byte	0
 1924 0688 04       		.uleb128 0x4
 1925 0689 BB000000 		.4byte	.LASF91
 1926 068d 0D       		.byte	0xd
 1927 068e 4E       		.byte	0x4e
 1928 068f 45060000 		.4byte	0x645
 1929 0693 12       		.uleb128 0x12
 1930 0694 38       		.byte	0x38
 1931 0695 0E       		.byte	0xe
 1932 0696 38       		.byte	0x38
 1933 0697 CC060000 		.4byte	0x6cc
 1934 069b 07       		.uleb128 0x7
 1935 069c E3030000 		.4byte	.LASF92
 1936 06a0 0E       		.byte	0xe
 1937 06a1 39       		.byte	0x39
 1938 06a2 5E010000 		.4byte	0x15e
ARM GAS  C:\cygwin64\tmp\cceZag5Q.s 			page 35


 1939 06a6 00       		.byte	0
 1940 06a7 07       		.uleb128 0x7
 1941 06a8 5A060000 		.4byte	.LASF93
 1942 06ac 0E       		.byte	0xe
 1943 06ad 3A       		.byte	0x3a
 1944 06ae 5E010000 		.4byte	0x15e
 1945 06b2 04       		.byte	0x4
 1946 06b3 07       		.uleb128 0x7
 1947 06b4 DA080000 		.4byte	.LASF94
 1948 06b8 0E       		.byte	0xe
 1949 06b9 3B       		.byte	0x3b
 1950 06ba 88060000 		.4byte	0x688
 1951 06be 08       		.byte	0x8
 1952 06bf 07       		.uleb128 0x7
 1953 06c0 8B040000 		.4byte	.LASF95
 1954 06c4 0E       		.byte	0xe
 1955 06c5 3D       		.byte	0x3d
 1956 06c6 88060000 		.4byte	0x688
 1957 06ca 20       		.byte	0x20
 1958 06cb 00       		.byte	0
 1959 06cc 04       		.uleb128 0x4
 1960 06cd FE030000 		.4byte	.LASF96
 1961 06d1 0E       		.byte	0xe
 1962 06d2 3F       		.byte	0x3f
 1963 06d3 93060000 		.4byte	0x693
 1964 06d7 13       		.uleb128 0x13
 1965 06d8 04       		.byte	0x4
 1966 06d9 08       		.byte	0x8
 1967 06da D2       		.byte	0xd2
 1968 06db 3A070000 		.4byte	0x73a
 1969 06df 14       		.uleb128 0x14
 1970 06e0 47000000 		.4byte	.LASF97
 1971 06e4 08       		.byte	0x8
 1972 06e5 D9       		.byte	0xd9
 1973 06e6 27010000 		.4byte	0x127
 1974 06ea 14       		.uleb128 0x14
 1975 06eb F4000000 		.4byte	.LASF98
 1976 06ef 08       		.byte	0x8
 1977 06f0 E0       		.byte	0xe0
 1978 06f1 27010000 		.4byte	0x127
 1979 06f5 14       		.uleb128 0x14
 1980 06f6 86080000 		.4byte	.LASF99
 1981 06fa 08       		.byte	0x8
 1982 06fb E7       		.byte	0xe7
 1983 06fc 52030000 		.4byte	0x352
 1984 0700 14       		.uleb128 0x14
 1985 0701 3B000000 		.4byte	.LASF100
 1986 0705 08       		.byte	0x8
 1987 0706 EE       		.byte	0xee
 1988 0707 3A070000 		.4byte	0x73a
 1989 070b 14       		.uleb128 0x14
 1990 070c 08010000 		.4byte	.LASF101
 1991 0710 08       		.byte	0x8
 1992 0711 F3       		.byte	0xf3
 1993 0712 27010000 		.4byte	0x127
 1994 0716 14       		.uleb128 0x14
 1995 0717 BC030000 		.4byte	.LASF102
ARM GAS  C:\cygwin64\tmp\cceZag5Q.s 			page 36


 1996 071b 08       		.byte	0x8
 1997 071c FC       		.byte	0xfc
 1998 071d 65070000 		.4byte	0x765
 1999 0721 15       		.uleb128 0x15
 2000 0722 35070000 		.4byte	.LASF103
 2001 0726 08       		.byte	0x8
 2002 0727 0501     		.2byte	0x105
 2003 0729 9C070000 		.4byte	0x79c
 2004 072d 15       		.uleb128 0x15
 2005 072e BF060000 		.4byte	.LASF104
 2006 0732 08       		.byte	0x8
 2007 0733 0D01     		.2byte	0x10d
 2008 0735 3D010000 		.4byte	0x13d
 2009 0739 00       		.byte	0
 2010 073a 0B       		.uleb128 0xb
 2011 073b 04       		.byte	0x4
 2012 073c 6A020000 		.4byte	0x26a
 2013 0740 06       		.uleb128 0x6
 2014 0741 F4060000 		.4byte	.LASF105
 2015 0745 0C       		.byte	0xc
 2016 0746 0F       		.byte	0xf
 2017 0747 34       		.byte	0x34
 2018 0748 65070000 		.4byte	0x765
 2019 074c 07       		.uleb128 0x7
 2020 074d E9030000 		.4byte	.LASF34
 2021 0751 0F       		.byte	0xf
 2022 0752 35       		.byte	0x35
 2023 0753 9F020000 		.4byte	0x29f
 2024 0757 00       		.byte	0
 2025 0758 08       		.uleb128 0x8
 2026 0759 636E7400 		.ascii	"cnt\000"
 2027 075d 0F       		.byte	0xf
 2028 075e 37       		.byte	0x37
 2029 075f 53010000 		.4byte	0x153
 2030 0763 08       		.byte	0x8
 2031 0764 00       		.byte	0
 2032 0765 0B       		.uleb128 0xb
 2033 0766 04       		.byte	0x4
 2034 0767 40070000 		.4byte	0x740
 2035 076b 06       		.uleb128 0x6
 2036 076c 2A080000 		.4byte	.LASF106
 2037 0770 10       		.byte	0x10
 2038 0771 10       		.byte	0x10
 2039 0772 39       		.byte	0x39
 2040 0773 9C070000 		.4byte	0x79c
 2041 0777 07       		.uleb128 0x7
 2042 0778 E9030000 		.4byte	.LASF34
 2043 077c 10       		.byte	0x10
 2044 077d 3A       		.byte	0x3a
 2045 077e 9F020000 		.4byte	0x29f
 2046 0782 00       		.byte	0
 2047 0783 07       		.uleb128 0x7
 2048 0784 58070000 		.4byte	.LASF107
 2049 0788 10       		.byte	0x10
 2050 0789 3C       		.byte	0x3c
 2051 078a 75020000 		.4byte	0x275
 2052 078e 08       		.byte	0x8
ARM GAS  C:\cygwin64\tmp\cceZag5Q.s 			page 37


 2053 078f 07       		.uleb128 0x7
 2054 0790 33010000 		.4byte	.LASF54
 2055 0794 10       		.byte	0x10
 2056 0795 3E       		.byte	0x3e
 2057 0796 FE080000 		.4byte	0x8fe
 2058 079a 0C       		.byte	0xc
 2059 079b 00       		.byte	0
 2060 079c 0B       		.uleb128 0xb
 2061 079d 04       		.byte	0x4
 2062 079e 6B070000 		.4byte	0x76b
 2063 07a2 0B       		.uleb128 0xb
 2064 07a3 04       		.byte	0x4
 2065 07a4 B4070000 		.4byte	0x7b4
 2066 07a8 05       		.uleb128 0x5
 2067 07a9 A2070000 		.4byte	0x7a2
 2068 07ad 03       		.uleb128 0x3
 2069 07ae 01       		.byte	0x1
 2070 07af 08       		.byte	0x8
 2071 07b0 77070000 		.4byte	.LASF108
 2072 07b4 16       		.uleb128 0x16
 2073 07b5 AD070000 		.4byte	0x7ad
 2074 07b9 0B       		.uleb128 0xb
 2075 07ba 04       		.byte	0x4
 2076 07bb B0040000 		.4byte	0x4b0
 2077 07bf 0B       		.uleb128 0xb
 2078 07c0 04       		.byte	0x4
 2079 07c1 54030000 		.4byte	0x354
 2080 07c5 17       		.uleb128 0x17
 2081 07c6 636800   		.ascii	"ch\000"
 2082 07c9 08       		.byte	0x8
 2083 07ca D201     		.2byte	0x1d2
 2084 07cc 21040000 		.4byte	0x421
 2085 07d0 18       		.uleb128 0x18
 2086 07d1 B0040000 		.4byte	0x4b0
 2087 07d5 DB070000 		.4byte	0x7db
 2088 07d9 19       		.uleb128 0x19
 2089 07da 00       		.byte	0
 2090 07db 10       		.uleb128 0x10
 2091 07dc 0A070000 		.4byte	.LASF109
 2092 07e0 01       		.byte	0x1
 2093 07e1 2B01     		.2byte	0x12b
 2094 07e3 D0070000 		.4byte	0x7d0
 2095 07e7 12       		.uleb128 0x12
 2096 07e8 16       		.byte	0x16
 2097 07e9 11       		.byte	0x11
 2098 07ea 34       		.byte	0x34
 2099 07eb C8080000 		.4byte	0x8c8
 2100 07ef 07       		.uleb128 0x7
 2101 07f0 FF070000 		.4byte	.LASF110
 2102 07f4 11       		.byte	0x11
 2103 07f5 35       		.byte	0x35
 2104 07f6 C8080000 		.4byte	0x8c8
 2105 07fa 00       		.byte	0
 2106 07fb 07       		.uleb128 0x7
 2107 07fc 62030000 		.4byte	.LASF111
 2108 0800 11       		.byte	0x11
 2109 0801 36       		.byte	0x36
ARM GAS  C:\cygwin64\tmp\cceZag5Q.s 			page 38


 2110 0802 A9000000 		.4byte	0xa9
 2111 0806 04       		.byte	0x4
 2112 0807 07       		.uleb128 0x7
 2113 0808 6F010000 		.4byte	.LASF112
 2114 080c 11       		.byte	0x11
 2115 080d 37       		.byte	0x37
 2116 080e A9000000 		.4byte	0xa9
 2117 0812 05       		.byte	0x5
 2118 0813 07       		.uleb128 0x7
 2119 0814 19050000 		.4byte	.LASF113
 2120 0818 11       		.byte	0x11
 2121 0819 38       		.byte	0x38
 2122 081a B4000000 		.4byte	0xb4
 2123 081e 06       		.byte	0x6
 2124 081f 07       		.uleb128 0x7
 2125 0820 12080000 		.4byte	.LASF114
 2126 0824 11       		.byte	0x11
 2127 0825 39       		.byte	0x39
 2128 0826 A9000000 		.4byte	0xa9
 2129 082a 08       		.byte	0x8
 2130 082b 07       		.uleb128 0x7
 2131 082c 1C070000 		.4byte	.LASF115
 2132 0830 11       		.byte	0x11
 2133 0831 3A       		.byte	0x3a
 2134 0832 A9000000 		.4byte	0xa9
 2135 0836 09       		.byte	0x9
 2136 0837 07       		.uleb128 0x7
 2137 0838 24060000 		.4byte	.LASF116
 2138 083c 11       		.byte	0x11
 2139 083d 3B       		.byte	0x3b
 2140 083e A9000000 		.4byte	0xa9
 2141 0842 0A       		.byte	0xa
 2142 0843 07       		.uleb128 0x7
 2143 0844 7F060000 		.4byte	.LASF117
 2144 0848 11       		.byte	0x11
 2145 0849 3C       		.byte	0x3c
 2146 084a A9000000 		.4byte	0xa9
 2147 084e 0B       		.byte	0xb
 2148 084f 07       		.uleb128 0x7
 2149 0850 7B040000 		.4byte	.LASF118
 2150 0854 11       		.byte	0x11
 2151 0855 3D       		.byte	0x3d
 2152 0856 A9000000 		.4byte	0xa9
 2153 085a 0C       		.byte	0xc
 2154 085b 07       		.uleb128 0x7
 2155 085c B6050000 		.4byte	.LASF119
 2156 0860 11       		.byte	0x11
 2157 0861 3E       		.byte	0x3e
 2158 0862 A9000000 		.4byte	0xa9
 2159 0866 0D       		.byte	0xd
 2160 0867 07       		.uleb128 0x7
 2161 0868 E2070000 		.4byte	.LASF120
 2162 086c 11       		.byte	0x11
 2163 086d 3F       		.byte	0x3f
 2164 086e A9000000 		.4byte	0xa9
 2165 0872 0E       		.byte	0xe
 2166 0873 07       		.uleb128 0x7
ARM GAS  C:\cygwin64\tmp\cceZag5Q.s 			page 39


 2167 0874 B0040000 		.4byte	.LASF121
 2168 0878 11       		.byte	0x11
 2169 0879 40       		.byte	0x40
 2170 087a A9000000 		.4byte	0xa9
 2171 087e 0F       		.byte	0xf
 2172 087f 07       		.uleb128 0x7
 2173 0880 88060000 		.4byte	.LASF122
 2174 0884 11       		.byte	0x11
 2175 0885 41       		.byte	0x41
 2176 0886 A9000000 		.4byte	0xa9
 2177 088a 10       		.byte	0x10
 2178 088b 07       		.uleb128 0x7
 2179 088c 9C080000 		.4byte	.LASF123
 2180 0890 11       		.byte	0x11
 2181 0891 42       		.byte	0x42
 2182 0892 A9000000 		.4byte	0xa9
 2183 0896 11       		.byte	0x11
 2184 0897 07       		.uleb128 0x7
 2185 0898 C8080000 		.4byte	.LASF124
 2186 089c 11       		.byte	0x11
 2187 089d 43       		.byte	0x43
 2188 089e A9000000 		.4byte	0xa9
 2189 08a2 12       		.byte	0x12
 2190 08a3 07       		.uleb128 0x7
 2191 08a4 F5030000 		.4byte	.LASF125
 2192 08a8 11       		.byte	0x11
 2193 08a9 44       		.byte	0x44
 2194 08aa A9000000 		.4byte	0xa9
 2195 08ae 13       		.byte	0x13
 2196 08af 07       		.uleb128 0x7
 2197 08b0 D7020000 		.4byte	.LASF126
 2198 08b4 11       		.byte	0x11
 2199 08b5 45       		.byte	0x45
 2200 08b6 A9000000 		.4byte	0xa9
 2201 08ba 14       		.byte	0x14
 2202 08bb 07       		.uleb128 0x7
 2203 08bc 01070000 		.4byte	.LASF127
 2204 08c0 11       		.byte	0x11
 2205 08c1 46       		.byte	0x46
 2206 08c2 A9000000 		.4byte	0xa9
 2207 08c6 15       		.byte	0x15
 2208 08c7 00       		.byte	0
 2209 08c8 18       		.uleb128 0x18
 2210 08c9 AD070000 		.4byte	0x7ad
 2211 08cd D8080000 		.4byte	0x8d8
 2212 08d1 1A       		.uleb128 0x1a
 2213 08d2 87040000 		.4byte	0x487
 2214 08d6 03       		.byte	0x3
 2215 08d7 00       		.byte	0
 2216 08d8 04       		.uleb128 0x4
 2217 08d9 CD020000 		.4byte	.LASF128
 2218 08dd 11       		.byte	0x11
 2219 08de 47       		.byte	0x47
 2220 08df E7070000 		.4byte	0x7e7
 2221 08e3 16       		.uleb128 0x16
 2222 08e4 D8080000 		.4byte	0x8d8
 2223 08e8 11       		.uleb128 0x11
ARM GAS  C:\cygwin64\tmp\cceZag5Q.s 			page 40


 2224 08e9 DA030000 		.4byte	.LASF129
 2225 08ed 11       		.byte	0x11
 2226 08ee 6C       		.byte	0x6c
 2227 08ef E3080000 		.4byte	0x8e3
 2228 08f3 04       		.uleb128 0x4
 2229 08f4 67030000 		.4byte	.LASF130
 2230 08f8 10       		.byte	0x10
 2231 08f9 34       		.byte	0x34
 2232 08fa 6B070000 		.4byte	0x76b
 2233 08fe 0B       		.uleb128 0xb
 2234 08ff 04       		.byte	0x4
 2235 0900 F3080000 		.4byte	0x8f3
 2236 0904 04       		.uleb128 0x4
 2237 0905 FF040000 		.4byte	.LASF131
 2238 0909 12       		.byte	0x12
 2239 090a 34       		.byte	0x34
 2240 090b 0F090000 		.4byte	0x90f
 2241 090f 06       		.uleb128 0x6
 2242 0910 E5080000 		.4byte	.LASF132
 2243 0914 14       		.byte	0x14
 2244 0915 12       		.byte	0x12
 2245 0916 39       		.byte	0x39
 2246 0917 58090000 		.4byte	0x958
 2247 091b 07       		.uleb128 0x7
 2248 091c 33010000 		.4byte	.LASF54
 2249 0920 12       		.byte	0x12
 2250 0921 3A       		.byte	0x3a
 2251 0922 58090000 		.4byte	0x958
 2252 0926 00       		.byte	0
 2253 0927 07       		.uleb128 0x7
 2254 0928 7C050000 		.4byte	.LASF133
 2255 092c 12       		.byte	0x12
 2256 092d 3D       		.byte	0x3d
 2257 092e 75020000 		.4byte	0x275
 2258 0932 04       		.byte	0x4
 2259 0933 07       		.uleb128 0x7
 2260 0934 25070000 		.4byte	.LASF134
 2261 0938 12       		.byte	0x12
 2262 0939 3F       		.byte	0x3f
 2263 093a 3D010000 		.4byte	0x13d
 2264 093e 08       		.byte	0x8
 2265 093f 07       		.uleb128 0x7
 2266 0940 4E080000 		.4byte	.LASF41
 2267 0944 12       		.byte	0x12
 2268 0945 41       		.byte	0x41
 2269 0946 48010000 		.4byte	0x148
 2270 094a 0C       		.byte	0xc
 2271 094b 07       		.uleb128 0x7
 2272 094c 00030000 		.4byte	.LASF135
 2273 0950 12       		.byte	0x12
 2274 0951 43       		.byte	0x43
 2275 0952 48010000 		.4byte	0x148
 2276 0956 10       		.byte	0x10
 2277 0957 00       		.byte	0
 2278 0958 0B       		.uleb128 0xb
 2279 0959 04       		.byte	0x4
 2280 095a 04090000 		.4byte	0x904
ARM GAS  C:\cygwin64\tmp\cceZag5Q.s 			page 41


 2281 095e 06       		.uleb128 0x6
 2282 095f 39080000 		.4byte	.LASF136
 2283 0963 04       		.byte	0x4
 2284 0964 12       		.byte	0x12
 2285 0965 4A       		.byte	0x4a
 2286 0966 77090000 		.4byte	0x977
 2287 096a 07       		.uleb128 0x7
 2288 096b 33010000 		.4byte	.LASF54
 2289 096f 12       		.byte	0x12
 2290 0970 4B       		.byte	0x4b
 2291 0971 58090000 		.4byte	0x958
 2292 0975 00       		.byte	0
 2293 0976 00       		.byte	0
 2294 0977 04       		.uleb128 0x4
 2295 0978 75030000 		.4byte	.LASF137
 2296 097c 12       		.byte	0x12
 2297 097d 4E       		.byte	0x4e
 2298 097e 5E090000 		.4byte	0x95e
 2299 0982 04       		.uleb128 0x4
 2300 0983 84030000 		.4byte	.LASF138
 2301 0987 12       		.byte	0x12
 2302 0988 53       		.byte	0x53
 2303 0989 92090000 		.4byte	0x992
 2304 098d 16       		.uleb128 0x16
 2305 098e 82090000 		.4byte	0x982
 2306 0992 0B       		.uleb128 0xb
 2307 0993 04       		.byte	0x4
 2308 0994 98090000 		.4byte	0x998
 2309 0998 0D       		.uleb128 0xd
 2310 0999 A3090000 		.4byte	0x9a3
 2311 099d 0E       		.uleb128 0xe
 2312 099e 32010000 		.4byte	0x132
 2313 09a2 00       		.byte	0
 2314 09a3 03       		.uleb128 0x3
 2315 09a4 01       		.byte	0x1
 2316 09a5 02       		.byte	0x2
 2317 09a6 63060000 		.4byte	.LASF139
 2318 09aa 1B       		.uleb128 0x1b
 2319 09ab 5B010000 		.4byte	.LASF141
 2320 09af 03       		.byte	0x3
 2321 09b0 3302     		.2byte	0x233
 2322 09b2 3D010000 		.4byte	0x13d
 2323 09b6 00000000 		.4byte	.LFB262
 2324 09ba 44000000 		.4byte	.LFE262-.LFB262
 2325 09be 01       		.uleb128 0x1
 2326 09bf 9C       		.byte	0x9c
 2327 09c0 270A0000 		.4byte	0xa27
 2328 09c4 1C       		.uleb128 0x1c
 2329 09c5 25070000 		.4byte	.LASF134
 2330 09c9 03       		.byte	0x3
 2331 09ca 3302     		.2byte	0x233
 2332 09cc 3D010000 		.4byte	0x13d
 2333 09d0 00000000 		.4byte	.LLST39
 2334 09d4 1C       		.uleb128 0x1c
 2335 09d5 DE050000 		.4byte	.LASF140
 2336 09d9 03       		.byte	0x3
 2337 09da 3302     		.2byte	0x233
ARM GAS  C:\cygwin64\tmp\cceZag5Q.s 			page 42


 2338 09dc 69010000 		.4byte	0x169
 2339 09e0 37000000 		.4byte	.LLST40
 2340 09e4 1D       		.uleb128 0x1d
 2341 09e5 63747000 		.ascii	"ctp\000"
 2342 09e9 03       		.byte	0x3
 2343 09ea 3402     		.2byte	0x234
 2344 09ec 75020000 		.4byte	0x275
 2345 09f0 01       		.uleb128 0x1
 2346 09f1 55       		.byte	0x55
 2347 09f2 1E       		.uleb128 0x1e
 2348 09f3 0E000000 		.4byte	.LVL111
 2349 09f7 ED100000 		.4byte	0x10ed
 2350 09fb 1E       		.uleb128 0x1e
 2351 09fc 1C000000 		.4byte	.LVL112
 2352 0a00 95100000 		.4byte	0x1095
 2353 0a04 1F       		.uleb128 0x1f
 2354 0a05 2C000000 		.4byte	.LVL115
 2355 0a09 68110000 		.4byte	0x1168
 2356 0a0d 1D0A0000 		.4byte	0xa1d
 2357 0a11 20       		.uleb128 0x20
 2358 0a12 01       		.uleb128 0x1
 2359 0a13 50       		.byte	0x50
 2360 0a14 01       		.uleb128 0x1
 2361 0a15 3B       		.byte	0x3b
 2362 0a16 20       		.uleb128 0x20
 2363 0a17 01       		.uleb128 0x1
 2364 0a18 51       		.byte	0x51
 2365 0a19 02       		.uleb128 0x2
 2366 0a1a 76       		.byte	0x76
 2367 0a1b 00       		.sleb128 0
 2368 0a1c 00       		.byte	0
 2369 0a1d 1E       		.uleb128 0x1e
 2370 0a1e 3C000000 		.4byte	.LVL116
 2371 0a22 95100000 		.4byte	0x1095
 2372 0a26 00       		.byte	0
 2373 0a27 1B       		.uleb128 0x1b
 2374 0a28 EC020000 		.4byte	.LASF142
 2375 0a2c 03       		.byte	0x3
 2376 0a2d 0A02     		.2byte	0x20a
 2377 0a2f 3D010000 		.4byte	0x13d
 2378 0a33 00000000 		.4byte	.LFB261
 2379 0a37 40000000 		.4byte	.LFE261-.LFB261
 2380 0a3b 01       		.uleb128 0x1
 2381 0a3c 9C       		.byte	0x9c
 2382 0a3d A50A0000 		.4byte	0xaa5
 2383 0a41 1C       		.uleb128 0x1c
 2384 0a42 25070000 		.4byte	.LASF134
 2385 0a46 03       		.byte	0x3
 2386 0a47 0A02     		.2byte	0x20a
 2387 0a49 3D010000 		.4byte	0x13d
 2388 0a4d 55000000 		.4byte	.LLST36
 2389 0a51 1C       		.uleb128 0x1c
 2390 0a52 DE050000 		.4byte	.LASF140
 2391 0a56 03       		.byte	0x3
 2392 0a57 0A02     		.2byte	0x20a
 2393 0a59 69010000 		.4byte	0x169
 2394 0a5d 73000000 		.4byte	.LLST37
ARM GAS  C:\cygwin64\tmp\cceZag5Q.s 			page 43


 2395 0a61 1D       		.uleb128 0x1d
 2396 0a62 63747000 		.ascii	"ctp\000"
 2397 0a66 03       		.byte	0x3
 2398 0a67 0B02     		.2byte	0x20b
 2399 0a69 75020000 		.4byte	0x275
 2400 0a6d 01       		.uleb128 0x1
 2401 0a6e 55       		.byte	0x55
 2402 0a6f 21       		.uleb128 0x21
 2403 0a70 6D00     		.ascii	"m\000"
 2404 0a72 03       		.byte	0x3
 2405 0a73 0C02     		.2byte	0x20c
 2406 0a75 3D010000 		.4byte	0x13d
 2407 0a79 91000000 		.4byte	.LLST38
 2408 0a7d 1E       		.uleb128 0x1e
 2409 0a7e 0E000000 		.4byte	.LVL101
 2410 0a82 ED100000 		.4byte	0x10ed
 2411 0a86 1E       		.uleb128 0x1e
 2412 0a87 1A000000 		.4byte	.LVL104
 2413 0a8b 95100000 		.4byte	0x1095
 2414 0a8f 22       		.uleb128 0x22
 2415 0a90 28000000 		.4byte	.LVL106
 2416 0a94 68110000 		.4byte	0x1168
 2417 0a98 20       		.uleb128 0x20
 2418 0a99 01       		.uleb128 0x1
 2419 0a9a 50       		.byte	0x50
 2420 0a9b 01       		.uleb128 0x1
 2421 0a9c 3A       		.byte	0x3a
 2422 0a9d 20       		.uleb128 0x20
 2423 0a9e 01       		.uleb128 0x1
 2424 0a9f 51       		.byte	0x51
 2425 0aa0 02       		.uleb128 0x2
 2426 0aa1 77       		.byte	0x77
 2427 0aa2 00       		.sleb128 0
 2428 0aa3 00       		.byte	0
 2429 0aa4 00       		.byte	0
 2430 0aa5 1B       		.uleb128 0x1b
 2431 0aa6 72080000 		.4byte	.LASF143
 2432 0aaa 03       		.byte	0x3
 2433 0aab DF01     		.2byte	0x1df
 2434 0aad 3D010000 		.4byte	0x13d
 2435 0ab1 00000000 		.4byte	.LFB260
 2436 0ab5 44000000 		.4byte	.LFE260-.LFB260
 2437 0ab9 01       		.uleb128 0x1
 2438 0aba 9C       		.byte	0x9c
 2439 0abb 230B0000 		.4byte	0xb23
 2440 0abf 1C       		.uleb128 0x1c
 2441 0ac0 25070000 		.4byte	.LASF134
 2442 0ac4 03       		.byte	0x3
 2443 0ac5 DF01     		.2byte	0x1df
 2444 0ac7 3D010000 		.4byte	0x13d
 2445 0acb BF000000 		.4byte	.LLST33
 2446 0acf 1C       		.uleb128 0x1c
 2447 0ad0 DE050000 		.4byte	.LASF140
 2448 0ad4 03       		.byte	0x3
 2449 0ad5 DF01     		.2byte	0x1df
 2450 0ad7 69010000 		.4byte	0x169
 2451 0adb DD000000 		.4byte	.LLST34
ARM GAS  C:\cygwin64\tmp\cceZag5Q.s 			page 44


 2452 0adf 1D       		.uleb128 0x1d
 2453 0ae0 63747000 		.ascii	"ctp\000"
 2454 0ae4 03       		.byte	0x3
 2455 0ae5 E001     		.2byte	0x1e0
 2456 0ae7 75020000 		.4byte	0x275
 2457 0aeb 01       		.uleb128 0x1
 2458 0aec 55       		.byte	0x55
 2459 0aed 21       		.uleb128 0x21
 2460 0aee 6D00     		.ascii	"m\000"
 2461 0af0 03       		.byte	0x3
 2462 0af1 E101     		.2byte	0x1e1
 2463 0af3 3D010000 		.4byte	0x13d
 2464 0af7 FB000000 		.4byte	.LLST35
 2465 0afb 1E       		.uleb128 0x1e
 2466 0afc 0E000000 		.4byte	.LVL90
 2467 0b00 ED100000 		.4byte	0x10ed
 2468 0b04 1E       		.uleb128 0x1e
 2469 0b05 1A000000 		.4byte	.LVL93
 2470 0b09 95100000 		.4byte	0x1095
 2471 0b0d 22       		.uleb128 0x22
 2472 0b0e 28000000 		.4byte	.LVL95
 2473 0b12 68110000 		.4byte	0x1168
 2474 0b16 20       		.uleb128 0x20
 2475 0b17 01       		.uleb128 0x1
 2476 0b18 50       		.byte	0x50
 2477 0b19 01       		.uleb128 0x1
 2478 0b1a 3A       		.byte	0x3a
 2479 0b1b 20       		.uleb128 0x20
 2480 0b1c 01       		.uleb128 0x1
 2481 0b1d 51       		.byte	0x51
 2482 0b1e 02       		.uleb128 0x2
 2483 0b1f 77       		.byte	0x77
 2484 0b20 00       		.sleb128 0
 2485 0b21 00       		.byte	0
 2486 0b22 00       		.byte	0
 2487 0b23 1B       		.uleb128 0x1b
 2488 0b24 E3050000 		.4byte	.LASF144
 2489 0b28 03       		.byte	0x3
 2490 0b29 B901     		.2byte	0x1b9
 2491 0b2b 3D010000 		.4byte	0x13d
 2492 0b2f 00000000 		.4byte	.LFB259
 2493 0b33 30000000 		.4byte	.LFE259-.LFB259
 2494 0b37 01       		.uleb128 0x1
 2495 0b38 9C       		.byte	0x9c
 2496 0b39 830B0000 		.4byte	0xb83
 2497 0b3d 1C       		.uleb128 0x1c
 2498 0b3e 25070000 		.4byte	.LASF134
 2499 0b42 03       		.byte	0x3
 2500 0b43 B901     		.2byte	0x1b9
 2501 0b45 3D010000 		.4byte	0x13d
 2502 0b49 29010000 		.4byte	.LLST31
 2503 0b4d 21       		.uleb128 0x21
 2504 0b4e 63747000 		.ascii	"ctp\000"
 2505 0b52 03       		.byte	0x3
 2506 0b53 BA01     		.2byte	0x1ba
 2507 0b55 75020000 		.4byte	0x275
 2508 0b59 52010000 		.4byte	.LLST32
ARM GAS  C:\cygwin64\tmp\cceZag5Q.s 			page 45


 2509 0b5d 1E       		.uleb128 0x1e
 2510 0b5e 0C000000 		.4byte	.LVL84
 2511 0b62 ED100000 		.4byte	0x10ed
 2512 0b66 1F       		.uleb128 0x1f
 2513 0b67 1C000000 		.4byte	.LVL85
 2514 0b6b 74110000 		.4byte	0x1174
 2515 0b6f 790B0000 		.4byte	0xb79
 2516 0b73 20       		.uleb128 0x20
 2517 0b74 01       		.uleb128 0x1
 2518 0b75 50       		.byte	0x50
 2519 0b76 01       		.uleb128 0x1
 2520 0b77 3B       		.byte	0x3b
 2521 0b78 00       		.byte	0
 2522 0b79 1E       		.uleb128 0x1e
 2523 0b7a 28000000 		.4byte	.LVL86
 2524 0b7e 95100000 		.4byte	0x1095
 2525 0b82 00       		.byte	0
 2526 0b83 1B       		.uleb128 0x1b
 2527 0b84 BA020000 		.4byte	.LASF145
 2528 0b88 03       		.byte	0x3
 2529 0b89 9D01     		.2byte	0x19d
 2530 0b8b 3D010000 		.4byte	0x13d
 2531 0b8f 00000000 		.4byte	.LFB258
 2532 0b93 34000000 		.4byte	.LFE258-.LFB258
 2533 0b97 01       		.uleb128 0x1
 2534 0b98 9C       		.byte	0x9c
 2535 0b99 F10B0000 		.4byte	0xbf1
 2536 0b9d 1C       		.uleb128 0x1c
 2537 0b9e 25070000 		.4byte	.LASF134
 2538 0ba2 03       		.byte	0x3
 2539 0ba3 9D01     		.2byte	0x19d
 2540 0ba5 3D010000 		.4byte	0x13d
 2541 0ba9 65010000 		.4byte	.LLST28
 2542 0bad 21       		.uleb128 0x21
 2543 0bae 63747000 		.ascii	"ctp\000"
 2544 0bb2 03       		.byte	0x3
 2545 0bb3 9E01     		.2byte	0x19e
 2546 0bb5 75020000 		.4byte	0x275
 2547 0bb9 91010000 		.4byte	.LLST29
 2548 0bbd 21       		.uleb128 0x21
 2549 0bbe 6D00     		.ascii	"m\000"
 2550 0bc0 03       		.byte	0x3
 2551 0bc1 9F01     		.2byte	0x19f
 2552 0bc3 3D010000 		.4byte	0x13d
 2553 0bc7 A4010000 		.4byte	.LLST30
 2554 0bcb 1E       		.uleb128 0x1e
 2555 0bcc 0C000000 		.4byte	.LVL74
 2556 0bd0 ED100000 		.4byte	0x10ed
 2557 0bd4 1F       		.uleb128 0x1f
 2558 0bd5 1A000000 		.4byte	.LVL77
 2559 0bd9 74110000 		.4byte	0x1174
 2560 0bdd E70B0000 		.4byte	0xbe7
 2561 0be1 20       		.uleb128 0x20
 2562 0be2 01       		.uleb128 0x1
 2563 0be3 50       		.byte	0x50
 2564 0be4 01       		.uleb128 0x1
 2565 0be5 3A       		.byte	0x3a
ARM GAS  C:\cygwin64\tmp\cceZag5Q.s 			page 46


 2566 0be6 00       		.byte	0
 2567 0be7 1E       		.uleb128 0x1e
 2568 0be8 2A000000 		.4byte	.LVL80
 2569 0bec 95100000 		.4byte	0x1095
 2570 0bf0 00       		.byte	0
 2571 0bf1 1B       		.uleb128 0x1b
 2572 0bf2 21050000 		.4byte	.LASF146
 2573 0bf6 03       		.byte	0x3
 2574 0bf7 7F01     		.2byte	0x17f
 2575 0bf9 3D010000 		.4byte	0x13d
 2576 0bfd 00000000 		.4byte	.LFB257
 2577 0c01 38000000 		.4byte	.LFE257-.LFB257
 2578 0c05 01       		.uleb128 0x1
 2579 0c06 9C       		.byte	0x9c
 2580 0c07 5F0C0000 		.4byte	0xc5f
 2581 0c0b 1C       		.uleb128 0x1c
 2582 0c0c 25070000 		.4byte	.LASF134
 2583 0c10 03       		.byte	0x3
 2584 0c11 7F01     		.2byte	0x17f
 2585 0c13 3D010000 		.4byte	0x13d
 2586 0c17 DD010000 		.4byte	.LLST25
 2587 0c1b 21       		.uleb128 0x21
 2588 0c1c 63747000 		.ascii	"ctp\000"
 2589 0c20 03       		.byte	0x3
 2590 0c21 8001     		.2byte	0x180
 2591 0c23 75020000 		.4byte	0x275
 2592 0c27 09020000 		.4byte	.LLST26
 2593 0c2b 21       		.uleb128 0x21
 2594 0c2c 6D00     		.ascii	"m\000"
 2595 0c2e 03       		.byte	0x3
 2596 0c2f 8101     		.2byte	0x181
 2597 0c31 3D010000 		.4byte	0x13d
 2598 0c35 1C020000 		.4byte	.LLST27
 2599 0c39 1E       		.uleb128 0x1e
 2600 0c3a 0C000000 		.4byte	.LVL62
 2601 0c3e ED100000 		.4byte	0x10ed
 2602 0c42 1F       		.uleb128 0x1f
 2603 0c43 1A000000 		.4byte	.LVL66
 2604 0c47 74110000 		.4byte	0x1174
 2605 0c4b 550C0000 		.4byte	0xc55
 2606 0c4f 20       		.uleb128 0x20
 2607 0c50 01       		.uleb128 0x1
 2608 0c51 50       		.byte	0x50
 2609 0c52 01       		.uleb128 0x1
 2610 0c53 3A       		.byte	0x3a
 2611 0c54 00       		.byte	0
 2612 0c55 1E       		.uleb128 0x1e
 2613 0c56 2E000000 		.4byte	.LVL70
 2614 0c5a 95100000 		.4byte	0x1095
 2615 0c5e 00       		.byte	0
 2616 0c5f 23       		.uleb128 0x23
 2617 0c60 A8050000 		.4byte	.LASF149
 2618 0c64 03       		.byte	0x3
 2619 0c65 5C01     		.2byte	0x15c
 2620 0c67 00000000 		.4byte	.LFB256
 2621 0c6b 2A000000 		.4byte	.LFE256-.LFB256
 2622 0c6f 01       		.uleb128 0x1
ARM GAS  C:\cygwin64\tmp\cceZag5Q.s 			page 47


 2623 0c70 9C       		.byte	0x9c
 2624 0c71 BB0C0000 		.4byte	0xcbb
 2625 0c75 1C       		.uleb128 0x1c
 2626 0c76 13060000 		.4byte	.LASF147
 2627 0c7a 03       		.byte	0x3
 2628 0c7b 5C01     		.2byte	0x15c
 2629 0c7d BB0C0000 		.4byte	0xcbb
 2630 0c81 71020000 		.4byte	.LLST22
 2631 0c85 1C       		.uleb128 0x1c
 2632 0c86 25070000 		.4byte	.LASF134
 2633 0c8a 03       		.byte	0x3
 2634 0c8b 5C01     		.2byte	0x15c
 2635 0c8d 3D010000 		.4byte	0x13d
 2636 0c91 8F020000 		.4byte	.LLST23
 2637 0c95 21       		.uleb128 0x21
 2638 0c96 65696400 		.ascii	"eid\000"
 2639 0c9a 03       		.byte	0x3
 2640 0c9b 5D01     		.2byte	0x15d
 2641 0c9d 32010000 		.4byte	0x132
 2642 0ca1 AD020000 		.4byte	.LLST24
 2643 0ca5 24       		.uleb128 0x24
 2644 0ca6 D0060000 		.4byte	.LASF152
 2645 0caa D10C0000 		.4byte	0xcd1
 2646 0cae 25       		.uleb128 0x25
 2647 0caf 26000000 		.4byte	.LVL58
 2648 0cb3 20       		.uleb128 0x20
 2649 0cb4 01       		.uleb128 0x1
 2650 0cb5 50       		.byte	0x50
 2651 0cb6 02       		.uleb128 0x2
 2652 0cb7 74       		.byte	0x74
 2653 0cb8 00       		.sleb128 0
 2654 0cb9 00       		.byte	0
 2655 0cba 00       		.byte	0
 2656 0cbb 0B       		.uleb128 0xb
 2657 0cbc 04       		.byte	0x4
 2658 0cbd 8D090000 		.4byte	0x98d
 2659 0cc1 18       		.uleb128 0x18
 2660 0cc2 B4070000 		.4byte	0x7b4
 2661 0cc6 D10C0000 		.4byte	0xcd1
 2662 0cca 1A       		.uleb128 0x1a
 2663 0ccb 87040000 		.4byte	0x487
 2664 0ccf 0D       		.byte	0xd
 2665 0cd0 00       		.byte	0
 2666 0cd1 16       		.uleb128 0x16
 2667 0cd2 C10C0000 		.4byte	0xcc1
 2668 0cd6 1B       		.uleb128 0x1b
 2669 0cd7 A8060000 		.4byte	.LASF148
 2670 0cdb 03       		.byte	0x3
 2671 0cdc 4A01     		.2byte	0x14a
 2672 0cde 48010000 		.4byte	0x148
 2673 0ce2 00000000 		.4byte	.LFB255
 2674 0ce6 0A000000 		.4byte	.LFE255-.LFB255
 2675 0cea 01       		.uleb128 0x1
 2676 0ceb 9C       		.byte	0x9c
 2677 0cec 0F0D0000 		.4byte	0xd0f
 2678 0cf0 26       		.uleb128 0x26
 2679 0cf1 656C7000 		.ascii	"elp\000"
ARM GAS  C:\cygwin64\tmp\cceZag5Q.s 			page 48


 2680 0cf5 03       		.byte	0x3
 2681 0cf6 4A01     		.2byte	0x14a
 2682 0cf8 58090000 		.4byte	0x958
 2683 0cfc CC020000 		.4byte	.LLST21
 2684 0d00 27       		.uleb128 0x27
 2685 0d01 4E080000 		.4byte	.LASF41
 2686 0d05 03       		.byte	0x3
 2687 0d06 4B01     		.2byte	0x14b
 2688 0d08 48010000 		.4byte	0x148
 2689 0d0c 01       		.uleb128 0x1
 2690 0d0d 50       		.byte	0x50
 2691 0d0e 00       		.byte	0
 2692 0d0f 23       		.uleb128 0x23
 2693 0d10 2C030000 		.4byte	.LASF150
 2694 0d14 03       		.byte	0x3
 2695 0d15 3701     		.2byte	0x137
 2696 0d17 00000000 		.4byte	.LFB254
 2697 0d1b 1E000000 		.4byte	.LFE254-.LFB254
 2698 0d1f 01       		.uleb128 0x1
 2699 0d20 9C       		.byte	0x9c
 2700 0d21 7B0D0000 		.4byte	0xd7b
 2701 0d25 26       		.uleb128 0x26
 2702 0d26 65737000 		.ascii	"esp\000"
 2703 0d2a 03       		.byte	0x3
 2704 0d2b 3701     		.2byte	0x137
 2705 0d2d 7B0D0000 		.4byte	0xd7b
 2706 0d31 EA020000 		.4byte	.LLST19
 2707 0d35 1C       		.uleb128 0x1c
 2708 0d36 4E080000 		.4byte	.LASF41
 2709 0d3a 03       		.byte	0x3
 2710 0d3b 3701     		.2byte	0x137
 2711 0d3d 48010000 		.4byte	0x148
 2712 0d41 16030000 		.4byte	.LLST20
 2713 0d45 1E       		.uleb128 0x1e
 2714 0d46 0A000000 		.4byte	.LVL47
 2715 0d4a ED100000 		.4byte	0x10ed
 2716 0d4e 1F       		.uleb128 0x1f
 2717 0d4f 12000000 		.4byte	.LVL48
 2718 0d53 B70E0000 		.4byte	0xeb7
 2719 0d57 680D0000 		.4byte	0xd68
 2720 0d5b 20       		.uleb128 0x20
 2721 0d5c 01       		.uleb128 0x1
 2722 0d5d 50       		.byte	0x50
 2723 0d5e 02       		.uleb128 0x2
 2724 0d5f 74       		.byte	0x74
 2725 0d60 00       		.sleb128 0
 2726 0d61 20       		.uleb128 0x20
 2727 0d62 01       		.uleb128 0x1
 2728 0d63 51       		.byte	0x51
 2729 0d64 02       		.uleb128 0x2
 2730 0d65 75       		.byte	0x75
 2731 0d66 00       		.sleb128 0
 2732 0d67 00       		.byte	0
 2733 0d68 1E       		.uleb128 0x1e
 2734 0d69 16000000 		.4byte	.LVL49
 2735 0d6d 80110000 		.4byte	0x1180
 2736 0d71 28       		.uleb128 0x28
ARM GAS  C:\cygwin64\tmp\cceZag5Q.s 			page 49


 2737 0d72 1E000000 		.4byte	.LVL51
 2738 0d76 95100000 		.4byte	0x1095
 2739 0d7a 00       		.byte	0
 2740 0d7b 0B       		.uleb128 0xb
 2741 0d7c 04       		.byte	0x4
 2742 0d7d 77090000 		.4byte	0x977
 2743 0d81 23       		.uleb128 0x23
 2744 0d82 F4080000 		.4byte	.LASF151
 2745 0d86 03       		.byte	0x3
 2746 0d87 1A01     		.2byte	0x11a
 2747 0d89 00000000 		.4byte	.LFB253
 2748 0d8d 2A000000 		.4byte	.LFE253-.LFB253
 2749 0d91 01       		.uleb128 0x1
 2750 0d92 9C       		.byte	0x9c
 2751 0d93 D10D0000 		.4byte	0xdd1
 2752 0d97 26       		.uleb128 0x26
 2753 0d98 747000   		.ascii	"tp\000"
 2754 0d9b 03       		.byte	0x3
 2755 0d9c 1A01     		.2byte	0x11a
 2756 0d9e 75020000 		.4byte	0x275
 2757 0da2 42030000 		.4byte	.LLST13
 2758 0da6 1C       		.uleb128 0x1c
 2759 0da7 25070000 		.4byte	.LASF134
 2760 0dab 03       		.byte	0x3
 2761 0dac 1A01     		.2byte	0x11a
 2762 0dae 3D010000 		.4byte	0x13d
 2763 0db2 6E030000 		.4byte	.LLST14
 2764 0db6 24       		.uleb128 0x24
 2765 0db7 D0060000 		.4byte	.LASF152
 2766 0dbb E10D0000 		.4byte	0xde1
 2767 0dbf 29       		.uleb128 0x29
 2768 0dc0 28000000 		.4byte	.LVL33
 2769 0dc4 8C110000 		.4byte	0x118c
 2770 0dc8 20       		.uleb128 0x20
 2771 0dc9 01       		.uleb128 0x1
 2772 0dca 50       		.byte	0x50
 2773 0dcb 03       		.uleb128 0x3
 2774 0dcc F3       		.byte	0xf3
 2775 0dcd 01       		.uleb128 0x1
 2776 0dce 50       		.byte	0x50
 2777 0dcf 00       		.byte	0
 2778 0dd0 00       		.byte	0
 2779 0dd1 18       		.uleb128 0x18
 2780 0dd2 B4070000 		.4byte	0x7b4
 2781 0dd6 E10D0000 		.4byte	0xde1
 2782 0dda 1A       		.uleb128 0x1a
 2783 0ddb 87040000 		.4byte	0x487
 2784 0ddf 0C       		.byte	0xc
 2785 0de0 00       		.byte	0
 2786 0de1 16       		.uleb128 0x16
 2787 0de2 D10D0000 		.4byte	0xdd1
 2788 0de6 23       		.uleb128 0x23
 2789 0de7 9F000000 		.4byte	.LASF153
 2790 0deb 03       		.byte	0x3
 2791 0dec 0401     		.2byte	0x104
 2792 0dee 00000000 		.4byte	.LFB252
 2793 0df2 1E000000 		.4byte	.LFE252-.LFB252
ARM GAS  C:\cygwin64\tmp\cceZag5Q.s 			page 50


 2794 0df6 01       		.uleb128 0x1
 2795 0df7 9C       		.byte	0x9c
 2796 0df8 5A0E0000 		.4byte	0xe5a
 2797 0dfc 26       		.uleb128 0x26
 2798 0dfd 747000   		.ascii	"tp\000"
 2799 0e00 03       		.byte	0x3
 2800 0e01 0401     		.2byte	0x104
 2801 0e03 75020000 		.4byte	0x275
 2802 0e07 8F030000 		.4byte	.LLST17
 2803 0e0b 1C       		.uleb128 0x1c
 2804 0e0c 25070000 		.4byte	.LASF134
 2805 0e10 03       		.byte	0x3
 2806 0e11 0401     		.2byte	0x104
 2807 0e13 3D010000 		.4byte	0x13d
 2808 0e17 BB030000 		.4byte	.LLST18
 2809 0e1b 24       		.uleb128 0x24
 2810 0e1c D0060000 		.4byte	.LASF152
 2811 0e20 6A0E0000 		.4byte	0xe6a
 2812 0e24 1E       		.uleb128 0x1e
 2813 0e25 0A000000 		.4byte	.LVL41
 2814 0e29 ED100000 		.4byte	0x10ed
 2815 0e2d 1F       		.uleb128 0x1f
 2816 0e2e 12000000 		.4byte	.LVL42
 2817 0e32 810D0000 		.4byte	0xd81
 2818 0e36 470E0000 		.4byte	0xe47
 2819 0e3a 20       		.uleb128 0x20
 2820 0e3b 01       		.uleb128 0x1
 2821 0e3c 50       		.byte	0x50
 2822 0e3d 02       		.uleb128 0x2
 2823 0e3e 74       		.byte	0x74
 2824 0e3f 00       		.sleb128 0
 2825 0e40 20       		.uleb128 0x20
 2826 0e41 01       		.uleb128 0x1
 2827 0e42 51       		.byte	0x51
 2828 0e43 02       		.uleb128 0x2
 2829 0e44 75       		.byte	0x75
 2830 0e45 00       		.sleb128 0
 2831 0e46 00       		.byte	0
 2832 0e47 1E       		.uleb128 0x1e
 2833 0e48 16000000 		.4byte	.LVL43
 2834 0e4c 80110000 		.4byte	0x1180
 2835 0e50 28       		.uleb128 0x28
 2836 0e51 1E000000 		.4byte	.LVL45
 2837 0e55 95100000 		.4byte	0x1095
 2838 0e59 00       		.byte	0
 2839 0e5a 18       		.uleb128 0x18
 2840 0e5b B4070000 		.4byte	0x7b4
 2841 0e5f 6A0E0000 		.4byte	0xe6a
 2842 0e63 1A       		.uleb128 0x1a
 2843 0e64 87040000 		.4byte	0x487
 2844 0e68 0B       		.byte	0xb
 2845 0e69 00       		.byte	0
 2846 0e6a 16       		.uleb128 0x16
 2847 0e6b 5A0E0000 		.4byte	0xe5a
 2848 0e6f 2A       		.uleb128 0x2a
 2849 0e70 A6080000 		.4byte	.LASF154
 2850 0e74 03       		.byte	0x3
ARM GAS  C:\cygwin64\tmp\cceZag5Q.s 			page 51


 2851 0e75 F1       		.byte	0xf1
 2852 0e76 48010000 		.4byte	0x148
 2853 0e7a 00000000 		.4byte	.LFB251
 2854 0e7e 16000000 		.4byte	.LFE251-.LFB251
 2855 0e82 01       		.uleb128 0x1
 2856 0e83 9C       		.byte	0x9c
 2857 0e84 B70E0000 		.4byte	0xeb7
 2858 0e88 2B       		.uleb128 0x2b
 2859 0e89 656C7000 		.ascii	"elp\000"
 2860 0e8d 03       		.byte	0x3
 2861 0e8e F1       		.byte	0xf1
 2862 0e8f 58090000 		.4byte	0x958
 2863 0e93 E7030000 		.4byte	.LLST12
 2864 0e97 2C       		.uleb128 0x2c
 2865 0e98 4E080000 		.4byte	.LASF41
 2866 0e9c 03       		.byte	0x3
 2867 0e9d F2       		.byte	0xf2
 2868 0e9e 48010000 		.4byte	0x148
 2869 0ea2 01       		.uleb128 0x1
 2870 0ea3 55       		.byte	0x55
 2871 0ea4 1E       		.uleb128 0x1e
 2872 0ea5 08000000 		.4byte	.LVL28
 2873 0ea9 ED100000 		.4byte	0x10ed
 2874 0ead 1E       		.uleb128 0x1e
 2875 0eae 12000000 		.4byte	.LVL30
 2876 0eb2 95100000 		.4byte	0x1095
 2877 0eb6 00       		.byte	0
 2878 0eb7 2D       		.uleb128 0x2d
 2879 0eb8 2E050000 		.4byte	.LASF155
 2880 0ebc 03       		.byte	0x3
 2881 0ebd D1       		.byte	0xd1
 2882 0ebe 00000000 		.4byte	.LFB250
 2883 0ec2 28000000 		.4byte	.LFE250-.LFB250
 2884 0ec6 01       		.uleb128 0x1
 2885 0ec7 9C       		.byte	0x9c
 2886 0ec8 0A0F0000 		.4byte	0xf0a
 2887 0ecc 2B       		.uleb128 0x2b
 2888 0ecd 65737000 		.ascii	"esp\000"
 2889 0ed1 03       		.byte	0x3
 2890 0ed2 D1       		.byte	0xd1
 2891 0ed3 7B0D0000 		.4byte	0xd7b
 2892 0ed7 05040000 		.4byte	.LLST15
 2893 0edb 2E       		.uleb128 0x2e
 2894 0edc 4E080000 		.4byte	.LASF41
 2895 0ee0 03       		.byte	0x3
 2896 0ee1 D1       		.byte	0xd1
 2897 0ee2 48010000 		.4byte	0x148
 2898 0ee6 23040000 		.4byte	.LLST16
 2899 0eea 2F       		.uleb128 0x2f
 2900 0eeb 656C7000 		.ascii	"elp\000"
 2901 0eef 03       		.byte	0x3
 2902 0ef0 D2       		.byte	0xd2
 2903 0ef1 58090000 		.4byte	0x958
 2904 0ef5 01       		.uleb128 0x1
 2905 0ef6 54       		.byte	0x54
 2906 0ef7 24       		.uleb128 0x24
 2907 0ef8 D0060000 		.4byte	.LASF152
ARM GAS  C:\cygwin64\tmp\cceZag5Q.s 			page 52


 2908 0efc 1A0F0000 		.4byte	0xf1a
 2909 0f00 1E       		.uleb128 0x1e
 2910 0f01 24000000 		.4byte	.LVL38
 2911 0f05 810D0000 		.4byte	0xd81
 2912 0f09 00       		.byte	0
 2913 0f0a 18       		.uleb128 0x18
 2914 0f0b B4070000 		.4byte	0x7b4
 2915 0f0f 1A0F0000 		.4byte	0xf1a
 2916 0f13 1A       		.uleb128 0x1a
 2917 0f14 87040000 		.4byte	0x487
 2918 0f18 14       		.byte	0x14
 2919 0f19 00       		.byte	0
 2920 0f1a 16       		.uleb128 0x16
 2921 0f1b 0A0F0000 		.4byte	0xf0a
 2922 0f1f 2A       		.uleb128 0x2a
 2923 0f20 E5000000 		.4byte	.LASF156
 2924 0f24 03       		.byte	0x3
 2925 0f25 B6       		.byte	0xb6
 2926 0f26 3D010000 		.4byte	0x13d
 2927 0f2a 00000000 		.4byte	.LFB249
 2928 0f2e 20000000 		.4byte	.LFE249-.LFB249
 2929 0f32 01       		.uleb128 0x1
 2930 0f33 9C       		.byte	0x9c
 2931 0f34 5A0F0000 		.4byte	0xf5a
 2932 0f38 2E       		.uleb128 0x2e
 2933 0f39 25070000 		.4byte	.LASF134
 2934 0f3d 03       		.byte	0x3
 2935 0f3e B6       		.byte	0xb6
 2936 0f3f 3D010000 		.4byte	0x13d
 2937 0f43 41040000 		.4byte	.LLST11
 2938 0f47 1E       		.uleb128 0x1e
 2939 0f48 08000000 		.4byte	.LVL22
 2940 0f4c ED100000 		.4byte	0x10ed
 2941 0f50 1E       		.uleb128 0x1e
 2942 0f51 16000000 		.4byte	.LVL25
 2943 0f55 95100000 		.4byte	0x1095
 2944 0f59 00       		.byte	0
 2945 0f5a 2A       		.uleb128 0x2a
 2946 0f5b C3030000 		.4byte	.LASF157
 2947 0f5f 03       		.byte	0x3
 2948 0f60 A2       		.byte	0xa2
 2949 0f61 3D010000 		.4byte	0x13d
 2950 0f65 00000000 		.4byte	.LFB248
 2951 0f69 24000000 		.4byte	.LFE248-.LFB248
 2952 0f6d 01       		.uleb128 0x1
 2953 0f6e 9C       		.byte	0x9c
 2954 0f6f A20F0000 		.4byte	0xfa2
 2955 0f73 2E       		.uleb128 0x2e
 2956 0f74 25070000 		.4byte	.LASF134
 2957 0f78 03       		.byte	0x3
 2958 0f79 A2       		.byte	0xa2
 2959 0f7a 3D010000 		.4byte	0x13d
 2960 0f7e 83040000 		.4byte	.LLST9
 2961 0f82 30       		.uleb128 0x30
 2962 0f83 6D00     		.ascii	"m\000"
 2963 0f85 03       		.byte	0x3
 2964 0f86 A3       		.byte	0xa3
ARM GAS  C:\cygwin64\tmp\cceZag5Q.s 			page 53


 2965 0f87 3D010000 		.4byte	0x13d
 2966 0f8b AF040000 		.4byte	.LLST10
 2967 0f8f 1E       		.uleb128 0x1e
 2968 0f90 08000000 		.4byte	.LVL17
 2969 0f94 ED100000 		.4byte	0x10ed
 2970 0f98 1E       		.uleb128 0x1e
 2971 0f99 1C000000 		.4byte	.LVL19
 2972 0f9d 95100000 		.4byte	0x1095
 2973 0fa1 00       		.byte	0
 2974 0fa2 2D       		.uleb128 0x2d
 2975 0fa3 44040000 		.4byte	.LASF158
 2976 0fa7 03       		.byte	0x3
 2977 0fa8 85       		.byte	0x85
 2978 0fa9 00000000 		.4byte	.LFB247
 2979 0fad 26000000 		.4byte	.LFE247-.LFB247
 2980 0fb1 01       		.uleb128 0x1
 2981 0fb2 9C       		.byte	0x9c
 2982 0fb3 FE0F0000 		.4byte	0xffe
 2983 0fb7 2B       		.uleb128 0x2b
 2984 0fb8 65737000 		.ascii	"esp\000"
 2985 0fbc 03       		.byte	0x3
 2986 0fbd 85       		.byte	0x85
 2987 0fbe 7B0D0000 		.4byte	0xd7b
 2988 0fc2 CD040000 		.4byte	.LLST6
 2989 0fc6 2B       		.uleb128 0x2b
 2990 0fc7 656C7000 		.ascii	"elp\000"
 2991 0fcb 03       		.byte	0x3
 2992 0fcc 85       		.byte	0x85
 2993 0fcd 58090000 		.4byte	0x958
 2994 0fd1 04050000 		.4byte	.LLST7
 2995 0fd5 30       		.uleb128 0x30
 2996 0fd6 7000     		.ascii	"p\000"
 2997 0fd8 03       		.byte	0x3
 2998 0fd9 86       		.byte	0x86
 2999 0fda 58090000 		.4byte	0x958
 3000 0fde 3B050000 		.4byte	.LLST8
 3001 0fe2 24       		.uleb128 0x24
 3002 0fe3 D0060000 		.4byte	.LASF152
 3003 0fe7 0E100000 		.4byte	0x100e
 3004 0feb 1E       		.uleb128 0x1e
 3005 0fec 0A000000 		.4byte	.LVL11
 3006 0ff0 ED100000 		.4byte	0x10ed
 3007 0ff4 28       		.uleb128 0x28
 3008 0ff5 22000000 		.4byte	.LVL14
 3009 0ff9 95100000 		.4byte	0x1095
 3010 0ffd 00       		.byte	0
 3011 0ffe 18       		.uleb128 0x18
 3012 0fff B4070000 		.4byte	0x7b4
 3013 1003 0E100000 		.4byte	0x100e
 3014 1007 1A       		.uleb128 0x1a
 3015 1008 87040000 		.4byte	0x487
 3016 100c 0F       		.byte	0xf
 3017 100d 00       		.byte	0
 3018 100e 16       		.uleb128 0x16
 3019 100f FE0F0000 		.4byte	0xffe
 3020 1013 2D       		.uleb128 0x2d
 3021 1014 60040000 		.4byte	.LASF159
ARM GAS  C:\cygwin64\tmp\cceZag5Q.s 			page 54


 3022 1018 03       		.byte	0x3
 3023 1019 67       		.byte	0x67
 3024 101a 00000000 		.4byte	.LFB246
 3025 101e 30000000 		.4byte	.LFE246-.LFB246
 3026 1022 01       		.uleb128 0x1
 3027 1023 9C       		.byte	0x9c
 3028 1024 80100000 		.4byte	0x1080
 3029 1028 2B       		.uleb128 0x2b
 3030 1029 65737000 		.ascii	"esp\000"
 3031 102d 03       		.byte	0x3
 3032 102e 67       		.byte	0x67
 3033 102f 7B0D0000 		.4byte	0xd7b
 3034 1033 6F050000 		.4byte	.LLST2
 3035 1037 2B       		.uleb128 0x2b
 3036 1038 656C7000 		.ascii	"elp\000"
 3037 103c 03       		.byte	0x3
 3038 103d 68       		.byte	0x68
 3039 103e 58090000 		.4byte	0x958
 3040 1042 9B050000 		.4byte	.LLST3
 3041 1046 2E       		.uleb128 0x2e
 3042 1047 25070000 		.4byte	.LASF134
 3043 104b 03       		.byte	0x3
 3044 104c 69       		.byte	0x69
 3045 104d 3D010000 		.4byte	0x13d
 3046 1051 D4050000 		.4byte	.LLST4
 3047 1055 2E       		.uleb128 0x2e
 3048 1056 00030000 		.4byte	.LASF135
 3049 105a 03       		.byte	0x3
 3050 105b 6A       		.byte	0x6a
 3051 105c 48010000 		.4byte	0x148
 3052 1060 10060000 		.4byte	.LLST5
 3053 1064 24       		.uleb128 0x24
 3054 1065 D0060000 		.4byte	.LASF152
 3055 1069 90100000 		.4byte	0x1090
 3056 106d 1E       		.uleb128 0x1e
 3057 106e 0E000000 		.4byte	.LVL6
 3058 1072 ED100000 		.4byte	0x10ed
 3059 1076 28       		.uleb128 0x28
 3060 1077 2A000000 		.4byte	.LVL8
 3061 107b 95100000 		.4byte	0x1095
 3062 107f 00       		.byte	0
 3063 1080 18       		.uleb128 0x18
 3064 1081 B4070000 		.4byte	0x7b4
 3065 1085 90100000 		.4byte	0x1090
 3066 1089 1A       		.uleb128 0x1a
 3067 108a 87040000 		.4byte	0x487
 3068 108e 1A       		.byte	0x1a
 3069 108f 00       		.byte	0
 3070 1090 16       		.uleb128 0x16
 3071 1091 80100000 		.4byte	0x1080
 3072 1095 31       		.uleb128 0x31
 3073 1096 BC080000 		.4byte	.LASF160
 3074 109a 01       		.byte	0x1
 3075 109b 8201     		.2byte	0x182
 3076 109d 00000000 		.4byte	.LFB168
 3077 10a1 0E000000 		.4byte	.LFE168-.LFB168
 3078 10a5 01       		.uleb128 0x1
ARM GAS  C:\cygwin64\tmp\cceZag5Q.s 			page 55


 3079 10a6 9C       		.byte	0x9c
 3080 10a7 ED100000 		.4byte	0x10ed
 3081 10ab 24       		.uleb128 0x24
 3082 10ac D0060000 		.4byte	.LASF152
 3083 10b0 6A0E0000 		.4byte	0xe6a
 3084 10b4 32       		.uleb128 0x32
 3085 10b5 3C110000 		.4byte	0x113c
 3086 10b9 06000000 		.4byte	.LBB17
 3087 10bd 08000000 		.4byte	.LBE17-.LBB17
 3088 10c1 01       		.byte	0x1
 3089 10c2 8F01     		.2byte	0x18f
 3090 10c4 E3100000 		.4byte	0x10e3
 3091 10c8 33       		.uleb128 0x33
 3092 10c9 4E110000 		.4byte	0x114e
 3093 10cd 06000000 		.4byte	.LBB18
 3094 10d1 08000000 		.4byte	.LBE18-.LBB18
 3095 10d5 0C       		.byte	0xc
 3096 10d6 6D02     		.2byte	0x26d
 3097 10d8 34       		.uleb128 0x34
 3098 10d9 5B110000 		.4byte	0x115b
 3099 10dd 4C060000 		.4byte	.LLST1
 3100 10e1 00       		.byte	0
 3101 10e2 00       		.byte	0
 3102 10e3 1E       		.uleb128 0x1e
 3103 10e4 06000000 		.4byte	.LVL3
 3104 10e8 98110000 		.4byte	0x1198
 3105 10ec 00       		.byte	0
 3106 10ed 31       		.uleb128 0x31
 3107 10ee D9060000 		.4byte	.LASF161
 3108 10f2 01       		.byte	0x1
 3109 10f3 7601     		.2byte	0x176
 3110 10f5 00000000 		.4byte	.LFB167
 3111 10f9 0A000000 		.4byte	.LFE167-.LFB167
 3112 10fd 01       		.uleb128 0x1
 3113 10fe 9C       		.byte	0x9c
 3114 10ff 3C110000 		.4byte	0x113c
 3115 1103 32       		.uleb128 0x32
 3116 1104 45110000 		.4byte	0x1145
 3117 1108 00000000 		.4byte	.LBB14
 3118 110c 06000000 		.4byte	.LBE14-.LBB14
 3119 1110 01       		.byte	0x1
 3120 1111 7801     		.2byte	0x178
 3121 1113 32110000 		.4byte	0x1132
 3122 1117 33       		.uleb128 0x33
 3123 1118 4E110000 		.4byte	0x114e
 3124 111c 00000000 		.4byte	.LBB15
 3125 1120 06000000 		.4byte	.LBE15-.LBB15
 3126 1124 0C       		.byte	0xc
 3127 1125 5A02     		.2byte	0x25a
 3128 1127 34       		.uleb128 0x34
 3129 1128 5B110000 		.4byte	0x115b
 3130 112c 60060000 		.4byte	.LLST0
 3131 1130 00       		.byte	0
 3132 1131 00       		.byte	0
 3133 1132 28       		.uleb128 0x28
 3134 1133 0A000000 		.4byte	.LVL2
 3135 1137 A3110000 		.4byte	0x11a3
ARM GAS  C:\cygwin64\tmp\cceZag5Q.s 			page 56


 3136 113b 00       		.byte	0
 3137 113c 35       		.uleb128 0x35
 3138 113d 91020000 		.4byte	.LASF162
 3139 1141 0C       		.byte	0xc
 3140 1142 6A02     		.2byte	0x26a
 3141 1144 03       		.byte	0x3
 3142 1145 35       		.uleb128 0x35
 3143 1146 AB000000 		.4byte	.LASF163
 3144 114a 0C       		.byte	0xc
 3145 114b 5202     		.2byte	0x252
 3146 114d 03       		.byte	0x3
 3147 114e 36       		.uleb128 0x36
 3148 114f C3070000 		.4byte	.LASF173
 3149 1153 02       		.byte	0x2
 3150 1154 0601     		.2byte	0x106
 3151 1156 03       		.byte	0x3
 3152 1157 68110000 		.4byte	0x1168
 3153 115b 37       		.uleb128 0x37
 3154 115c 6F030000 		.4byte	.LASF174
 3155 1160 02       		.byte	0x2
 3156 1161 0601     		.2byte	0x106
 3157 1163 CF000000 		.4byte	0xcf
 3158 1167 00       		.byte	0
 3159 1168 38       		.uleb128 0x38
 3160 1169 9B070000 		.4byte	.LASF164
 3161 116d 9B070000 		.4byte	.LASF164
 3162 1171 08       		.byte	0x8
 3163 1172 DF01     		.2byte	0x1df
 3164 1174 38       		.uleb128 0x38
 3165 1175 4C060000 		.4byte	.LASF165
 3166 1179 4C060000 		.4byte	.LASF165
 3167 117d 08       		.byte	0x8
 3168 117e DE01     		.2byte	0x1de
 3169 1180 38       		.uleb128 0x38
 3170 1181 07030000 		.4byte	.LASF166
 3171 1185 07030000 		.4byte	.LASF166
 3172 1189 08       		.byte	0x8
 3173 118a E101     		.2byte	0x1e1
 3174 118c 38       		.uleb128 0x38
 3175 118d 3C070000 		.4byte	.LASF167
 3176 1191 3C070000 		.4byte	.LASF167
 3177 1195 08       		.byte	0x8
 3178 1196 DC01     		.2byte	0x1dc
 3179 1198 39       		.uleb128 0x39
 3180 1199 43050000 		.4byte	.LASF168
 3181 119d 43050000 		.4byte	.LASF168
 3182 11a1 0E       		.byte	0xe
 3183 11a2 50       		.byte	0x50
 3184 11a3 39       		.uleb128 0x39
 3185 11a4 54080000 		.4byte	.LASF169
 3186 11a8 54080000 		.4byte	.LASF169
 3187 11ac 0E       		.byte	0xe
 3188 11ad 4F       		.byte	0x4f
 3189 11ae 00       		.byte	0
 3190              		.section	.debug_abbrev,"",%progbits
 3191              	.Ldebug_abbrev0:
 3192 0000 01       		.uleb128 0x1
ARM GAS  C:\cygwin64\tmp\cceZag5Q.s 			page 57


 3193 0001 11       		.uleb128 0x11
 3194 0002 01       		.byte	0x1
 3195 0003 25       		.uleb128 0x25
 3196 0004 0E       		.uleb128 0xe
 3197 0005 13       		.uleb128 0x13
 3198 0006 0B       		.uleb128 0xb
 3199 0007 03       		.uleb128 0x3
 3200 0008 0E       		.uleb128 0xe
 3201 0009 1B       		.uleb128 0x1b
 3202 000a 0E       		.uleb128 0xe
 3203 000b 55       		.uleb128 0x55
 3204 000c 17       		.uleb128 0x17
 3205 000d 11       		.uleb128 0x11
 3206 000e 01       		.uleb128 0x1
 3207 000f 10       		.uleb128 0x10
 3208 0010 17       		.uleb128 0x17
 3209 0011 00       		.byte	0
 3210 0012 00       		.byte	0
 3211 0013 02       		.uleb128 0x2
 3212 0014 24       		.uleb128 0x24
 3213 0015 00       		.byte	0
 3214 0016 0B       		.uleb128 0xb
 3215 0017 0B       		.uleb128 0xb
 3216 0018 3E       		.uleb128 0x3e
 3217 0019 0B       		.uleb128 0xb
 3218 001a 03       		.uleb128 0x3
 3219 001b 08       		.uleb128 0x8
 3220 001c 00       		.byte	0
 3221 001d 00       		.byte	0
 3222 001e 03       		.uleb128 0x3
 3223 001f 24       		.uleb128 0x24
 3224 0020 00       		.byte	0
 3225 0021 0B       		.uleb128 0xb
 3226 0022 0B       		.uleb128 0xb
 3227 0023 3E       		.uleb128 0x3e
 3228 0024 0B       		.uleb128 0xb
 3229 0025 03       		.uleb128 0x3
 3230 0026 0E       		.uleb128 0xe
 3231 0027 00       		.byte	0
 3232 0028 00       		.byte	0
 3233 0029 04       		.uleb128 0x4
 3234 002a 16       		.uleb128 0x16
 3235 002b 00       		.byte	0
 3236 002c 03       		.uleb128 0x3
 3237 002d 0E       		.uleb128 0xe
 3238 002e 3A       		.uleb128 0x3a
 3239 002f 0B       		.uleb128 0xb
 3240 0030 3B       		.uleb128 0x3b
 3241 0031 0B       		.uleb128 0xb
 3242 0032 49       		.uleb128 0x49
 3243 0033 13       		.uleb128 0x13
 3244 0034 00       		.byte	0
 3245 0035 00       		.byte	0
 3246 0036 05       		.uleb128 0x5
 3247 0037 35       		.uleb128 0x35
 3248 0038 00       		.byte	0
 3249 0039 49       		.uleb128 0x49
ARM GAS  C:\cygwin64\tmp\cceZag5Q.s 			page 58


 3250 003a 13       		.uleb128 0x13
 3251 003b 00       		.byte	0
 3252 003c 00       		.byte	0
 3253 003d 06       		.uleb128 0x6
 3254 003e 13       		.uleb128 0x13
 3255 003f 01       		.byte	0x1
 3256 0040 03       		.uleb128 0x3
 3257 0041 0E       		.uleb128 0xe
 3258 0042 0B       		.uleb128 0xb
 3259 0043 0B       		.uleb128 0xb
 3260 0044 3A       		.uleb128 0x3a
 3261 0045 0B       		.uleb128 0xb
 3262 0046 3B       		.uleb128 0x3b
 3263 0047 0B       		.uleb128 0xb
 3264 0048 01       		.uleb128 0x1
 3265 0049 13       		.uleb128 0x13
 3266 004a 00       		.byte	0
 3267 004b 00       		.byte	0
 3268 004c 07       		.uleb128 0x7
 3269 004d 0D       		.uleb128 0xd
 3270 004e 00       		.byte	0
 3271 004f 03       		.uleb128 0x3
 3272 0050 0E       		.uleb128 0xe
 3273 0051 3A       		.uleb128 0x3a
 3274 0052 0B       		.uleb128 0xb
 3275 0053 3B       		.uleb128 0x3b
 3276 0054 0B       		.uleb128 0xb
 3277 0055 49       		.uleb128 0x49
 3278 0056 13       		.uleb128 0x13
 3279 0057 38       		.uleb128 0x38
 3280 0058 0B       		.uleb128 0xb
 3281 0059 00       		.byte	0
 3282 005a 00       		.byte	0
 3283 005b 08       		.uleb128 0x8
 3284 005c 0D       		.uleb128 0xd
 3285 005d 00       		.byte	0
 3286 005e 03       		.uleb128 0x3
 3287 005f 08       		.uleb128 0x8
 3288 0060 3A       		.uleb128 0x3a
 3289 0061 0B       		.uleb128 0xb
 3290 0062 3B       		.uleb128 0x3b
 3291 0063 0B       		.uleb128 0xb
 3292 0064 49       		.uleb128 0x49
 3293 0065 13       		.uleb128 0x13
 3294 0066 38       		.uleb128 0x38
 3295 0067 0B       		.uleb128 0xb
 3296 0068 00       		.byte	0
 3297 0069 00       		.byte	0
 3298 006a 09       		.uleb128 0x9
 3299 006b 0D       		.uleb128 0xd
 3300 006c 00       		.byte	0
 3301 006d 03       		.uleb128 0x3
 3302 006e 08       		.uleb128 0x8
 3303 006f 3A       		.uleb128 0x3a
 3304 0070 0B       		.uleb128 0xb
 3305 0071 3B       		.uleb128 0x3b
 3306 0072 05       		.uleb128 0x5
ARM GAS  C:\cygwin64\tmp\cceZag5Q.s 			page 59


 3307 0073 49       		.uleb128 0x49
 3308 0074 13       		.uleb128 0x13
 3309 0075 38       		.uleb128 0x38
 3310 0076 0B       		.uleb128 0xb
 3311 0077 00       		.byte	0
 3312 0078 00       		.byte	0
 3313 0079 0A       		.uleb128 0xa
 3314 007a 0D       		.uleb128 0xd
 3315 007b 00       		.byte	0
 3316 007c 03       		.uleb128 0x3
 3317 007d 0E       		.uleb128 0xe
 3318 007e 3A       		.uleb128 0x3a
 3319 007f 0B       		.uleb128 0xb
 3320 0080 3B       		.uleb128 0x3b
 3321 0081 05       		.uleb128 0x5
 3322 0082 49       		.uleb128 0x49
 3323 0083 13       		.uleb128 0x13
 3324 0084 38       		.uleb128 0x38
 3325 0085 0B       		.uleb128 0xb
 3326 0086 00       		.byte	0
 3327 0087 00       		.byte	0
 3328 0088 0B       		.uleb128 0xb
 3329 0089 0F       		.uleb128 0xf
 3330 008a 00       		.byte	0
 3331 008b 0B       		.uleb128 0xb
 3332 008c 0B       		.uleb128 0xb
 3333 008d 49       		.uleb128 0x49
 3334 008e 13       		.uleb128 0x13
 3335 008f 00       		.byte	0
 3336 0090 00       		.byte	0
 3337 0091 0C       		.uleb128 0xc
 3338 0092 13       		.uleb128 0x13
 3339 0093 01       		.byte	0x1
 3340 0094 03       		.uleb128 0x3
 3341 0095 0E       		.uleb128 0xe
 3342 0096 0B       		.uleb128 0xb
 3343 0097 0B       		.uleb128 0xb
 3344 0098 3A       		.uleb128 0x3a
 3345 0099 0B       		.uleb128 0xb
 3346 009a 3B       		.uleb128 0x3b
 3347 009b 05       		.uleb128 0x5
 3348 009c 01       		.uleb128 0x1
 3349 009d 13       		.uleb128 0x13
 3350 009e 00       		.byte	0
 3351 009f 00       		.byte	0
 3352 00a0 0D       		.uleb128 0xd
 3353 00a1 15       		.uleb128 0x15
 3354 00a2 01       		.byte	0x1
 3355 00a3 27       		.uleb128 0x27
 3356 00a4 19       		.uleb128 0x19
 3357 00a5 01       		.uleb128 0x1
 3358 00a6 13       		.uleb128 0x13
 3359 00a7 00       		.byte	0
 3360 00a8 00       		.byte	0
 3361 00a9 0E       		.uleb128 0xe
 3362 00aa 05       		.uleb128 0x5
 3363 00ab 00       		.byte	0
ARM GAS  C:\cygwin64\tmp\cceZag5Q.s 			page 60


 3364 00ac 49       		.uleb128 0x49
 3365 00ad 13       		.uleb128 0x13
 3366 00ae 00       		.byte	0
 3367 00af 00       		.byte	0
 3368 00b0 0F       		.uleb128 0xf
 3369 00b1 0F       		.uleb128 0xf
 3370 00b2 00       		.byte	0
 3371 00b3 0B       		.uleb128 0xb
 3372 00b4 0B       		.uleb128 0xb
 3373 00b5 00       		.byte	0
 3374 00b6 00       		.byte	0
 3375 00b7 10       		.uleb128 0x10
 3376 00b8 34       		.uleb128 0x34
 3377 00b9 00       		.byte	0
 3378 00ba 03       		.uleb128 0x3
 3379 00bb 0E       		.uleb128 0xe
 3380 00bc 3A       		.uleb128 0x3a
 3381 00bd 0B       		.uleb128 0xb
 3382 00be 3B       		.uleb128 0x3b
 3383 00bf 05       		.uleb128 0x5
 3384 00c0 49       		.uleb128 0x49
 3385 00c1 13       		.uleb128 0x13
 3386 00c2 3F       		.uleb128 0x3f
 3387 00c3 19       		.uleb128 0x19
 3388 00c4 3C       		.uleb128 0x3c
 3389 00c5 19       		.uleb128 0x19
 3390 00c6 00       		.byte	0
 3391 00c7 00       		.byte	0
 3392 00c8 11       		.uleb128 0x11
 3393 00c9 34       		.uleb128 0x34
 3394 00ca 00       		.byte	0
 3395 00cb 03       		.uleb128 0x3
 3396 00cc 0E       		.uleb128 0xe
 3397 00cd 3A       		.uleb128 0x3a
 3398 00ce 0B       		.uleb128 0xb
 3399 00cf 3B       		.uleb128 0x3b
 3400 00d0 0B       		.uleb128 0xb
 3401 00d1 49       		.uleb128 0x49
 3402 00d2 13       		.uleb128 0x13
 3403 00d3 3F       		.uleb128 0x3f
 3404 00d4 19       		.uleb128 0x19
 3405 00d5 3C       		.uleb128 0x3c
 3406 00d6 19       		.uleb128 0x19
 3407 00d7 00       		.byte	0
 3408 00d8 00       		.byte	0
 3409 00d9 12       		.uleb128 0x12
 3410 00da 13       		.uleb128 0x13
 3411 00db 01       		.byte	0x1
 3412 00dc 0B       		.uleb128 0xb
 3413 00dd 0B       		.uleb128 0xb
 3414 00de 3A       		.uleb128 0x3a
 3415 00df 0B       		.uleb128 0xb
 3416 00e0 3B       		.uleb128 0x3b
 3417 00e1 0B       		.uleb128 0xb
 3418 00e2 01       		.uleb128 0x1
 3419 00e3 13       		.uleb128 0x13
 3420 00e4 00       		.byte	0
ARM GAS  C:\cygwin64\tmp\cceZag5Q.s 			page 61


 3421 00e5 00       		.byte	0
 3422 00e6 13       		.uleb128 0x13
 3423 00e7 17       		.uleb128 0x17
 3424 00e8 01       		.byte	0x1
 3425 00e9 0B       		.uleb128 0xb
 3426 00ea 0B       		.uleb128 0xb
 3427 00eb 3A       		.uleb128 0x3a
 3428 00ec 0B       		.uleb128 0xb
 3429 00ed 3B       		.uleb128 0x3b
 3430 00ee 0B       		.uleb128 0xb
 3431 00ef 01       		.uleb128 0x1
 3432 00f0 13       		.uleb128 0x13
 3433 00f1 00       		.byte	0
 3434 00f2 00       		.byte	0
 3435 00f3 14       		.uleb128 0x14
 3436 00f4 0D       		.uleb128 0xd
 3437 00f5 00       		.byte	0
 3438 00f6 03       		.uleb128 0x3
 3439 00f7 0E       		.uleb128 0xe
 3440 00f8 3A       		.uleb128 0x3a
 3441 00f9 0B       		.uleb128 0xb
 3442 00fa 3B       		.uleb128 0x3b
 3443 00fb 0B       		.uleb128 0xb
 3444 00fc 49       		.uleb128 0x49
 3445 00fd 13       		.uleb128 0x13
 3446 00fe 00       		.byte	0
 3447 00ff 00       		.byte	0
 3448 0100 15       		.uleb128 0x15
 3449 0101 0D       		.uleb128 0xd
 3450 0102 00       		.byte	0
 3451 0103 03       		.uleb128 0x3
 3452 0104 0E       		.uleb128 0xe
 3453 0105 3A       		.uleb128 0x3a
 3454 0106 0B       		.uleb128 0xb
 3455 0107 3B       		.uleb128 0x3b
 3456 0108 05       		.uleb128 0x5
 3457 0109 49       		.uleb128 0x49
 3458 010a 13       		.uleb128 0x13
 3459 010b 00       		.byte	0
 3460 010c 00       		.byte	0
 3461 010d 16       		.uleb128 0x16
 3462 010e 26       		.uleb128 0x26
 3463 010f 00       		.byte	0
 3464 0110 49       		.uleb128 0x49
 3465 0111 13       		.uleb128 0x13
 3466 0112 00       		.byte	0
 3467 0113 00       		.byte	0
 3468 0114 17       		.uleb128 0x17
 3469 0115 34       		.uleb128 0x34
 3470 0116 00       		.byte	0
 3471 0117 03       		.uleb128 0x3
 3472 0118 08       		.uleb128 0x8
 3473 0119 3A       		.uleb128 0x3a
 3474 011a 0B       		.uleb128 0xb
 3475 011b 3B       		.uleb128 0x3b
 3476 011c 05       		.uleb128 0x5
 3477 011d 49       		.uleb128 0x49
ARM GAS  C:\cygwin64\tmp\cceZag5Q.s 			page 62


 3478 011e 13       		.uleb128 0x13
 3479 011f 3F       		.uleb128 0x3f
 3480 0120 19       		.uleb128 0x19
 3481 0121 3C       		.uleb128 0x3c
 3482 0122 19       		.uleb128 0x19
 3483 0123 00       		.byte	0
 3484 0124 00       		.byte	0
 3485 0125 18       		.uleb128 0x18
 3486 0126 01       		.uleb128 0x1
 3487 0127 01       		.byte	0x1
 3488 0128 49       		.uleb128 0x49
 3489 0129 13       		.uleb128 0x13
 3490 012a 01       		.uleb128 0x1
 3491 012b 13       		.uleb128 0x13
 3492 012c 00       		.byte	0
 3493 012d 00       		.byte	0
 3494 012e 19       		.uleb128 0x19
 3495 012f 21       		.uleb128 0x21
 3496 0130 00       		.byte	0
 3497 0131 00       		.byte	0
 3498 0132 00       		.byte	0
 3499 0133 1A       		.uleb128 0x1a
 3500 0134 21       		.uleb128 0x21
 3501 0135 00       		.byte	0
 3502 0136 49       		.uleb128 0x49
 3503 0137 13       		.uleb128 0x13
 3504 0138 2F       		.uleb128 0x2f
 3505 0139 0B       		.uleb128 0xb
 3506 013a 00       		.byte	0
 3507 013b 00       		.byte	0
 3508 013c 1B       		.uleb128 0x1b
 3509 013d 2E       		.uleb128 0x2e
 3510 013e 01       		.byte	0x1
 3511 013f 3F       		.uleb128 0x3f
 3512 0140 19       		.uleb128 0x19
 3513 0141 03       		.uleb128 0x3
 3514 0142 0E       		.uleb128 0xe
 3515 0143 3A       		.uleb128 0x3a
 3516 0144 0B       		.uleb128 0xb
 3517 0145 3B       		.uleb128 0x3b
 3518 0146 05       		.uleb128 0x5
 3519 0147 27       		.uleb128 0x27
 3520 0148 19       		.uleb128 0x19
 3521 0149 49       		.uleb128 0x49
 3522 014a 13       		.uleb128 0x13
 3523 014b 11       		.uleb128 0x11
 3524 014c 01       		.uleb128 0x1
 3525 014d 12       		.uleb128 0x12
 3526 014e 06       		.uleb128 0x6
 3527 014f 40       		.uleb128 0x40
 3528 0150 18       		.uleb128 0x18
 3529 0151 9742     		.uleb128 0x2117
 3530 0153 19       		.uleb128 0x19
 3531 0154 01       		.uleb128 0x1
 3532 0155 13       		.uleb128 0x13
 3533 0156 00       		.byte	0
 3534 0157 00       		.byte	0
ARM GAS  C:\cygwin64\tmp\cceZag5Q.s 			page 63


 3535 0158 1C       		.uleb128 0x1c
 3536 0159 05       		.uleb128 0x5
 3537 015a 00       		.byte	0
 3538 015b 03       		.uleb128 0x3
 3539 015c 0E       		.uleb128 0xe
 3540 015d 3A       		.uleb128 0x3a
 3541 015e 0B       		.uleb128 0xb
 3542 015f 3B       		.uleb128 0x3b
 3543 0160 05       		.uleb128 0x5
 3544 0161 49       		.uleb128 0x49
 3545 0162 13       		.uleb128 0x13
 3546 0163 02       		.uleb128 0x2
 3547 0164 17       		.uleb128 0x17
 3548 0165 00       		.byte	0
 3549 0166 00       		.byte	0
 3550 0167 1D       		.uleb128 0x1d
 3551 0168 34       		.uleb128 0x34
 3552 0169 00       		.byte	0
 3553 016a 03       		.uleb128 0x3
 3554 016b 08       		.uleb128 0x8
 3555 016c 3A       		.uleb128 0x3a
 3556 016d 0B       		.uleb128 0xb
 3557 016e 3B       		.uleb128 0x3b
 3558 016f 05       		.uleb128 0x5
 3559 0170 49       		.uleb128 0x49
 3560 0171 13       		.uleb128 0x13
 3561 0172 02       		.uleb128 0x2
 3562 0173 18       		.uleb128 0x18
 3563 0174 00       		.byte	0
 3564 0175 00       		.byte	0
 3565 0176 1E       		.uleb128 0x1e
 3566 0177 898201   		.uleb128 0x4109
 3567 017a 00       		.byte	0
 3568 017b 11       		.uleb128 0x11
 3569 017c 01       		.uleb128 0x1
 3570 017d 31       		.uleb128 0x31
 3571 017e 13       		.uleb128 0x13
 3572 017f 00       		.byte	0
 3573 0180 00       		.byte	0
 3574 0181 1F       		.uleb128 0x1f
 3575 0182 898201   		.uleb128 0x4109
 3576 0185 01       		.byte	0x1
 3577 0186 11       		.uleb128 0x11
 3578 0187 01       		.uleb128 0x1
 3579 0188 31       		.uleb128 0x31
 3580 0189 13       		.uleb128 0x13
 3581 018a 01       		.uleb128 0x1
 3582 018b 13       		.uleb128 0x13
 3583 018c 00       		.byte	0
 3584 018d 00       		.byte	0
 3585 018e 20       		.uleb128 0x20
 3586 018f 8A8201   		.uleb128 0x410a
 3587 0192 00       		.byte	0
 3588 0193 02       		.uleb128 0x2
 3589 0194 18       		.uleb128 0x18
 3590 0195 9142     		.uleb128 0x2111
 3591 0197 18       		.uleb128 0x18
ARM GAS  C:\cygwin64\tmp\cceZag5Q.s 			page 64


 3592 0198 00       		.byte	0
 3593 0199 00       		.byte	0
 3594 019a 21       		.uleb128 0x21
 3595 019b 34       		.uleb128 0x34
 3596 019c 00       		.byte	0
 3597 019d 03       		.uleb128 0x3
 3598 019e 08       		.uleb128 0x8
 3599 019f 3A       		.uleb128 0x3a
 3600 01a0 0B       		.uleb128 0xb
 3601 01a1 3B       		.uleb128 0x3b
 3602 01a2 05       		.uleb128 0x5
 3603 01a3 49       		.uleb128 0x49
 3604 01a4 13       		.uleb128 0x13
 3605 01a5 02       		.uleb128 0x2
 3606 01a6 17       		.uleb128 0x17
 3607 01a7 00       		.byte	0
 3608 01a8 00       		.byte	0
 3609 01a9 22       		.uleb128 0x22
 3610 01aa 898201   		.uleb128 0x4109
 3611 01ad 01       		.byte	0x1
 3612 01ae 11       		.uleb128 0x11
 3613 01af 01       		.uleb128 0x1
 3614 01b0 31       		.uleb128 0x31
 3615 01b1 13       		.uleb128 0x13
 3616 01b2 00       		.byte	0
 3617 01b3 00       		.byte	0
 3618 01b4 23       		.uleb128 0x23
 3619 01b5 2E       		.uleb128 0x2e
 3620 01b6 01       		.byte	0x1
 3621 01b7 3F       		.uleb128 0x3f
 3622 01b8 19       		.uleb128 0x19
 3623 01b9 03       		.uleb128 0x3
 3624 01ba 0E       		.uleb128 0xe
 3625 01bb 3A       		.uleb128 0x3a
 3626 01bc 0B       		.uleb128 0xb
 3627 01bd 3B       		.uleb128 0x3b
 3628 01be 05       		.uleb128 0x5
 3629 01bf 27       		.uleb128 0x27
 3630 01c0 19       		.uleb128 0x19
 3631 01c1 11       		.uleb128 0x11
 3632 01c2 01       		.uleb128 0x1
 3633 01c3 12       		.uleb128 0x12
 3634 01c4 06       		.uleb128 0x6
 3635 01c5 40       		.uleb128 0x40
 3636 01c6 18       		.uleb128 0x18
 3637 01c7 9742     		.uleb128 0x2117
 3638 01c9 19       		.uleb128 0x19
 3639 01ca 01       		.uleb128 0x1
 3640 01cb 13       		.uleb128 0x13
 3641 01cc 00       		.byte	0
 3642 01cd 00       		.byte	0
 3643 01ce 24       		.uleb128 0x24
 3644 01cf 34       		.uleb128 0x34
 3645 01d0 00       		.byte	0
 3646 01d1 03       		.uleb128 0x3
 3647 01d2 0E       		.uleb128 0xe
 3648 01d3 49       		.uleb128 0x49
ARM GAS  C:\cygwin64\tmp\cceZag5Q.s 			page 65


 3649 01d4 13       		.uleb128 0x13
 3650 01d5 34       		.uleb128 0x34
 3651 01d6 19       		.uleb128 0x19
 3652 01d7 00       		.byte	0
 3653 01d8 00       		.byte	0
 3654 01d9 25       		.uleb128 0x25
 3655 01da 898201   		.uleb128 0x4109
 3656 01dd 01       		.byte	0x1
 3657 01de 11       		.uleb128 0x11
 3658 01df 01       		.uleb128 0x1
 3659 01e0 00       		.byte	0
 3660 01e1 00       		.byte	0
 3661 01e2 26       		.uleb128 0x26
 3662 01e3 05       		.uleb128 0x5
 3663 01e4 00       		.byte	0
 3664 01e5 03       		.uleb128 0x3
 3665 01e6 08       		.uleb128 0x8
 3666 01e7 3A       		.uleb128 0x3a
 3667 01e8 0B       		.uleb128 0xb
 3668 01e9 3B       		.uleb128 0x3b
 3669 01ea 05       		.uleb128 0x5
 3670 01eb 49       		.uleb128 0x49
 3671 01ec 13       		.uleb128 0x13
 3672 01ed 02       		.uleb128 0x2
 3673 01ee 17       		.uleb128 0x17
 3674 01ef 00       		.byte	0
 3675 01f0 00       		.byte	0
 3676 01f1 27       		.uleb128 0x27
 3677 01f2 34       		.uleb128 0x34
 3678 01f3 00       		.byte	0
 3679 01f4 03       		.uleb128 0x3
 3680 01f5 0E       		.uleb128 0xe
 3681 01f6 3A       		.uleb128 0x3a
 3682 01f7 0B       		.uleb128 0xb
 3683 01f8 3B       		.uleb128 0x3b
 3684 01f9 05       		.uleb128 0x5
 3685 01fa 49       		.uleb128 0x49
 3686 01fb 13       		.uleb128 0x13
 3687 01fc 02       		.uleb128 0x2
 3688 01fd 18       		.uleb128 0x18
 3689 01fe 00       		.byte	0
 3690 01ff 00       		.byte	0
 3691 0200 28       		.uleb128 0x28
 3692 0201 898201   		.uleb128 0x4109
 3693 0204 00       		.byte	0
 3694 0205 11       		.uleb128 0x11
 3695 0206 01       		.uleb128 0x1
 3696 0207 9542     		.uleb128 0x2115
 3697 0209 19       		.uleb128 0x19
 3698 020a 31       		.uleb128 0x31
 3699 020b 13       		.uleb128 0x13
 3700 020c 00       		.byte	0
 3701 020d 00       		.byte	0
 3702 020e 29       		.uleb128 0x29
 3703 020f 898201   		.uleb128 0x4109
 3704 0212 01       		.byte	0x1
 3705 0213 11       		.uleb128 0x11
ARM GAS  C:\cygwin64\tmp\cceZag5Q.s 			page 66


 3706 0214 01       		.uleb128 0x1
 3707 0215 9542     		.uleb128 0x2115
 3708 0217 19       		.uleb128 0x19
 3709 0218 31       		.uleb128 0x31
 3710 0219 13       		.uleb128 0x13
 3711 021a 00       		.byte	0
 3712 021b 00       		.byte	0
 3713 021c 2A       		.uleb128 0x2a
 3714 021d 2E       		.uleb128 0x2e
 3715 021e 01       		.byte	0x1
 3716 021f 3F       		.uleb128 0x3f
 3717 0220 19       		.uleb128 0x19
 3718 0221 03       		.uleb128 0x3
 3719 0222 0E       		.uleb128 0xe
 3720 0223 3A       		.uleb128 0x3a
 3721 0224 0B       		.uleb128 0xb
 3722 0225 3B       		.uleb128 0x3b
 3723 0226 0B       		.uleb128 0xb
 3724 0227 27       		.uleb128 0x27
 3725 0228 19       		.uleb128 0x19
 3726 0229 49       		.uleb128 0x49
 3727 022a 13       		.uleb128 0x13
 3728 022b 11       		.uleb128 0x11
 3729 022c 01       		.uleb128 0x1
 3730 022d 12       		.uleb128 0x12
 3731 022e 06       		.uleb128 0x6
 3732 022f 40       		.uleb128 0x40
 3733 0230 18       		.uleb128 0x18
 3734 0231 9742     		.uleb128 0x2117
 3735 0233 19       		.uleb128 0x19
 3736 0234 01       		.uleb128 0x1
 3737 0235 13       		.uleb128 0x13
 3738 0236 00       		.byte	0
 3739 0237 00       		.byte	0
 3740 0238 2B       		.uleb128 0x2b
 3741 0239 05       		.uleb128 0x5
 3742 023a 00       		.byte	0
 3743 023b 03       		.uleb128 0x3
 3744 023c 08       		.uleb128 0x8
 3745 023d 3A       		.uleb128 0x3a
 3746 023e 0B       		.uleb128 0xb
 3747 023f 3B       		.uleb128 0x3b
 3748 0240 0B       		.uleb128 0xb
 3749 0241 49       		.uleb128 0x49
 3750 0242 13       		.uleb128 0x13
 3751 0243 02       		.uleb128 0x2
 3752 0244 17       		.uleb128 0x17
 3753 0245 00       		.byte	0
 3754 0246 00       		.byte	0
 3755 0247 2C       		.uleb128 0x2c
 3756 0248 34       		.uleb128 0x34
 3757 0249 00       		.byte	0
 3758 024a 03       		.uleb128 0x3
 3759 024b 0E       		.uleb128 0xe
 3760 024c 3A       		.uleb128 0x3a
 3761 024d 0B       		.uleb128 0xb
 3762 024e 3B       		.uleb128 0x3b
ARM GAS  C:\cygwin64\tmp\cceZag5Q.s 			page 67


 3763 024f 0B       		.uleb128 0xb
 3764 0250 49       		.uleb128 0x49
 3765 0251 13       		.uleb128 0x13
 3766 0252 02       		.uleb128 0x2
 3767 0253 18       		.uleb128 0x18
 3768 0254 00       		.byte	0
 3769 0255 00       		.byte	0
 3770 0256 2D       		.uleb128 0x2d
 3771 0257 2E       		.uleb128 0x2e
 3772 0258 01       		.byte	0x1
 3773 0259 3F       		.uleb128 0x3f
 3774 025a 19       		.uleb128 0x19
 3775 025b 03       		.uleb128 0x3
 3776 025c 0E       		.uleb128 0xe
 3777 025d 3A       		.uleb128 0x3a
 3778 025e 0B       		.uleb128 0xb
 3779 025f 3B       		.uleb128 0x3b
 3780 0260 0B       		.uleb128 0xb
 3781 0261 27       		.uleb128 0x27
 3782 0262 19       		.uleb128 0x19
 3783 0263 11       		.uleb128 0x11
 3784 0264 01       		.uleb128 0x1
 3785 0265 12       		.uleb128 0x12
 3786 0266 06       		.uleb128 0x6
 3787 0267 40       		.uleb128 0x40
 3788 0268 18       		.uleb128 0x18
 3789 0269 9742     		.uleb128 0x2117
 3790 026b 19       		.uleb128 0x19
 3791 026c 01       		.uleb128 0x1
 3792 026d 13       		.uleb128 0x13
 3793 026e 00       		.byte	0
 3794 026f 00       		.byte	0
 3795 0270 2E       		.uleb128 0x2e
 3796 0271 05       		.uleb128 0x5
 3797 0272 00       		.byte	0
 3798 0273 03       		.uleb128 0x3
 3799 0274 0E       		.uleb128 0xe
 3800 0275 3A       		.uleb128 0x3a
 3801 0276 0B       		.uleb128 0xb
 3802 0277 3B       		.uleb128 0x3b
 3803 0278 0B       		.uleb128 0xb
 3804 0279 49       		.uleb128 0x49
 3805 027a 13       		.uleb128 0x13
 3806 027b 02       		.uleb128 0x2
 3807 027c 17       		.uleb128 0x17
 3808 027d 00       		.byte	0
 3809 027e 00       		.byte	0
 3810 027f 2F       		.uleb128 0x2f
 3811 0280 34       		.uleb128 0x34
 3812 0281 00       		.byte	0
 3813 0282 03       		.uleb128 0x3
 3814 0283 08       		.uleb128 0x8
 3815 0284 3A       		.uleb128 0x3a
 3816 0285 0B       		.uleb128 0xb
 3817 0286 3B       		.uleb128 0x3b
 3818 0287 0B       		.uleb128 0xb
 3819 0288 49       		.uleb128 0x49
ARM GAS  C:\cygwin64\tmp\cceZag5Q.s 			page 68


 3820 0289 13       		.uleb128 0x13
 3821 028a 02       		.uleb128 0x2
 3822 028b 18       		.uleb128 0x18
 3823 028c 00       		.byte	0
 3824 028d 00       		.byte	0
 3825 028e 30       		.uleb128 0x30
 3826 028f 34       		.uleb128 0x34
 3827 0290 00       		.byte	0
 3828 0291 03       		.uleb128 0x3
 3829 0292 08       		.uleb128 0x8
 3830 0293 3A       		.uleb128 0x3a
 3831 0294 0B       		.uleb128 0xb
 3832 0295 3B       		.uleb128 0x3b
 3833 0296 0B       		.uleb128 0xb
 3834 0297 49       		.uleb128 0x49
 3835 0298 13       		.uleb128 0x13
 3836 0299 02       		.uleb128 0x2
 3837 029a 17       		.uleb128 0x17
 3838 029b 00       		.byte	0
 3839 029c 00       		.byte	0
 3840 029d 31       		.uleb128 0x31
 3841 029e 2E       		.uleb128 0x2e
 3842 029f 01       		.byte	0x1
 3843 02a0 03       		.uleb128 0x3
 3844 02a1 0E       		.uleb128 0xe
 3845 02a2 3A       		.uleb128 0x3a
 3846 02a3 0B       		.uleb128 0xb
 3847 02a4 3B       		.uleb128 0x3b
 3848 02a5 05       		.uleb128 0x5
 3849 02a6 27       		.uleb128 0x27
 3850 02a7 19       		.uleb128 0x19
 3851 02a8 11       		.uleb128 0x11
 3852 02a9 01       		.uleb128 0x1
 3853 02aa 12       		.uleb128 0x12
 3854 02ab 06       		.uleb128 0x6
 3855 02ac 40       		.uleb128 0x40
 3856 02ad 18       		.uleb128 0x18
 3857 02ae 9742     		.uleb128 0x2117
 3858 02b0 19       		.uleb128 0x19
 3859 02b1 01       		.uleb128 0x1
 3860 02b2 13       		.uleb128 0x13
 3861 02b3 00       		.byte	0
 3862 02b4 00       		.byte	0
 3863 02b5 32       		.uleb128 0x32
 3864 02b6 1D       		.uleb128 0x1d
 3865 02b7 01       		.byte	0x1
 3866 02b8 31       		.uleb128 0x31
 3867 02b9 13       		.uleb128 0x13
 3868 02ba 11       		.uleb128 0x11
 3869 02bb 01       		.uleb128 0x1
 3870 02bc 12       		.uleb128 0x12
 3871 02bd 06       		.uleb128 0x6
 3872 02be 58       		.uleb128 0x58
 3873 02bf 0B       		.uleb128 0xb
 3874 02c0 59       		.uleb128 0x59
 3875 02c1 05       		.uleb128 0x5
 3876 02c2 01       		.uleb128 0x1
ARM GAS  C:\cygwin64\tmp\cceZag5Q.s 			page 69


 3877 02c3 13       		.uleb128 0x13
 3878 02c4 00       		.byte	0
 3879 02c5 00       		.byte	0
 3880 02c6 33       		.uleb128 0x33
 3881 02c7 1D       		.uleb128 0x1d
 3882 02c8 01       		.byte	0x1
 3883 02c9 31       		.uleb128 0x31
 3884 02ca 13       		.uleb128 0x13
 3885 02cb 11       		.uleb128 0x11
 3886 02cc 01       		.uleb128 0x1
 3887 02cd 12       		.uleb128 0x12
 3888 02ce 06       		.uleb128 0x6
 3889 02cf 58       		.uleb128 0x58
 3890 02d0 0B       		.uleb128 0xb
 3891 02d1 59       		.uleb128 0x59
 3892 02d2 05       		.uleb128 0x5
 3893 02d3 00       		.byte	0
 3894 02d4 00       		.byte	0
 3895 02d5 34       		.uleb128 0x34
 3896 02d6 05       		.uleb128 0x5
 3897 02d7 00       		.byte	0
 3898 02d8 31       		.uleb128 0x31
 3899 02d9 13       		.uleb128 0x13
 3900 02da 02       		.uleb128 0x2
 3901 02db 17       		.uleb128 0x17
 3902 02dc 00       		.byte	0
 3903 02dd 00       		.byte	0
 3904 02de 35       		.uleb128 0x35
 3905 02df 2E       		.uleb128 0x2e
 3906 02e0 00       		.byte	0
 3907 02e1 03       		.uleb128 0x3
 3908 02e2 0E       		.uleb128 0xe
 3909 02e3 3A       		.uleb128 0x3a
 3910 02e4 0B       		.uleb128 0xb
 3911 02e5 3B       		.uleb128 0x3b
 3912 02e6 05       		.uleb128 0x5
 3913 02e7 27       		.uleb128 0x27
 3914 02e8 19       		.uleb128 0x19
 3915 02e9 20       		.uleb128 0x20
 3916 02ea 0B       		.uleb128 0xb
 3917 02eb 00       		.byte	0
 3918 02ec 00       		.byte	0
 3919 02ed 36       		.uleb128 0x36
 3920 02ee 2E       		.uleb128 0x2e
 3921 02ef 01       		.byte	0x1
 3922 02f0 03       		.uleb128 0x3
 3923 02f1 0E       		.uleb128 0xe
 3924 02f2 3A       		.uleb128 0x3a
 3925 02f3 0B       		.uleb128 0xb
 3926 02f4 3B       		.uleb128 0x3b
 3927 02f5 05       		.uleb128 0x5
 3928 02f6 27       		.uleb128 0x27
 3929 02f7 19       		.uleb128 0x19
 3930 02f8 20       		.uleb128 0x20
 3931 02f9 0B       		.uleb128 0xb
 3932 02fa 01       		.uleb128 0x1
 3933 02fb 13       		.uleb128 0x13
ARM GAS  C:\cygwin64\tmp\cceZag5Q.s 			page 70


 3934 02fc 00       		.byte	0
 3935 02fd 00       		.byte	0
 3936 02fe 37       		.uleb128 0x37
 3937 02ff 05       		.uleb128 0x5
 3938 0300 00       		.byte	0
 3939 0301 03       		.uleb128 0x3
 3940 0302 0E       		.uleb128 0xe
 3941 0303 3A       		.uleb128 0x3a
 3942 0304 0B       		.uleb128 0xb
 3943 0305 3B       		.uleb128 0x3b
 3944 0306 05       		.uleb128 0x5
 3945 0307 49       		.uleb128 0x49
 3946 0308 13       		.uleb128 0x13
 3947 0309 00       		.byte	0
 3948 030a 00       		.byte	0
 3949 030b 38       		.uleb128 0x38
 3950 030c 2E       		.uleb128 0x2e
 3951 030d 00       		.byte	0
 3952 030e 3F       		.uleb128 0x3f
 3953 030f 19       		.uleb128 0x19
 3954 0310 3C       		.uleb128 0x3c
 3955 0311 19       		.uleb128 0x19
 3956 0312 6E       		.uleb128 0x6e
 3957 0313 0E       		.uleb128 0xe
 3958 0314 03       		.uleb128 0x3
 3959 0315 0E       		.uleb128 0xe
 3960 0316 3A       		.uleb128 0x3a
 3961 0317 0B       		.uleb128 0xb
 3962 0318 3B       		.uleb128 0x3b
 3963 0319 05       		.uleb128 0x5
 3964 031a 00       		.byte	0
 3965 031b 00       		.byte	0
 3966 031c 39       		.uleb128 0x39
 3967 031d 2E       		.uleb128 0x2e
 3968 031e 00       		.byte	0
 3969 031f 3F       		.uleb128 0x3f
 3970 0320 19       		.uleb128 0x19
 3971 0321 3C       		.uleb128 0x3c
 3972 0322 19       		.uleb128 0x19
 3973 0323 6E       		.uleb128 0x6e
 3974 0324 0E       		.uleb128 0xe
 3975 0325 03       		.uleb128 0x3
 3976 0326 0E       		.uleb128 0xe
 3977 0327 3A       		.uleb128 0x3a
 3978 0328 0B       		.uleb128 0xb
 3979 0329 3B       		.uleb128 0x3b
 3980 032a 0B       		.uleb128 0xb
 3981 032b 00       		.byte	0
 3982 032c 00       		.byte	0
 3983 032d 00       		.byte	0
 3984              		.section	.debug_loc,"",%progbits
 3985              	.Ldebug_loc0:
 3986              	.LLST39:
 3987 0000 00000000 		.4byte	.LVL109
 3988 0004 0D000000 		.4byte	.LVL111-1
 3989 0008 0100     		.2byte	0x1
 3990 000a 50       		.byte	0x50
ARM GAS  C:\cygwin64\tmp\cceZag5Q.s 			page 71


 3991 000b 0D000000 		.4byte	.LVL111-1
 3992 000f 1E000000 		.4byte	.LVL113
 3993 0013 0100     		.2byte	0x1
 3994 0015 54       		.byte	0x54
 3995 0016 1E000000 		.4byte	.LVL113
 3996 001a 22000000 		.4byte	.LVL114
 3997 001e 0400     		.2byte	0x4
 3998 0020 F3       		.byte	0xf3
 3999 0021 01       		.uleb128 0x1
 4000 0022 50       		.byte	0x50
 4001 0023 9F       		.byte	0x9f
 4002 0024 22000000 		.4byte	.LVL114
 4003 0028 44000000 		.4byte	.LFE262
 4004 002c 0100     		.2byte	0x1
 4005 002e 54       		.byte	0x54
 4006 002f 00000000 		.4byte	0
 4007 0033 00000000 		.4byte	0
 4008              	.LLST40:
 4009 0037 00000000 		.4byte	.LVL109
 4010 003b 0D000000 		.4byte	.LVL111-1
 4011 003f 0100     		.2byte	0x1
 4012 0041 51       		.byte	0x51
 4013 0042 0D000000 		.4byte	.LVL111-1
 4014 0046 44000000 		.4byte	.LFE262
 4015 004a 0100     		.2byte	0x1
 4016 004c 56       		.byte	0x56
 4017 004d 00000000 		.4byte	0
 4018 0051 00000000 		.4byte	0
 4019              	.LLST36:
 4020 0055 00000000 		.4byte	.LVL99
 4021 0059 0D000000 		.4byte	.LVL101-1
 4022 005d 0100     		.2byte	0x1
 4023 005f 50       		.byte	0x50
 4024 0060 0D000000 		.4byte	.LVL101-1
 4025 0064 40000000 		.4byte	.LFE261
 4026 0068 0100     		.2byte	0x1
 4027 006a 56       		.byte	0x56
 4028 006b 00000000 		.4byte	0
 4029 006f 00000000 		.4byte	0
 4030              	.LLST37:
 4031 0073 00000000 		.4byte	.LVL99
 4032 0077 0D000000 		.4byte	.LVL101-1
 4033 007b 0100     		.2byte	0x1
 4034 007d 51       		.byte	0x51
 4035 007e 0D000000 		.4byte	.LVL101-1
 4036 0082 40000000 		.4byte	.LFE261
 4037 0086 0100     		.2byte	0x1
 4038 0088 57       		.byte	0x57
 4039 0089 00000000 		.4byte	0
 4040 008d 00000000 		.4byte	0
 4041              	.LLST38:
 4042 0091 10000000 		.4byte	.LVL102
 4043 0095 12000000 		.4byte	.LVL103
 4044 0099 0600     		.2byte	0x6
 4045 009b 76       		.byte	0x76
 4046 009c 00       		.sleb128 0
 4047 009d 74       		.byte	0x74
ARM GAS  C:\cygwin64\tmp\cceZag5Q.s 			page 72


 4048 009e 00       		.sleb128 0
 4049 009f 1A       		.byte	0x1a
 4050 00a0 9F       		.byte	0x9f
 4051 00a1 12000000 		.4byte	.LVL103
 4052 00a5 2E000000 		.4byte	.LVL107
 4053 00a9 0100     		.2byte	0x1
 4054 00ab 54       		.byte	0x54
 4055 00ac 30000000 		.4byte	.LVL108
 4056 00b0 40000000 		.4byte	.LFE261
 4057 00b4 0100     		.2byte	0x1
 4058 00b6 54       		.byte	0x54
 4059 00b7 00000000 		.4byte	0
 4060 00bb 00000000 		.4byte	0
 4061              	.LLST33:
 4062 00bf 00000000 		.4byte	.LVL88
 4063 00c3 0D000000 		.4byte	.LVL90-1
 4064 00c7 0100     		.2byte	0x1
 4065 00c9 50       		.byte	0x50
 4066 00ca 0D000000 		.4byte	.LVL90-1
 4067 00ce 44000000 		.4byte	.LFE260
 4068 00d2 0100     		.2byte	0x1
 4069 00d4 56       		.byte	0x56
 4070 00d5 00000000 		.4byte	0
 4071 00d9 00000000 		.4byte	0
 4072              	.LLST34:
 4073 00dd 00000000 		.4byte	.LVL88
 4074 00e1 0D000000 		.4byte	.LVL90-1
 4075 00e5 0100     		.2byte	0x1
 4076 00e7 51       		.byte	0x51
 4077 00e8 0D000000 		.4byte	.LVL90-1
 4078 00ec 44000000 		.4byte	.LFE260
 4079 00f0 0100     		.2byte	0x1
 4080 00f2 57       		.byte	0x57
 4081 00f3 00000000 		.4byte	0
 4082 00f7 00000000 		.4byte	0
 4083              	.LLST35:
 4084 00fb 10000000 		.4byte	.LVL91
 4085 00ff 12000000 		.4byte	.LVL92
 4086 0103 0600     		.2byte	0x6
 4087 0105 76       		.byte	0x76
 4088 0106 00       		.sleb128 0
 4089 0107 74       		.byte	0x74
 4090 0108 00       		.sleb128 0
 4091 0109 1A       		.byte	0x1a
 4092 010a 9F       		.byte	0x9f
 4093 010b 12000000 		.4byte	.LVL92
 4094 010f 2E000000 		.4byte	.LVL96
 4095 0113 0100     		.2byte	0x1
 4096 0115 54       		.byte	0x54
 4097 0116 30000000 		.4byte	.LVL97
 4098 011a 44000000 		.4byte	.LFE260
 4099 011e 0100     		.2byte	0x1
 4100 0120 54       		.byte	0x54
 4101 0121 00000000 		.4byte	0
 4102 0125 00000000 		.4byte	0
 4103              	.LLST31:
 4104 0129 00000000 		.4byte	.LVL82
ARM GAS  C:\cygwin64\tmp\cceZag5Q.s 			page 73


 4105 012d 0B000000 		.4byte	.LVL84-1
 4106 0131 0100     		.2byte	0x1
 4107 0133 50       		.byte	0x50
 4108 0134 0B000000 		.4byte	.LVL84-1
 4109 0138 2C000000 		.4byte	.LVL87
 4110 013c 0100     		.2byte	0x1
 4111 013e 54       		.byte	0x54
 4112 013f 2C000000 		.4byte	.LVL87
 4113 0143 30000000 		.4byte	.LFE259
 4114 0147 0100     		.2byte	0x1
 4115 0149 50       		.byte	0x50
 4116 014a 00000000 		.4byte	0
 4117 014e 00000000 		.4byte	0
 4118              	.LLST32:
 4119 0152 06000000 		.4byte	.LVL83
 4120 0156 2C000000 		.4byte	.LVL87
 4121 015a 0100     		.2byte	0x1
 4122 015c 55       		.byte	0x55
 4123 015d 00000000 		.4byte	0
 4124 0161 00000000 		.4byte	0
 4125              	.LLST28:
 4126 0165 00000000 		.4byte	.LVL72
 4127 0169 0B000000 		.4byte	.LVL74-1
 4128 016d 0100     		.2byte	0x1
 4129 016f 50       		.byte	0x50
 4130 0170 0B000000 		.4byte	.LVL74-1
 4131 0174 2E000000 		.4byte	.LVL81
 4132 0178 0100     		.2byte	0x1
 4133 017a 56       		.byte	0x56
 4134 017b 2E000000 		.4byte	.LVL81
 4135 017f 34000000 		.4byte	.LFE258
 4136 0183 0400     		.2byte	0x4
 4137 0185 F3       		.byte	0xf3
 4138 0186 01       		.uleb128 0x1
 4139 0187 50       		.byte	0x50
 4140 0188 9F       		.byte	0x9f
 4141 0189 00000000 		.4byte	0
 4142 018d 00000000 		.4byte	0
 4143              	.LLST29:
 4144 0191 06000000 		.4byte	.LVL73
 4145 0195 2E000000 		.4byte	.LVL81
 4146 0199 0100     		.2byte	0x1
 4147 019b 55       		.byte	0x55
 4148 019c 00000000 		.4byte	0
 4149 01a0 00000000 		.4byte	0
 4150              	.LLST30:
 4151 01a4 0E000000 		.4byte	.LVL75
 4152 01a8 10000000 		.4byte	.LVL76
 4153 01ac 0600     		.2byte	0x6
 4154 01ae 76       		.byte	0x76
 4155 01af 00       		.sleb128 0
 4156 01b0 74       		.byte	0x74
 4157 01b1 00       		.sleb128 0
 4158 01b2 1A       		.byte	0x1a
 4159 01b3 9F       		.byte	0x9f
 4160 01b4 10000000 		.4byte	.LVL76
 4161 01b8 1C000000 		.4byte	.LVL78
ARM GAS  C:\cygwin64\tmp\cceZag5Q.s 			page 74


 4162 01bc 0100     		.2byte	0x1
 4163 01be 54       		.byte	0x54
 4164 01bf 1E000000 		.4byte	.LVL79
 4165 01c3 2E000000 		.4byte	.LVL81
 4166 01c7 0100     		.2byte	0x1
 4167 01c9 54       		.byte	0x54
 4168 01ca 2E000000 		.4byte	.LVL81
 4169 01ce 34000000 		.4byte	.LFE258
 4170 01d2 0100     		.2byte	0x1
 4171 01d4 50       		.byte	0x50
 4172 01d5 00000000 		.4byte	0
 4173 01d9 00000000 		.4byte	0
 4174              	.LLST25:
 4175 01dd 00000000 		.4byte	.LVL60
 4176 01e1 0B000000 		.4byte	.LVL62-1
 4177 01e5 0100     		.2byte	0x1
 4178 01e7 50       		.byte	0x50
 4179 01e8 0B000000 		.4byte	.LVL62-1
 4180 01ec 22000000 		.4byte	.LVL68
 4181 01f0 0100     		.2byte	0x1
 4182 01f2 54       		.byte	0x54
 4183 01f3 22000000 		.4byte	.LVL68
 4184 01f7 38000000 		.4byte	.LFE257
 4185 01fb 0400     		.2byte	0x4
 4186 01fd F3       		.byte	0xf3
 4187 01fe 01       		.uleb128 0x1
 4188 01ff 50       		.byte	0x50
 4189 0200 9F       		.byte	0x9f
 4190 0201 00000000 		.4byte	0
 4191 0205 00000000 		.4byte	0
 4192              	.LLST26:
 4193 0209 06000000 		.4byte	.LVL61
 4194 020d 32000000 		.4byte	.LVL71
 4195 0211 0100     		.2byte	0x1
 4196 0213 55       		.byte	0x55
 4197 0214 00000000 		.4byte	0
 4198 0218 00000000 		.4byte	0
 4199              	.LLST27:
 4200 021c 0E000000 		.4byte	.LVL63
 4201 0220 10000000 		.4byte	.LVL64
 4202 0224 0600     		.2byte	0x6
 4203 0226 74       		.byte	0x74
 4204 0227 00       		.sleb128 0
 4205 0228 70       		.byte	0x70
 4206 0229 00       		.sleb128 0
 4207 022a 1A       		.byte	0x1a
 4208 022b 9F       		.byte	0x9f
 4209 022c 10000000 		.4byte	.LVL64
 4210 0230 14000000 		.4byte	.LVL65
 4211 0234 0100     		.2byte	0x1
 4212 0236 50       		.byte	0x50
 4213 0237 14000000 		.4byte	.LVL65
 4214 023b 19000000 		.4byte	.LVL66-1
 4215 023f 0700     		.2byte	0x7
 4216 0241 74       		.byte	0x74
 4217 0242 00       		.sleb128 0
 4218 0243 75       		.byte	0x75
ARM GAS  C:\cygwin64\tmp\cceZag5Q.s 			page 75


 4219 0244 34       		.sleb128 52
 4220 0245 06       		.byte	0x6
 4221 0246 1A       		.byte	0x1a
 4222 0247 9F       		.byte	0x9f
 4223 0248 1E000000 		.4byte	.LVL67
 4224 024c 24000000 		.4byte	.LVL69
 4225 0250 0100     		.2byte	0x1
 4226 0252 50       		.byte	0x50
 4227 0253 24000000 		.4byte	.LVL69
 4228 0257 32000000 		.4byte	.LVL71
 4229 025b 0100     		.2byte	0x1
 4230 025d 54       		.byte	0x54
 4231 025e 32000000 		.4byte	.LVL71
 4232 0262 38000000 		.4byte	.LFE257
 4233 0266 0100     		.2byte	0x1
 4234 0268 50       		.byte	0x50
 4235 0269 00000000 		.4byte	0
 4236 026d 00000000 		.4byte	0
 4237              	.LLST22:
 4238 0271 00000000 		.4byte	.LVL54
 4239 0275 0A000000 		.4byte	.LVL55
 4240 0279 0100     		.2byte	0x1
 4241 027b 50       		.byte	0x50
 4242 027c 0A000000 		.4byte	.LVL55
 4243 0280 2A000000 		.4byte	.LFE256
 4244 0284 0100     		.2byte	0x1
 4245 0286 56       		.byte	0x56
 4246 0287 00000000 		.4byte	0
 4247 028b 00000000 		.4byte	0
 4248              	.LLST23:
 4249 028f 00000000 		.4byte	.LVL54
 4250 0293 0A000000 		.4byte	.LVL55
 4251 0297 0100     		.2byte	0x1
 4252 0299 51       		.byte	0x51
 4253 029a 0A000000 		.4byte	.LVL55
 4254 029e 2A000000 		.4byte	.LFE256
 4255 02a2 0100     		.2byte	0x1
 4256 02a4 55       		.byte	0x55
 4257 02a5 00000000 		.4byte	0
 4258 02a9 00000000 		.4byte	0
 4259              	.LLST24:
 4260 02ad 00000000 		.4byte	.LVL54
 4261 02b1 0A000000 		.4byte	.LVL55
 4262 02b5 0200     		.2byte	0x2
 4263 02b7 30       		.byte	0x30
 4264 02b8 9F       		.byte	0x9f
 4265 02b9 0A000000 		.4byte	.LVL55
 4266 02bd 2A000000 		.4byte	.LFE256
 4267 02c1 0100     		.2byte	0x1
 4268 02c3 54       		.byte	0x54
 4269 02c4 00000000 		.4byte	0
 4270 02c8 00000000 		.4byte	0
 4271              	.LLST21:
 4272 02cc 00000000 		.4byte	.LVL52
 4273 02d0 06000000 		.4byte	.LVL53
 4274 02d4 0100     		.2byte	0x1
 4275 02d6 50       		.byte	0x50
ARM GAS  C:\cygwin64\tmp\cceZag5Q.s 			page 76


 4276 02d7 06000000 		.4byte	.LVL53
 4277 02db 0A000000 		.4byte	.LFE255
 4278 02df 0100     		.2byte	0x1
 4279 02e1 53       		.byte	0x53
 4280 02e2 00000000 		.4byte	0
 4281 02e6 00000000 		.4byte	0
 4282              	.LLST19:
 4283 02ea 00000000 		.4byte	.LVL46
 4284 02ee 09000000 		.4byte	.LVL47-1
 4285 02f2 0100     		.2byte	0x1
 4286 02f4 50       		.byte	0x50
 4287 02f5 09000000 		.4byte	.LVL47-1
 4288 02f9 1A000000 		.4byte	.LVL50
 4289 02fd 0100     		.2byte	0x1
 4290 02ff 54       		.byte	0x54
 4291 0300 1A000000 		.4byte	.LVL50
 4292 0304 1E000000 		.4byte	.LFE254
 4293 0308 0400     		.2byte	0x4
 4294 030a F3       		.byte	0xf3
 4295 030b 01       		.uleb128 0x1
 4296 030c 50       		.byte	0x50
 4297 030d 9F       		.byte	0x9f
 4298 030e 00000000 		.4byte	0
 4299 0312 00000000 		.4byte	0
 4300              	.LLST20:
 4301 0316 00000000 		.4byte	.LVL46
 4302 031a 09000000 		.4byte	.LVL47-1
 4303 031e 0100     		.2byte	0x1
 4304 0320 51       		.byte	0x51
 4305 0321 09000000 		.4byte	.LVL47-1
 4306 0325 1A000000 		.4byte	.LVL50
 4307 0329 0100     		.2byte	0x1
 4308 032b 55       		.byte	0x55
 4309 032c 1A000000 		.4byte	.LVL50
 4310 0330 1E000000 		.4byte	.LFE254
 4311 0334 0400     		.2byte	0x4
 4312 0336 F3       		.byte	0xf3
 4313 0337 01       		.uleb128 0x1
 4314 0338 51       		.byte	0x51
 4315 0339 9F       		.byte	0x9f
 4316 033a 00000000 		.4byte	0
 4317 033e 00000000 		.4byte	0
 4318              	.LLST13:
 4319 0342 00000000 		.4byte	.LVL31
 4320 0346 27000000 		.4byte	.LVL33-1
 4321 034a 0100     		.2byte	0x1
 4322 034c 50       		.byte	0x50
 4323 034d 27000000 		.4byte	.LVL33-1
 4324 0351 28000000 		.4byte	.LVL33
 4325 0355 0400     		.2byte	0x4
 4326 0357 F3       		.byte	0xf3
 4327 0358 01       		.uleb128 0x1
 4328 0359 50       		.byte	0x50
 4329 035a 9F       		.byte	0x9f
 4330 035b 28000000 		.4byte	.LVL33
 4331 035f 2A000000 		.4byte	.LFE253
 4332 0363 0100     		.2byte	0x1
ARM GAS  C:\cygwin64\tmp\cceZag5Q.s 			page 77


 4333 0365 50       		.byte	0x50
 4334 0366 00000000 		.4byte	0
 4335 036a 00000000 		.4byte	0
 4336              	.LLST14:
 4337 036e 00000000 		.4byte	.LVL31
 4338 0372 04000000 		.4byte	.LVL32
 4339 0376 0100     		.2byte	0x1
 4340 0378 51       		.byte	0x51
 4341 0379 04000000 		.4byte	.LVL32
 4342 037d 2A000000 		.4byte	.LFE253
 4343 0381 0400     		.2byte	0x4
 4344 0383 F3       		.byte	0xf3
 4345 0384 01       		.uleb128 0x1
 4346 0385 51       		.byte	0x51
 4347 0386 9F       		.byte	0x9f
 4348 0387 00000000 		.4byte	0
 4349 038b 00000000 		.4byte	0
 4350              	.LLST17:
 4351 038f 00000000 		.4byte	.LVL40
 4352 0393 09000000 		.4byte	.LVL41-1
 4353 0397 0100     		.2byte	0x1
 4354 0399 50       		.byte	0x50
 4355 039a 09000000 		.4byte	.LVL41-1
 4356 039e 1A000000 		.4byte	.LVL44
 4357 03a2 0100     		.2byte	0x1
 4358 03a4 54       		.byte	0x54
 4359 03a5 1A000000 		.4byte	.LVL44
 4360 03a9 1E000000 		.4byte	.LFE252
 4361 03ad 0400     		.2byte	0x4
 4362 03af F3       		.byte	0xf3
 4363 03b0 01       		.uleb128 0x1
 4364 03b1 50       		.byte	0x50
 4365 03b2 9F       		.byte	0x9f
 4366 03b3 00000000 		.4byte	0
 4367 03b7 00000000 		.4byte	0
 4368              	.LLST18:
 4369 03bb 00000000 		.4byte	.LVL40
 4370 03bf 09000000 		.4byte	.LVL41-1
 4371 03c3 0100     		.2byte	0x1
 4372 03c5 51       		.byte	0x51
 4373 03c6 09000000 		.4byte	.LVL41-1
 4374 03ca 1A000000 		.4byte	.LVL44
 4375 03ce 0100     		.2byte	0x1
 4376 03d0 55       		.byte	0x55
 4377 03d1 1A000000 		.4byte	.LVL44
 4378 03d5 1E000000 		.4byte	.LFE252
 4379 03d9 0400     		.2byte	0x4
 4380 03db F3       		.byte	0xf3
 4381 03dc 01       		.uleb128 0x1
 4382 03dd 51       		.byte	0x51
 4383 03de 9F       		.byte	0x9f
 4384 03df 00000000 		.4byte	0
 4385 03e3 00000000 		.4byte	0
 4386              	.LLST12:
 4387 03e7 00000000 		.4byte	.LVL27
 4388 03eb 07000000 		.4byte	.LVL28-1
 4389 03ef 0100     		.2byte	0x1
ARM GAS  C:\cygwin64\tmp\cceZag5Q.s 			page 78


 4390 03f1 50       		.byte	0x50
 4391 03f2 07000000 		.4byte	.LVL28-1
 4392 03f6 16000000 		.4byte	.LFE251
 4393 03fa 0100     		.2byte	0x1
 4394 03fc 54       		.byte	0x54
 4395 03fd 00000000 		.4byte	0
 4396 0401 00000000 		.4byte	0
 4397              	.LLST15:
 4398 0405 00000000 		.4byte	.LVL34
 4399 0409 08000000 		.4byte	.LVL36
 4400 040d 0100     		.2byte	0x1
 4401 040f 50       		.byte	0x50
 4402 0410 08000000 		.4byte	.LVL36
 4403 0414 28000000 		.4byte	.LFE250
 4404 0418 0100     		.2byte	0x1
 4405 041a 55       		.byte	0x55
 4406 041b 00000000 		.4byte	0
 4407 041f 00000000 		.4byte	0
 4408              	.LLST16:
 4409 0423 00000000 		.4byte	.LVL34
 4410 0427 08000000 		.4byte	.LVL36
 4411 042b 0100     		.2byte	0x1
 4412 042d 51       		.byte	0x51
 4413 042e 08000000 		.4byte	.LVL36
 4414 0432 28000000 		.4byte	.LFE250
 4415 0436 0100     		.2byte	0x1
 4416 0438 56       		.byte	0x56
 4417 0439 00000000 		.4byte	0
 4418 043d 00000000 		.4byte	0
 4419              	.LLST11:
 4420 0441 00000000 		.4byte	.LVL21
 4421 0445 07000000 		.4byte	.LVL22-1
 4422 0449 0100     		.2byte	0x1
 4423 044b 50       		.byte	0x50
 4424 044c 07000000 		.4byte	.LVL22-1
 4425 0450 10000000 		.4byte	.LVL23
 4426 0454 0100     		.2byte	0x1
 4427 0456 54       		.byte	0x54
 4428 0457 10000000 		.4byte	.LVL23
 4429 045b 12000000 		.4byte	.LVL24
 4430 045f 0400     		.2byte	0x4
 4431 0461 F3       		.byte	0xf3
 4432 0462 01       		.uleb128 0x1
 4433 0463 50       		.byte	0x50
 4434 0464 9F       		.byte	0x9f
 4435 0465 12000000 		.4byte	.LVL24
 4436 0469 1A000000 		.4byte	.LVL26
 4437 046d 0100     		.2byte	0x1
 4438 046f 54       		.byte	0x54
 4439 0470 1A000000 		.4byte	.LVL26
 4440 0474 20000000 		.4byte	.LFE249
 4441 0478 0100     		.2byte	0x1
 4442 047a 50       		.byte	0x50
 4443 047b 00000000 		.4byte	0
 4444 047f 00000000 		.4byte	0
 4445              	.LLST9:
 4446 0483 00000000 		.4byte	.LVL16
ARM GAS  C:\cygwin64\tmp\cceZag5Q.s 			page 79


 4447 0487 07000000 		.4byte	.LVL17-1
 4448 048b 0100     		.2byte	0x1
 4449 048d 50       		.byte	0x50
 4450 048e 07000000 		.4byte	.LVL17-1
 4451 0492 20000000 		.4byte	.LVL20
 4452 0496 0100     		.2byte	0x1
 4453 0498 54       		.byte	0x54
 4454 0499 20000000 		.4byte	.LVL20
 4455 049d 24000000 		.4byte	.LFE248
 4456 04a1 0400     		.2byte	0x4
 4457 04a3 F3       		.byte	0xf3
 4458 04a4 01       		.uleb128 0x1
 4459 04a5 50       		.byte	0x50
 4460 04a6 9F       		.byte	0x9f
 4461 04a7 00000000 		.4byte	0
 4462 04ab 00000000 		.4byte	0
 4463              	.LLST10:
 4464 04af 12000000 		.4byte	.LVL18
 4465 04b3 20000000 		.4byte	.LVL20
 4466 04b7 0100     		.2byte	0x1
 4467 04b9 55       		.byte	0x55
 4468 04ba 20000000 		.4byte	.LVL20
 4469 04be 24000000 		.4byte	.LFE248
 4470 04c2 0100     		.2byte	0x1
 4471 04c4 50       		.byte	0x50
 4472 04c5 00000000 		.4byte	0
 4473 04c9 00000000 		.4byte	0
 4474              	.LLST6:
 4475 04cd 00000000 		.4byte	.LVL9
 4476 04d1 09000000 		.4byte	.LVL11-1
 4477 04d5 0100     		.2byte	0x1
 4478 04d7 50       		.byte	0x50
 4479 04d8 09000000 		.4byte	.LVL11-1
 4480 04dc 1E000000 		.4byte	.LVL13
 4481 04e0 0100     		.2byte	0x1
 4482 04e2 54       		.byte	0x54
 4483 04e3 1E000000 		.4byte	.LVL13
 4484 04e7 22000000 		.4byte	.LVL14
 4485 04eb 0400     		.2byte	0x4
 4486 04ed F3       		.byte	0xf3
 4487 04ee 01       		.uleb128 0x1
 4488 04ef 50       		.byte	0x50
 4489 04f0 9F       		.byte	0x9f
 4490 04f1 22000000 		.4byte	.LVL14
 4491 04f5 26000000 		.4byte	.LFE247
 4492 04f9 0100     		.2byte	0x1
 4493 04fb 54       		.byte	0x54
 4494 04fc 00000000 		.4byte	0
 4495 0500 00000000 		.4byte	0
 4496              	.LLST7:
 4497 0504 00000000 		.4byte	.LVL9
 4498 0508 09000000 		.4byte	.LVL11-1
 4499 050c 0100     		.2byte	0x1
 4500 050e 51       		.byte	0x51
 4501 050f 09000000 		.4byte	.LVL11-1
 4502 0513 1E000000 		.4byte	.LVL13
 4503 0517 0100     		.2byte	0x1
ARM GAS  C:\cygwin64\tmp\cceZag5Q.s 			page 80


 4504 0519 55       		.byte	0x55
 4505 051a 1E000000 		.4byte	.LVL13
 4506 051e 22000000 		.4byte	.LVL14
 4507 0522 0400     		.2byte	0x4
 4508 0524 F3       		.byte	0xf3
 4509 0525 01       		.uleb128 0x1
 4510 0526 51       		.byte	0x51
 4511 0527 9F       		.byte	0x9f
 4512 0528 22000000 		.4byte	.LVL14
 4513 052c 26000000 		.4byte	.LFE247
 4514 0530 0100     		.2byte	0x1
 4515 0532 55       		.byte	0x55
 4516 0533 00000000 		.4byte	0
 4517 0537 00000000 		.4byte	0
 4518              	.LLST8:
 4519 053b 04000000 		.4byte	.LVL10
 4520 053f 09000000 		.4byte	.LVL11-1
 4521 0543 0100     		.2byte	0x1
 4522 0545 50       		.byte	0x50
 4523 0546 09000000 		.4byte	.LVL11-1
 4524 054a 0C000000 		.4byte	.LVL12
 4525 054e 0100     		.2byte	0x1
 4526 0550 54       		.byte	0x54
 4527 0551 0C000000 		.4byte	.LVL12
 4528 0555 21000000 		.4byte	.LVL14-1
 4529 0559 0100     		.2byte	0x1
 4530 055b 52       		.byte	0x52
 4531 055c 22000000 		.4byte	.LVL14
 4532 0560 24000000 		.4byte	.LVL15
 4533 0564 0100     		.2byte	0x1
 4534 0566 52       		.byte	0x52
 4535 0567 00000000 		.4byte	0
 4536 056b 00000000 		.4byte	0
 4537              	.LLST2:
 4538 056f 00000000 		.4byte	.LVL5
 4539 0573 0D000000 		.4byte	.LVL6-1
 4540 0577 0100     		.2byte	0x1
 4541 0579 50       		.byte	0x50
 4542 057a 0D000000 		.4byte	.LVL6-1
 4543 057e 26000000 		.4byte	.LVL7
 4544 0582 0100     		.2byte	0x1
 4545 0584 55       		.byte	0x55
 4546 0585 26000000 		.4byte	.LVL7
 4547 0589 30000000 		.4byte	.LFE246
 4548 058d 0400     		.2byte	0x4
 4549 058f F3       		.byte	0xf3
 4550 0590 01       		.uleb128 0x1
 4551 0591 50       		.byte	0x50
 4552 0592 9F       		.byte	0x9f
 4553 0593 00000000 		.4byte	0
 4554 0597 00000000 		.4byte	0
 4555              	.LLST3:
 4556 059b 00000000 		.4byte	.LVL5
 4557 059f 0D000000 		.4byte	.LVL6-1
 4558 05a3 0100     		.2byte	0x1
 4559 05a5 51       		.byte	0x51
 4560 05a6 0D000000 		.4byte	.LVL6-1
ARM GAS  C:\cygwin64\tmp\cceZag5Q.s 			page 81


 4561 05aa 26000000 		.4byte	.LVL7
 4562 05ae 0100     		.2byte	0x1
 4563 05b0 54       		.byte	0x54
 4564 05b1 26000000 		.4byte	.LVL7
 4565 05b5 29000000 		.4byte	.LVL8-1
 4566 05b9 0300     		.2byte	0x3
 4567 05bb F3       		.byte	0xf3
 4568 05bc 01       		.uleb128 0x1
 4569 05bd 50       		.byte	0x50
 4570 05be 29000000 		.4byte	.LVL8-1
 4571 05c2 30000000 		.4byte	.LFE246
 4572 05c6 0400     		.2byte	0x4
 4573 05c8 F3       		.byte	0xf3
 4574 05c9 01       		.uleb128 0x1
 4575 05ca 51       		.byte	0x51
 4576 05cb 9F       		.byte	0x9f
 4577 05cc 00000000 		.4byte	0
 4578 05d0 00000000 		.4byte	0
 4579              	.LLST4:
 4580 05d4 00000000 		.4byte	.LVL5
 4581 05d8 0D000000 		.4byte	.LVL6-1
 4582 05dc 0100     		.2byte	0x1
 4583 05de 52       		.byte	0x52
 4584 05df 0D000000 		.4byte	.LVL6-1
 4585 05e3 26000000 		.4byte	.LVL7
 4586 05e7 0100     		.2byte	0x1
 4587 05e9 57       		.byte	0x57
 4588 05ea 26000000 		.4byte	.LVL7
 4589 05ee 29000000 		.4byte	.LVL8-1
 4590 05f2 0600     		.2byte	0x6
 4591 05f4 F3       		.byte	0xf3
 4592 05f5 01       		.uleb128 0x1
 4593 05f6 50       		.byte	0x50
 4594 05f7 06       		.byte	0x6
 4595 05f8 23       		.byte	0x23
 4596 05f9 08       		.uleb128 0x8
 4597 05fa 29000000 		.4byte	.LVL8-1
 4598 05fe 30000000 		.4byte	.LFE246
 4599 0602 0400     		.2byte	0x4
 4600 0604 F3       		.byte	0xf3
 4601 0605 01       		.uleb128 0x1
 4602 0606 52       		.byte	0x52
 4603 0607 9F       		.byte	0x9f
 4604 0608 00000000 		.4byte	0
 4605 060c 00000000 		.4byte	0
 4606              	.LLST5:
 4607 0610 00000000 		.4byte	.LVL5
 4608 0614 0D000000 		.4byte	.LVL6-1
 4609 0618 0100     		.2byte	0x1
 4610 061a 53       		.byte	0x53
 4611 061b 0D000000 		.4byte	.LVL6-1
 4612 061f 26000000 		.4byte	.LVL7
 4613 0623 0100     		.2byte	0x1
 4614 0625 56       		.byte	0x56
 4615 0626 26000000 		.4byte	.LVL7
 4616 062a 29000000 		.4byte	.LVL8-1
 4617 062e 0600     		.2byte	0x6
ARM GAS  C:\cygwin64\tmp\cceZag5Q.s 			page 82


 4618 0630 F3       		.byte	0xf3
 4619 0631 01       		.uleb128 0x1
 4620 0632 50       		.byte	0x50
 4621 0633 06       		.byte	0x6
 4622 0634 23       		.byte	0x23
 4623 0635 10       		.uleb128 0x10
 4624 0636 29000000 		.4byte	.LVL8-1
 4625 063a 30000000 		.4byte	.LFE246
 4626 063e 0400     		.2byte	0x4
 4627 0640 F3       		.byte	0xf3
 4628 0641 01       		.uleb128 0x1
 4629 0642 53       		.byte	0x53
 4630 0643 9F       		.byte	0x9f
 4631 0644 00000000 		.4byte	0
 4632 0648 00000000 		.4byte	0
 4633              	.LLST1:
 4634 064c 06000000 		.4byte	.LVL3
 4635 0650 0C000000 		.4byte	.LVL4
 4636 0654 0200     		.2byte	0x2
 4637 0656 30       		.byte	0x30
 4638 0657 9F       		.byte	0x9f
 4639 0658 00000000 		.4byte	0
 4640 065c 00000000 		.4byte	0
 4641              	.LLST0:
 4642 0660 00000000 		.4byte	.LVL0
 4643 0664 06000000 		.4byte	.LVL1
 4644 0668 0300     		.2byte	0x3
 4645 066a 08       		.byte	0x8
 4646 066b 20       		.byte	0x20
 4647 066c 9F       		.byte	0x9f
 4648 066d 00000000 		.4byte	0
 4649 0671 00000000 		.4byte	0
 4650              		.section	.debug_aranges,"",%progbits
 4651 0000 AC000000 		.4byte	0xac
 4652 0004 0200     		.2byte	0x2
 4653 0006 00000000 		.4byte	.Ldebug_info0
 4654 000a 04       		.byte	0x4
 4655 000b 00       		.byte	0
 4656 000c 0000     		.2byte	0
 4657 000e 0000     		.2byte	0
 4658 0010 00000000 		.4byte	.LFB167
 4659 0014 0A000000 		.4byte	.LFE167-.LFB167
 4660 0018 00000000 		.4byte	.LFB168
 4661 001c 0E000000 		.4byte	.LFE168-.LFB168
 4662 0020 00000000 		.4byte	.LFB246
 4663 0024 30000000 		.4byte	.LFE246-.LFB246
 4664 0028 00000000 		.4byte	.LFB247
 4665 002c 26000000 		.4byte	.LFE247-.LFB247
 4666 0030 00000000 		.4byte	.LFB248
 4667 0034 24000000 		.4byte	.LFE248-.LFB248
 4668 0038 00000000 		.4byte	.LFB249
 4669 003c 20000000 		.4byte	.LFE249-.LFB249
 4670 0040 00000000 		.4byte	.LFB251
 4671 0044 16000000 		.4byte	.LFE251-.LFB251
 4672 0048 00000000 		.4byte	.LFB253
 4673 004c 2A000000 		.4byte	.LFE253-.LFB253
 4674 0050 00000000 		.4byte	.LFB250
ARM GAS  C:\cygwin64\tmp\cceZag5Q.s 			page 83


 4675 0054 28000000 		.4byte	.LFE250-.LFB250
 4676 0058 00000000 		.4byte	.LFB252
 4677 005c 1E000000 		.4byte	.LFE252-.LFB252
 4678 0060 00000000 		.4byte	.LFB254
 4679 0064 1E000000 		.4byte	.LFE254-.LFB254
 4680 0068 00000000 		.4byte	.LFB255
 4681 006c 0A000000 		.4byte	.LFE255-.LFB255
 4682 0070 00000000 		.4byte	.LFB256
 4683 0074 2A000000 		.4byte	.LFE256-.LFB256
 4684 0078 00000000 		.4byte	.LFB257
 4685 007c 38000000 		.4byte	.LFE257-.LFB257
 4686 0080 00000000 		.4byte	.LFB258
 4687 0084 34000000 		.4byte	.LFE258-.LFB258
 4688 0088 00000000 		.4byte	.LFB259
 4689 008c 30000000 		.4byte	.LFE259-.LFB259
 4690 0090 00000000 		.4byte	.LFB260
 4691 0094 44000000 		.4byte	.LFE260-.LFB260
 4692 0098 00000000 		.4byte	.LFB261
 4693 009c 40000000 		.4byte	.LFE261-.LFB261
 4694 00a0 00000000 		.4byte	.LFB262
 4695 00a4 44000000 		.4byte	.LFE262-.LFB262
 4696 00a8 00000000 		.4byte	0
 4697 00ac 00000000 		.4byte	0
 4698              		.section	.debug_ranges,"",%progbits
 4699              	.Ldebug_ranges0:
 4700 0000 00000000 		.4byte	.LFB167
 4701 0004 0A000000 		.4byte	.LFE167
 4702 0008 00000000 		.4byte	.LFB168
 4703 000c 0E000000 		.4byte	.LFE168
 4704 0010 00000000 		.4byte	.LFB246
 4705 0014 30000000 		.4byte	.LFE246
 4706 0018 00000000 		.4byte	.LFB247
 4707 001c 26000000 		.4byte	.LFE247
 4708 0020 00000000 		.4byte	.LFB248
 4709 0024 24000000 		.4byte	.LFE248
 4710 0028 00000000 		.4byte	.LFB249
 4711 002c 20000000 		.4byte	.LFE249
 4712 0030 00000000 		.4byte	.LFB251
 4713 0034 16000000 		.4byte	.LFE251
 4714 0038 00000000 		.4byte	.LFB253
 4715 003c 2A000000 		.4byte	.LFE253
 4716 0040 00000000 		.4byte	.LFB250
 4717 0044 28000000 		.4byte	.LFE250
 4718 0048 00000000 		.4byte	.LFB252
 4719 004c 1E000000 		.4byte	.LFE252
 4720 0050 00000000 		.4byte	.LFB254
 4721 0054 1E000000 		.4byte	.LFE254
 4722 0058 00000000 		.4byte	.LFB255
 4723 005c 0A000000 		.4byte	.LFE255
 4724 0060 00000000 		.4byte	.LFB256
 4725 0064 2A000000 		.4byte	.LFE256
 4726 0068 00000000 		.4byte	.LFB257
 4727 006c 38000000 		.4byte	.LFE257
 4728 0070 00000000 		.4byte	.LFB258
 4729 0074 34000000 		.4byte	.LFE258
 4730 0078 00000000 		.4byte	.LFB259
 4731 007c 30000000 		.4byte	.LFE259
ARM GAS  C:\cygwin64\tmp\cceZag5Q.s 			page 84


 4732 0080 00000000 		.4byte	.LFB260
 4733 0084 44000000 		.4byte	.LFE260
 4734 0088 00000000 		.4byte	.LFB261
 4735 008c 40000000 		.4byte	.LFE261
 4736 0090 00000000 		.4byte	.LFB262
 4737 0094 44000000 		.4byte	.LFE262
 4738 0098 00000000 		.4byte	0
 4739 009c 00000000 		.4byte	0
 4740              		.section	.debug_line,"",%progbits
 4741              	.Ldebug_line0:
 4742 0000 0A050000 		.section	.debug_str,"MS",%progbits,1
 4742      0200DB02 
 4742      00000201 
 4742      FB0E0D00 
 4742      01010101 
 4743              	.LASF172:
 4744 0000 433A5C63 		.ascii	"C:\\cygwin64\\home\\calfan\\ardupilot\\build\\fmuv3"
 4744      79677769 
 4744      6E36345C 
 4744      686F6D65 
 4744      5C63616C 
 4745 002d 00       		.ascii	"\000"
 4746              	.LASF58:
 4747 002e 72656164 		.ascii	"ready_list_t\000"
 4747      795F6C69 
 4747      73745F74 
 4747      00
 4748              	.LASF100:
 4749 003b 77747472 		.ascii	"wttrp\000"
 4749      7000
 4750              	.LASF64:
 4751 0041 64656C74 		.ascii	"delta\000"
 4751      6100
 4752              	.LASF97:
 4753 0047 7264796D 		.ascii	"rdymsg\000"
 4753      736700
 4754              	.LASF19:
 4755 004e 75696E74 		.ascii	"uint64_t\000"
 4755      36345F74 
 4755      00
 4756              	.LASF77:
 4757 0057 6B65726E 		.ascii	"kernel_stats\000"
 4757      656C5F73 
 4757      74617473 
 4757      00
 4758              	.LASF6:
 4759 0064 5F5F7569 		.ascii	"__uint8_t\000"
 4759      6E74385F 
 4759      7400
 4760              	.LASF57:
 4761 006e 70726576 		.ascii	"prev\000"
 4761      00
 4762              	.LASF84:
 4763 0073 706F7274 		.ascii	"port_intctx\000"
 4763      5F696E74 
 4763      63747800 
 4764              	.LASF56:
ARM GAS  C:\cygwin64\tmp\cceZag5Q.s 			page 85


 4765 007f 63685F74 		.ascii	"ch_threads_queue\000"
 4765      68726561 
 4765      64735F71 
 4765      75657565 
 4765      00
 4766              	.LASF69:
 4767 0090 73797374 		.ascii	"system_debug_t\000"
 4767      656D5F64 
 4767      65627567 
 4767      5F7400
 4768              	.LASF153:
 4769 009f 63684576 		.ascii	"chEvtSignal\000"
 4769      74536967 
 4769      6E616C00 
 4770              	.LASF163:
 4771 00ab 706F7274 		.ascii	"port_lock\000"
 4771      5F6C6F63 
 4771      6B00
 4772              	.LASF88:
 4773 00b5 776F7273 		.ascii	"worst\000"
 4773      7400
 4774              	.LASF91:
 4775 00bb 74696D65 		.ascii	"time_measurement_t\000"
 4775      5F6D6561 
 4775      73757265 
 4775      6D656E74 
 4775      5F7400
 4776              	.LASF14:
 4777 00ce 6C6F6E67 		.ascii	"long long unsigned int\000"
 4777      206C6F6E 
 4777      6720756E 
 4777      7369676E 
 4777      65642069 
 4778              	.LASF156:
 4779 00e5 63684576 		.ascii	"chEvtAddEvents\000"
 4779      74416464 
 4779      4576656E 
 4779      747300
 4780              	.LASF98:
 4781 00f4 65786974 		.ascii	"exitcode\000"
 4781      636F6465 
 4781      00
 4782              	.LASF76:
 4783 00fd 6D61696E 		.ascii	"mainthread\000"
 4783      74687265 
 4783      616400
 4784              	.LASF101:
 4785 0108 73656E74 		.ascii	"sentmsg\000"
 4785      6D736700 
 4786              	.LASF66:
 4787 0110 76697274 		.ascii	"virtual_timers_list_t\000"
 4787      75616C5F 
 4787      74696D65 
 4787      72735F6C 
 4787      6973745F 
 4788              	.LASF79:
 4789 0126 49544D5F 		.ascii	"ITM_RxBuffer\000"
ARM GAS  C:\cygwin64\tmp\cceZag5Q.s 			page 86


 4789      52784275 
 4789      66666572 
 4789      00
 4790              	.LASF54:
 4791 0133 6E657874 		.ascii	"next\000"
 4791      00
 4792              	.LASF21:
 4793 0138 72747469 		.ascii	"rttime_t\000"
 4793      6D655F74 
 4793      00
 4794              	.LASF1:
 4795 0141 6C6F6E67 		.ascii	"long long int\000"
 4795      206C6F6E 
 4795      6720696E 
 4795      7400
 4796              	.LASF3:
 4797 014f 7369676E 		.ascii	"signed char\000"
 4797      65642063 
 4797      68617200 
 4798              	.LASF141:
 4799 015b 63684576 		.ascii	"chEvtWaitAllTimeout\000"
 4799      74576169 
 4799      74416C6C 
 4799      54696D65 
 4799      6F757400 
 4800              	.LASF112:
 4801 016f 73697A65 		.ascii	"size\000"
 4801      00
 4802              	.LASF170:
 4803 0174 474E5520 		.ascii	"GNU C11 6.3.1 20170620 (release) [ARM/embedded-6-br"
 4803      43313120 
 4803      362E332E 
 4803      31203230 
 4803      31373036 
 4804 01a7 616E6368 		.ascii	"anch revision 249437] -mcpu=cortex-m4 -mfloat-abi=h"
 4804      20726576 
 4804      6973696F 
 4804      6E203234 
 4804      39343337 
 4805 01da 61726420 		.ascii	"ard -mfpu=fpv4-sp-d16 -mno-thumb-interwork -mthumb "
 4805      2D6D6670 
 4805      753D6670 
 4805      76342D73 
 4805      702D6431 
 4806 020d 2D67202D 		.ascii	"-g -Os -fomit-frame-pointer -falign-functions=16 -f"
 4806      4F73202D 
 4806      666F6D69 
 4806      742D6672 
 4806      616D652D 
 4807 0240 66756E63 		.ascii	"function-sections -fdata-sections -fno-common -fsin"
 4807      74696F6E 
 4807      2D736563 
 4807      74696F6E 
 4807      73202D66 
 4808 0273 676C652D 		.ascii	"gle-precision-constant\000"
 4808      70726563 
 4808      6973696F 
ARM GAS  C:\cygwin64\tmp\cceZag5Q.s 			page 87


 4808      6E2D636F 
 4808      6E737461 
 4809              	.LASF75:
 4810 028a 76746C69 		.ascii	"vtlist\000"
 4810      737400
 4811              	.LASF162:
 4812 0291 706F7274 		.ascii	"port_unlock\000"
 4812      5F756E6C 
 4812      6F636B00 
 4813              	.LASF44:
 4814 029d 6D736771 		.ascii	"msgqueue\000"
 4814      75657565 
 4814      00
 4815              	.LASF40:
 4816 02a6 73746174 		.ascii	"state\000"
 4816      6500
 4817              	.LASF10:
 4818 02ac 6C6F6E67 		.ascii	"long int\000"
 4818      20696E74 
 4818      00
 4819              	.LASF65:
 4820 02b5 66756E63 		.ascii	"func\000"
 4820      00
 4821              	.LASF145:
 4822 02ba 63684576 		.ascii	"chEvtWaitAny\000"
 4822      74576169 
 4822      74416E79 
 4822      00
 4823              	.LASF49:
 4824 02c7 73746174 		.ascii	"stats\000"
 4824      7300
 4825              	.LASF128:
 4826 02cd 63686465 		.ascii	"chdebug_t\000"
 4826      6275675F 
 4826      7400
 4827              	.LASF126:
 4828 02d7 6F66665F 		.ascii	"off_preempt\000"
 4828      70726565 
 4828      6D707400 
 4829              	.LASF23:
 4830 02e3 74737461 		.ascii	"tstate_t\000"
 4830      74655F74 
 4830      00
 4831              	.LASF142:
 4832 02ec 63684576 		.ascii	"chEvtWaitAnyTimeout\000"
 4832      74576169 
 4832      74416E79 
 4832      54696D65 
 4832      6F757400 
 4833              	.LASF135:
 4834 0300 77666C61 		.ascii	"wflags\000"
 4834      677300
 4835              	.LASF166:
 4836 0307 63685363 		.ascii	"chSchRescheduleS\000"
 4836      68526573 
 4836      63686564 
 4836      756C6553 
ARM GAS  C:\cygwin64\tmp\cceZag5Q.s 			page 88


 4836      00
 4837              	.LASF11:
 4838 0318 5F5F7569 		.ascii	"__uint32_t\000"
 4838      6E743332 
 4838      5F7400
 4839              	.LASF81:
 4840 0323 72656761 		.ascii	"regarm_t\000"
 4840      726D5F74 
 4840      00
 4841              	.LASF150:
 4842 032c 63684576 		.ascii	"chEvtBroadcastFlags\000"
 4842      7442726F 
 4842      61646361 
 4842      7374466C 
 4842      61677300 
 4843              	.LASF70:
 4844 0340 63685F73 		.ascii	"ch_system_debug\000"
 4844      79737465 
 4844      6D5F6465 
 4844      62756700 
 4845              	.LASF43:
 4846 0350 77616974 		.ascii	"waiting\000"
 4846      696E6700 
 4847              	.LASF27:
 4848 0358 6576656E 		.ascii	"eventid_t\000"
 4848      7469645F 
 4848      7400
 4849              	.LASF111:
 4850 0362 7A65726F 		.ascii	"zero\000"
 4850      00
 4851              	.LASF130:
 4852 0367 6D757465 		.ascii	"mutex_t\000"
 4852      785F7400 
 4853              	.LASF174:
 4854 036f 76616C75 		.ascii	"value\000"
 4854      6500
 4855              	.LASF137:
 4856 0375 6576656E 		.ascii	"event_source_t\000"
 4856      745F736F 
 4856      75726365 
 4856      5F7400
 4857              	.LASF138:
 4858 0384 65766861 		.ascii	"evhandler_t\000"
 4858      6E646C65 
 4858      725F7400 
 4859              	.LASF30:
 4860 0390 636E745F 		.ascii	"cnt_t\000"
 4860      7400
 4861              	.LASF0:
 4862 0396 756E7369 		.ascii	"unsigned int\000"
 4862      676E6564 
 4862      20696E74 
 4862      00
 4863              	.LASF16:
 4864 03a3 75696E74 		.ascii	"uint16_t\000"
 4864      31365F74 
 4864      00
ARM GAS  C:\cygwin64\tmp\cceZag5Q.s 			page 89


 4865              	.LASF80:
 4866 03ac 53797374 		.ascii	"SystemCoreClock\000"
 4866      656D436F 
 4866      7265436C 
 4866      6F636B00 
 4867              	.LASF102:
 4868 03bc 77747365 		.ascii	"wtsemp\000"
 4868      6D7000
 4869              	.LASF157:
 4870 03c3 63684576 		.ascii	"chEvtGetAndClearEvents\000"
 4870      74476574 
 4870      416E6443 
 4870      6C656172 
 4870      4576656E 
 4871              	.LASF129:
 4872 03da 63685F64 		.ascii	"ch_debug\000"
 4872      65627567 
 4872      00
 4873              	.LASF92:
 4874 03e3 6E5F6972 		.ascii	"n_irq\000"
 4874      7100
 4875              	.LASF34:
 4876 03e9 71756575 		.ascii	"queue\000"
 4876      6500
 4877              	.LASF48:
 4878 03ef 6D706F6F 		.ascii	"mpool\000"
 4878      6C00
 4879              	.LASF125:
 4880 03f5 6F66665F 		.ascii	"off_refs\000"
 4880      72656673 
 4880      00
 4881              	.LASF96:
 4882 03fe 6B65726E 		.ascii	"kernel_stats_t\000"
 4882      656C5F73 
 4882      74617473 
 4882      5F7400
 4883              	.LASF52:
 4884 040d 63685F74 		.ascii	"ch_thread\000"
 4884      68726561 
 4884      6400
 4885              	.LASF29:
 4886 0417 6576656E 		.ascii	"eventflags_t\000"
 4886      74666C61 
 4886      67735F74 
 4886      00
 4887              	.LASF26:
 4888 0424 6D73675F 		.ascii	"msg_t\000"
 4888      7400
 4889              	.LASF89:
 4890 042a 6C617374 		.ascii	"last\000"
 4890      00
 4891              	.LASF31:
 4892 042f 75636E74 		.ascii	"ucnt_t\000"
 4892      5F7400
 4893              	.LASF45:
 4894 0436 6570656E 		.ascii	"epending\000"
 4894      64696E67 
ARM GAS  C:\cygwin64\tmp\cceZag5Q.s 			page 90


 4894      00
 4895              	.LASF38:
 4896 043f 6E616D65 		.ascii	"name\000"
 4896      00
 4897              	.LASF158:
 4898 0444 63684576 		.ascii	"chEvtUnregister\000"
 4898      74556E72 
 4898      65676973 
 4898      74657200 
 4899              	.LASF72:
 4900 0454 63685F73 		.ascii	"ch_system_t\000"
 4900      79737465 
 4900      6D5F7400 
 4901              	.LASF159:
 4902 0460 63684576 		.ascii	"chEvtRegisterMaskWithFlags\000"
 4902      74526567 
 4902      69737465 
 4902      724D6173 
 4902      6B576974 
 4903              	.LASF118:
 4904 047b 6F66665F 		.ascii	"off_ctx\000"
 4904      63747800 
 4905              	.LASF22:
 4906 0483 746D6F64 		.ascii	"tmode_t\000"
 4906      655F7400 
 4907              	.LASF95:
 4908 048b 6D5F6372 		.ascii	"m_crit_isr\000"
 4908      69745F69 
 4908      737200
 4909              	.LASF59:
 4910 0496 63685F72 		.ascii	"ch_ready_list\000"
 4910      65616479 
 4910      5F6C6973 
 4910      7400
 4911              	.LASF28:
 4912 04a4 6576656E 		.ascii	"eventmask_t\000"
 4912      746D6173 
 4912      6B5F7400 
 4913              	.LASF121:
 4914 04b0 6F66665F 		.ascii	"off_name\000"
 4914      6E616D65 
 4914      00
 4915              	.LASF9:
 4916 04b9 5F5F696E 		.ascii	"__int32_t\000"
 4916      7433325F 
 4916      7400
 4917              	.LASF171:
 4918 04c3 2E2E2F2E 		.ascii	"../../modules/ChibiOS/os/rt/src/chevents.c\000"
 4918      2E2F6D6F 
 4918      64756C65 
 4918      732F4368 
 4918      6962694F 
 4919              	.LASF82:
 4920 04ee 73746B61 		.ascii	"stkalign_t\000"
 4920      6C69676E 
 4920      5F7400
 4921              	.LASF36:
ARM GAS  C:\cygwin64\tmp\cceZag5Q.s 			page 91


 4922 04f9 6E657765 		.ascii	"newer\000"
 4922      7200
 4923              	.LASF131:
 4924 04ff 6576656E 		.ascii	"event_listener_t\000"
 4924      745F6C69 
 4924      7374656E 
 4924      65725F74 
 4924      00
 4925              	.LASF47:
 4926 0510 7265616C 		.ascii	"realprio\000"
 4926      7072696F 
 4926      00
 4927              	.LASF113:
 4928 0519 76657273 		.ascii	"version\000"
 4928      696F6E00 
 4929              	.LASF146:
 4930 0521 63684576 		.ascii	"chEvtWaitOne\000"
 4930      74576169 
 4930      744F6E65 
 4930      00
 4931              	.LASF155:
 4932 052e 63684576 		.ascii	"chEvtBroadcastFlagsI\000"
 4932      7442726F 
 4932      61646361 
 4932      7374466C 
 4932      61677349 
 4933              	.LASF168:
 4934 0543 5F737461 		.ascii	"_stats_stop_measure_crit_thd\000"
 4934      74735F73 
 4934      746F705F 
 4934      6D656173 
 4934      7572655F 
 4935              	.LASF78:
 4936 0560 73697A65 		.ascii	"sizetype\000"
 4936      74797065 
 4936      00
 4937              	.LASF50:
 4938 0569 74687265 		.ascii	"thread_reference_t\000"
 4938      61645F72 
 4938      65666572 
 4938      656E6365 
 4938      5F7400
 4939              	.LASF133:
 4940 057c 6C697374 		.ascii	"listener\000"
 4940      656E6572 
 4940      00
 4941              	.LASF67:
 4942 0585 63685F76 		.ascii	"ch_virtual_timers_list\000"
 4942      69727475 
 4942      616C5F74 
 4942      696D6572 
 4942      735F6C69 
 4943              	.LASF2:
 4944 059c 6C6F6E67 		.ascii	"long double\000"
 4944      20646F75 
 4944      626C6500 
 4945              	.LASF149:
ARM GAS  C:\cygwin64\tmp\cceZag5Q.s 			page 92


 4946 05a8 63684576 		.ascii	"chEvtDispatch\000"
 4946      74446973 
 4946      70617463 
 4946      6800
 4947              	.LASF119:
 4948 05b6 6F66665F 		.ascii	"off_newer\000"
 4948      6E657765 
 4948      7200
 4949              	.LASF83:
 4950 05c0 706F7274 		.ascii	"port_context\000"
 4950      5F636F6E 
 4950      74657874 
 4950      00
 4951              	.LASF86:
 4952 05cd 746D5F63 		.ascii	"tm_calibration_t\000"
 4952      616C6962 
 4952      72617469 
 4952      6F6E5F74 
 4952      00
 4953              	.LASF140:
 4954 05de 74696D65 		.ascii	"time\000"
 4954      00
 4955              	.LASF144:
 4956 05e3 63684576 		.ascii	"chEvtWaitAll\000"
 4956      74576169 
 4956      74416C6C 
 4956      00
 4957              	.LASF35:
 4958 05f0 7072696F 		.ascii	"prio\000"
 4958      00
 4959              	.LASF60:
 4960 05f5 63757272 		.ascii	"current\000"
 4960      656E7400 
 4961              	.LASF13:
 4962 05fd 5F5F7569 		.ascii	"__uint64_t\000"
 4962      6E743634 
 4962      5F7400
 4963              	.LASF90:
 4964 0608 63756D75 		.ascii	"cumulative\000"
 4964      6C617469 
 4964      766500
 4965              	.LASF147:
 4966 0613 68616E64 		.ascii	"handlers\000"
 4966      6C657273 
 4966      00
 4967              	.LASF24:
 4968 061c 74726566 		.ascii	"trefs_t\000"
 4968      735F7400 
 4969              	.LASF116:
 4970 0624 74687265 		.ascii	"threadsize\000"
 4970      61647369 
 4970      7A6500
 4971              	.LASF42:
 4972 062f 72656673 		.ascii	"refs\000"
 4972      00
 4973              	.LASF62:
 4974 0634 76697274 		.ascii	"virtual_timer_t\000"
ARM GAS  C:\cygwin64\tmp\cceZag5Q.s 			page 93


 4974      75616C5F 
 4974      74696D65 
 4974      725F7400 
 4975              	.LASF25:
 4976 0644 74707269 		.ascii	"tprio_t\000"
 4976      6F5F7400 
 4977              	.LASF165:
 4978 064c 63685363 		.ascii	"chSchGoSleepS\000"
 4978      68476F53 
 4978      6C656570 
 4978      5300
 4979              	.LASF93:
 4980 065a 6E5F6374 		.ascii	"n_ctxswc\000"
 4980      78737763 
 4980      00
 4981              	.LASF139:
 4982 0663 5F426F6F 		.ascii	"_Bool\000"
 4982      6C00
 4983              	.LASF17:
 4984 0669 696E7433 		.ascii	"int32_t\000"
 4984      325F7400 
 4985              	.LASF4:
 4986 0671 756E7369 		.ascii	"unsigned char\000"
 4986      676E6564 
 4986      20636861 
 4986      7200
 4987              	.LASF117:
 4988 067f 6F66665F 		.ascii	"off_prio\000"
 4988      7072696F 
 4988      00
 4989              	.LASF122:
 4990 0688 6F66665F 		.ascii	"off_stklimit\000"
 4990      73746B6C 
 4990      696D6974 
 4990      00
 4991              	.LASF5:
 4992 0695 73686F72 		.ascii	"short int\000"
 4992      7420696E 
 4992      7400
 4993              	.LASF68:
 4994 069f 6C617374 		.ascii	"lasttime\000"
 4994      74696D65 
 4994      00
 4995              	.LASF148:
 4996 06a8 63684576 		.ascii	"chEvtGetAndClearFlagsI\000"
 4996      74476574 
 4996      416E6443 
 4996      6C656172 
 4996      466C6167 
 4997              	.LASF104:
 4998 06bf 65776D61 		.ascii	"ewmask\000"
 4998      736B00
 4999              	.LASF73:
 5000 06c6 63685F73 		.ascii	"ch_system\000"
 5000      79737465 
 5000      6D00
 5001              	.LASF152:
ARM GAS  C:\cygwin64\tmp\cceZag5Q.s 			page 94


 5002 06d0 5F5F6675 		.ascii	"__func__\000"
 5002      6E635F5F 
 5002      00
 5003              	.LASF161:
 5004 06d9 63685379 		.ascii	"chSysLock\000"
 5004      734C6F63 
 5004      6B00
 5005              	.LASF63:
 5006 06e3 63685F76 		.ascii	"ch_virtual_timer\000"
 5006      69727475 
 5006      616C5F74 
 5006      696D6572 
 5006      00
 5007              	.LASF105:
 5008 06f4 63685F73 		.ascii	"ch_semaphore\000"
 5008      656D6170 
 5008      686F7265 
 5008      00
 5009              	.LASF127:
 5010 0701 6F66665F 		.ascii	"off_time\000"
 5010      74696D65 
 5010      00
 5011              	.LASF109:
 5012 070a 63685F69 		.ascii	"ch_idle_thread_wa\000"
 5012      646C655F 
 5012      74687265 
 5012      61645F77 
 5012      6100
 5013              	.LASF115:
 5014 071c 74696D65 		.ascii	"timesize\000"
 5014      73697A65 
 5014      00
 5015              	.LASF134:
 5016 0725 6576656E 		.ascii	"events\000"
 5016      747300
 5017              	.LASF18:
 5018 072c 75696E74 		.ascii	"uint32_t\000"
 5018      33325F74 
 5018      00
 5019              	.LASF103:
 5020 0735 77746D74 		.ascii	"wtmtxp\000"
 5020      787000
 5021              	.LASF167:
 5022 073c 63685363 		.ascii	"chSchReadyI\000"
 5022      68526561 
 5022      64794900 
 5023              	.LASF53:
 5024 0748 63685F74 		.ascii	"ch_threads_list\000"
 5024      68726561 
 5024      64735F6C 
 5024      69737400 
 5025              	.LASF107:
 5026 0758 6F776E65 		.ascii	"owner\000"
 5026      7200
 5027              	.LASF12:
 5028 075e 6C6F6E67 		.ascii	"long unsigned int\000"
 5028      20756E73 
ARM GAS  C:\cygwin64\tmp\cceZag5Q.s 			page 95


 5028      69676E65 
 5028      6420696E 
 5028      7400
 5029              	.LASF39:
 5030 0770 77616261 		.ascii	"wabase\000"
 5030      736500
 5031              	.LASF108:
 5032 0777 63686172 		.ascii	"char\000"
 5032      00
 5033              	.LASF37:
 5034 077c 6F6C6465 		.ascii	"older\000"
 5034      7200
 5035              	.LASF7:
 5036 0782 5F5F7569 		.ascii	"__uint16_t\000"
 5036      6E743136 
 5036      5F7400
 5037              	.LASF33:
 5038 078d 74687265 		.ascii	"thread_t\000"
 5038      61645F74 
 5038      00
 5039              	.LASF87:
 5040 0796 62657374 		.ascii	"best\000"
 5040      00
 5041              	.LASF164:
 5042 079b 63685363 		.ascii	"chSchGoSleepTimeoutS\000"
 5042      68476F53 
 5042      6C656570 
 5042      54696D65 
 5042      6F757453 
 5043              	.LASF32:
 5044 07b0 73797374 		.ascii	"systime_t\000"
 5044      696D655F 
 5044      7400
 5045              	.LASF61:
 5046 07ba 76746675 		.ascii	"vtfunc_t\000"
 5046      6E635F74 
 5046      00
 5047              	.LASF173:
 5048 07c3 5F5F7365 		.ascii	"__set_BASEPRI\000"
 5048      745F4241 
 5048      53455052 
 5048      4900
 5049              	.LASF71:
 5050 07d1 70616E69 		.ascii	"panic_msg\000"
 5050      635F6D73 
 5050      6700
 5051              	.LASF85:
 5052 07db 6F666673 		.ascii	"offset\000"
 5052      657400
 5053              	.LASF120:
 5054 07e2 6F66665F 		.ascii	"off_older\000"
 5054      6F6C6465 
 5054      7200
 5055              	.LASF8:
 5056 07ec 73686F72 		.ascii	"short unsigned int\000"
 5056      7420756E 
 5056      7369676E 
ARM GAS  C:\cygwin64\tmp\cceZag5Q.s 			page 96


 5056      65642069 
 5056      6E7400
 5057              	.LASF110:
 5058 07ff 6964656E 		.ascii	"identifier\000"
 5058      74696669 
 5058      657200
 5059              	.LASF20:
 5060 080a 7274636E 		.ascii	"rtcnt_t\000"
 5060      745F7400 
 5061              	.LASF114:
 5062 0812 70747273 		.ascii	"ptrsize\000"
 5062      697A6500 
 5063              	.LASF55:
 5064 081a 74687265 		.ascii	"threads_queue_t\000"
 5064      6164735F 
 5064      71756575 
 5064      655F7400 
 5065              	.LASF106:
 5066 082a 63685F6D 		.ascii	"ch_mutex\000"
 5066      75746578 
 5066      00
 5067              	.LASF74:
 5068 0833 726C6973 		.ascii	"rlist\000"
 5068      7400
 5069              	.LASF136:
 5070 0839 6576656E 		.ascii	"event_source\000"
 5070      745F736F 
 5070      75726365 
 5070      00
 5071              	.LASF15:
 5072 0846 75696E74 		.ascii	"uint8_t\000"
 5072      385F7400 
 5073              	.LASF41:
 5074 084e 666C6167 		.ascii	"flags\000"
 5074      7300
 5075              	.LASF169:
 5076 0854 5F737461 		.ascii	"_stats_start_measure_crit_thd\000"
 5076      74735F73 
 5076      74617274 
 5076      5F6D6561 
 5076      73757265 
 5077              	.LASF143:
 5078 0872 63684576 		.ascii	"chEvtWaitOneTimeout\000"
 5078      74576169 
 5078      744F6E65 
 5078      54696D65 
 5078      6F757400 
 5079              	.LASF99:
 5080 0886 77746F62 		.ascii	"wtobjp\000"
 5080      6A7000
 5081              	.LASF51:
 5082 088d 74687265 		.ascii	"threads_list_t\000"
 5082      6164735F 
 5082      6C697374 
 5082      5F7400
 5083              	.LASF123:
 5084 089c 6F66665F 		.ascii	"off_state\000"
ARM GAS  C:\cygwin64\tmp\cceZag5Q.s 			page 97


 5084      73746174 
 5084      6500
 5085              	.LASF154:
 5086 08a6 63684576 		.ascii	"chEvtGetAndClearFlags\000"
 5086      74476574 
 5086      416E6443 
 5086      6C656172 
 5086      466C6167 
 5087              	.LASF160:
 5088 08bc 63685379 		.ascii	"chSysUnlock\000"
 5088      73556E6C 
 5088      6F636B00 
 5089              	.LASF124:
 5090 08c8 6F66665F 		.ascii	"off_flags\000"
 5090      666C6167 
 5090      7300
 5091              	.LASF46:
 5092 08d2 6D74786C 		.ascii	"mtxlist\000"
 5092      69737400 
 5093              	.LASF94:
 5094 08da 6D5F6372 		.ascii	"m_crit_thd\000"
 5094      69745F74 
 5094      686400
 5095              	.LASF132:
 5096 08e5 6576656E 		.ascii	"event_listener\000"
 5096      745F6C69 
 5096      7374656E 
 5096      657200
 5097              	.LASF151:
 5098 08f4 63684576 		.ascii	"chEvtSignalI\000"
 5098      74536967 
 5098      6E616C49 
 5098      00
 5099              		.ident	"GCC: (GNU Tools for ARM Embedded Processors 6-2017-q2-update) 6.3.1 20170620 (release) [AR
ARM GAS  C:\cygwin64\tmp\cceZag5Q.s 			page 98


DEFINED SYMBOLS
                            *ABS*:00000000 chevents.c
C:\cygwin64\tmp\cceZag5Q.s:18     .text.chSysLock:00000000 $t
C:\cygwin64\tmp\cceZag5Q.s:24     .text.chSysLock:00000000 chSysLock
C:\cygwin64\tmp\cceZag5Q.s:56     .text.chSysUnlock:00000000 $t
C:\cygwin64\tmp\cceZag5Q.s:62     .text.chSysUnlock:00000000 chSysUnlock
C:\cygwin64\tmp\cceZag5Q.s:95     .text.chEvtRegisterMaskWithFlags:00000000 $t
C:\cygwin64\tmp\cceZag5Q.s:102    .text.chEvtRegisterMaskWithFlags:00000000 chEvtRegisterMaskWithFlags
C:\cygwin64\tmp\cceZag5Q.s:160    .text.chEvtRegisterMaskWithFlags:0000002c $d
C:\cygwin64\tmp\cceZag5Q.s:165    .text.chEvtUnregister:00000000 $t
C:\cygwin64\tmp\cceZag5Q.s:172    .text.chEvtUnregister:00000000 chEvtUnregister
C:\cygwin64\tmp\cceZag5Q.s:228    .text.chEvtGetAndClearEvents:00000000 $t
C:\cygwin64\tmp\cceZag5Q.s:235    .text.chEvtGetAndClearEvents:00000000 chEvtGetAndClearEvents
C:\cygwin64\tmp\cceZag5Q.s:272    .text.chEvtGetAndClearEvents:00000020 $d
C:\cygwin64\tmp\cceZag5Q.s:277    .text.chEvtAddEvents:00000000 $t
C:\cygwin64\tmp\cceZag5Q.s:284    .text.chEvtAddEvents:00000000 chEvtAddEvents
C:\cygwin64\tmp\cceZag5Q.s:318    .text.chEvtAddEvents:0000001c $d
C:\cygwin64\tmp\cceZag5Q.s:323    .text.chEvtGetAndClearFlags:00000000 $t
C:\cygwin64\tmp\cceZag5Q.s:330    .text.chEvtGetAndClearFlags:00000000 chEvtGetAndClearFlags
C:\cygwin64\tmp\cceZag5Q.s:364    .text.chEvtSignalI:00000000 $t
C:\cygwin64\tmp\cceZag5Q.s:371    .text.chEvtSignalI:00000000 chEvtSignalI
C:\cygwin64\tmp\cceZag5Q.s:418    .text.chEvtBroadcastFlagsI:00000000 $t
C:\cygwin64\tmp\cceZag5Q.s:425    .text.chEvtBroadcastFlagsI:00000000 chEvtBroadcastFlagsI
C:\cygwin64\tmp\cceZag5Q.s:479    .text.chEvtSignal:00000000 $t
C:\cygwin64\tmp\cceZag5Q.s:486    .text.chEvtSignal:00000000 chEvtSignal
C:\cygwin64\tmp\cceZag5Q.s:528    .text.chEvtBroadcastFlags:00000000 $t
C:\cygwin64\tmp\cceZag5Q.s:535    .text.chEvtBroadcastFlags:00000000 chEvtBroadcastFlags
C:\cygwin64\tmp\cceZag5Q.s:577    .text.chEvtGetAndClearFlagsI:00000000 $t
C:\cygwin64\tmp\cceZag5Q.s:584    .text.chEvtGetAndClearFlagsI:00000000 chEvtGetAndClearFlagsI
C:\cygwin64\tmp\cceZag5Q.s:607    .text.chEvtDispatch:00000000 $t
C:\cygwin64\tmp\cceZag5Q.s:614    .text.chEvtDispatch:00000000 chEvtDispatch
C:\cygwin64\tmp\cceZag5Q.s:666    .text.chEvtWaitOne:00000000 $t
C:\cygwin64\tmp\cceZag5Q.s:673    .text.chEvtWaitOne:00000000 chEvtWaitOne
C:\cygwin64\tmp\cceZag5Q.s:735    .text.chEvtWaitOne:00000034 $d
C:\cygwin64\tmp\cceZag5Q.s:740    .text.chEvtWaitAny:00000000 $t
C:\cygwin64\tmp\cceZag5Q.s:747    .text.chEvtWaitAny:00000000 chEvtWaitAny
C:\cygwin64\tmp\cceZag5Q.s:804    .text.chEvtWaitAny:00000030 $d
C:\cygwin64\tmp\cceZag5Q.s:809    .text.chEvtWaitAll:00000000 $t
C:\cygwin64\tmp\cceZag5Q.s:816    .text.chEvtWaitAll:00000000 chEvtWaitAll
C:\cygwin64\tmp\cceZag5Q.s:863    .text.chEvtWaitAll:0000002c $d
C:\cygwin64\tmp\cceZag5Q.s:868    .text.chEvtWaitOneTimeout:00000000 $t
C:\cygwin64\tmp\cceZag5Q.s:875    .text.chEvtWaitOneTimeout:00000000 chEvtWaitOneTimeout
C:\cygwin64\tmp\cceZag5Q.s:945    .text.chEvtWaitOneTimeout:00000040 $d
C:\cygwin64\tmp\cceZag5Q.s:950    .text.chEvtWaitAnyTimeout:00000000 $t
C:\cygwin64\tmp\cceZag5Q.s:957    .text.chEvtWaitAnyTimeout:00000000 chEvtWaitAnyTimeout
C:\cygwin64\tmp\cceZag5Q.s:1023   .text.chEvtWaitAnyTimeout:0000003c $d
C:\cygwin64\tmp\cceZag5Q.s:1028   .text.chEvtWaitAllTimeout:00000000 $t
C:\cygwin64\tmp\cceZag5Q.s:1035   .text.chEvtWaitAllTimeout:00000000 chEvtWaitAllTimeout
C:\cygwin64\tmp\cceZag5Q.s:1101   .text.chEvtWaitAllTimeout:00000040 $d
                     .debug_frame:00000010 $d

UNDEFINED SYMBOLS
_stats_start_measure_crit_thd
_stats_stop_measure_crit_thd
ch
chSchReadyI
chSchRescheduleS
ARM GAS  C:\cygwin64\tmp\cceZag5Q.s 			page 99


chSchGoSleepS
chSchGoSleepTimeoutS
