ARM GAS  C:\cygwin64\tmp\ccxTGPtl.s 			page 1


   1              		.cpu cortex-m4
   2              		.eabi_attribute 27, 1
   3              		.eabi_attribute 28, 1
   4              		.eabi_attribute 20, 1
   5              		.eabi_attribute 21, 1
   6              		.eabi_attribute 23, 3
   7              		.eabi_attribute 24, 1
   8              		.eabi_attribute 25, 1
   9              		.eabi_attribute 26, 1
  10              		.eabi_attribute 30, 4
  11              		.eabi_attribute 34, 1
  12              		.eabi_attribute 18, 4
  13              		.file	"chheap.c"
  14              		.text
  15              	.Ltext0:
  16              		.cfi_sections	.debug_frame
  17              		.section	.text._heap_init,"ax",%progbits
  18              		.align	1
  19              		.global	_heap_init
  20              		.syntax unified
  21              		.thumb
  22              		.thumb_func
  23              		.fpu fpv4-sp-d16
  24              		.type	_heap_init, %function
  25              	_heap_init:
  26              	.LFB246:
  27              		.file 1 "../../modules/ChibiOS/os/common/oslib/src/chheap.c"
  28              		.loc 1 107 0
  29              		.cfi_startproc
  30              		@ args = 0, pretend = 0, frame = 0
  31              		@ frame_needed = 0, uses_anonymous_args = 0
  32              		@ link register save eliminated.
  33              		.loc 1 109 0
  34 0000 0448     		ldr	r0, .L2
  35 0002 054B     		ldr	r3, .L2+4
  36 0004 0360     		str	r3, [r0]
  37              		.loc 1 110 0
  38 0006 0023     		movs	r3, #0
  39 0008 8360     		str	r3, [r0, #8]
  40              		.loc 1 111 0
  41 000a C360     		str	r3, [r0, #12]
  42              		.loc 1 113 0
  43 000c 1030     		adds	r0, r0, #16
  44 000e FFF7FEBF 		b	chMtxObjectInit
  45              	.LVL0:
  46              	.L3:
  47 0012 00BF     		.align	2
  48              	.L2:
  49 0014 00000000 		.word	.LANCHOR0
  50 0018 00000000 		.word	chCoreAllocAligned
  51              		.cfi_endproc
  52              	.LFE246:
  53              		.size	_heap_init, .-_heap_init
  54              		.section	.text.chHeapObjectInit,"ax",%progbits
  55              		.align	1
  56              		.global	chHeapObjectInit
  57              		.syntax unified
ARM GAS  C:\cygwin64\tmp\ccxTGPtl.s 			page 2


  58              		.thumb
  59              		.thumb_func
  60              		.fpu fpv4-sp-d16
  61              		.type	chHeapObjectInit, %function
  62              	chHeapObjectInit:
  63              	.LFB247:
  64              		.loc 1 130 0
  65              		.cfi_startproc
  66              		@ args = 0, pretend = 0, frame = 0
  67              		@ frame_needed = 0, uses_anonymous_args = 0
  68              		@ link register save eliminated.
  69              	.LVL1:
  70              		.loc 1 141 0
  71 0000 083A     		subs	r2, r2, #8
  72              	.LVL2:
  73              		.loc 1 137 0
  74 0002 0023     		movs	r3, #0
  75              		.loc 1 141 0
  76 0004 D208     		lsrs	r2, r2, #3
  77              	.LVL3:
  78              		.loc 1 137 0
  79 0006 0360     		str	r3, [r0]
  80              		.loc 1 138 0
  81 0008 8160     		str	r1, [r0, #8]
  82              		.loc 1 139 0
  83 000a C360     		str	r3, [r0, #12]
  84              		.loc 1 140 0
  85 000c 0B60     		str	r3, [r1]
  86              		.loc 1 141 0
  87 000e 4A60     		str	r2, [r1, #4]
  88              		.loc 1 143 0
  89 0010 1030     		adds	r0, r0, #16
  90              	.LVL4:
  91 0012 FFF7FEBF 		b	chMtxObjectInit
  92              	.LVL5:
  93              		.cfi_endproc
  94              	.LFE247:
  95              		.size	chHeapObjectInit, .-chHeapObjectInit
  96              		.section	.text.chHeapAllocAligned,"ax",%progbits
  97              		.align	1
  98              		.global	chHeapAllocAligned
  99              		.syntax unified
 100              		.thumb
 101              		.thumb_func
 102              		.fpu fpv4-sp-d16
 103              		.type	chHeapAllocAligned, %function
 104              	chHeapAllocAligned:
 105              	.LFB248:
 106              		.loc 1 166 0
 107              		.cfi_startproc
 108              		@ args = 0, pretend = 0, frame = 0
 109              		@ frame_needed = 0, uses_anonymous_args = 0
 110              	.LVL6:
 111 0000 2DE9F84F 		push	{r3, r4, r5, r6, r7, r8, r9, r10, fp, lr}
 112              		.cfi_def_cfa_offset 40
 113              		.cfi_offset 3, -40
 114              		.cfi_offset 4, -36
ARM GAS  C:\cygwin64\tmp\ccxTGPtl.s 			page 3


 115              		.cfi_offset 5, -32
 116              		.cfi_offset 6, -28
 117              		.cfi_offset 7, -24
 118              		.cfi_offset 8, -20
 119              		.cfi_offset 9, -16
 120              		.cfi_offset 10, -12
 121              		.cfi_offset 11, -8
 122              		.cfi_offset 14, -4
 123              		.loc 1 174 0
 124 0004 384E     		ldr	r6, .L21
 125 0006 0028     		cmp	r0, #0
 126 0008 18BF     		it	ne
 127 000a 0646     		movne	r6, r0
 128              	.LVL7:
 129 000c 082A     		cmp	r2, #8
 130 000e 38BF     		it	cc
 131 0010 0822     		movcc	r2, #8
 132              	.LVL8:
 133              		.loc 1 186 0
 134 0012 06F11008 		add	r8, r6, #16
 135 0016 9146     		mov	r9, r2
 136              	.LVL9:
 137              		.loc 1 183 0
 138 0018 CC1D     		adds	r4, r1, #7
 139              		.loc 1 186 0
 140 001a 4046     		mov	r0, r8
 141              		.loc 1 166 0
 142 001c 0F46     		mov	r7, r1
 143              		.loc 1 183 0
 144 001e E408     		lsrs	r4, r4, #3
 145              	.LVL10:
 146              		.loc 1 186 0
 147 0020 FFF7FEFF 		bl	chMtxLock
 148              	.LVL11:
 149              	.LBB2:
 150              		.loc 1 197 0
 151 0024 09F1FF3A 		add	r10, r9, #-1
 152              	.LBE2:
 153              		.loc 1 189 0
 154 0028 06F10801 		add	r1, r6, #8
 155              	.LVL12:
 156              	.LBB6:
 157              		.loc 1 197 0
 158 002c C9F1000B 		rsb	fp, r9, #0
 159              	.LVL13:
 160              	.L7:
 161              	.LBE6:
 162              		.loc 1 190 0
 163 0030 0B68     		ldr	r3, [r1]
 164 0032 3BB9     		cbnz	r3, .L13
 165              		.loc 1 259 0
 166 0034 4046     		mov	r0, r8
 167 0036 FFF7FEFF 		bl	chMtxUnlock
 168              	.LVL14:
 169              		.loc 1 263 0
 170 003a 3368     		ldr	r3, [r6]
 171 003c 002B     		cmp	r3, #0
ARM GAS  C:\cygwin64\tmp\ccxTGPtl.s 			page 4


 172 003e 48D1     		bne	.L14
 173              	.L15:
 174              		.loc 1 275 0
 175 0040 0024     		movs	r4, #0
 176              	.LVL15:
 177 0042 2DE0     		b	.L5
 178              	.LVL16:
 179              	.L13:
 180              	.LBB7:
 181              		.loc 1 197 0
 182 0044 03F1080C 		add	ip, r3, #8
 183              		.loc 1 199 0
 184 0048 5A68     		ldr	r2, [r3, #4]
 185              		.loc 1 197 0
 186 004a 0CEB0A05 		add	r5, ip, r10
 187 004e 05EA0B05 		and	r5, r5, fp
 188              		.loc 1 199 0
 189 0052 02F1010E 		add	lr, r2, #1
 190              		.loc 1 197 0
 191 0056 A5F10800 		sub	r0, r5, #8
 192              	.LVL17:
 193              		.loc 1 199 0
 194 005a 03EBCE0E 		add	lr, r3, lr, lsl #3
 195 005e 7045     		cmp	r0, lr
 196 0060 35D2     		bcs	.L8
 197              		.loc 1 199 0 is_stmt 0 discriminator 1
 198 0062 AEEB0505 		sub	r5, lr, r5
 199 0066 ED10     		asrs	r5, r5, #3
 200 0068 AC42     		cmp	r4, r5
 201 006a 30D8     		bhi	.L8
 202              		.loc 1 203 0 is_stmt 1
 203 006c 8342     		cmp	r3, r0
 204 006e 1AD2     		bcs	.L9
 205              	.LVL18:
 206              	.LBB3:
 207              		.loc 1 208 0
 208 0070 A0EB0C0C 		sub	ip, r0, ip
 209 0074 4FEAEC02 		asr	r2, ip, #3
 210              		.loc 1 209 0
 211 0078 AC42     		cmp	r4, r5
 212              		.loc 1 208 0
 213 007a 5A60     		str	r2, [r3, #4]
 214              		.loc 1 209 0
 215 007c 09D2     		bcs	.L10
 216              	.LBB4:
 217              		.loc 1 214 0
 218 007e 611C     		adds	r1, r4, #1
 219              	.LVL19:
 220 0080 00EBC102 		add	r2, r0, r1, lsl #3
 221              	.LVL20:
 222              		.loc 1 215 0
 223 0084 E443     		mvns	r4, r4
 224              	.LVL21:
 225 0086 2544     		add	r5, r5, r4
 226              	.LVL22:
 227 0088 5560     		str	r5, [r2, #4]
 228              		.loc 1 218 0
ARM GAS  C:\cygwin64\tmp\ccxTGPtl.s 			page 5


 229 008a 1C68     		ldr	r4, [r3]
 230              	.LVL23:
 231 008c 40F83140 		str	r4, [r0, r1, lsl #3]
 232              		.loc 1 219 0
 233 0090 1A60     		str	r2, [r3]
 234              	.LVL24:
 235              	.L10:
 236              	.LBE4:
 237              	.LBE3:
 238              		.loc 1 244 0
 239 0092 0446     		mov	r4, r0
 240              		.loc 1 243 0
 241 0094 4760     		str	r7, [r0, #4]
 242              		.loc 1 244 0
 243 0096 44F8086B 		str	r6, [r4], #8
 244              		.loc 1 247 0
 245 009a 4046     		mov	r0, r8
 246              	.LVL25:
 247 009c FFF7FEFF 		bl	chMtxUnlock
 248              	.LVL26:
 249              	.L5:
 250              	.LBE7:
 251              		.loc 1 276 0
 252 00a0 2046     		mov	r0, r4
 253 00a2 BDE8F88F 		pop	{r3, r4, r5, r6, r7, r8, r9, r10, fp, pc}
 254              	.LVL27:
 255              	.L9:
 256              	.LBB8:
 257              		.loc 1 227 0
 258 00a6 9442     		cmp	r4, r2
 259 00a8 1A68     		ldr	r2, [r3]
 260 00aa 02D1     		bne	.L11
 261              		.loc 1 229 0
 262 00ac 0A60     		str	r2, [r1]
 263              	.LVL28:
 264              	.L20:
 265              	.LBB5:
 266              		.loc 1 238 0
 267 00ae 1846     		mov	r0, r3
 268              	.LVL29:
 269 00b0 EFE7     		b	.L10
 270              	.LVL30:
 271              	.L11:
 272              		.loc 1 235 0
 273 00b2 0134     		adds	r4, r4, #1
 274              	.LVL31:
 275 00b4 03EBC405 		add	r5, r3, r4, lsl #3
 276              	.LVL32:
 277              		.loc 1 236 0
 278 00b8 43F83420 		str	r2, [r3, r4, lsl #3]
 279              		.loc 1 237 0
 280 00bc 05F10802 		add	r2, r5, #8
 281 00c0 AEEB020E 		sub	lr, lr, r2
 282 00c4 4FEAEE02 		asr	r2, lr, #3
 283 00c8 6A60     		str	r2, [r5, #4]
 284              		.loc 1 238 0
 285 00ca 0D60     		str	r5, [r1]
ARM GAS  C:\cygwin64\tmp\ccxTGPtl.s 			page 6


 286 00cc EFE7     		b	.L20
 287              	.LVL33:
 288              	.L8:
 289 00ce 1946     		mov	r1, r3
 290              	.LVL34:
 291 00d0 AEE7     		b	.L7
 292              	.LVL35:
 293              	.L14:
 294              	.LBE5:
 295              	.LBE8:
 296              		.loc 1 264 0
 297 00d2 601C     		adds	r0, r4, #1
 298 00d4 4946     		mov	r1, r9
 299 00d6 C000     		lsls	r0, r0, #3
 300 00d8 9847     		blx	r3
 301              	.LVL36:
 302              		.loc 1 265 0
 303 00da 0028     		cmp	r0, #0
 304 00dc B0D0     		beq	.L15
 305              		.loc 1 267 0
 306 00de 80E8C000 		stm	r0, {r6, r7}
 307              		.loc 1 270 0
 308 00e2 00F10804 		add	r4, r0, #8
 309              	.LVL37:
 310 00e6 DBE7     		b	.L5
 311              	.L22:
 312              		.align	2
 313              	.L21:
 314 00e8 00000000 		.word	.LANCHOR0
 315              		.cfi_endproc
 316              	.LFE248:
 317              		.size	chHeapAllocAligned, .-chHeapAllocAligned
 318              		.section	.text.chHeapFree,"ax",%progbits
 319              		.align	1
 320              		.global	chHeapFree
 321              		.syntax unified
 322              		.thumb
 323              		.thumb_func
 324              		.fpu fpv4-sp-d16
 325              		.type	chHeapFree, %function
 326              	chHeapFree:
 327              	.LFB249:
 328              		.loc 1 285 0
 329              		.cfi_startproc
 330              		@ args = 0, pretend = 0, frame = 0
 331              		@ frame_needed = 0, uses_anonymous_args = 0
 332              	.LVL38:
 333 0000 F8B5     		push	{r3, r4, r5, r6, r7, lr}
 334              		.cfi_def_cfa_offset 24
 335              		.cfi_offset 3, -24
 336              		.cfi_offset 4, -20
 337              		.cfi_offset 5, -16
 338              		.cfi_offset 6, -12
 339              		.cfi_offset 7, -8
 340              		.cfi_offset 14, -4
 341              		.loc 1 298 0
 342 0002 50F8043C 		ldr	r3, [r0, #-4]
ARM GAS  C:\cygwin64\tmp\ccxTGPtl.s 			page 7


 343              		.loc 1 294 0
 344 0006 50F8086C 		ldr	r6, [r0, #-8]
 345              		.loc 1 298 0
 346 000a 0733     		adds	r3, r3, #7
 347              		.loc 1 299 0
 348 000c DB08     		lsrs	r3, r3, #3
 349              		.loc 1 295 0
 350 000e 06F10807 		add	r7, r6, #8
 351              		.loc 1 302 0
 352 0012 1036     		adds	r6, r6, #16
 353              		.loc 1 298 0
 354 0014 40F8043C 		str	r3, [r0, #-4]
 355              		.loc 1 285 0
 356 0018 0446     		mov	r4, r0
 357              		.loc 1 292 0
 358 001a A0F10805 		sub	r5, r0, #8
 359              	.LVL39:
 360              		.loc 1 302 0
 361 001e 3046     		mov	r0, r6
 362              	.LVL40:
 363 0020 FFF7FEFF 		bl	chMtxLock
 364              	.LVL41:
 365              		.loc 1 295 0
 366 0024 3B46     		mov	r3, r7
 367              	.LVL42:
 368              	.L29:
 369              		.loc 1 307 0
 370 0026 BB42     		cmp	r3, r7
 371 0028 1A68     		ldr	r2, [r3]
 372 002a 01D0     		beq	.L24
 373              		.loc 1 307 0 is_stmt 0 discriminator 2
 374 002c AB42     		cmp	r3, r5
 375 002e 29D2     		bcs	.L25
 376              	.L24:
 377              		.loc 1 307 0 discriminator 3
 378 0030 0AB1     		cbz	r2, .L26
 379              		.loc 1 308 0 is_stmt 1
 380 0032 9542     		cmp	r5, r2
 381 0034 26D2     		bcs	.L25
 382              	.L26:
 383              		.loc 1 310 0
 384 0036 44F8082C 		str	r2, [r4, #-8]
 385              		.loc 1 311 0
 386 003a 1D60     		str	r5, [r3]
 387              		.loc 1 313 0
 388 003c 54F8042C 		ldr	r2, [r4, #-4]
 389 0040 54F8080C 		ldr	r0, [r4, #-8]
 390 0044 0132     		adds	r2, r2, #1
 391 0046 05EBC201 		add	r1, r5, r2, lsl #3
 392 004a 8142     		cmp	r1, r0
 393 004c 07D1     		bne	.L27
 394              		.loc 1 315 0
 395 004e 4968     		ldr	r1, [r1, #4]
 396 0050 1144     		add	r1, r1, r2
 397 0052 44F8041C 		str	r1, [r4, #-4]
 398              		.loc 1 316 0
 399 0056 55F83220 		ldr	r2, [r5, r2, lsl #3]
ARM GAS  C:\cygwin64\tmp\ccxTGPtl.s 			page 8


 400 005a 44F8082C 		str	r2, [r4, #-8]
 401              	.L27:
 402              		.loc 1 318 0
 403 005e 5868     		ldr	r0, [r3, #4]
 404 0060 411C     		adds	r1, r0, #1
 405 0062 03EBC101 		add	r1, r3, r1, lsl #3
 406 0066 8D42     		cmp	r5, r1
 407 0068 07D1     		bne	.L28
 408              		.loc 1 320 0
 409 006a 54F8042C 		ldr	r2, [r4, #-4]
 410 006e 0132     		adds	r2, r2, #1
 411 0070 0244     		add	r2, r2, r0
 412 0072 5A60     		str	r2, [r3, #4]
 413              		.loc 1 321 0
 414 0074 54F8082C 		ldr	r2, [r4, #-8]
 415 0078 1A60     		str	r2, [r3]
 416              	.L28:
 417              		.loc 1 329 0
 418 007a 3046     		mov	r0, r6
 419              		.loc 1 332 0
 420 007c BDE8F840 		pop	{r3, r4, r5, r6, r7, lr}
 421              		.cfi_remember_state
 422              		.cfi_restore 14
 423              		.cfi_restore 7
 424              		.cfi_restore 6
 425              		.cfi_restore 5
 426              		.cfi_restore 4
 427              		.cfi_restore 3
 428              		.cfi_def_cfa_offset 0
 429              	.LVL43:
 430              		.loc 1 329 0
 431 0080 FFF7FEBF 		b	chMtxUnlock
 432              	.LVL44:
 433              	.L25:
 434              		.cfi_restore_state
 435              		.loc 1 325 0
 436 0084 1346     		mov	r3, r2
 437              	.LVL45:
 438              		.loc 1 305 0
 439 0086 CEE7     		b	.L29
 440              		.cfi_endproc
 441              	.LFE249:
 442              		.size	chHeapFree, .-chHeapFree
 443              		.section	.text.chHeapStatus,"ax",%progbits
 444              		.align	1
 445              		.global	chHeapStatus
 446              		.syntax unified
 447              		.thumb
 448              		.thumb_func
 449              		.fpu fpv4-sp-d16
 450              		.type	chHeapStatus, %function
 451              	chHeapStatus:
 452              	.LFB250:
 453              		.loc 1 349 0
 454              		.cfi_startproc
 455              		@ args = 0, pretend = 0, frame = 0
 456              		@ frame_needed = 0, uses_anonymous_args = 0
ARM GAS  C:\cygwin64\tmp\ccxTGPtl.s 			page 9


 457              	.LVL46:
 458 0000 2DE9F041 		push	{r4, r5, r6, r7, r8, lr}
 459              		.cfi_def_cfa_offset 24
 460              		.cfi_offset 4, -24
 461              		.cfi_offset 5, -20
 462              		.cfi_offset 6, -16
 463              		.cfi_offset 7, -12
 464              		.cfi_offset 8, -8
 465              		.cfi_offset 14, -4
 466              		.loc 1 354 0
 467 0004 144C     		ldr	r4, .L45
 468 0006 0028     		cmp	r0, #0
 469 0008 18BF     		it	ne
 470 000a 0446     		movne	r4, r0
 471              	.LVL47:
 472              		.loc 1 357 0
 473 000c 04F11006 		add	r6, r4, #16
 474 0010 3046     		mov	r0, r6
 475              		.loc 1 349 0
 476 0012 8846     		mov	r8, r1
 477 0014 1746     		mov	r7, r2
 478              		.loc 1 357 0
 479 0016 FFF7FEFF 		bl	chMtxLock
 480              	.LVL48:
 481              		.loc 1 359 0
 482 001a 0023     		movs	r3, #0
 483              		.loc 1 361 0
 484 001c 04F10800 		add	r0, r4, #8
 485              	.LVL49:
 486              		.loc 1 360 0
 487 0020 1D46     		mov	r5, r3
 488              		.loc 1 358 0
 489 0022 1C46     		mov	r4, r3
 490              	.LVL50:
 491              	.L35:
 492              		.loc 1 362 0
 493 0024 0068     		ldr	r0, [r0]
 494              	.LVL51:
 495 0026 70B9     		cbnz	r0, .L36
 496              		.loc 1 376 0
 497 0028 B8F1000F 		cmp	r8, #0
 498 002c 02D0     		beq	.L37
 499              		.loc 1 377 0
 500 002e E400     		lsls	r4, r4, #3
 501              	.LVL52:
 502 0030 C8F80040 		str	r4, [r8]
 503              	.L37:
 504              		.loc 1 381 0
 505 0034 0FB1     		cbz	r7, .L38
 506              		.loc 1 382 0
 507 0036 DB00     		lsls	r3, r3, #3
 508              	.LVL53:
 509 0038 3B60     		str	r3, [r7]
 510              	.L38:
 511              		.loc 1 384 0
 512 003a 3046     		mov	r0, r6
 513 003c FFF7FEFF 		bl	chMtxUnlock
ARM GAS  C:\cygwin64\tmp\ccxTGPtl.s 			page 10


 514              	.LVL54:
 515              		.loc 1 387 0
 516 0040 2846     		mov	r0, r5
 517 0042 BDE8F081 		pop	{r4, r5, r6, r7, r8, pc}
 518              	.LVL55:
 519              	.L36:
 520              	.LBB9:
 521              		.loc 1 363 0
 522 0046 4268     		ldr	r2, [r0, #4]
 523              	.LVL56:
 524 0048 9342     		cmp	r3, r2
 525              		.loc 1 366 0
 526 004a 05F10105 		add	r5, r5, #1
 527              	.LVL57:
 528              		.loc 1 367 0
 529 004e 1444     		add	r4, r4, r2
 530              	.LVL58:
 531 0050 38BF     		it	cc
 532 0052 1346     		movcc	r3, r2
 533              	.LVL59:
 534 0054 E6E7     		b	.L35
 535              	.L46:
 536 0056 00BF     		.align	2
 537              	.L45:
 538 0058 00000000 		.word	.LANCHOR0
 539              	.LBE9:
 540              		.cfi_endproc
 541              	.LFE250:
 542              		.size	chHeapStatus, .-chHeapStatus
 543              		.section	.bss.default_heap,"aw",%nobits
 544              		.align	3
 545              		.set	.LANCHOR0,. + 0
 546              		.type	default_heap, %object
 547              		.size	default_heap, 32
 548              	default_heap:
 549 0000 00000000 		.space	32
 549      00000000 
 549      00000000 
 549      00000000 
 549      00000000 
 550              		.text
 551              	.Letext0:
 552              		.file 2 "c:\\program files (x86)\\gnu tools arm embedded\\6 2017-q2-update\\lib\\gcc\\arm-none-eab
 553              		.file 3 "c:\\program files (x86)\\gnu tools arm embedded\\6 2017-q2-update\\arm-none-eabi\\include
 554              		.file 4 "c:\\program files (x86)\\gnu tools arm embedded\\6 2017-q2-update\\arm-none-eabi\\include
 555              		.file 5 "../../modules/ChibiOS/os/common/ports/ARMCMx/compilers/GCC/chtypes.h"
 556              		.file 6 "../../modules/ChibiOS/os/rt/include/chsystypes.h"
 557              		.file 7 "../../modules/ChibiOS/os/rt/include/chschd.h"
 558              		.file 8 "../../modules/ChibiOS/os/common/ext/CMSIS/include/core_cm4.h"
 559              		.file 9 "../../modules/ChibiOS/os/common/ext/CMSIS/ST/STM32F4xx/system_stm32f4xx.h"
 560              		.file 10 "../../modules/ChibiOS/os/common/ports/ARMCMx/chcore.h"
 561              		.file 11 "../../modules/ChibiOS/os/common/ports/ARMCMx/chcore_v7m.h"
 562              		.file 12 "../../modules/ChibiOS/os/rt/include/chtm.h"
 563              		.file 13 "../../modules/ChibiOS/os/rt/include/chstats.h"
 564              		.file 14 "../../modules/ChibiOS/os/rt/include/chsem.h"
 565              		.file 15 "../../modules/ChibiOS/os/rt/include/chmtx.h"
 566              		.file 16 "../../modules/ChibiOS/os/rt/include/chsys.h"
ARM GAS  C:\cygwin64\tmp\ccxTGPtl.s 			page 11


 567              		.file 17 "../../modules/ChibiOS/os/rt/include/chregistry.h"
 568              		.file 18 "../../modules/ChibiOS/os/common/oslib/include/chmemcore.h"
 569              		.file 19 "../../modules/ChibiOS/os/common/oslib/include/chheap.h"