ARM GAS  C:\cygwin64\tmp\ccghwiVh.s 			page 1


   1              		.cpu cortex-m4
   2              		.eabi_attribute 27, 1
   3              		.eabi_attribute 28, 1
   4              		.eabi_attribute 20, 1
   5              		.eabi_attribute 21, 1
   6              		.eabi_attribute 23, 3
   7              		.eabi_attribute 24, 1
   8              		.eabi_attribute 25, 1
   9              		.eabi_attribute 26, 1
  10              		.eabi_attribute 30, 4
  11              		.eabi_attribute 34, 1
  12              		.eabi_attribute 18, 4
  13              		.file	"chmboxes.c"
  14              		.text
  15              	.Ltext0:
  16              		.cfi_sections	.debug_frame
  17              		.section	.text.chMBObjectInit,"ax",%progbits
  18              		.align	1
  19              		.global	chMBObjectInit
  20              		.syntax unified
  21              		.thumb
  22              		.thumb_func
  23              		.fpu fpv4-sp-d16
  24              		.type	chMBObjectInit, %function
  25              	chMBObjectInit:
  26              	.LFB246:
  27              		.file 1 "../../modules/ChibiOS/os/common/oslib/src/chmboxes.c"
  28              		.loc 1 87 0
  29              		.cfi_startproc
  30              		@ args = 0, pretend = 0, frame = 0
  31              		@ frame_needed = 0, uses_anonymous_args = 0
  32              		@ link register save eliminated.
  33              	.LVL0:
  34              		.loc 1 95 0
  35 0000 0023     		movs	r3, #0
  36 0002 0361     		str	r3, [r0, #16]
  37              		.loc 1 96 0
  38 0004 0375     		strb	r3, [r0, #20]
  39              		.loc 1 97 0
  40 0006 00F11803 		add	r3, r0, #24
  41              	.LVL1:
  42              		.loc 1 94 0
  43 000a 01EB8202 		add	r2, r1, r2, lsl #2
  44              	.LVL2:
  45              	.LBB34:
  46              	.LBB35:
  47              	.LBB36:
  48              		.file 2 "../../modules/ChibiOS/os/rt/include/chschd.h"
  49              		.loc 2 550 0
  50 000e 8361     		str	r3, [r0, #24]
  51              		.loc 2 551 0
  52 0010 C361     		str	r3, [r0, #28]
  53              	.LVL3:
  54              	.LBE36:
  55              	.LBE35:
  56              	.LBE34:
  57              		.loc 1 98 0
ARM GAS  C:\cygwin64\tmp\ccghwiVh.s 			page 2


  58 0012 00F12003 		add	r3, r0, #32
  59              	.LVL4:
  60              		.loc 1 91 0
  61 0016 0160     		str	r1, [r0]
  62              		.loc 1 92 0
  63 0018 C160     		str	r1, [r0, #12]
  64              		.loc 1 93 0
  65 001a 8160     		str	r1, [r0, #8]
  66              		.loc 1 94 0
  67 001c 4260     		str	r2, [r0, #4]
  68              	.LBB37:
  69              	.LBB38:
  70              	.LBB39:
  71              		.loc 2 550 0
  72 001e 0362     		str	r3, [r0, #32]
  73              		.loc 2 551 0
  74 0020 4362     		str	r3, [r0, #36]
  75              	.LVL5:
  76 0022 7047     		bx	lr
  77              	.LBE39:
  78              	.LBE38:
  79              	.LBE37:
  80              		.cfi_endproc
  81              	.LFE246:
  82              		.size	chMBObjectInit, .-chMBObjectInit
  83              		.section	.text.chMBResetI,"ax",%progbits
  84              		.align	1
  85              		.global	chMBResetI
  86              		.syntax unified
  87              		.thumb
  88              		.thumb_func
  89              		.fpu fpv4-sp-d16
  90              		.type	chMBResetI, %function
  91              	chMBResetI:
  92              	.LFB248:
  93              		.loc 1 133 0
  94              		.cfi_startproc
  95              		@ args = 0, pretend = 0, frame = 0
  96              		@ frame_needed = 0, uses_anonymous_args = 0
  97              	.LVL6:
  98 0000 10B5     		push	{r4, lr}
  99              		.cfi_def_cfa_offset 8
 100              		.cfi_offset 4, -8
 101              		.cfi_offset 14, -4
 102              		.loc 1 138 0
 103 0002 0368     		ldr	r3, [r0]
 104 0004 8360     		str	r3, [r0, #8]
 105              		.loc 1 139 0
 106 0006 C360     		str	r3, [r0, #12]
 107              		.loc 1 140 0
 108 0008 0023     		movs	r3, #0
 109 000a 0361     		str	r3, [r0, #16]
 110              		.loc 1 141 0
 111 000c 0123     		movs	r3, #1
 112              		.loc 1 133 0
 113 000e 0446     		mov	r4, r0
 114              		.loc 1 141 0
ARM GAS  C:\cygwin64\tmp\ccghwiVh.s 			page 3


 115 0010 0375     		strb	r3, [r0, #20]
 116              		.loc 1 142 0
 117 0012 6FF00101 		mvn	r1, #1
 118 0016 1830     		adds	r0, r0, #24
 119              	.LVL7:
 120 0018 FFF7FEFF 		bl	chThdDequeueAllI
 121              	.LVL8:
 122              		.loc 1 143 0
 123 001c 04F12000 		add	r0, r4, #32
 124 0020 6FF00101 		mvn	r1, #1
 125              		.loc 1 144 0
 126 0024 BDE81040 		pop	{r4, lr}
 127              		.cfi_restore 14
 128              		.cfi_restore 4
 129              		.cfi_def_cfa_offset 0
 130              	.LVL9:
 131              		.loc 1 143 0
 132 0028 FFF7FEBF 		b	chThdDequeueAllI
 133              	.LVL10:
 134              		.cfi_endproc
 135              	.LFE248:
 136              		.size	chMBResetI, .-chMBResetI
 137              		.section	.text.chMBReset,"ax",%progbits
 138              		.align	1
 139              		.global	chMBReset
 140              		.syntax unified
 141              		.thumb
 142              		.thumb_func
 143              		.fpu fpv4-sp-d16
 144              		.type	chMBReset, %function
 145              	chMBReset:
 146              	.LFB247:
 147              		.loc 1 113 0
 148              		.cfi_startproc
 149              		@ args = 0, pretend = 0, frame = 0
 150              		@ frame_needed = 0, uses_anonymous_args = 0
 151              	.LVL11:
 152 0000 10B5     		push	{r4, lr}
 153              		.cfi_def_cfa_offset 8
 154              		.cfi_offset 4, -8
 155              		.cfi_offset 14, -4
 156              	.LBB50:
 157              	.LBB51:
 158              	.LBB52:
 159              	.LBB53:
 160              	.LBB54:
 161              		.file 3 "../../modules/ChibiOS/os/common/ext/CMSIS/include/cmsis_gcc.h"
 162              		.loc 3 264 0
 163 0002 2023     		movs	r3, #32
 164              	.LBE54:
 165              	.LBE53:
 166              	.LBE52:
 167              	.LBE51:
 168              	.LBE50:
 169              		.loc 1 113 0
 170 0004 0446     		mov	r4, r0
 171              	.LBB59:
ARM GAS  C:\cygwin64\tmp\ccghwiVh.s 			page 4


 172              	.LBB58:
 173              	.LBB57:
 174              	.LBB56:
 175              	.LBB55:
 176              		.loc 3 264 0
 177              		.syntax unified
 178              	@ 264 "../../modules/ChibiOS/os/common/ext/CMSIS/include/cmsis_gcc.h" 1
 179 0006 83F31188 		MSR basepri, r3
 180              	@ 0 "" 2
 181              	.LVL12:
 182              		.thumb
 183              		.syntax unified
 184              	.LBE55:
 185              	.LBE56:
 186              	.LBE57:
 187              		.file 4 "../../modules/ChibiOS/os/rt/include/chsys.h"
 188              		.loc 4 377 0
 189 000a FFF7FEFF 		bl	_stats_start_measure_crit_thd
 190              	.LVL13:
 191              	.LBE58:
 192              	.LBE59:
 193              		.loc 1 116 0
 194 000e 2046     		mov	r0, r4
 195 0010 FFF7FEFF 		bl	chMBResetI
 196              	.LVL14:
 197              		.loc 1 117 0
 198 0014 FFF7FEFF 		bl	chSchRescheduleS
 199              	.LVL15:
 200              	.LBB60:
 201              	.LBB61:
 202              		.loc 4 389 0
 203 0018 FFF7FEFF 		bl	_stats_stop_measure_crit_thd
 204              	.LVL16:
 205              	.LBB62:
 206              	.LBB63:
 207              	.LBB64:
 208              		.loc 3 264 0
 209 001c 0023     		movs	r3, #0
 210              		.syntax unified
 211              	@ 264 "../../modules/ChibiOS/os/common/ext/CMSIS/include/cmsis_gcc.h" 1
 212 001e 83F31188 		MSR basepri, r3
 213              	@ 0 "" 2
 214              	.LVL17:
 215              		.thumb
 216              		.syntax unified
 217 0022 10BD     		pop	{r4, pc}
 218              	.LBE64:
 219              	.LBE63:
 220              	.LBE62:
 221              	.LBE61:
 222              	.LBE60:
 223              		.cfi_endproc
 224              	.LFE247:
 225              		.size	chMBReset, .-chMBReset
 226              		.section	.text.chMBPostS,"ax",%progbits
 227              		.align	1
 228              		.global	chMBPostS
ARM GAS  C:\cygwin64\tmp\ccghwiVh.s 			page 5


 229              		.syntax unified
 230              		.thumb
 231              		.thumb_func
 232              		.fpu fpv4-sp-d16
 233              		.type	chMBPostS, %function
 234              	chMBPostS:
 235              	.LFB250:
 236              		.loc 1 194 0
 237              		.cfi_startproc
 238              		@ args = 0, pretend = 0, frame = 0
 239              		@ frame_needed = 0, uses_anonymous_args = 0
 240              	.LVL18:
 241 0000 F8B5     		push	{r3, r4, r5, r6, r7, lr}
 242              		.cfi_def_cfa_offset 24
 243              		.cfi_offset 3, -24
 244              		.cfi_offset 4, -20
 245              		.cfi_offset 5, -16
 246              		.cfi_offset 6, -12
 247              		.cfi_offset 7, -8
 248              		.cfi_offset 14, -4
 249              		.loc 1 194 0
 250 0002 0446     		mov	r4, r0
 251 0004 0D46     		mov	r5, r1
 252 0006 1746     		mov	r7, r2
 253              		.loc 1 222 0
 254 0008 00F11806 		add	r6, r0, #24
 255              	.LVL19:
 256              	.L8:
 257              		.loc 1 202 0
 258 000c 237D     		ldrb	r3, [r4, #20]	@ zero_extendqisi2
 259 000e 0BBB     		cbnz	r3, .L9
 260              	.LVL20:
 261              	.LBB71:
 262              	.LBB72:
 263              	.LBB73:
 264              	.LBB74:
 265              		.file 5 "../../modules/ChibiOS/os/common/oslib/include/chmboxes.h"
 266              		.loc 5 140 0
 267 0010 6068     		ldr	r0, [r4, #4]
 268 0012 2168     		ldr	r1, [r4]
 269              	.LVL21:
 270              	.LBE74:
 271              	.LBE73:
 272              		.loc 5 172 0
 273 0014 2369     		ldr	r3, [r4, #16]
 274              	.LBB76:
 275              	.LBB75:
 276              		.loc 5 140 0
 277 0016 421A     		subs	r2, r0, r1
 278              	.LBE75:
 279              	.LBE76:
 280              		.loc 5 172 0
 281 0018 C3EBA203 		rsb	r3, r3, r2, asr #2
 282              	.LBE72:
 283              	.LBE71:
 284              		.loc 1 207 0
 285 001c 002B     		cmp	r3, #0
ARM GAS  C:\cygwin64\tmp\ccghwiVh.s 			page 6


 286 001e 12DD     		ble	.L6
 287              	.LVL22:
 288              	.LBB77:
 289              	.LBB78:
 290              		.loc 1 208 0
 291 0020 A268     		ldr	r2, [r4, #8]
 292 0022 131D     		adds	r3, r2, #4
 293 0024 A360     		str	r3, [r4, #8]
 294 0026 1560     		str	r5, [r2]
 295              		.loc 1 209 0
 296 0028 9842     		cmp	r0, r3
 297              		.loc 1 212 0
 298 002a 2369     		ldr	r3, [r4, #16]
 299              		.loc 1 210 0
 300 002c 98BF     		it	ls
 301 002e A160     		strls	r1, [r4, #8]
 302              		.loc 1 212 0
 303 0030 0133     		adds	r3, r3, #1
 304              		.loc 1 215 0
 305 0032 04F12000 		add	r0, r4, #32
 306              		.loc 1 212 0
 307 0036 2361     		str	r3, [r4, #16]
 308              		.loc 1 215 0
 309 0038 0021     		movs	r1, #0
 310 003a FFF7FEFF 		bl	chThdDequeueNextI
 311              	.LVL23:
 312              		.loc 1 216 0
 313 003e FFF7FEFF 		bl	chSchRescheduleS
 314              	.LVL24:
 315 0042 0020     		movs	r0, #0
 316 0044 F8BD     		pop	{r3, r4, r5, r6, r7, pc}
 317              	.LVL25:
 318              	.L6:
 319              	.LBE78:
 320              	.LBE77:
 321              		.loc 1 222 0
 322 0046 3946     		mov	r1, r7
 323 0048 3046     		mov	r0, r6
 324 004a FFF7FEFF 		bl	chThdEnqueueTimeoutS
 325              	.LVL26:
 326              		.loc 1 223 0
 327 004e 0028     		cmp	r0, #0
 328 0050 DCD0     		beq	.L8
 329 0052 F8BD     		pop	{r3, r4, r5, r6, r7, pc}
 330              	.LVL27:
 331              	.L9:
 332              		.loc 1 203 0
 333 0054 6FF00100 		mvn	r0, #1
 334              		.loc 1 226 0
 335 0058 F8BD     		pop	{r3, r4, r5, r6, r7, pc}
 336              		.cfi_endproc
 337              	.LFE250:
 338              		.size	chMBPostS, .-chMBPostS
 339              		.section	.text.chMBPost,"ax",%progbits
 340              		.align	1
 341              		.global	chMBPost
 342              		.syntax unified
ARM GAS  C:\cygwin64\tmp\ccghwiVh.s 			page 7


 343              		.thumb
 344              		.thumb_func
 345              		.fpu fpv4-sp-d16
 346              		.type	chMBPost, %function
 347              	chMBPost:
 348              	.LFB249:
 349              		.loc 1 165 0
 350              		.cfi_startproc
 351              		@ args = 0, pretend = 0, frame = 0
 352              		@ frame_needed = 0, uses_anonymous_args = 0
 353              	.LVL28:
 354 0000 70B5     		push	{r4, r5, r6, lr}
 355              		.cfi_def_cfa_offset 16
 356              		.cfi_offset 4, -16
 357              		.cfi_offset 5, -12
 358              		.cfi_offset 6, -8
 359              		.cfi_offset 14, -4
 360              	.LBB89:
 361              	.LBB90:
 362              	.LBB91:
 363              	.LBB92:
 364              	.LBB93:
 365              		.loc 3 264 0
 366 0002 2023     		movs	r3, #32
 367              	.LBE93:
 368              	.LBE92:
 369              	.LBE91:
 370              	.LBE90:
 371              	.LBE89:
 372              		.loc 1 165 0
 373 0004 0446     		mov	r4, r0
 374 0006 0D46     		mov	r5, r1
 375 0008 1646     		mov	r6, r2
 376              	.LBB98:
 377              	.LBB97:
 378              	.LBB96:
 379              	.LBB95:
 380              	.LBB94:
 381              		.loc 3 264 0
 382              		.syntax unified
 383              	@ 264 "../../modules/ChibiOS/os/common/ext/CMSIS/include/cmsis_gcc.h" 1
 384 000a 83F31188 		MSR basepri, r3
 385              	@ 0 "" 2
 386              	.LVL29:
 387              		.thumb
 388              		.syntax unified
 389              	.LBE94:
 390              	.LBE95:
 391              	.LBE96:
 392              		.loc 4 377 0
 393 000e FFF7FEFF 		bl	_stats_start_measure_crit_thd
 394              	.LVL30:
 395              	.LBE97:
 396              	.LBE98:
 397              		.loc 1 169 0
 398 0012 3246     		mov	r2, r6
 399 0014 2946     		mov	r1, r5
ARM GAS  C:\cygwin64\tmp\ccghwiVh.s 			page 8


 400 0016 2046     		mov	r0, r4
 401 0018 FFF7FEFF 		bl	chMBPostS
 402              	.LVL31:
 403 001c 0446     		mov	r4, r0
 404              	.LVL32:
 405              	.LBB99:
 406              	.LBB100:
 407              		.loc 4 389 0
 408 001e FFF7FEFF 		bl	_stats_stop_measure_crit_thd
 409              	.LVL33:
 410              	.LBB101:
 411              	.LBB102:
 412              	.LBB103:
 413              		.loc 3 264 0
 414 0022 0023     		movs	r3, #0
 415              		.syntax unified
 416              	@ 264 "../../modules/ChibiOS/os/common/ext/CMSIS/include/cmsis_gcc.h" 1
 417 0024 83F31188 		MSR basepri, r3
 418              	@ 0 "" 2
 419              	.LVL34:
 420              		.thumb
 421              		.syntax unified
 422              	.LBE103:
 423              	.LBE102:
 424              	.LBE101:
 425              	.LBE100:
 426              	.LBE99:
 427              		.loc 1 173 0
 428 0028 2046     		mov	r0, r4
 429 002a 70BD     		pop	{r4, r5, r6, pc}
 430              		.cfi_endproc
 431              	.LFE249:
 432              		.size	chMBPost, .-chMBPost
 433              		.section	.text.chMBPostI,"ax",%progbits
 434              		.align	1
 435              		.global	chMBPostI
 436              		.syntax unified
 437              		.thumb
 438              		.thumb_func
 439              		.fpu fpv4-sp-d16
 440              		.type	chMBPostI, %function
 441              	chMBPostI:
 442              	.LFB251:
 443              		.loc 1 243 0
 444              		.cfi_startproc
 445              		@ args = 0, pretend = 0, frame = 0
 446              		@ frame_needed = 0, uses_anonymous_args = 0
 447              	.LVL35:
 448 0000 38B5     		push	{r3, r4, r5, lr}
 449              		.cfi_def_cfa_offset 16
 450              		.cfi_offset 3, -16
 451              		.cfi_offset 4, -12
 452              		.cfi_offset 5, -8
 453              		.cfi_offset 14, -4
 454              		.loc 1 249 0
 455 0002 037D     		ldrb	r3, [r0, #20]	@ zero_extendqisi2
 456 0004 BBB9     		cbnz	r3, .L16
ARM GAS  C:\cygwin64\tmp\ccghwiVh.s 			page 9


 457              	.LVL36:
 458              	.LBB108:
 459              	.LBB109:
 460              	.LBB110:
 461              	.LBB111:
 462              		.loc 5 140 0
 463 0006 90E81400 		ldm	r0, {r2, r4}
 464              	.LVL37:
 465              	.LBE111:
 466              	.LBE110:
 467              		.loc 5 172 0
 468 000a 0369     		ldr	r3, [r0, #16]
 469              	.LBB113:
 470              	.LBB112:
 471              		.loc 5 140 0
 472 000c A51A     		subs	r5, r4, r2
 473              	.LBE112:
 474              	.LBE113:
 475              		.loc 5 172 0
 476 000e C3EBA503 		rsb	r3, r3, r5, asr #2
 477              	.LBE109:
 478              	.LBE108:
 479              		.loc 1 254 0
 480 0012 002B     		cmp	r3, #0
 481 0014 12DD     		ble	.L17
 482              		.loc 1 255 0
 483 0016 8568     		ldr	r5, [r0, #8]
 484 0018 2B1D     		adds	r3, r5, #4
 485 001a 8360     		str	r3, [r0, #8]
 486 001c 2960     		str	r1, [r5]
 487              		.loc 1 256 0
 488 001e A342     		cmp	r3, r4
 489              		.loc 1 259 0
 490 0020 0369     		ldr	r3, [r0, #16]
 491              		.loc 1 257 0
 492 0022 28BF     		it	cs
 493 0024 8260     		strcs	r2, [r0, #8]
 494              		.loc 1 259 0
 495 0026 0133     		adds	r3, r3, #1
 496 0028 0361     		str	r3, [r0, #16]
 497              		.loc 1 262 0
 498 002a 0021     		movs	r1, #0
 499              	.LVL38:
 500 002c 2030     		adds	r0, r0, #32
 501              	.LVL39:
 502 002e FFF7FEFF 		bl	chThdDequeueNextI
 503              	.LVL40:
 504              		.loc 1 264 0
 505 0032 0020     		movs	r0, #0
 506 0034 38BD     		pop	{r3, r4, r5, pc}
 507              	.LVL41:
 508              	.L16:
 509              		.loc 1 250 0
 510 0036 6FF00100 		mvn	r0, #1
 511              	.LVL42:
 512 003a 38BD     		pop	{r3, r4, r5, pc}
 513              	.LVL43:
ARM GAS  C:\cygwin64\tmp\ccghwiVh.s 			page 10


 514              	.L17:
 515              		.loc 1 268 0
 516 003c 4FF0FF30 		mov	r0, #-1
 517              	.LVL44:
 518              		.loc 1 269 0
 519 0040 38BD     		pop	{r3, r4, r5, pc}
 520              		.cfi_endproc
 521              	.LFE251:
 522              		.size	chMBPostI, .-chMBPostI
 523              		.section	.text.chMBPostAheadS,"ax",%progbits
 524              		.align	1
 525              		.global	chMBPostAheadS
 526              		.syntax unified
 527              		.thumb
 528              		.thumb_func
 529              		.fpu fpv4-sp-d16
 530              		.type	chMBPostAheadS, %function
 531              	chMBPostAheadS:
 532              	.LFB253:
 533              		.loc 1 319 0
 534              		.cfi_startproc
 535              		@ args = 0, pretend = 0, frame = 0
 536              		@ frame_needed = 0, uses_anonymous_args = 0
 537              	.LVL45:
 538 0000 F8B5     		push	{r3, r4, r5, r6, r7, lr}
 539              		.cfi_def_cfa_offset 24
 540              		.cfi_offset 3, -24
 541              		.cfi_offset 4, -20
 542              		.cfi_offset 5, -16
 543              		.cfi_offset 6, -12
 544              		.cfi_offset 7, -8
 545              		.cfi_offset 14, -4
 546              		.loc 1 319 0
 547 0002 0446     		mov	r4, r0
 548 0004 0D46     		mov	r5, r1
 549 0006 1746     		mov	r7, r2
 550              		.loc 1 347 0
 551 0008 00F11806 		add	r6, r0, #24
 552              	.LVL46:
 553              	.L23:
 554              		.loc 1 327 0
 555 000c 237D     		ldrb	r3, [r4, #20]	@ zero_extendqisi2
 556 000e 1BBB     		cbnz	r3, .L24
 557              	.LVL47:
 558              	.LBB120:
 559              	.LBB121:
 560              	.LBB122:
 561              	.LBB123:
 562              		.loc 5 140 0
 563 0010 94E80900 		ldm	r4, {r0, r3}
 564              	.LVL48:
 565              	.LBE123:
 566              	.LBE122:
 567              		.loc 5 172 0
 568 0014 2169     		ldr	r1, [r4, #16]
 569              	.LBB125:
 570              	.LBB124:
ARM GAS  C:\cygwin64\tmp\ccghwiVh.s 			page 11


 571              		.loc 5 140 0
 572 0016 1A1A     		subs	r2, r3, r0
 573              	.LBE124:
 574              	.LBE125:
 575              		.loc 5 172 0
 576 0018 C1EBA201 		rsb	r1, r1, r2, asr #2
 577              	.LBE121:
 578              	.LBE120:
 579              		.loc 1 332 0
 580 001c 0029     		cmp	r1, #0
 581 001e 14DD     		ble	.L20
 582              	.LVL49:
 583              	.LBB126:
 584              	.LBB127:
 585              		.loc 1 333 0
 586 0020 E268     		ldr	r2, [r4, #12]
 587 0022 043A     		subs	r2, r2, #4
 588 0024 9042     		cmp	r0, r2
 589              		.loc 1 334 0
 590 0026 8ABF     		itet	hi
 591 0028 043B     		subhi	r3, r3, #4
 592              		.loc 1 333 0
 593 002a E260     		strls	r2, [r4, #12]
 594              		.loc 1 334 0
 595 002c E360     		strhi	r3, [r4, #12]
 596              		.loc 1 336 0
 597 002e E368     		ldr	r3, [r4, #12]
 598 0030 1D60     		str	r5, [r3]
 599              		.loc 1 337 0
 600 0032 2369     		ldr	r3, [r4, #16]
 601 0034 0133     		adds	r3, r3, #1
 602              		.loc 1 340 0
 603 0036 04F12000 		add	r0, r4, #32
 604              		.loc 1 337 0
 605 003a 2361     		str	r3, [r4, #16]
 606              		.loc 1 340 0
 607 003c 0021     		movs	r1, #0
 608 003e FFF7FEFF 		bl	chThdDequeueNextI
 609              	.LVL50:
 610              		.loc 1 341 0
 611 0042 FFF7FEFF 		bl	chSchRescheduleS
 612              	.LVL51:
 613 0046 0020     		movs	r0, #0
 614 0048 F8BD     		pop	{r3, r4, r5, r6, r7, pc}
 615              	.LVL52:
 616              	.L20:
 617              	.LBE127:
 618              	.LBE126:
 619              		.loc 1 347 0
 620 004a 3946     		mov	r1, r7
 621 004c 3046     		mov	r0, r6
 622 004e FFF7FEFF 		bl	chThdEnqueueTimeoutS
 623              	.LVL53:
 624              		.loc 1 348 0
 625 0052 0028     		cmp	r0, #0
 626 0054 DAD0     		beq	.L23
 627 0056 F8BD     		pop	{r3, r4, r5, r6, r7, pc}
ARM GAS  C:\cygwin64\tmp\ccghwiVh.s 			page 12


 628              	.LVL54:
 629              	.L24:
 630              		.loc 1 328 0
 631 0058 6FF00100 		mvn	r0, #1
 632              		.loc 1 351 0
 633 005c F8BD     		pop	{r3, r4, r5, r6, r7, pc}
 634              		.cfi_endproc
 635              	.LFE253:
 636              		.size	chMBPostAheadS, .-chMBPostAheadS
 637              		.section	.text.chMBPostAhead,"ax",%progbits
 638              		.align	1
 639              		.global	chMBPostAhead
 640              		.syntax unified
 641              		.thumb
 642              		.thumb_func
 643              		.fpu fpv4-sp-d16
 644              		.type	chMBPostAhead, %function
 645              	chMBPostAhead:
 646              	.LFB252:
 647              		.loc 1 290 0
 648              		.cfi_startproc
 649              		@ args = 0, pretend = 0, frame = 0
 650              		@ frame_needed = 0, uses_anonymous_args = 0
 651              	.LVL55:
 652 0000 70B5     		push	{r4, r5, r6, lr}
 653              		.cfi_def_cfa_offset 16
 654              		.cfi_offset 4, -16
 655              		.cfi_offset 5, -12
 656              		.cfi_offset 6, -8
 657              		.cfi_offset 14, -4
 658              	.LBB138:
 659              	.LBB139:
 660              	.LBB140:
 661              	.LBB141:
 662              	.LBB142:
 663              		.loc 3 264 0
 664 0002 2023     		movs	r3, #32
 665              	.LBE142:
 666              	.LBE141:
 667              	.LBE140:
 668              	.LBE139:
 669              	.LBE138:
 670              		.loc 1 290 0
 671 0004 0446     		mov	r4, r0
 672 0006 0D46     		mov	r5, r1
 673 0008 1646     		mov	r6, r2
 674              	.LBB147:
 675              	.LBB146:
 676              	.LBB145:
 677              	.LBB144:
 678              	.LBB143:
 679              		.loc 3 264 0
 680              		.syntax unified
 681              	@ 264 "../../modules/ChibiOS/os/common/ext/CMSIS/include/cmsis_gcc.h" 1
 682 000a 83F31188 		MSR basepri, r3
 683              	@ 0 "" 2
 684              	.LVL56:
ARM GAS  C:\cygwin64\tmp\ccghwiVh.s 			page 13


 685              		.thumb
 686              		.syntax unified
 687              	.LBE143:
 688              	.LBE144:
 689              	.LBE145:
 690              		.loc 4 377 0
 691 000e FFF7FEFF 		bl	_stats_start_measure_crit_thd
 692              	.LVL57:
 693              	.LBE146:
 694              	.LBE147:
 695              		.loc 1 294 0
 696 0012 3246     		mov	r2, r6
 697 0014 2946     		mov	r1, r5
 698 0016 2046     		mov	r0, r4
 699 0018 FFF7FEFF 		bl	chMBPostAheadS
 700              	.LVL58:
 701 001c 0446     		mov	r4, r0
 702              	.LVL59:
 703              	.LBB148:
 704              	.LBB149:
 705              		.loc 4 389 0
 706 001e FFF7FEFF 		bl	_stats_stop_measure_crit_thd
 707              	.LVL60:
 708              	.LBB150:
 709              	.LBB151:
 710              	.LBB152:
 711              		.loc 3 264 0
 712 0022 0023     		movs	r3, #0
 713              		.syntax unified
 714              	@ 264 "../../modules/ChibiOS/os/common/ext/CMSIS/include/cmsis_gcc.h" 1
 715 0024 83F31188 		MSR basepri, r3
 716              	@ 0 "" 2
 717              	.LVL61:
 718              		.thumb
 719              		.syntax unified
 720              	.LBE152:
 721              	.LBE151:
 722              	.LBE150:
 723              	.LBE149:
 724              	.LBE148:
 725              		.loc 1 298 0
 726 0028 2046     		mov	r0, r4
 727 002a 70BD     		pop	{r4, r5, r6, pc}
 728              		.cfi_endproc
 729              	.LFE252:
 730              		.size	chMBPostAhead, .-chMBPostAhead
 731              		.section	.text.chMBPostAheadI,"ax",%progbits
 732              		.align	1
 733              		.global	chMBPostAheadI
 734              		.syntax unified
 735              		.thumb
 736              		.thumb_func
 737              		.fpu fpv4-sp-d16
 738              		.type	chMBPostAheadI, %function
 739              	chMBPostAheadI:
 740              	.LFB254:
 741              		.loc 1 368 0
ARM GAS  C:\cygwin64\tmp\ccghwiVh.s 			page 14


 742              		.cfi_startproc
 743              		@ args = 0, pretend = 0, frame = 0
 744              		@ frame_needed = 0, uses_anonymous_args = 0
 745              	.LVL62:
 746 0000 38B5     		push	{r3, r4, r5, lr}
 747              		.cfi_def_cfa_offset 16
 748              		.cfi_offset 3, -16
 749              		.cfi_offset 4, -12
 750              		.cfi_offset 5, -8
 751              		.cfi_offset 14, -4
 752              		.loc 1 374 0
 753 0002 037D     		ldrb	r3, [r0, #20]	@ zero_extendqisi2
 754 0004 CBB9     		cbnz	r3, .L32
 755              	.LVL63:
 756              	.LBB157:
 757              	.LBB158:
 758              	.LBB159:
 759              	.LBB160:
 760              		.loc 5 140 0
 761 0006 4368     		ldr	r3, [r0, #4]
 762 0008 0468     		ldr	r4, [r0]
 763              	.LVL64:
 764              	.LBE160:
 765              	.LBE159:
 766              		.loc 5 172 0
 767 000a 0269     		ldr	r2, [r0, #16]
 768              	.LBB162:
 769              	.LBB161:
 770              		.loc 5 140 0
 771 000c 1D1B     		subs	r5, r3, r4
 772              	.LBE161:
 773              	.LBE162:
 774              		.loc 5 172 0
 775 000e C2EBA502 		rsb	r2, r2, r5, asr #2
 776              	.LBE158:
 777              	.LBE157:
 778              		.loc 1 379 0
 779 0012 002A     		cmp	r2, #0
 780 0014 14DD     		ble	.L33
 781              		.loc 1 380 0
 782 0016 C268     		ldr	r2, [r0, #12]
 783 0018 043A     		subs	r2, r2, #4
 784 001a A242     		cmp	r2, r4
 785              		.loc 1 381 0
 786 001c 36BF     		itet	cc
 787 001e 043B     		subcc	r3, r3, #4
 788              		.loc 1 380 0
 789 0020 C260     		strcs	r2, [r0, #12]
 790              		.loc 1 381 0
 791 0022 C360     		strcc	r3, [r0, #12]
 792              		.loc 1 383 0
 793 0024 C368     		ldr	r3, [r0, #12]
 794 0026 1960     		str	r1, [r3]
 795              		.loc 1 384 0
 796 0028 0369     		ldr	r3, [r0, #16]
 797 002a 0133     		adds	r3, r3, #1
 798 002c 0361     		str	r3, [r0, #16]
ARM GAS  C:\cygwin64\tmp\ccghwiVh.s 			page 15


 799              		.loc 1 387 0
 800 002e 0021     		movs	r1, #0
 801              	.LVL65:
 802 0030 2030     		adds	r0, r0, #32
 803              	.LVL66:
 804 0032 FFF7FEFF 		bl	chThdDequeueNextI
 805              	.LVL67:
 806              		.loc 1 389 0
 807 0036 0020     		movs	r0, #0
 808 0038 38BD     		pop	{r3, r4, r5, pc}
 809              	.LVL68:
 810              	.L32:
 811              		.loc 1 375 0
 812 003a 6FF00100 		mvn	r0, #1
 813              	.LVL69:
 814 003e 38BD     		pop	{r3, r4, r5, pc}
 815              	.LVL70:
 816              	.L33:
 817              		.loc 1 393 0
 818 0040 4FF0FF30 		mov	r0, #-1
 819              	.LVL71:
 820              		.loc 1 394 0
 821 0044 38BD     		pop	{r3, r4, r5, pc}
 822              		.cfi_endproc
 823              	.LFE254:
 824              		.size	chMBPostAheadI, .-chMBPostAheadI
 825              		.section	.text.chMBFetchS,"ax",%progbits
 826              		.align	1
 827              		.global	chMBFetchS
 828              		.syntax unified
 829              		.thumb
 830              		.thumb_func
 831              		.fpu fpv4-sp-d16
 832              		.type	chMBFetchS, %function
 833              	chMBFetchS:
 834              	.LFB256:
 835              		.loc 1 444 0
 836              		.cfi_startproc
 837              		@ args = 0, pretend = 0, frame = 0
 838              		@ frame_needed = 0, uses_anonymous_args = 0
 839              	.LVL72:
 840 0000 F8B5     		push	{r3, r4, r5, r6, r7, lr}
 841              		.cfi_def_cfa_offset 24
 842              		.cfi_offset 3, -24
 843              		.cfi_offset 4, -20
 844              		.cfi_offset 5, -16
 845              		.cfi_offset 6, -12
 846              		.cfi_offset 7, -8
 847              		.cfi_offset 14, -4
 848              		.loc 1 444 0
 849 0002 0446     		mov	r4, r0
 850 0004 0F46     		mov	r7, r1
 851 0006 1646     		mov	r6, r2
 852              		.loc 1 472 0
 853 0008 00F12005 		add	r5, r0, #32
 854              	.LVL73:
 855              	.L38:
ARM GAS  C:\cygwin64\tmp\ccghwiVh.s 			page 16


 856              		.loc 1 452 0
 857 000c 237D     		ldrb	r3, [r4, #20]	@ zero_extendqisi2
 858 000e FBB9     		cbnz	r3, .L39
 859              	.LVL74:
 860              		.loc 1 457 0
 861 0010 2369     		ldr	r3, [r4, #16]
 862 0012 002B     		cmp	r3, #0
 863 0014 15DD     		ble	.L36
 864              	.LVL75:
 865              	.LBB167:
 866              	.LBB168:
 867              		.loc 1 458 0
 868 0016 E268     		ldr	r2, [r4, #12]
 869 0018 131D     		adds	r3, r2, #4
 870 001a 1268     		ldr	r2, [r2]
 871 001c E360     		str	r3, [r4, #12]
 872 001e 3A60     		str	r2, [r7]
 873              		.loc 1 459 0
 874 0020 6268     		ldr	r2, [r4, #4]
 875 0022 9342     		cmp	r3, r2
 876              		.loc 1 460 0
 877 0024 24BF     		itt	cs
 878 0026 2368     		ldrcs	r3, [r4]
 879 0028 E360     		strcs	r3, [r4, #12]
 880              		.loc 1 462 0
 881 002a 2369     		ldr	r3, [r4, #16]
 882 002c 013B     		subs	r3, r3, #1
 883              		.loc 1 465 0
 884 002e 04F11800 		add	r0, r4, #24
 885              		.loc 1 462 0
 886 0032 2361     		str	r3, [r4, #16]
 887              		.loc 1 465 0
 888 0034 0021     		movs	r1, #0
 889 0036 FFF7FEFF 		bl	chThdDequeueNextI
 890              	.LVL76:
 891              		.loc 1 466 0
 892 003a FFF7FEFF 		bl	chSchRescheduleS
 893              	.LVL77:
 894 003e 0020     		movs	r0, #0
 895 0040 F8BD     		pop	{r3, r4, r5, r6, r7, pc}
 896              	.LVL78:
 897              	.L36:
 898              	.LBE168:
 899              	.LBE167:
 900              		.loc 1 472 0
 901 0042 3146     		mov	r1, r6
 902 0044 2846     		mov	r0, r5
 903 0046 FFF7FEFF 		bl	chThdEnqueueTimeoutS
 904              	.LVL79:
 905              		.loc 1 473 0
 906 004a 0028     		cmp	r0, #0
 907 004c DED0     		beq	.L38
 908 004e F8BD     		pop	{r3, r4, r5, r6, r7, pc}
 909              	.LVL80:
 910              	.L39:
 911              		.loc 1 453 0
 912 0050 6FF00100 		mvn	r0, #1
ARM GAS  C:\cygwin64\tmp\ccghwiVh.s 			page 17


 913              		.loc 1 476 0
 914 0054 F8BD     		pop	{r3, r4, r5, r6, r7, pc}
 915              		.cfi_endproc
 916              	.LFE256:
 917              		.size	chMBFetchS, .-chMBFetchS
 918              		.section	.text.chMBFetch,"ax",%progbits
 919              		.align	1
 920              		.global	chMBFetch
 921              		.syntax unified
 922              		.thumb
 923              		.thumb_func
 924              		.fpu fpv4-sp-d16
 925              		.type	chMBFetch, %function
 926              	chMBFetch:
 927              	.LFB255:
 928              		.loc 1 415 0
 929              		.cfi_startproc
 930              		@ args = 0, pretend = 0, frame = 0
 931              		@ frame_needed = 0, uses_anonymous_args = 0
 932              	.LVL81:
 933 0000 70B5     		push	{r4, r5, r6, lr}
 934              		.cfi_def_cfa_offset 16
 935              		.cfi_offset 4, -16
 936              		.cfi_offset 5, -12
 937              		.cfi_offset 6, -8
 938              		.cfi_offset 14, -4
 939              	.LBB179:
 940              	.LBB180:
 941              	.LBB181:
 942              	.LBB182:
 943              	.LBB183:
 944              		.loc 3 264 0
 945 0002 2023     		movs	r3, #32
 946              	.LBE183:
 947              	.LBE182:
 948              	.LBE181:
 949              	.LBE180:
 950              	.LBE179:
 951              		.loc 1 415 0
 952 0004 0446     		mov	r4, r0
 953 0006 0D46     		mov	r5, r1
 954 0008 1646     		mov	r6, r2
 955              	.LBB188:
 956              	.LBB187:
 957              	.LBB186:
 958              	.LBB185:
 959              	.LBB184:
 960              		.loc 3 264 0
 961              		.syntax unified
 962              	@ 264 "../../modules/ChibiOS/os/common/ext/CMSIS/include/cmsis_gcc.h" 1
 963 000a 83F31188 		MSR basepri, r3
 964              	@ 0 "" 2
 965              	.LVL82:
 966              		.thumb
 967              		.syntax unified
 968              	.LBE184:
 969              	.LBE185:
ARM GAS  C:\cygwin64\tmp\ccghwiVh.s 			page 18


 970              	.LBE186:
 971              		.loc 4 377 0
 972 000e FFF7FEFF 		bl	_stats_start_measure_crit_thd
 973              	.LVL83:
 974              	.LBE187:
 975              	.LBE188:
 976              		.loc 1 419 0
 977 0012 3246     		mov	r2, r6
 978 0014 2946     		mov	r1, r5
 979 0016 2046     		mov	r0, r4
 980 0018 FFF7FEFF 		bl	chMBFetchS
 981              	.LVL84:
 982 001c 0446     		mov	r4, r0
 983              	.LVL85:
 984              	.LBB189:
 985              	.LBB190:
 986              		.loc 4 389 0
 987 001e FFF7FEFF 		bl	_stats_stop_measure_crit_thd
 988              	.LVL86:
 989              	.LBB191:
 990              	.LBB192:
 991              	.LBB193:
 992              		.loc 3 264 0
 993 0022 0023     		movs	r3, #0
 994              		.syntax unified
 995              	@ 264 "../../modules/ChibiOS/os/common/ext/CMSIS/include/cmsis_gcc.h" 1
 996 0024 83F31188 		MSR basepri, r3
 997              	@ 0 "" 2
 998              	.LVL87:
 999              		.thumb
 1000              		.syntax unified
 1001              	.LBE193:
 1002              	.LBE192:
 1003              	.LBE191:
 1004              	.LBE190:
 1005              	.LBE189:
 1006              		.loc 1 423 0
 1007 0028 2046     		mov	r0, r4
 1008 002a 70BD     		pop	{r4, r5, r6, pc}
 1009              		.cfi_endproc
 1010              	.LFE255:
 1011              		.size	chMBFetch, .-chMBFetch
 1012              		.section	.text.chMBFetchI,"ax",%progbits
 1013              		.align	1
 1014              		.global	chMBFetchI
 1015              		.syntax unified
 1016              		.thumb
 1017              		.thumb_func
 1018              		.fpu fpv4-sp-d16
 1019              		.type	chMBFetchI, %function
 1020              	chMBFetchI:
 1021              	.LFB257:
 1022              		.loc 1 493 0
 1023              		.cfi_startproc
 1024              		@ args = 0, pretend = 0, frame = 0
 1025              		@ frame_needed = 0, uses_anonymous_args = 0
 1026              	.LVL88:
ARM GAS  C:\cygwin64\tmp\ccghwiVh.s 			page 19


 1027 0000 08B5     		push	{r3, lr}
 1028              		.cfi_def_cfa_offset 8
 1029              		.cfi_offset 3, -8
 1030              		.cfi_offset 14, -4
 1031              		.loc 1 499 0
 1032 0002 037D     		ldrb	r3, [r0, #20]	@ zero_extendqisi2
 1033 0004 ABB9     		cbnz	r3, .L46
 1034              	.LVL89:
 1035              		.loc 1 504 0
 1036 0006 0369     		ldr	r3, [r0, #16]
 1037 0008 002B     		cmp	r3, #0
 1038 000a 15DD     		ble	.L47
 1039              		.loc 1 505 0
 1040 000c C268     		ldr	r2, [r0, #12]
 1041 000e 131D     		adds	r3, r2, #4
 1042 0010 1268     		ldr	r2, [r2]
 1043 0012 C360     		str	r3, [r0, #12]
 1044 0014 0A60     		str	r2, [r1]
 1045              		.loc 1 506 0
 1046 0016 4268     		ldr	r2, [r0, #4]
 1047 0018 9342     		cmp	r3, r2
 1048              		.loc 1 507 0
 1049 001a 24BF     		itt	cs
 1050 001c 0368     		ldrcs	r3, [r0]
 1051 001e C360     		strcs	r3, [r0, #12]
 1052              		.loc 1 509 0
 1053 0020 0369     		ldr	r3, [r0, #16]
 1054 0022 013B     		subs	r3, r3, #1
 1055 0024 0361     		str	r3, [r0, #16]
 1056              		.loc 1 512 0
 1057 0026 0021     		movs	r1, #0
 1058              	.LVL90:
 1059 0028 1830     		adds	r0, r0, #24
 1060              	.LVL91:
 1061 002a FFF7FEFF 		bl	chThdDequeueNextI
 1062              	.LVL92:
 1063              		.loc 1 514 0
 1064 002e 0020     		movs	r0, #0
 1065 0030 08BD     		pop	{r3, pc}
 1066              	.LVL93:
 1067              	.L46:
 1068              		.loc 1 500 0
 1069 0032 6FF00100 		mvn	r0, #1
 1070              	.LVL94:
 1071 0036 08BD     		pop	{r3, pc}
 1072              	.LVL95:
 1073              	.L47:
 1074              		.loc 1 518 0
 1075 0038 4FF0FF30 		mov	r0, #-1
 1076              	.LVL96:
 1077              		.loc 1 519 0
 1078 003c 08BD     		pop	{r3, pc}
 1079              		.cfi_endproc
 1080              	.LFE257:
 1081              		.size	chMBFetchI, .-chMBFetchI
 1082              		.text
 1083              	.Letext0:
ARM GAS  C:\cygwin64\tmp\ccghwiVh.s 			page 20


 1084              		.file 6 "c:\\program files (x86)\\gnu tools arm embedded\\6 2017-q2-update\\arm-none-eabi\\include
 1085              		.file 7 "c:\\program files (x86)\\gnu tools arm embedded\\6 2017-q2-update\\arm-none-eabi\\include
 1086              		.file 8 "../../modules/ChibiOS/os/common/ports/ARMCMx/compilers/GCC/chtypes.h"
 1087              		.file 9 "../../modules/ChibiOS/os/rt/include/chsystypes.h"
 1088              		.file 10 "../../modules/ChibiOS/os/common/ext/CMSIS/include/core_cm4.h"
 1089              		.file 11 "../../modules/ChibiOS/os/common/ext/CMSIS/ST/STM32F4xx/system_stm32f4xx.h"
 1090              		.file 12 "../../modules/ChibiOS/os/common/ports/ARMCMx/chcore.h"
 1091              		.file 13 "../../modules/ChibiOS/os/common/ports/ARMCMx/chcore_v7m.h"
 1092              		.file 14 "../../modules/ChibiOS/os/rt/include/chtm.h"
 1093              		.file 15 "../../modules/ChibiOS/os/rt/include/chstats.h"
 1094              		.file 16 "../../modules/ChibiOS/os/rt/include/chsem.h"
 1095              		.file 17 "../../modules/ChibiOS/os/rt/include/chmtx.h"
 1096              		.file 18 "../../modules/ChibiOS/os/rt/include/chregistry.h"
 1097              		.file 19 "../../modules/ChibiOS/os/rt/include/chthreads.h"