ARM GAS  C:\cygwin64\tmp\ccj0RBsU.s 			page 1


   1              		.cpu cortex-m4
   2              		.eabi_attribute 27, 1
   3              		.eabi_attribute 28, 1
   4              		.eabi_attribute 20, 1
   5              		.eabi_attribute 21, 1
   6              		.eabi_attribute 23, 3
   7              		.eabi_attribute 24, 1
   8              		.eabi_attribute 25, 1
   9              		.eabi_attribute 26, 1
  10              		.eabi_attribute 30, 4
  11              		.eabi_attribute 34, 1
  12              		.eabi_attribute 18, 4
  13              		.file	"chmempools.c"
  14              		.text
  15              	.Ltext0:
  16              		.cfi_sections	.debug_frame
  17              		.section	.text.chPoolObjectInit,"ax",%progbits
  18              		.align	1
  19              		.global	chPoolObjectInit
  20              		.syntax unified
  21              		.thumb
  22              		.thumb_func
  23              		.fpu fpv4-sp-d16
  24              		.type	chPoolObjectInit, %function
  25              	chPoolObjectInit:
  26              	.LFB246:
  27              		.file 1 "../../modules/ChibiOS/os/common/oslib/src/chmempools.c"
  28              		.loc 1 76 0
  29              		.cfi_startproc
  30              		@ args = 0, pretend = 0, frame = 0
  31              		@ frame_needed = 0, uses_anonymous_args = 0
  32              		@ link register save eliminated.
  33              	.LVL0:
  34              		.loc 1 80 0
  35 0000 0023     		movs	r3, #0
  36 0002 0360     		str	r3, [r0]
  37              		.loc 1 81 0
  38 0004 4160     		str	r1, [r0, #4]
  39              		.loc 1 82 0
  40 0006 8260     		str	r2, [r0, #8]
  41 0008 7047     		bx	lr
  42              		.cfi_endproc
  43              	.LFE246:
  44              		.size	chPoolObjectInit, .-chPoolObjectInit
  45              		.section	.text.chPoolAllocI,"ax",%progbits
  46              		.align	1
  47              		.global	chPoolAllocI
  48              		.syntax unified
  49              		.thumb
  50              		.thumb_func
  51              		.fpu fpv4-sp-d16
  52              		.type	chPoolAllocI, %function
  53              	chPoolAllocI:
  54              	.LFB248:
  55              		.loc 1 121 0
  56              		.cfi_startproc
  57              		@ args = 0, pretend = 0, frame = 0
ARM GAS  C:\cygwin64\tmp\ccj0RBsU.s 			page 2


  58              		@ frame_needed = 0, uses_anonymous_args = 0
  59              		@ link register save eliminated.
  60              	.LVL1:
  61              		.loc 1 121 0
  62 0000 0346     		mov	r3, r0
  63              		.loc 1 127 0
  64 0002 0068     		ldr	r0, [r0]
  65              	.LVL2:
  66              		.loc 1 129 0
  67 0004 10B1     		cbz	r0, .L3
  68              		.loc 1 130 0
  69 0006 0268     		ldr	r2, [r0]
  70 0008 1A60     		str	r2, [r3]
  71 000a 7047     		bx	lr
  72              	.L3:
  73              		.loc 1 132 0
  74 000c 9A68     		ldr	r2, [r3, #8]
  75 000e 12B1     		cbz	r2, .L2
  76              		.loc 1 133 0
  77 0010 0421     		movs	r1, #4
  78 0012 5868     		ldr	r0, [r3, #4]
  79              	.LVL3:
  80 0014 1047     		bx	r2
  81              	.LVL4:
  82              	.L2:
  83              		.loc 1 138 0
  84 0016 7047     		bx	lr
  85              		.cfi_endproc
  86              	.LFE248:
  87              		.size	chPoolAllocI, .-chPoolAllocI
  88              		.section	.text.chPoolAlloc,"ax",%progbits
  89              		.align	1
  90              		.global	chPoolAlloc
  91              		.syntax unified
  92              		.thumb
  93              		.thumb_func
  94              		.fpu fpv4-sp-d16
  95              		.type	chPoolAlloc, %function
  96              	chPoolAlloc:
  97              	.LFB249:
  98              		.loc 1 150 0
  99              		.cfi_startproc
 100              		@ args = 0, pretend = 0, frame = 0
 101              		@ frame_needed = 0, uses_anonymous_args = 0
 102              	.LVL5:
 103 0000 10B5     		push	{r4, lr}
 104              		.cfi_def_cfa_offset 8
 105              		.cfi_offset 4, -8
 106              		.cfi_offset 14, -4
 107              	.LBB34:
 108              	.LBB35:
 109              	.LBB36:
 110              	.LBB37:
 111              	.LBB38:
 112              		.file 2 "../../modules/ChibiOS/os/common/ext/CMSIS/include/cmsis_gcc.h"
 113              		.loc 2 264 0
 114 0002 2023     		movs	r3, #32
ARM GAS  C:\cygwin64\tmp\ccj0RBsU.s 			page 3


 115              	.LBE38:
 116              	.LBE37:
 117              	.LBE36:
 118              	.LBE35:
 119              	.LBE34:
 120              		.loc 1 150 0
 121 0004 0446     		mov	r4, r0
 122              	.LBB43:
 123              	.LBB42:
 124              	.LBB41:
 125              	.LBB40:
 126              	.LBB39:
 127              		.loc 2 264 0
 128              		.syntax unified
 129              	@ 264 "../../modules/ChibiOS/os/common/ext/CMSIS/include/cmsis_gcc.h" 1
 130 0006 83F31188 		MSR basepri, r3
 131              	@ 0 "" 2
 132              	.LVL6:
 133              		.thumb
 134              		.syntax unified
 135              	.LBE39:
 136              	.LBE40:
 137              	.LBE41:
 138              		.file 3 "../../modules/ChibiOS/os/rt/include/chsys.h"
 139              		.loc 3 377 0
 140 000a FFF7FEFF 		bl	_stats_start_measure_crit_thd
 141              	.LVL7:
 142              	.LBE42:
 143              	.LBE43:
 144              		.loc 1 154 0
 145 000e 2046     		mov	r0, r4
 146 0010 FFF7FEFF 		bl	chPoolAllocI
 147              	.LVL8:
 148 0014 0446     		mov	r4, r0
 149              	.LVL9:
 150              	.LBB44:
 151              	.LBB45:
 152              		.loc 3 389 0
 153 0016 FFF7FEFF 		bl	_stats_stop_measure_crit_thd
 154              	.LVL10:
 155              	.LBB46:
 156              	.LBB47:
 157              	.LBB48:
 158              		.loc 2 264 0
 159 001a 0023     		movs	r3, #0
 160              		.syntax unified
 161              	@ 264 "../../modules/ChibiOS/os/common/ext/CMSIS/include/cmsis_gcc.h" 1
 162 001c 83F31188 		MSR basepri, r3
 163              	@ 0 "" 2
 164              	.LVL11:
 165              		.thumb
 166              		.syntax unified
 167              	.LBE48:
 168              	.LBE47:
 169              	.LBE46:
 170              	.LBE45:
 171              	.LBE44:
ARM GAS  C:\cygwin64\tmp\ccj0RBsU.s 			page 4


 172              		.loc 1 158 0
 173 0020 2046     		mov	r0, r4
 174 0022 10BD     		pop	{r4, pc}
 175              		.cfi_endproc
 176              	.LFE249:
 177              		.size	chPoolAlloc, .-chPoolAlloc
 178              		.section	.text.chPoolFreeI,"ax",%progbits
 179              		.align	1
 180              		.global	chPoolFreeI
 181              		.syntax unified
 182              		.thumb
 183              		.thumb_func
 184              		.fpu fpv4-sp-d16
 185              		.type	chPoolFreeI, %function
 186              	chPoolFreeI:
 187              	.LFB250:
 188              		.loc 1 172 0
 189              		.cfi_startproc
 190              		@ args = 0, pretend = 0, frame = 0
 191              		@ frame_needed = 0, uses_anonymous_args = 0
 192              		@ link register save eliminated.
 193              	.LVL12:
 194              		.loc 1 178 0
 195 0000 0368     		ldr	r3, [r0]
 196 0002 0B60     		str	r3, [r1]
 197              		.loc 1 179 0
 198 0004 0160     		str	r1, [r0]
 199 0006 7047     		bx	lr
 200              		.cfi_endproc
 201              	.LFE250:
 202              		.size	chPoolFreeI, .-chPoolFreeI
 203              		.section	.text.chPoolFree,"ax",%progbits
 204              		.align	1
 205              		.global	chPoolFree
 206              		.syntax unified
 207              		.thumb
 208              		.thumb_func
 209              		.fpu fpv4-sp-d16
 210              		.type	chPoolFree, %function
 211              	chPoolFree:
 212              	.LFB251:
 213              		.loc 1 194 0
 214              		.cfi_startproc
 215              		@ args = 0, pretend = 0, frame = 0
 216              		@ frame_needed = 0, uses_anonymous_args = 0
 217              	.LVL13:
 218 0000 38B5     		push	{r3, r4, r5, lr}
 219              		.cfi_def_cfa_offset 16
 220              		.cfi_offset 3, -16
 221              		.cfi_offset 4, -12
 222              		.cfi_offset 5, -8
 223              		.cfi_offset 14, -4
 224              		.loc 1 194 0
 225 0002 0446     		mov	r4, r0
 226 0004 0D46     		mov	r5, r1
 227              	.LBB61:
 228              	.LBB62:
ARM GAS  C:\cygwin64\tmp\ccj0RBsU.s 			page 5


 229              	.LBB63:
 230              	.LBB64:
 231              	.LBB65:
 232              		.loc 2 264 0
 233 0006 2023     		movs	r3, #32
 234              		.syntax unified
 235              	@ 264 "../../modules/ChibiOS/os/common/ext/CMSIS/include/cmsis_gcc.h" 1
 236 0008 83F31188 		MSR basepri, r3
 237              	@ 0 "" 2
 238              	.LVL14:
 239              		.thumb
 240              		.syntax unified
 241              	.LBE65:
 242              	.LBE64:
 243              	.LBE63:
 244              		.loc 3 377 0
 245 000c FFF7FEFF 		bl	_stats_start_measure_crit_thd
 246              	.LVL15:
 247              	.LBE62:
 248              	.LBE61:
 249              	.LBB66:
 250              	.LBB67:
 251              		.loc 1 178 0
 252 0010 2368     		ldr	r3, [r4]
 253 0012 2B60     		str	r3, [r5]
 254              		.loc 1 179 0
 255 0014 2560     		str	r5, [r4]
 256              	.LVL16:
 257              	.LBE67:
 258              	.LBE66:
 259              	.LBB68:
 260              	.LBB69:
 261              		.loc 3 389 0
 262 0016 FFF7FEFF 		bl	_stats_stop_measure_crit_thd
 263              	.LVL17:
 264              	.LBB70:
 265              	.LBB71:
 266              	.LBB72:
 267              		.loc 2 264 0
 268 001a 0023     		movs	r3, #0
 269              		.syntax unified
 270              	@ 264 "../../modules/ChibiOS/os/common/ext/CMSIS/include/cmsis_gcc.h" 1
 271 001c 83F31188 		MSR basepri, r3
 272              	@ 0 "" 2
 273              	.LVL18:
 274              		.thumb
 275              		.syntax unified
 276 0020 38BD     		pop	{r3, r4, r5, pc}
 277              	.LBE72:
 278              	.LBE71:
 279              	.LBE70:
 280              	.LBE69:
 281              	.LBE68:
 282              		.cfi_endproc
 283              	.LFE251:
 284              		.size	chPoolFree, .-chPoolFree
 285              		.section	.text.chPoolLoadArray,"ax",%progbits
ARM GAS  C:\cygwin64\tmp\ccj0RBsU.s 			page 6


 286              		.align	1
 287              		.global	chPoolLoadArray
 288              		.syntax unified
 289              		.thumb
 290              		.thumb_func
 291              		.fpu fpv4-sp-d16
 292              		.type	chPoolLoadArray, %function
 293              	chPoolLoadArray:
 294              	.LFB247:
 295              		.loc 1 98 0
 296              		.cfi_startproc
 297              		@ args = 0, pretend = 0, frame = 0
 298              		@ frame_needed = 0, uses_anonymous_args = 0
 299              	.LVL19:
 300 0000 70B5     		push	{r4, r5, r6, lr}
 301              		.cfi_def_cfa_offset 16
 302              		.cfi_offset 4, -16
 303              		.cfi_offset 5, -12
 304              		.cfi_offset 6, -8
 305              		.cfi_offset 14, -4
 306 0002 0646     		mov	r6, r0
 307 0004 0D46     		mov	r5, r1
 308 0006 1446     		mov	r4, r2
 309              	.LVL20:
 310              	.L12:
 311              		.loc 1 102 0
 312 0008 04B9     		cbnz	r4, .L13
 313              		.loc 1 109 0
 314 000a 70BD     		pop	{r4, r5, r6, pc}
 315              	.LVL21:
 316              	.L13:
 317              	.LBB73:
 318              	.LBB74:
 319              		.file 4 "../../modules/ChibiOS/os/common/oslib/include/chmempools.h"
 320              		.loc 4 186 0
 321 000c 2946     		mov	r1, r5
 322 000e 3046     		mov	r0, r6
 323 0010 FFF7FEFF 		bl	chPoolFree
 324              	.LVL22:
 325              	.LBE74:
 326              	.LBE73:
 327              		.loc 1 105 0
 328 0014 7368     		ldr	r3, [r6, #4]
 329              		.loc 1 107 0
 330 0016 013C     		subs	r4, r4, #1
 331              	.LVL23:
 332              		.loc 1 105 0
 333 0018 1D44     		add	r5, r5, r3
 334              	.LVL24:
 335 001a F5E7     		b	.L12
 336              		.cfi_endproc
 337              	.LFE247:
 338              		.size	chPoolLoadArray, .-chPoolLoadArray
 339              		.section	.text.chGuardedPoolObjectInit,"ax",%progbits
 340              		.align	1
 341              		.global	chGuardedPoolObjectInit
 342              		.syntax unified
ARM GAS  C:\cygwin64\tmp\ccj0RBsU.s 			page 7


 343              		.thumb
 344              		.thumb_func
 345              		.fpu fpv4-sp-d16
 346              		.type	chGuardedPoolObjectInit, %function
 347              	chGuardedPoolObjectInit:
 348              	.LFB252:
 349              		.loc 1 212 0
 350              		.cfi_startproc
 351              		@ args = 0, pretend = 0, frame = 0
 352              		@ frame_needed = 0, uses_anonymous_args = 0
 353              		@ link register save eliminated.
 354              	.LVL25:
 355              	.LBB75:
 356              	.LBB76:
 357              		.loc 1 80 0
 358 0000 0023     		movs	r3, #0
 359              		.loc 1 81 0
 360 0002 0161     		str	r1, [r0, #16]
 361              		.loc 1 80 0
 362 0004 C360     		str	r3, [r0, #12]
 363              		.loc 1 82 0
 364 0006 4361     		str	r3, [r0, #20]
 365              	.LVL26:
 366              	.LBE76:
 367              	.LBE75:
 368              		.loc 1 215 0
 369 0008 1946     		mov	r1, r3
 370              	.LVL27:
 371 000a FFF7FEBF 		b	chSemObjectInit
 372              	.LVL28:
 373              		.cfi_endproc
 374              	.LFE252:
 375              		.size	chGuardedPoolObjectInit, .-chGuardedPoolObjectInit
 376              		.section	.text.chGuardedPoolAllocTimeoutS,"ax",%progbits
 377              		.align	1
 378              		.global	chGuardedPoolAllocTimeoutS
 379              		.syntax unified
 380              		.thumb
 381              		.thumb_func
 382              		.fpu fpv4-sp-d16
 383              		.type	chGuardedPoolAllocTimeoutS, %function
 384              	chGuardedPoolAllocTimeoutS:
 385              	.LFB254:
 386              		.loc 1 260 0
 387              		.cfi_startproc
 388              		@ args = 0, pretend = 0, frame = 0
 389              		@ frame_needed = 0, uses_anonymous_args = 0
 390              	.LVL29:
 391 0000 10B5     		push	{r4, lr}
 392              		.cfi_def_cfa_offset 8
 393              		.cfi_offset 4, -8
 394              		.cfi_offset 14, -4
 395              		.loc 1 260 0
 396 0002 0446     		mov	r4, r0
 397              		.loc 1 263 0
 398 0004 FFF7FEFF 		bl	chSemWaitTimeoutS
 399              	.LVL30:
ARM GAS  C:\cygwin64\tmp\ccj0RBsU.s 			page 8


 400              		.loc 1 264 0
 401 0008 28B9     		cbnz	r0, .L16
 402              		.loc 1 268 0
 403 000a 04F10C00 		add	r0, r4, #12
 404              	.LVL31:
 405              		.loc 1 269 0
 406 000e BDE81040 		pop	{r4, lr}
 407              		.cfi_remember_state
 408              		.cfi_restore 14
 409              		.cfi_restore 4
 410              		.cfi_def_cfa_offset 0
 411              	.LVL32:
 412              		.loc 1 268 0
 413 0012 FFF7FEBF 		b	chPoolAllocI
 414              	.LVL33:
 415              	.L16:
 416              		.cfi_restore_state
 417              		.loc 1 269 0
 418 0016 0020     		movs	r0, #0
 419              	.LVL34:
 420 0018 10BD     		pop	{r4, pc}
 421              		.cfi_endproc
 422              	.LFE254:
 423              		.size	chGuardedPoolAllocTimeoutS, .-chGuardedPoolAllocTimeoutS
 424              		.section	.text.chGuardedPoolAllocTimeout,"ax",%progbits
 425              		.align	1
 426              		.global	chGuardedPoolAllocTimeout
 427              		.syntax unified
 428              		.thumb
 429              		.thumb_func
 430              		.fpu fpv4-sp-d16
 431              		.type	chGuardedPoolAllocTimeout, %function
 432              	chGuardedPoolAllocTimeout:
 433              	.LFB255:
 434              		.loc 1 287 0
 435              		.cfi_startproc
 436              		@ args = 0, pretend = 0, frame = 0
 437              		@ frame_needed = 0, uses_anonymous_args = 0
 438              	.LVL35:
 439 0000 38B5     		push	{r3, r4, r5, lr}
 440              		.cfi_def_cfa_offset 16
 441              		.cfi_offset 3, -16
 442              		.cfi_offset 4, -12
 443              		.cfi_offset 5, -8
 444              		.cfi_offset 14, -4
 445              		.loc 1 287 0
 446 0002 0446     		mov	r4, r0
 447 0004 0D46     		mov	r5, r1
 448              	.LBB87:
 449              	.LBB88:
 450              	.LBB89:
 451              	.LBB90:
 452              	.LBB91:
 453              		.loc 2 264 0
 454 0006 2023     		movs	r3, #32
 455              		.syntax unified
 456              	@ 264 "../../modules/ChibiOS/os/common/ext/CMSIS/include/cmsis_gcc.h" 1
ARM GAS  C:\cygwin64\tmp\ccj0RBsU.s 			page 9


 457 0008 83F31188 		MSR basepri, r3
 458              	@ 0 "" 2
 459              	.LVL36:
 460              		.thumb
 461              		.syntax unified
 462              	.LBE91:
 463              	.LBE90:
 464              	.LBE89:
 465              		.loc 3 377 0
 466 000c FFF7FEFF 		bl	_stats_start_measure_crit_thd
 467              	.LVL37:
 468              	.LBE88:
 469              	.LBE87:
 470              		.loc 1 291 0
 471 0010 2946     		mov	r1, r5
 472 0012 2046     		mov	r0, r4
 473 0014 FFF7FEFF 		bl	chGuardedPoolAllocTimeoutS
 474              	.LVL38:
 475 0018 0446     		mov	r4, r0
 476              	.LVL39:
 477              	.LBB92:
 478              	.LBB93:
 479              		.loc 3 389 0
 480 001a FFF7FEFF 		bl	_stats_stop_measure_crit_thd
 481              	.LVL40:
 482              	.LBB94:
 483              	.LBB95:
 484              	.LBB96:
 485              		.loc 2 264 0
 486 001e 0023     		movs	r3, #0
 487              		.syntax unified
 488              	@ 264 "../../modules/ChibiOS/os/common/ext/CMSIS/include/cmsis_gcc.h" 1
 489 0020 83F31188 		MSR basepri, r3
 490              	@ 0 "" 2
 491              	.LVL41:
 492              		.thumb
 493              		.syntax unified
 494              	.LBE96:
 495              	.LBE95:
 496              	.LBE94:
 497              	.LBE93:
 498              	.LBE92:
 499              		.loc 1 295 0
 500 0024 2046     		mov	r0, r4
 501 0026 38BD     		pop	{r3, r4, r5, pc}
 502              		.cfi_endproc
 503              	.LFE255:
 504              		.size	chGuardedPoolAllocTimeout, .-chGuardedPoolAllocTimeout
 505              		.section	.text.chGuardedPoolFreeI,"ax",%progbits
 506              		.align	1
 507              		.global	chGuardedPoolFreeI
 508              		.syntax unified
 509              		.thumb
 510              		.thumb_func
 511              		.fpu fpv4-sp-d16
 512              		.type	chGuardedPoolFreeI, %function
 513              	chGuardedPoolFreeI:
ARM GAS  C:\cygwin64\tmp\ccj0RBsU.s 			page 10


 514              	.LFB256:
 515              		.loc 1 309 0
 516              		.cfi_startproc
 517              		@ args = 0, pretend = 0, frame = 0
 518              		@ frame_needed = 0, uses_anonymous_args = 0
 519              		@ link register save eliminated.
 520              	.LVL42:
 521              	.LBB97:
 522              	.LBB98:
 523              		.loc 1 178 0
 524 0000 C268     		ldr	r2, [r0, #12]
 525 0002 0A60     		str	r2, [r1]
 526              		.loc 1 179 0
 527 0004 C160     		str	r1, [r0, #12]
 528              	.LVL43:
 529              	.LBE98:
 530              	.LBE97:
 531              		.loc 1 312 0
 532 0006 FFF7FEBF 		b	chSemSignalI
 533              	.LVL44:
 534              		.cfi_endproc
 535              	.LFE256:
 536              		.size	chGuardedPoolFreeI, .-chGuardedPoolFreeI
 537              		.section	.text.chGuardedPoolFree,"ax",%progbits
 538              		.align	1
 539              		.global	chGuardedPoolFree
 540              		.syntax unified
 541              		.thumb
 542              		.thumb_func
 543              		.fpu fpv4-sp-d16
 544              		.type	chGuardedPoolFree, %function
 545              	chGuardedPoolFree:
 546              	.LFB257:
 547              		.loc 1 327 0
 548              		.cfi_startproc
 549              		@ args = 0, pretend = 0, frame = 0
 550              		@ frame_needed = 0, uses_anonymous_args = 0
 551              	.LVL45:
 552 0000 38B5     		push	{r3, r4, r5, lr}
 553              		.cfi_def_cfa_offset 16
 554              		.cfi_offset 3, -16
 555              		.cfi_offset 4, -12
 556              		.cfi_offset 5, -8
 557              		.cfi_offset 14, -4
 558              		.loc 1 327 0
 559 0002 0446     		mov	r4, r0
 560 0004 0D46     		mov	r5, r1
 561              	.LBB109:
 562              	.LBB110:
 563              	.LBB111:
 564              	.LBB112:
 565              	.LBB113:
 566              		.loc 2 264 0
 567 0006 2023     		movs	r3, #32
 568              		.syntax unified
 569              	@ 264 "../../modules/ChibiOS/os/common/ext/CMSIS/include/cmsis_gcc.h" 1
 570 0008 83F31188 		MSR basepri, r3
ARM GAS  C:\cygwin64\tmp\ccj0RBsU.s 			page 11


 571              	@ 0 "" 2
 572              	.LVL46:
 573              		.thumb
 574              		.syntax unified
 575              	.LBE113:
 576              	.LBE112:
 577              	.LBE111:
 578              		.loc 3 377 0
 579 000c FFF7FEFF 		bl	_stats_start_measure_crit_thd
 580              	.LVL47:
 581              	.LBE110:
 582              	.LBE109:
 583              		.loc 1 330 0
 584 0010 2946     		mov	r1, r5
 585 0012 2046     		mov	r0, r4
 586 0014 FFF7FEFF 		bl	chGuardedPoolFreeI
 587              	.LVL48:
 588              		.loc 1 331 0
 589 0018 FFF7FEFF 		bl	chSchRescheduleS
 590              	.LVL49:
 591              	.LBB114:
 592              	.LBB115:
 593              		.loc 3 389 0
 594 001c FFF7FEFF 		bl	_stats_stop_measure_crit_thd
 595              	.LVL50:
 596              	.LBB116:
 597              	.LBB117:
 598              	.LBB118:
 599              		.loc 2 264 0
 600 0020 0023     		movs	r3, #0
 601              		.syntax unified
 602              	@ 264 "../../modules/ChibiOS/os/common/ext/CMSIS/include/cmsis_gcc.h" 1
 603 0022 83F31188 		MSR basepri, r3
 604              	@ 0 "" 2
 605              	.LVL51:
 606              		.thumb
 607              		.syntax unified
 608 0026 38BD     		pop	{r3, r4, r5, pc}
 609              	.LBE118:
 610              	.LBE117:
 611              	.LBE116:
 612              	.LBE115:
 613              	.LBE114:
 614              		.cfi_endproc
 615              	.LFE257:
 616              		.size	chGuardedPoolFree, .-chGuardedPoolFree
 617              		.section	.text.chGuardedPoolLoadArray,"ax",%progbits
 618              		.align	1
 619              		.global	chGuardedPoolLoadArray
 620              		.syntax unified
 621              		.thumb
 622              		.thumb_func
 623              		.fpu fpv4-sp-d16
 624              		.type	chGuardedPoolLoadArray, %function
 625              	chGuardedPoolLoadArray:
 626              	.LFB253:
 627              		.loc 1 231 0
ARM GAS  C:\cygwin64\tmp\ccj0RBsU.s 			page 12


 628              		.cfi_startproc
 629              		@ args = 0, pretend = 0, frame = 0
 630              		@ frame_needed = 0, uses_anonymous_args = 0
 631              	.LVL52:
 632 0000 70B5     		push	{r4, r5, r6, lr}
 633              		.cfi_def_cfa_offset 16
 634              		.cfi_offset 4, -16
 635              		.cfi_offset 5, -12
 636              		.cfi_offset 6, -8
 637              		.cfi_offset 14, -4
 638 0002 0646     		mov	r6, r0
 639 0004 0D46     		mov	r5, r1
 640 0006 1446     		mov	r4, r2
 641              	.LVL53:
 642              	.L21:
 643              		.loc 1 235 0
 644 0008 04B9     		cbnz	r4, .L22
 645              		.loc 1 242 0
 646 000a 70BD     		pop	{r4, r5, r6, pc}
 647              	.LVL54:
 648              	.L22:
 649              	.LBB119:
 650              	.LBB120:
 651              		.loc 4 228 0
 652 000c 2946     		mov	r1, r5
 653 000e 3046     		mov	r0, r6
 654 0010 FFF7FEFF 		bl	chGuardedPoolFree
 655              	.LVL55:
 656              	.LBE120:
 657              	.LBE119:
 658              		.loc 1 238 0
 659 0014 3369     		ldr	r3, [r6, #16]
 660              		.loc 1 240 0
 661 0016 013C     		subs	r4, r4, #1
 662              	.LVL56:
 663              		.loc 1 238 0
 664 0018 1D44     		add	r5, r5, r3
 665              	.LVL57:
 666 001a F5E7     		b	.L21
 667              		.cfi_endproc
 668              	.LFE253:
 669              		.size	chGuardedPoolLoadArray, .-chGuardedPoolLoadArray
 670              		.text
 671              	.Letext0:
 672              		.file 5 "c:\\program files (x86)\\gnu tools arm embedded\\6 2017-q2-update\\lib\\gcc\\arm-none-eab
 673              		.file 6 "c:\\program files (x86)\\gnu tools arm embedded\\6 2017-q2-update\\arm-none-eabi\\include
 674              		.file 7 "c:\\program files (x86)\\gnu tools arm embedded\\6 2017-q2-update\\arm-none-eabi\\include
 675              		.file 8 "../../modules/ChibiOS/os/common/ports/ARMCMx/compilers/GCC/chtypes.h"
 676              		.file 9 "../../modules/ChibiOS/os/rt/include/chsystypes.h"
 677              		.file 10 "../../modules/ChibiOS/os/rt/include/chschd.h"
 678              		.file 11 "../../modules/ChibiOS/os/common/ext/CMSIS/include/core_cm4.h"
 679              		.file 12 "../../modules/ChibiOS/os/common/ext/CMSIS/ST/STM32F4xx/system_stm32f4xx.h"
 680              		.file 13 "../../modules/ChibiOS/os/common/ports/ARMCMx/chcore.h"
 681              		.file 14 "../../modules/ChibiOS/os/common/ports/ARMCMx/chcore_v7m.h"
 682              		.file 15 "../../modules/ChibiOS/os/rt/include/chtm.h"
 683              		.file 16 "../../modules/ChibiOS/os/rt/include/chstats.h"
 684              		.file 17 "../../modules/ChibiOS/os/rt/include/chsem.h"
ARM GAS  C:\cygwin64\tmp\ccj0RBsU.s 			page 13


 685              		.file 18 "../../modules/ChibiOS/os/rt/include/chmtx.h"
 686              		.file 19 "../../modules/ChibiOS/os/rt/include/chregistry.h"
 687              		.file 20 "../../modules/ChibiOS/os/common/oslib/include/chmemcore.h"