ARM GAS  C:\cygwin64\tmp\ccj0RBsU.s 			page 1


   1              		.cpu cortex-m4
   2              		.eabi_attribute 27, 1
   3              		.eabi_attribute 28, 1
   4              		.eabi_attribute 20, 1
   5              		.eabi_attribute 21, 1
   6              		.eabi_attribute 23, 3
   7              		.eabi_attribute 24, 1
   8              		.eabi_attribute 25, 1
   9              		.eabi_attribute 26, 1
  10              		.eabi_attribute 30, 4
  11              		.eabi_attribute 34, 1
  12              		.eabi_attribute 18, 4
  13              		.file	"chmempools.c"
  14              		.text
  15              	.Ltext0:
  16              		.cfi_sections	.debug_frame
  17              		.section	.text.chPoolObjectInit,"ax",%progbits
  18              		.align	1
  19              		.global	chPoolObjectInit
  20              		.syntax unified
  21              		.thumb
  22              		.thumb_func
  23              		.fpu fpv4-sp-d16
  24              		.type	chPoolObjectInit, %function
  25              	chPoolObjectInit:
  26              	.LFB246:
  27              		.file 1 "../../modules/ChibiOS/os/common/oslib/src/chmempools.c"
  28              		.loc 1 76 0
  29              		.cfi_startproc
  30              		@ args = 0, pretend = 0, frame = 0
  31              		@ frame_needed = 0, uses_anonymous_args = 0
  32              		@ link register save eliminated.
  33              	.LVL0:
  34              		.loc 1 80 0
  35 0000 0023     		movs	r3, #0
  36 0002 0360     		str	r3, [r0]
  37              		.loc 1 81 0
  38 0004 4160     		str	r1, [r0, #4]
  39              		.loc 1 82 0
  40 0006 8260     		str	r2, [r0, #8]
  41 0008 7047     		bx	lr
  42              		.cfi_endproc
  43              	.LFE246:
  44              		.size	chPoolObjectInit, .-chPoolObjectInit
  45              		.section	.text.chPoolAllocI,"ax",%progbits
  46              		.align	1
  47              		.global	chPoolAllocI
  48              		.syntax unified
  49              		.thumb
  50              		.thumb_func
  51              		.fpu fpv4-sp-d16
  52              		.type	chPoolAllocI, %function
  53              	chPoolAllocI:
  54              	.LFB248:
  55              		.loc 1 121 0
  56              		.cfi_startproc
  57              		@ args = 0, pretend = 0, frame = 0
ARM GAS  C:\cygwin64\tmp\ccj0RBsU.s 			page 2


  58              		@ frame_needed = 0, uses_anonymous_args = 0
  59              		@ link register save eliminated.
  60              	.LVL1:
  61              		.loc 1 121 0
  62 0000 0346     		mov	r3, r0
  63              		.loc 1 127 0
  64 0002 0068     		ldr	r0, [r0]
  65              	.LVL2:
  66              		.loc 1 129 0
  67 0004 10B1     		cbz	r0, .L3
  68              		.loc 1 130 0
  69 0006 0268     		ldr	r2, [r0]
  70 0008 1A60     		str	r2, [r3]
  71 000a 7047     		bx	lr
  72              	.L3:
  73              		.loc 1 132 0
  74 000c 9A68     		ldr	r2, [r3, #8]
  75 000e 12B1     		cbz	r2, .L2
  76              		.loc 1 133 0
  77 0010 0421     		movs	r1, #4
  78 0012 5868     		ldr	r0, [r3, #4]
  79              	.LVL3:
  80 0014 1047     		bx	r2
  81              	.LVL4:
  82              	.L2:
  83              		.loc 1 138 0
  84 0016 7047     		bx	lr
  85              		.cfi_endproc
  86              	.LFE248:
  87              		.size	chPoolAllocI, .-chPoolAllocI
  88              		.section	.text.chPoolAlloc,"ax",%progbits
  89              		.align	1
  90              		.global	chPoolAlloc
  91              		.syntax unified
  92              		.thumb
  93              		.thumb_func
  94              		.fpu fpv4-sp-d16
  95              		.type	chPoolAlloc, %function
  96              	chPoolAlloc:
  97              	.LFB249:
  98              		.loc 1 150 0
  99              		.cfi_startproc
 100              		@ args = 0, pretend = 0, frame = 0
 101              		@ frame_needed = 0, uses_anonymous_args = 0
 102              	.LVL5:
 103 0000 10B5     		push	{r4, lr}
 104              		.cfi_def_cfa_offset 8
 105              		.cfi_offset 4, -8
 106              		.cfi_offset 14, -4
 107              	.LBB34:
 108              	.LBB35:
 109              	.LBB36:
 110              	.LBB37:
 111              	.LBB38:
 112              		.file 2 "../../modules/ChibiOS/os/common/ext/CMSIS/include/cmsis_gcc.h"
 113              		.loc 2 264 0
 114 0002 2023     		movs	r3, #32
ARM GAS  C:\cygwin64\tmp\ccj0RBsU.s 			page 3


 115              	.LBE38:
 116              	.LBE37:
 117              	.LBE36:
 118              	.LBE35:
 119              	.LBE34:
 120              		.loc 1 150 0
 121 0004 0446     		mov	r4, r0
 122              	.LBB43:
 123              	.LBB42:
 124              	.LBB41:
 125              	.LBB40:
 126              	.LBB39:
 127              		.loc 2 264 0
 128              		.syntax unified
 129              	@ 264 "../../modules/ChibiOS/os/common/ext/CMSIS/include/cmsis_gcc.h" 1
 130 0006 83F31188 		MSR basepri, r3
 131              	@ 0 "" 2
 132              	.LVL6:
 133              		.thumb
 134              		.syntax unified
 135              	.LBE39:
 136              	.LBE40:
 137              	.LBE41:
 138              		.file 3 "../../modules/ChibiOS/os/rt/include/chsys.h"
 139              		.loc 3 377 0
 140 000a FFF7FEFF 		bl	_stats_start_measure_crit_thd
 141              	.LVL7:
 142              	.LBE42:
 143              	.LBE43:
 144              		.loc 1 154 0
 145 000e 2046     		mov	r0, r4
 146 0010 FFF7FEFF 		bl	chPoolAllocI
 147              	.LVL8:
 148 0014 0446     		mov	r4, r0
 149              	.LVL9:
 150              	.LBB44:
 151              	.LBB45:
 152              		.loc 3 389 0
 153 0016 FFF7FEFF 		bl	_stats_stop_measure_crit_thd
 154              	.LVL10:
 155              	.LBB46:
 156              	.LBB47:
 157              	.LBB48:
 158              		.loc 2 264 0
 159 001a 0023     		movs	r3, #0
 160              		.syntax unified
 161              	@ 264 "../../modules/ChibiOS/os/common/ext/CMSIS/include/cmsis_gcc.h" 1
 162 001c 83F31188 		MSR basepri, r3
 163              	@ 0 "" 2
 164              	.LVL11:
 165              		.thumb
 166              		.syntax unified
 167              	.LBE48:
 168              	.LBE47:
 169              	.LBE46:
 170              	.LBE45:
 171              	.LBE44:
ARM GAS  C:\cygwin64\tmp\ccj0RBsU.s 			page 4


 172              		.loc 1 158 0
 173 0020 2046     		mov	r0, r4
 174 0022 10BD     		pop	{r4, pc}
 175              		.cfi_endproc
 176              	.LFE249:
 177              		.size	chPoolAlloc, .-chPoolAlloc
 178              		.section	.text.chPoolFreeI,"ax",%progbits
 179              		.align	1
 180              		.global	chPoolFreeI
 181              		.syntax unified
 182              		.thumb
 183              		.thumb_func
 184              		.fpu fpv4-sp-d16
 185              		.type	chPoolFreeI, %function
 186              	chPoolFreeI:
 187              	.LFB250:
 188              		.loc 1 172 0
 189              		.cfi_startproc
 190              		@ args = 0, pretend = 0, frame = 0
 191              		@ frame_needed = 0, uses_anonymous_args = 0
 192              		@ link register save eliminated.
 193              	.LVL12:
 194              		.loc 1 178 0
 195 0000 0368     		ldr	r3, [r0]
 196 0002 0B60     		str	r3, [r1]
 197              		.loc 1 179 0
 198 0004 0160     		str	r1, [r0]
 199 0006 7047     		bx	lr
 200              		.cfi_endproc
 201              	.LFE250:
 202              		.size	chPoolFreeI, .-chPoolFreeI
 203              		.section	.text.chPoolFree,"ax",%progbits
 204              		.align	1
 205              		.global	chPoolFree
 206              		.syntax unified
 207              		.thumb
 208              		.thumb_func
 209              		.fpu fpv4-sp-d16
 210              		.type	chPoolFree, %function
 211              	chPoolFree:
 212              	.LFB251:
 213              		.loc 1 194 0
 214              		.cfi_startproc
 215              		@ args = 0, pretend = 0, frame = 0
 216              		@ frame_needed = 0, uses_anonymous_args = 0
 217              	.LVL13:
 218 0000 38B5     		push	{r3, r4, r5, lr}
 219              		.cfi_def_cfa_offset 16
 220              		.cfi_offset 3, -16
 221              		.cfi_offset 4, -12
 222              		.cfi_offset 5, -8
 223              		.cfi_offset 14, -4
 224              		.loc 1 194 0
 225 0002 0446     		mov	r4, r0
 226 0004 0D46     		mov	r5, r1
 227              	.LBB61:
 228              	.LBB62:
ARM GAS  C:\cygwin64\tmp\ccj0RBsU.s 			page 5


 229              	.LBB63:
 230              	.LBB64:
 231              	.LBB65:
 232              		.loc 2 264 0
 233 0006 2023     		movs	r3, #32
 234              		.syntax unified
 235              	@ 264 "../../modules/ChibiOS/os/common/ext/CMSIS/include/cmsis_gcc.h" 1
 236 0008 83F31188 		MSR basepri, r3
 237              	@ 0 "" 2
 238              	.LVL14:
 239              		.thumb
 240              		.syntax unified
 241              	.LBE65:
 242              	.LBE64:
 243              	.LBE63:
 244              		.loc 3 377 0
 245 000c FFF7FEFF 		bl	_stats_start_measure_crit_thd
 246              	.LVL15:
 247              	.LBE62:
 248              	.LBE61:
 249              	.LBB66:
 250              	.LBB67:
 251              		.loc 1 178 0
 252 0010 2368     		ldr	r3, [r4]
 253 0012 2B60     		str	r3, [r5]
 254              		.loc 1 179 0
 255 0014 2560     		str	r5, [r4]
 256              	.LVL16:
 257              	.LBE67:
 258              	.LBE66:
 259              	.LBB68:
 260              	.LBB69:
 261              		.loc 3 389 0
 262 0016 FFF7FEFF 		bl	_stats_stop_measure_crit_thd
 263              	.LVL17:
 264              	.LBB70:
 265              	.LBB71:
 266              	.LBB72:
 267              		.loc 2 264 0
 268 001a 0023     		movs	r3, #0
 269              		.syntax unified
 270              	@ 264 "../../modules/ChibiOS/os/common/ext/CMSIS/include/cmsis_gcc.h" 1
 271 001c 83F31188 		MSR basepri, r3
 272              	@ 0 "" 2
 273              	.LVL18:
 274              		.thumb
 275              		.syntax unified
 276 0020 38BD     		pop	{r3, r4, r5, pc}
 277              	.LBE72:
 278              	.LBE71:
 279              	.LBE70:
 280              	.LBE69:
 281              	.LBE68:
 282              		.cfi_endproc
 283              	.LFE251:
 284              		.size	chPoolFree, .-chPoolFree
 285              		.section	.text.chPoolLoadArray,"ax",%progbits
ARM GAS  C:\cygwin64\tmp\ccj0RBsU.s 			page 6


 286              		.align	1
 287              		.global	chPoolLoadArray
 288              		.syntax unified
 289              		.thumb
 290              		.thumb_func
 291              		.fpu fpv4-sp-d16
 292              		.type	chPoolLoadArray, %function
 293              	chPoolLoadArray:
 294              	.LFB247:
 295              		.loc 1 98 0
 296              		.cfi_startproc
 297              		@ args = 0, pretend = 0, frame = 0
 298              		@ frame_needed = 0, uses_anonymous_args = 0
 299              	.LVL19:
 300 0000 70B5     		push	{r4, r5, r6, lr}
 301              		.cfi_def_cfa_offset 16
 302              		.cfi_offset 4, -16
 303              		.cfi_offset 5, -12
 304              		.cfi_offset 6, -8
 305              		.cfi_offset 14, -4
 306 0002 0646     		mov	r6, r0
 307 0004 0D46     		mov	r5, r1
 308 0006 1446     		mov	r4, r2
 309              	.LVL20:
 310              	.L12:
 311              		.loc 1 102 0
 312 0008 04B9     		cbnz	r4, .L13
 313              		.loc 1 109 0
 314 000a 70BD     		pop	{r4, r5, r6, pc}
 315              	.LVL21:
 316              	.L13:
 317              	.LBB73:
 318              	.LBB74:
 319              		.file 4 "../../modules/ChibiOS/os/common/oslib/include/chmempools.h"
 320              		.loc 4 186 0
 321 000c 2946     		mov	r1, r5
 322 000e 3046     		mov	r0, r6
 323 0010 FFF7FEFF 		bl	chPoolFree
 324              	.LVL22:
 325              	.LBE74:
 326              	.LBE73:
 327              		.loc 1 105 0
 328 0014 7368     		ldr	r3, [r6, #4]
 329              		.loc 1 107 0
 330 0016 013C     		subs	r4, r4, #1
 331              	.LVL23:
 332              		.loc 1 105 0
 333 0018 1D44     		add	r5, r5, r3
 334              	.LVL24:
 335 001a F5E7     		b	.L12
 336              		.cfi_endproc
 337              	.LFE247:
 338              		.size	chPoolLoadArray, .-chPoolLoadArray
 339              		.section	.text.chGuardedPoolObjectInit,"ax",%progbits
 340              		.align	1
 341              		.global	chGuardedPoolObjectInit
 342              		.syntax unified
ARM GAS  C:\cygwin64\tmp\ccj0RBsU.s 			page 7


 343              		.thumb
 344              		.thumb_func
 345              		.fpu fpv4-sp-d16
 346              		.type	chGuardedPoolObjectInit, %function
 347              	chGuardedPoolObjectInit:
 348              	.LFB252:
 349              		.loc 1 212 0
 350              		.cfi_startproc
 351              		@ args = 0, pretend = 0, frame = 0
 352              		@ frame_needed = 0, uses_anonymous_args = 0
 353              		@ link register save eliminated.
 354              	.LVL25:
 355              	.LBB75:
 356              	.LBB76:
 357              		.loc 1 80 0
 358 0000 0023     		movs	r3, #0
 359              		.loc 1 81 0
 360 0002 0161     		str	r1, [r0, #16]
 361              		.loc 1 80 0
 362 0004 C360     		str	r3, [r0, #12]
 363              		.loc 1 82 0
 364 0006 4361     		str	r3, [r0, #20]
 365              	.LVL26:
 366              	.LBE76:
 367              	.LBE75:
 368              		.loc 1 215 0
 369 0008 1946     		mov	r1, r3
 370              	.LVL27:
 371 000a FFF7FEBF 		b	chSemObjectInit
 372              	.LVL28:
 373              		.cfi_endproc
 374              	.LFE252:
 375              		.size	chGuardedPoolObjectInit, .-chGuardedPoolObjectInit
 376              		.section	.text.chGuardedPoolAllocTimeoutS,"ax",%progbits
 377              		.align	1
 378              		.global	chGuardedPoolAllocTimeoutS
 379              		.syntax unified
 380              		.thumb
 381              		.thumb_func
 382              		.fpu fpv4-sp-d16
 383              		.type	chGuardedPoolAllocTimeoutS, %function
 384              	chGuardedPoolAllocTimeoutS:
 385              	.LFB254:
 386              		.loc 1 260 0
 387              		.cfi_startproc
 388              		@ args = 0, pretend = 0, frame = 0
 389              		@ frame_needed = 0, uses_anonymous_args = 0
 390              	.LVL29:
 391 0000 10B5     		push	{r4, lr}
 392              		.cfi_def_cfa_offset 8
 393              		.cfi_offset 4, -8
 394              		.cfi_offset 14, -4
 395              		.loc 1 260 0
 396 0002 0446     		mov	r4, r0
 397              		.loc 1 263 0
 398 0004 FFF7FEFF 		bl	chSemWaitTimeoutS
 399              	.LVL30:
ARM GAS  C:\cygwin64\tmp\ccj0RBsU.s 			page 8


 400              		.loc 1 264 0
 401 0008 28B9     		cbnz	r0, .L16
 402              		.loc 1 268 0
 403 000a 04F10C00 		add	r0, r4, #12
 404              	.LVL31:
 405              		.loc 1 269 0
 406 000e BDE81040 		pop	{r4, lr}
 407              		.cfi_remember_state
 408              		.cfi_restore 14
 409              		.cfi_restore 4
 410              		.cfi_def_cfa_offset 0
 411              	.LVL32:
 412              		.loc 1 268 0
 413 0012 FFF7FEBF 		b	chPoolAllocI
 414              	.LVL33:
 415              	.L16:
 416              		.cfi_restore_state
 417              		.loc 1 269 0
 418 0016 0020     		movs	r0, #0
 419              	.LVL34:
 420 0018 10BD     		pop	{r4, pc}
 421              		.cfi_endproc
 422              	.LFE254:
 423              		.size	chGuardedPoolAllocTimeoutS, .-chGuardedPoolAllocTimeoutS
 424              		.section	.text.chGuardedPoolAllocTimeout,"ax",%progbits
 425              		.align	1
 426              		.global	chGuardedPoolAllocTimeout
 427              		.syntax unified
 428              		.thumb
 429              		.thumb_func
 430              		.fpu fpv4-sp-d16
 431              		.type	chGuardedPoolAllocTimeout, %function
 432              	chGuardedPoolAllocTimeout:
 433              	.LFB255:
 434              		.loc 1 287 0
 435              		.cfi_startproc
 436              		@ args = 0, pretend = 0, frame = 0
 437              		@ frame_needed = 0, uses_anonymous_args = 0
 438              	.LVL35:
 439 0000 38B5     		push	{r3, r4, r5, lr}
 440              		.cfi_def_cfa_offset 16
 441              		.cfi_offset 3, -16
 442              		.cfi_offset 4, -12
 443              		.cfi_offset 5, -8
 444              		.cfi_offset 14, -4
 445              		.loc 1 287 0
 446 0002 0446     		mov	r4, r0
 447 0004 0D46     		mov	r5, r1
 448              	.LBB87:
 449              	.LBB88:
 450              	.LBB89:
 451              	.LBB90:
 452              	.LBB91:
 453              		.loc 2 264 0
 454 0006 2023     		movs	r3, #32
 455              		.syntax unified
 456              	@ 264 "../../modules/ChibiOS/os/common/ext/CMSIS/include/cmsis_gcc.h" 1
ARM GAS  C:\cygwin64\tmp\ccj0RBsU.s 			page 9


 457 0008 83F31188 		MSR basepri, r3
 458              	@ 0 "" 2
 459              	.LVL36:
 460              		.thumb
 461              		.syntax unified
 462              	.LBE91:
 463              	.LBE90:
 464              	.LBE89:
 465              		.loc 3 377 0
 466 000c FFF7FEFF 		bl	_stats_start_measure_crit_thd
 467              	.LVL37:
 468              	.LBE88:
 469              	.LBE87:
 470              		.loc 1 291 0
 471 0010 2946     		mov	r1, r5
 472 0012 2046     		mov	r0, r4
 473 0014 FFF7FEFF 		bl	chGuardedPoolAllocTimeoutS
 474              	.LVL38:
 475 0018 0446     		mov	r4, r0
 476              	.LVL39:
 477              	.LBB92:
 478              	.LBB93:
 479              		.loc 3 389 0
 480 001a FFF7FEFF 		bl	_stats_stop_measure_crit_thd
 481              	.LVL40:
 482              	.LBB94:
 483              	.LBB95:
 484              	.LBB96:
 485              		.loc 2 264 0
 486 001e 0023     		movs	r3, #0
 487              		.syntax unified
 488              	@ 264 "../../modules/ChibiOS/os/common/ext/CMSIS/include/cmsis_gcc.h" 1
 489 0020 83F31188 		MSR basepri, r3
 490              	@ 0 "" 2
 491              	.LVL41:
 492              		.thumb
 493              		.syntax unified
 494              	.LBE96:
 495              	.LBE95:
 496              	.LBE94:
 497              	.LBE93:
 498              	.LBE92:
 499              		.loc 1 295 0
 500 0024 2046     		mov	r0, r4
 501 0026 38BD     		pop	{r3, r4, r5, pc}
 502              		.cfi_endproc
 503              	.LFE255:
 504              		.size	chGuardedPoolAllocTimeout, .-chGuardedPoolAllocTimeout
 505              		.section	.text.chGuardedPoolFreeI,"ax",%progbits
 506              		.align	1
 507              		.global	chGuardedPoolFreeI
 508              		.syntax unified
 509              		.thumb
 510              		.thumb_func
 511              		.fpu fpv4-sp-d16
 512              		.type	chGuardedPoolFreeI, %function
 513              	chGuardedPoolFreeI:
ARM GAS  C:\cygwin64\tmp\ccj0RBsU.s 			page 10


 514              	.LFB256:
 515              		.loc 1 309 0
 516              		.cfi_startproc
 517              		@ args = 0, pretend = 0, frame = 0
 518              		@ frame_needed = 0, uses_anonymous_args = 0
 519              		@ link register save eliminated.
 520              	.LVL42:
 521              	.LBB97:
 522              	.LBB98:
 523              		.loc 1 178 0
 524 0000 C268     		ldr	r2, [r0, #12]
 525 0002 0A60     		str	r2, [r1]
 526              		.loc 1 179 0
 527 0004 C160     		str	r1, [r0, #12]
 528              	.LVL43:
 529              	.LBE98:
 530              	.LBE97:
 531              		.loc 1 312 0
 532 0006 FFF7FEBF 		b	chSemSignalI
 533              	.LVL44:
 534              		.cfi_endproc
 535              	.LFE256:
 536              		.size	chGuardedPoolFreeI, .-chGuardedPoolFreeI
 537              		.section	.text.chGuardedPoolFree,"ax",%progbits
 538              		.align	1
 539              		.global	chGuardedPoolFree
 540              		.syntax unified
 541              		.thumb
 542              		.thumb_func
 543              		.fpu fpv4-sp-d16
 544              		.type	chGuardedPoolFree, %function
 545              	chGuardedPoolFree:
 546              	.LFB257:
 547              		.loc 1 327 0
 548              		.cfi_startproc
 549              		@ args = 0, pretend = 0, frame = 0
 550              		@ frame_needed = 0, uses_anonymous_args = 0
 551              	.LVL45:
 552 0000 38B5     		push	{r3, r4, r5, lr}
 553              		.cfi_def_cfa_offset 16
 554              		.cfi_offset 3, -16
 555              		.cfi_offset 4, -12
 556              		.cfi_offset 5, -8
 557              		.cfi_offset 14, -4
 558              		.loc 1 327 0
 559 0002 0446     		mov	r4, r0
 560 0004 0D46     		mov	r5, r1
 561              	.LBB109:
 562              	.LBB110:
 563              	.LBB111:
 564              	.LBB112:
 565              	.LBB113:
 566              		.loc 2 264 0
 567 0006 2023     		movs	r3, #32
 568              		.syntax unified
 569              	@ 264 "../../modules/ChibiOS/os/common/ext/CMSIS/include/cmsis_gcc.h" 1
 570 0008 83F31188 		MSR basepri, r3
ARM GAS  C:\cygwin64\tmp\ccj0RBsU.s 			page 11


 571              	@ 0 "" 2
 572              	.LVL46:
 573              		.thumb
 574              		.syntax unified
 575              	.LBE113:
 576              	.LBE112:
 577              	.LBE111:
 578              		.loc 3 377 0
 579 000c FFF7FEFF 		bl	_stats_start_measure_crit_thd
 580              	.LVL47:
 581              	.LBE110:
 582              	.LBE109:
 583              		.loc 1 330 0
 584 0010 2946     		mov	r1, r5
 585 0012 2046     		mov	r0, r4
 586 0014 FFF7FEFF 		bl	chGuardedPoolFreeI
 587              	.LVL48:
 588              		.loc 1 331 0
 589 0018 FFF7FEFF 		bl	chSchRescheduleS
 590              	.LVL49:
 591              	.LBB114:
 592              	.LBB115:
 593              		.loc 3 389 0
 594 001c FFF7FEFF 		bl	_stats_stop_measure_crit_thd
 595              	.LVL50:
 596              	.LBB116:
 597              	.LBB117:
 598              	.LBB118:
 599              		.loc 2 264 0
 600 0020 0023     		movs	r3, #0
 601              		.syntax unified
 602              	@ 264 "../../modules/ChibiOS/os/common/ext/CMSIS/include/cmsis_gcc.h" 1
 603 0022 83F31188 		MSR basepri, r3
 604              	@ 0 "" 2
 605              	.LVL51:
 606              		.thumb
 607              		.syntax unified
 608 0026 38BD     		pop	{r3, r4, r5, pc}
 609              	.LBE118:
 610              	.LBE117:
 611              	.LBE116:
 612              	.LBE115:
 613              	.LBE114:
 614              		.cfi_endproc
 615              	.LFE257:
 616              		.size	chGuardedPoolFree, .-chGuardedPoolFree
 617              		.section	.text.chGuardedPoolLoadArray,"ax",%progbits
 618              		.align	1
 619              		.global	chGuardedPoolLoadArray
 620              		.syntax unified
 621              		.thumb
 622              		.thumb_func
 623              		.fpu fpv4-sp-d16
 624              		.type	chGuardedPoolLoadArray, %function
 625              	chGuardedPoolLoadArray:
 626              	.LFB253:
 627              		.loc 1 231 0
ARM GAS  C:\cygwin64\tmp\ccj0RBsU.s 			page 12


 628              		.cfi_startproc
 629              		@ args = 0, pretend = 0, frame = 0
 630              		@ frame_needed = 0, uses_anonymous_args = 0
 631              	.LVL52:
 632 0000 70B5     		push	{r4, r5, r6, lr}
 633              		.cfi_def_cfa_offset 16
 634              		.cfi_offset 4, -16
 635              		.cfi_offset 5, -12
 636              		.cfi_offset 6, -8
 637              		.cfi_offset 14, -4
 638 0002 0646     		mov	r6, r0
 639 0004 0D46     		mov	r5, r1
 640 0006 1446     		mov	r4, r2
 641              	.LVL53:
 642              	.L21:
 643              		.loc 1 235 0
 644 0008 04B9     		cbnz	r4, .L22
 645              		.loc 1 242 0
 646 000a 70BD     		pop	{r4, r5, r6, pc}
 647              	.LVL54:
 648              	.L22:
 649              	.LBB119:
 650              	.LBB120:
 651              		.loc 4 228 0
 652 000c 2946     		mov	r1, r5
 653 000e 3046     		mov	r0, r6
 654 0010 FFF7FEFF 		bl	chGuardedPoolFree
 655              	.LVL55:
 656              	.LBE120:
 657              	.LBE119:
 658              		.loc 1 238 0
 659 0014 3369     		ldr	r3, [r6, #16]
 660              		.loc 1 240 0
 661 0016 013C     		subs	r4, r4, #1
 662              	.LVL56:
 663              		.loc 1 238 0
 664 0018 1D44     		add	r5, r5, r3
 665              	.LVL57:
 666 001a F5E7     		b	.L21
 667              		.cfi_endproc
 668              	.LFE253:
 669              		.size	chGuardedPoolLoadArray, .-chGuardedPoolLoadArray
 670              		.text
 671              	.Letext0:
 672              		.file 5 "c:\\program files (x86)\\gnu tools arm embedded\\6 2017-q2-update\\lib\\gcc\\arm-none-eab
 673              		.file 6 "c:\\program files (x86)\\gnu tools arm embedded\\6 2017-q2-update\\arm-none-eabi\\include
 674              		.file 7 "c:\\program files (x86)\\gnu tools arm embedded\\6 2017-q2-update\\arm-none-eabi\\include
 675              		.file 8 "../../modules/ChibiOS/os/common/ports/ARMCMx/compilers/GCC/chtypes.h"
 676              		.file 9 "../../modules/ChibiOS/os/rt/include/chsystypes.h"
 677              		.file 10 "../../modules/ChibiOS/os/rt/include/chschd.h"
 678              		.file 11 "../../modules/ChibiOS/os/common/ext/CMSIS/include/core_cm4.h"
 679              		.file 12 "../../modules/ChibiOS/os/common/ext/CMSIS/ST/STM32F4xx/system_stm32f4xx.h"
 680              		.file 13 "../../modules/ChibiOS/os/common/ports/ARMCMx/chcore.h"
 681              		.file 14 "../../modules/ChibiOS/os/common/ports/ARMCMx/chcore_v7m.h"
 682              		.file 15 "../../modules/ChibiOS/os/rt/include/chtm.h"
 683              		.file 16 "../../modules/ChibiOS/os/rt/include/chstats.h"
 684              		.file 17 "../../modules/ChibiOS/os/rt/include/chsem.h"
ARM GAS  C:\cygwin64\tmp\ccj0RBsU.s 			page 13


 685              		.file 18 "../../modules/ChibiOS/os/rt/include/chmtx.h"
 686              		.file 19 "../../modules/ChibiOS/os/rt/include/chregistry.h"
 687              		.file 20 "../../modules/ChibiOS/os/common/oslib/include/chmemcore.h"
 688              		.section	.debug_info,"",%progbits
 689              	.Ldebug_info0:
 690 0000 A4120000 		.4byte	0x12a4
 691 0004 0400     		.2byte	0x4
 692 0006 00000000 		.4byte	.Ldebug_abbrev0
 693 000a 04       		.byte	0x4
 694 000b 01       		.uleb128 0x1
 695 000c 85010000 		.4byte	.LASF168
 696 0010 0C       		.byte	0xc
 697 0011 7B070000 		.4byte	.LASF169
 698 0015 16000000 		.4byte	.LASF170
 699 0019 30000000 		.4byte	.Ldebug_ranges0+0x30
 700 001d 00000000 		.4byte	0
 701 0021 00000000 		.4byte	.Ldebug_line0
 702 0025 02       		.uleb128 0x2
 703 0026 04       		.byte	0x4
 704 0027 05       		.byte	0x5
 705 0028 696E7400 		.ascii	"int\000"
 706 002c 03       		.uleb128 0x3
 707 002d 5E000000 		.4byte	.LASF4
 708 0031 05       		.byte	0x5
 709 0032 D8       		.byte	0xd8
 710 0033 37000000 		.4byte	0x37
 711 0037 04       		.uleb128 0x4
 712 0038 04       		.byte	0x4
 713 0039 07       		.byte	0x7
 714 003a 72030000 		.4byte	.LASF0
 715 003e 04       		.uleb128 0x4
 716 003f 08       		.byte	0x8
 717 0040 05       		.byte	0x5
 718 0041 66010000 		.4byte	.LASF1
 719 0045 04       		.uleb128 0x4
 720 0046 08       		.byte	0x8
 721 0047 04       		.byte	0x4
 722 0048 14050000 		.4byte	.LASF2
 723 004c 04       		.uleb128 0x4
 724 004d 01       		.byte	0x1
 725 004e 06       		.byte	0x6
 726 004f 74010000 		.4byte	.LASF3
 727 0053 03       		.uleb128 0x3
 728 0054 88000000 		.4byte	.LASF5
 729 0058 06       		.byte	0x6
 730 0059 2B       		.byte	0x2b
 731 005a 5E000000 		.4byte	0x5e
 732 005e 04       		.uleb128 0x4
 733 005f 01       		.byte	0x1
 734 0060 08       		.byte	0x8
 735 0061 E9050000 		.4byte	.LASF6
 736 0065 04       		.uleb128 0x4
 737 0066 02       		.byte	0x2
 738 0067 05       		.byte	0x5
 739 0068 0D060000 		.4byte	.LASF7
 740 006c 03       		.uleb128 0x3
 741 006d F3060000 		.4byte	.LASF8
ARM GAS  C:\cygwin64\tmp\ccj0RBsU.s 			page 14


 742 0071 06       		.byte	0x6
 743 0072 39       		.byte	0x39
 744 0073 77000000 		.4byte	0x77
 745 0077 04       		.uleb128 0x4
 746 0078 02       		.byte	0x2
 747 0079 07       		.byte	0x7
 748 007a 68070000 		.4byte	.LASF9
 749 007e 03       		.uleb128 0x3
 750 007f 98040000 		.4byte	.LASF10
 751 0083 06       		.byte	0x6
 752 0084 4D       		.byte	0x4d
 753 0085 89000000 		.4byte	0x89
 754 0089 04       		.uleb128 0x4
 755 008a 04       		.byte	0x4
 756 008b 05       		.byte	0x5
 757 008c BD020000 		.4byte	.LASF11
 758 0090 03       		.uleb128 0x3
 759 0091 F7020000 		.4byte	.LASF12
 760 0095 06       		.byte	0x6
 761 0096 4F       		.byte	0x4f
 762 0097 9B000000 		.4byte	0x9b
 763 009b 04       		.uleb128 0x4
 764 009c 04       		.byte	0x4
 765 009d 07       		.byte	0x7
 766 009e BD060000 		.4byte	.LASF13
 767 00a2 03       		.uleb128 0x3
 768 00a3 82050000 		.4byte	.LASF14
 769 00a7 06       		.byte	0x6
 770 00a8 69       		.byte	0x69
 771 00a9 AD000000 		.4byte	0xad
 772 00ad 04       		.uleb128 0x4
 773 00ae 08       		.byte	0x8
 774 00af 07       		.byte	0x7
 775 00b0 EF000000 		.4byte	.LASF15
 776 00b4 03       		.uleb128 0x3
 777 00b5 1E080000 		.4byte	.LASF16
 778 00b9 07       		.byte	0x7
 779 00ba 18       		.byte	0x18
 780 00bb 53000000 		.4byte	0x53
 781 00bf 03       		.uleb128 0x3
 782 00c0 97030000 		.4byte	.LASF17
 783 00c4 07       		.byte	0x7
 784 00c5 24       		.byte	0x24
 785 00c6 6C000000 		.4byte	0x6c
 786 00ca 03       		.uleb128 0x3
 787 00cb E1050000 		.4byte	.LASF18
 788 00cf 07       		.byte	0x7
 789 00d0 2C       		.byte	0x2c
 790 00d1 7E000000 		.4byte	0x7e
 791 00d5 05       		.uleb128 0x5
 792 00d6 CA000000 		.4byte	0xca
 793 00da 03       		.uleb128 0x3
 794 00db 97060000 		.4byte	.LASF19
 795 00df 07       		.byte	0x7
 796 00e0 30       		.byte	0x30
 797 00e1 90000000 		.4byte	0x90
 798 00e5 03       		.uleb128 0x3
ARM GAS  C:\cygwin64\tmp\ccj0RBsU.s 			page 15


 799 00e6 72000000 		.4byte	.LASF20
 800 00ea 07       		.byte	0x7
 801 00eb 3C       		.byte	0x3c
 802 00ec A2000000 		.4byte	0xa2
 803 00f0 03       		.uleb128 0x3
 804 00f1 BD070000 		.4byte	.LASF21
 805 00f5 08       		.byte	0x8
 806 00f6 39       		.byte	0x39
 807 00f7 DA000000 		.4byte	0xda
 808 00fb 03       		.uleb128 0x3
 809 00fc 5D010000 		.4byte	.LASF22
 810 0100 08       		.byte	0x8
 811 0101 3A       		.byte	0x3a
 812 0102 E5000000 		.4byte	0xe5
 813 0106 03       		.uleb128 0x3
 814 0107 51040000 		.4byte	.LASF23
 815 010b 08       		.byte	0x8
 816 010c 3C       		.byte	0x3c
 817 010d B4000000 		.4byte	0xb4
 818 0111 03       		.uleb128 0x3
 819 0112 C6020000 		.4byte	.LASF24
 820 0116 08       		.byte	0x8
 821 0117 3D       		.byte	0x3d
 822 0118 B4000000 		.4byte	0xb4
 823 011c 03       		.uleb128 0x3
 824 011d 98050000 		.4byte	.LASF25
 825 0121 08       		.byte	0x8
 826 0122 3E       		.byte	0x3e
 827 0123 B4000000 		.4byte	0xb4
 828 0127 03       		.uleb128 0x3
 829 0128 CA050000 		.4byte	.LASF26
 830 012c 08       		.byte	0x8
 831 012d 40       		.byte	0x40
 832 012e DA000000 		.4byte	0xda
 833 0132 03       		.uleb128 0x3
 834 0133 15040000 		.4byte	.LASF27
 835 0137 08       		.byte	0x8
 836 0138 41       		.byte	0x41
 837 0139 CA000000 		.4byte	0xca
 838 013d 03       		.uleb128 0x3
 839 013e 83040000 		.4byte	.LASF28
 840 0142 08       		.byte	0x8
 841 0143 43       		.byte	0x43
 842 0144 DA000000 		.4byte	0xda
 843 0148 03       		.uleb128 0x3
 844 0149 6C030000 		.4byte	.LASF29
 845 014d 08       		.byte	0x8
 846 014e 45       		.byte	0x45
 847 014f CA000000 		.4byte	0xca
 848 0153 03       		.uleb128 0x3
 849 0154 2D040000 		.4byte	.LASF30
 850 0158 08       		.byte	0x8
 851 0159 46       		.byte	0x46
 852 015a DA000000 		.4byte	0xda
 853 015e 03       		.uleb128 0x3
 854 015f 0C070000 		.4byte	.LASF31
 855 0163 09       		.byte	0x9
ARM GAS  C:\cygwin64\tmp\ccj0RBsU.s 			page 16


 856 0164 33       		.byte	0x33
 857 0165 DA000000 		.4byte	0xda
 858 0169 03       		.uleb128 0x3
 859 016a FE060000 		.4byte	.LASF32
 860 016e 09       		.byte	0x9
 861 016f 3F       		.byte	0x3f
 862 0170 74010000 		.4byte	0x174
 863 0174 06       		.uleb128 0x6
 864 0175 0B040000 		.4byte	.LASF51
 865 0179 60       		.byte	0x60
 866 017a 0A       		.byte	0xa
 867 017b 9A       		.byte	0x9a
 868 017c 5F020000 		.4byte	0x25f
 869 0180 07       		.uleb128 0x7
 870 0181 E2030000 		.4byte	.LASF33
 871 0185 0A       		.byte	0xa
 872 0186 9B       		.byte	0x9b
 873 0187 94020000 		.4byte	0x294
 874 018b 00       		.byte	0
 875 018c 07       		.uleb128 0x7
 876 018d 70050000 		.4byte	.LASF34
 877 0191 0A       		.byte	0xa
 878 0192 9C       		.byte	0x9c
 879 0193 27010000 		.4byte	0x127
 880 0197 08       		.byte	0x8
 881 0198 08       		.uleb128 0x8
 882 0199 63747800 		.ascii	"ctx\000"
 883 019d 0A       		.byte	0xa
 884 019e 9D       		.byte	0x9d
 885 019f B0040000 		.4byte	0x4b0
 886 01a3 0C       		.byte	0xc
 887 01a4 07       		.uleb128 0x7
 888 01a5 AD040000 		.4byte	.LASF35
 889 01a9 0A       		.byte	0xa
 890 01aa 9F       		.byte	0x9f
 891 01ab 6A020000 		.4byte	0x26a
 892 01af 10       		.byte	0x10
 893 01b0 07       		.uleb128 0x7
 894 01b1 DB060000 		.4byte	.LASF36
 895 01b5 0A       		.byte	0xa
 896 01b6 A0       		.byte	0xa0
 897 01b7 6A020000 		.4byte	0x26a
 898 01bb 14       		.byte	0x14
 899 01bc 07       		.uleb128 0x7
 900 01bd 06040000 		.4byte	.LASF37
 901 01c1 0A       		.byte	0xa
 902 01c2 A7       		.byte	0xa7
 903 01c3 97070000 		.4byte	0x797
 904 01c7 18       		.byte	0x18
 905 01c8 07       		.uleb128 0x7
 906 01c9 CF060000 		.4byte	.LASF38
 907 01cd 0A       		.byte	0xa
 908 01ce B0       		.byte	0xb0
 909 01cf AE070000 		.4byte	0x7ae
 910 01d3 1C       		.byte	0x1c
 911 01d4 07       		.uleb128 0x7
 912 01d5 B7020000 		.4byte	.LASF39
ARM GAS  C:\cygwin64\tmp\ccj0RBsU.s 			page 17


 913 01d9 0A       		.byte	0xa
 914 01da B5       		.byte	0xb5
 915 01db 11010000 		.4byte	0x111
 916 01df 20       		.byte	0x20
 917 01e0 07       		.uleb128 0x7
 918 01e1 3D080000 		.4byte	.LASF40
 919 01e5 0A       		.byte	0xa
 920 01e6 B9       		.byte	0xb9
 921 01e7 06010000 		.4byte	0x106
 922 01eb 21       		.byte	0x21
 923 01ec 07       		.uleb128 0x7
 924 01ed B5050000 		.4byte	.LASF41
 925 01f1 0A       		.byte	0xa
 926 01f2 BE       		.byte	0xbe
 927 01f3 1C010000 		.4byte	0x11c
 928 01f7 22       		.byte	0x22
 929 01f8 09       		.uleb128 0x9
 930 01f9 7500     		.ascii	"u\000"
 931 01fb 0A       		.byte	0xa
 932 01fc 0F01     		.2byte	0x10f
 933 01fe CC060000 		.4byte	0x6cc
 934 0202 24       		.byte	0x24
 935 0203 0A       		.uleb128 0xa
 936 0204 27030000 		.4byte	.LASF42
 937 0208 0A       		.byte	0xa
 938 0209 1401     		.2byte	0x114
 939 020b 70020000 		.4byte	0x270
 940 020f 28       		.byte	0x28
 941 0210 0A       		.uleb128 0xa
 942 0211 AE020000 		.4byte	.LASF43
 943 0215 0A       		.byte	0xa
 944 0216 1A01     		.2byte	0x11a
 945 0218 94020000 		.4byte	0x294
 946 021c 2C       		.byte	0x2c
 947 021d 0A       		.uleb128 0xa
 948 021e 34040000 		.4byte	.LASF44
 949 0222 0A       		.byte	0xa
 950 0223 2001     		.2byte	0x120
 951 0225 3D010000 		.4byte	0x13d
 952 0229 34       		.byte	0x34
 953 022a 0A       		.uleb128 0xa
 954 022b B1080000 		.4byte	.LASF45
 955 022f 0A       		.byte	0xa
 956 0230 2701     		.2byte	0x127
 957 0232 91070000 		.4byte	0x791
 958 0236 38       		.byte	0x38
 959 0237 0A       		.uleb128 0xa
 960 0238 B3040000 		.4byte	.LASF46
 961 023c 0A       		.byte	0xa
 962 023d 2B01     		.2byte	0x12b
 963 023f 27010000 		.4byte	0x127
 964 0243 3C       		.byte	0x3c
 965 0244 0A       		.uleb128 0xa
 966 0245 E8030000 		.4byte	.LASF47
 967 0249 0A       		.byte	0xa
 968 024a 3201     		.2byte	0x132
 969 024c 47030000 		.4byte	0x347
ARM GAS  C:\cygwin64\tmp\ccj0RBsU.s 			page 18


 970 0250 40       		.byte	0x40
 971 0251 0A       		.uleb128 0xa
 972 0252 D4020000 		.4byte	.LASF48
 973 0256 0A       		.byte	0xa
 974 0257 3801     		.2byte	0x138
 975 0259 7D060000 		.4byte	0x67d
 976 025d 48       		.byte	0x48
 977 025e 00       		.byte	0
 978 025f 03       		.uleb128 0x3
 979 0260 EA040000 		.4byte	.LASF49
 980 0264 09       		.byte	0x9
 981 0265 44       		.byte	0x44
 982 0266 6A020000 		.4byte	0x26a
 983 026a 0B       		.uleb128 0xb
 984 026b 04       		.byte	0x4
 985 026c 69010000 		.4byte	0x169
 986 0270 03       		.uleb128 0x3
 987 0271 72080000 		.4byte	.LASF50
 988 0275 09       		.byte	0x9
 989 0276 49       		.byte	0x49
 990 0277 7B020000 		.4byte	0x27b
 991 027b 06       		.uleb128 0x6
 992 027c A7060000 		.4byte	.LASF52
 993 0280 04       		.byte	0x4
 994 0281 0A       		.byte	0xa
 995 0282 88       		.byte	0x88
 996 0283 94020000 		.4byte	0x294
 997 0287 07       		.uleb128 0x7
 998 0288 58010000 		.4byte	.LASF53
 999 028c 0A       		.byte	0xa
 1000 028d 89       		.byte	0x89
 1001 028e 6A020000 		.4byte	0x26a
 1002 0292 00       		.byte	0
 1003 0293 00       		.byte	0
 1004 0294 03       		.uleb128 0x3
 1005 0295 F7070000 		.4byte	.LASF54
 1006 0299 09       		.byte	0x9
 1007 029a 50       		.byte	0x50
 1008 029b 9F020000 		.4byte	0x29f
 1009 029f 06       		.uleb128 0x6
 1010 02a0 A3000000 		.4byte	.LASF55
 1011 02a4 08       		.byte	0x8
 1012 02a5 0A       		.byte	0xa
 1013 02a6 8F       		.byte	0x8f
 1014 02a7 C4020000 		.4byte	0x2c4
 1015 02ab 07       		.uleb128 0x7
 1016 02ac 58010000 		.4byte	.LASF53
 1017 02b0 0A       		.byte	0xa
 1018 02b1 90       		.byte	0x90
 1019 02b2 6A020000 		.4byte	0x26a
 1020 02b6 00       		.byte	0
 1021 02b7 07       		.uleb128 0x7
 1022 02b8 92000000 		.4byte	.LASF56
 1023 02bc 0A       		.byte	0xa
 1024 02bd 91       		.byte	0x91
 1025 02be 6A020000 		.4byte	0x26a
 1026 02c2 04       		.byte	0x4
ARM GAS  C:\cygwin64\tmp\ccj0RBsU.s 			page 19


 1027 02c3 00       		.byte	0
 1028 02c4 03       		.uleb128 0x3
 1029 02c5 44000000 		.4byte	.LASF57
 1030 02c9 09       		.byte	0x9
 1031 02ca 57       		.byte	0x57
 1032 02cb CF020000 		.4byte	0x2cf
 1033 02cf 0C       		.uleb128 0xc
 1034 02d0 75040000 		.4byte	.LASF58
 1035 02d4 1C       		.byte	0x1c
 1036 02d5 0A       		.byte	0xa
 1037 02d6 6A01     		.2byte	0x16a
 1038 02d8 2B030000 		.4byte	0x32b
 1039 02dc 0A       		.uleb128 0xa
 1040 02dd E2030000 		.4byte	.LASF33
 1041 02e1 0A       		.byte	0xa
 1042 02e2 6B01     		.2byte	0x16b
 1043 02e4 94020000 		.4byte	0x294
 1044 02e8 00       		.byte	0
 1045 02e9 0A       		.uleb128 0xa
 1046 02ea 70050000 		.4byte	.LASF34
 1047 02ee 0A       		.byte	0xa
 1048 02ef 6C01     		.2byte	0x16c
 1049 02f1 27010000 		.4byte	0x127
 1050 02f5 08       		.byte	0x8
 1051 02f6 09       		.uleb128 0x9
 1052 02f7 63747800 		.ascii	"ctx\000"
 1053 02fb 0A       		.byte	0xa
 1054 02fc 6E01     		.2byte	0x16e
 1055 02fe B0040000 		.4byte	0x4b0
 1056 0302 0C       		.byte	0xc
 1057 0303 0A       		.uleb128 0xa
 1058 0304 AD040000 		.4byte	.LASF35
 1059 0308 0A       		.byte	0xa
 1060 0309 7101     		.2byte	0x171
 1061 030b 6A020000 		.4byte	0x26a
 1062 030f 10       		.byte	0x10
 1063 0310 0A       		.uleb128 0xa
 1064 0311 DB060000 		.4byte	.LASF36
 1065 0315 0A       		.byte	0xa
 1066 0316 7201     		.2byte	0x172
 1067 0318 6A020000 		.4byte	0x26a
 1068 031c 14       		.byte	0x14
 1069 031d 0A       		.uleb128 0xa
 1070 031e 75050000 		.4byte	.LASF59
 1071 0322 0A       		.byte	0xa
 1072 0323 7501     		.2byte	0x175
 1073 0325 6A020000 		.4byte	0x26a
 1074 0329 18       		.byte	0x18
 1075 032a 00       		.byte	0
 1076 032b 03       		.uleb128 0x3
 1077 032c 16070000 		.4byte	.LASF60
 1078 0330 09       		.byte	0x9
 1079 0331 5C       		.byte	0x5c
 1080 0332 36030000 		.4byte	0x336
 1081 0336 0B       		.uleb128 0xb
 1082 0337 04       		.byte	0x4
 1083 0338 3C030000 		.4byte	0x33c
ARM GAS  C:\cygwin64\tmp\ccj0RBsU.s 			page 20


 1084 033c 0D       		.uleb128 0xd
 1085 033d 47030000 		.4byte	0x347
 1086 0341 0E       		.uleb128 0xe
 1087 0342 47030000 		.4byte	0x347
 1088 0346 00       		.byte	0
 1089 0347 0F       		.uleb128 0xf
 1090 0348 04       		.byte	0x4
 1091 0349 03       		.uleb128 0x3
 1092 034a BA050000 		.4byte	.LASF61
 1093 034e 09       		.byte	0x9
 1094 034f 61       		.byte	0x61
 1095 0350 54030000 		.4byte	0x354
 1096 0354 0C       		.uleb128 0xc
 1097 0355 55060000 		.4byte	.LASF62
 1098 0359 14       		.byte	0x14
 1099 035a 0A       		.byte	0xa
 1100 035b 4501     		.2byte	0x145
 1101 035d A3030000 		.4byte	0x3a3
 1102 0361 0A       		.uleb128 0xa
 1103 0362 58010000 		.4byte	.LASF53
 1104 0366 0A       		.byte	0xa
 1105 0367 4601     		.2byte	0x146
 1106 0369 B4070000 		.4byte	0x7b4
 1107 036d 00       		.byte	0
 1108 036e 0A       		.uleb128 0xa
 1109 036f 92000000 		.4byte	.LASF56
 1110 0373 0A       		.byte	0xa
 1111 0374 4701     		.2byte	0x147
 1112 0376 B4070000 		.4byte	0x7b4
 1113 037a 04       		.byte	0x4
 1114 037b 0A       		.uleb128 0xa
 1115 037c 65000000 		.4byte	.LASF63
 1116 0380 0A       		.byte	0xa
 1117 0381 4801     		.2byte	0x148
 1118 0383 5E010000 		.4byte	0x15e
 1119 0387 08       		.byte	0x8
 1120 0388 0A       		.uleb128 0xa
 1121 0389 CF020000 		.4byte	.LASF64
 1122 038d 0A       		.byte	0xa
 1123 038e 4901     		.2byte	0x149
 1124 0390 2B030000 		.4byte	0x32b
 1125 0394 0C       		.byte	0xc
 1126 0395 09       		.uleb128 0x9
 1127 0396 70617200 		.ascii	"par\000"
 1128 039a 0A       		.byte	0xa
 1129 039b 4B01     		.2byte	0x14b
 1130 039d 47030000 		.4byte	0x347
 1131 03a1 10       		.byte	0x10
 1132 03a2 00       		.byte	0
 1133 03a3 03       		.uleb128 0x3
 1134 03a4 35010000 		.4byte	.LASF65
 1135 03a8 09       		.byte	0x9
 1136 03a9 66       		.byte	0x66
 1137 03aa AE030000 		.4byte	0x3ae
 1138 03ae 0C       		.uleb128 0xc
 1139 03af FD040000 		.4byte	.LASF66
 1140 03b3 10       		.byte	0x10
ARM GAS  C:\cygwin64\tmp\ccj0RBsU.s 			page 21


 1141 03b4 0A       		.byte	0xa
 1142 03b5 5501     		.2byte	0x155
 1143 03b7 F0030000 		.4byte	0x3f0
 1144 03bb 0A       		.uleb128 0xa
 1145 03bc 58010000 		.4byte	.LASF53
 1146 03c0 0A       		.byte	0xa
 1147 03c1 5601     		.2byte	0x156
 1148 03c3 B4070000 		.4byte	0x7b4
 1149 03c7 00       		.byte	0
 1150 03c8 0A       		.uleb128 0xa
 1151 03c9 92000000 		.4byte	.LASF56
 1152 03cd 0A       		.byte	0xa
 1153 03ce 5801     		.2byte	0x158
 1154 03d0 B4070000 		.4byte	0x7b4
 1155 03d4 04       		.byte	0x4
 1156 03d5 0A       		.uleb128 0xa
 1157 03d6 65000000 		.4byte	.LASF63
 1158 03da 0A       		.byte	0xa
 1159 03db 5A01     		.2byte	0x15a
 1160 03dd 5E010000 		.4byte	0x15e
 1161 03e1 08       		.byte	0x8
 1162 03e2 0A       		.uleb128 0xa
 1163 03e3 17060000 		.4byte	.LASF67
 1164 03e7 0A       		.byte	0xa
 1165 03e8 6201     		.2byte	0x162
 1166 03ea 5E010000 		.4byte	0x15e
 1167 03ee 0C       		.byte	0xc
 1168 03ef 00       		.byte	0
 1169 03f0 03       		.uleb128 0x3
 1170 03f1 B4000000 		.4byte	.LASF68
 1171 03f5 09       		.byte	0x9
 1172 03f6 6B       		.byte	0x6b
 1173 03f7 FB030000 		.4byte	0x3fb
 1174 03fb 0C       		.uleb128 0xc
 1175 03fc 17030000 		.4byte	.LASF69
 1176 0400 04       		.byte	0x4
 1177 0401 0A       		.byte	0xa
 1178 0402 7C01     		.2byte	0x17c
 1179 0404 16040000 		.4byte	0x416
 1180 0408 0A       		.uleb128 0xa
 1181 0409 2D070000 		.4byte	.LASF70
 1182 040d 0A       		.byte	0xa
 1183 040e 8401     		.2byte	0x184
 1184 0410 9D070000 		.4byte	0x79d
 1185 0414 00       		.byte	0
 1186 0415 00       		.byte	0
 1187 0416 03       		.uleb128 0x3
 1188 0417 3D040000 		.4byte	.LASF71
 1189 041b 09       		.byte	0x9
 1190 041c 70       		.byte	0x70
 1191 041d 21040000 		.4byte	0x421
 1192 0421 0C       		.uleb128 0xc
 1193 0422 27060000 		.4byte	.LASF72
 1194 0426 D0       		.byte	0xd0
 1195 0427 0A       		.byte	0xa
 1196 0428 9C01     		.2byte	0x19c
 1197 042a 7C040000 		.4byte	0x47c
ARM GAS  C:\cygwin64\tmp\ccj0RBsU.s 			page 22


 1198 042e 0A       		.uleb128 0xa
 1199 042f 13080000 		.4byte	.LASF73
 1200 0433 0A       		.byte	0xa
 1201 0434 A001     		.2byte	0x1a0
 1202 0436 C4020000 		.4byte	0x2c4
 1203 043a 00       		.byte	0
 1204 043b 0A       		.uleb128 0xa
 1205 043c 9B020000 		.4byte	.LASF74
 1206 0440 0A       		.byte	0xa
 1207 0441 A401     		.2byte	0x1a4
 1208 0443 A3030000 		.4byte	0x3a3
 1209 0447 1C       		.byte	0x1c
 1210 0448 09       		.uleb128 0x9
 1211 0449 64626700 		.ascii	"dbg\000"
 1212 044d 0A       		.byte	0xa
 1213 044e A801     		.2byte	0x1a8
 1214 0450 F0030000 		.4byte	0x3f0
 1215 0454 2C       		.byte	0x2c
 1216 0455 0A       		.uleb128 0xa
 1217 0456 22010000 		.4byte	.LASF75
 1218 045a 0A       		.byte	0xa
 1219 045b AC01     		.2byte	0x1ac
 1220 045d 69010000 		.4byte	0x169
 1221 0461 30       		.byte	0x30
 1222 0462 09       		.uleb128 0x9
 1223 0463 746D00   		.ascii	"tm\000"
 1224 0466 0A       		.byte	0xa
 1225 0467 B101     		.2byte	0x1b1
 1226 0469 2F060000 		.4byte	0x62f
 1227 046d 90       		.byte	0x90
 1228 046e 0A       		.uleb128 0xa
 1229 046f 7B000000 		.4byte	.LASF76
 1230 0473 0A       		.byte	0xa
 1231 0474 B701     		.2byte	0x1b7
 1232 0476 C1060000 		.4byte	0x6c1
 1233 047a 98       		.byte	0x98
 1234 047b 00       		.byte	0
 1235 047c 04       		.uleb128 0x4
 1236 047d 04       		.byte	0x4
 1237 047e 07       		.byte	0x7
 1238 047f E1040000 		.4byte	.LASF77
 1239 0483 10       		.uleb128 0x10
 1240 0484 4B010000 		.4byte	.LASF78
 1241 0488 0B       		.byte	0xb
 1242 0489 4407     		.2byte	0x744
 1243 048b D5000000 		.4byte	0xd5
 1244 048f 11       		.uleb128 0x11
 1245 0490 A0030000 		.4byte	.LASF79
 1246 0494 0C       		.byte	0xc
 1247 0495 4C       		.byte	0x4c
 1248 0496 DA000000 		.4byte	0xda
 1249 049a 03       		.uleb128 0x3
 1250 049b 02030000 		.4byte	.LASF80
 1251 049f 0D       		.byte	0xd
 1252 04a0 65       		.byte	0x65
 1253 04a1 47030000 		.4byte	0x347
 1254 04a5 03       		.uleb128 0x3
ARM GAS  C:\cygwin64\tmp\ccj0RBsU.s 			page 23


 1255 04a6 A2040000 		.4byte	.LASF81
 1256 04aa 0D       		.byte	0xd
 1257 04ab 6D       		.byte	0x6d
 1258 04ac E5000000 		.4byte	0xe5
 1259 04b0 06       		.uleb128 0x6
 1260 04b1 37050000 		.4byte	.LASF82
 1261 04b5 04       		.byte	0x4
 1262 04b6 0D       		.byte	0xd
 1263 04b7 89       		.byte	0x89
 1264 04b8 C8040000 		.4byte	0x4c8
 1265 04bc 08       		.uleb128 0x8
 1266 04bd 737000   		.ascii	"sp\000"
 1267 04c0 0D       		.byte	0xd
 1268 04c1 8A       		.byte	0x8a
 1269 04c2 14060000 		.4byte	0x614
 1270 04c6 00       		.byte	0
 1271 04c7 00       		.byte	0
 1272 04c8 0C       		.uleb128 0xc
 1273 04c9 97000000 		.4byte	.LASF83
 1274 04cd 64       		.byte	0x64
 1275 04ce 0E       		.byte	0xe
 1276 04cf 5901     		.2byte	0x159
 1277 04d1 14060000 		.4byte	0x614
 1278 04d5 09       		.uleb128 0x9
 1279 04d6 73313600 		.ascii	"s16\000"
 1280 04da 0E       		.byte	0xe
 1281 04db 5B01     		.2byte	0x15b
 1282 04dd 9A040000 		.4byte	0x49a
 1283 04e1 00       		.byte	0
 1284 04e2 09       		.uleb128 0x9
 1285 04e3 73313700 		.ascii	"s17\000"
 1286 04e7 0E       		.byte	0xe
 1287 04e8 5C01     		.2byte	0x15c
 1288 04ea 9A040000 		.4byte	0x49a
 1289 04ee 04       		.byte	0x4
 1290 04ef 09       		.uleb128 0x9
 1291 04f0 73313800 		.ascii	"s18\000"
 1292 04f4 0E       		.byte	0xe
 1293 04f5 5D01     		.2byte	0x15d
 1294 04f7 9A040000 		.4byte	0x49a
 1295 04fb 08       		.byte	0x8
 1296 04fc 09       		.uleb128 0x9
 1297 04fd 73313900 		.ascii	"s19\000"
 1298 0501 0E       		.byte	0xe
 1299 0502 5E01     		.2byte	0x15e
 1300 0504 9A040000 		.4byte	0x49a
 1301 0508 0C       		.byte	0xc
 1302 0509 09       		.uleb128 0x9
 1303 050a 73323000 		.ascii	"s20\000"
 1304 050e 0E       		.byte	0xe
 1305 050f 5F01     		.2byte	0x15f
 1306 0511 9A040000 		.4byte	0x49a
 1307 0515 10       		.byte	0x10
 1308 0516 09       		.uleb128 0x9
 1309 0517 73323100 		.ascii	"s21\000"
 1310 051b 0E       		.byte	0xe
 1311 051c 6001     		.2byte	0x160
ARM GAS  C:\cygwin64\tmp\ccj0RBsU.s 			page 24


 1312 051e 9A040000 		.4byte	0x49a
 1313 0522 14       		.byte	0x14
 1314 0523 09       		.uleb128 0x9
 1315 0524 73323200 		.ascii	"s22\000"
 1316 0528 0E       		.byte	0xe
 1317 0529 6101     		.2byte	0x161
 1318 052b 9A040000 		.4byte	0x49a
 1319 052f 18       		.byte	0x18
 1320 0530 09       		.uleb128 0x9
 1321 0531 73323300 		.ascii	"s23\000"
 1322 0535 0E       		.byte	0xe
 1323 0536 6201     		.2byte	0x162
 1324 0538 9A040000 		.4byte	0x49a
 1325 053c 1C       		.byte	0x1c
 1326 053d 09       		.uleb128 0x9
 1327 053e 73323400 		.ascii	"s24\000"
 1328 0542 0E       		.byte	0xe
 1329 0543 6301     		.2byte	0x163
 1330 0545 9A040000 		.4byte	0x49a
 1331 0549 20       		.byte	0x20
 1332 054a 09       		.uleb128 0x9
 1333 054b 73323500 		.ascii	"s25\000"
 1334 054f 0E       		.byte	0xe
 1335 0550 6401     		.2byte	0x164
 1336 0552 9A040000 		.4byte	0x49a
 1337 0556 24       		.byte	0x24
 1338 0557 09       		.uleb128 0x9
 1339 0558 73323600 		.ascii	"s26\000"
 1340 055c 0E       		.byte	0xe
 1341 055d 6501     		.2byte	0x165
 1342 055f 9A040000 		.4byte	0x49a
 1343 0563 28       		.byte	0x28
 1344 0564 09       		.uleb128 0x9
 1345 0565 73323700 		.ascii	"s27\000"
 1346 0569 0E       		.byte	0xe
 1347 056a 6601     		.2byte	0x166
 1348 056c 9A040000 		.4byte	0x49a
 1349 0570 2C       		.byte	0x2c
 1350 0571 09       		.uleb128 0x9
 1351 0572 73323800 		.ascii	"s28\000"
 1352 0576 0E       		.byte	0xe
 1353 0577 6701     		.2byte	0x167
 1354 0579 9A040000 		.4byte	0x49a
 1355 057d 30       		.byte	0x30
 1356 057e 09       		.uleb128 0x9
 1357 057f 73323900 		.ascii	"s29\000"
 1358 0583 0E       		.byte	0xe
 1359 0584 6801     		.2byte	0x168
 1360 0586 9A040000 		.4byte	0x49a
 1361 058a 34       		.byte	0x34
 1362 058b 09       		.uleb128 0x9
 1363 058c 73333000 		.ascii	"s30\000"
 1364 0590 0E       		.byte	0xe
 1365 0591 6901     		.2byte	0x169
 1366 0593 9A040000 		.4byte	0x49a
 1367 0597 38       		.byte	0x38
 1368 0598 09       		.uleb128 0x9
ARM GAS  C:\cygwin64\tmp\ccj0RBsU.s 			page 25


 1369 0599 73333100 		.ascii	"s31\000"
 1370 059d 0E       		.byte	0xe
 1371 059e 6A01     		.2byte	0x16a
 1372 05a0 9A040000 		.4byte	0x49a
 1373 05a4 3C       		.byte	0x3c
 1374 05a5 09       		.uleb128 0x9
 1375 05a6 723400   		.ascii	"r4\000"
 1376 05a9 0E       		.byte	0xe
 1377 05aa 6C01     		.2byte	0x16c
 1378 05ac 9A040000 		.4byte	0x49a
 1379 05b0 40       		.byte	0x40
 1380 05b1 09       		.uleb128 0x9
 1381 05b2 723500   		.ascii	"r5\000"
 1382 05b5 0E       		.byte	0xe
 1383 05b6 6D01     		.2byte	0x16d
 1384 05b8 9A040000 		.4byte	0x49a
 1385 05bc 44       		.byte	0x44
 1386 05bd 09       		.uleb128 0x9
 1387 05be 723600   		.ascii	"r6\000"
 1388 05c1 0E       		.byte	0xe
 1389 05c2 6E01     		.2byte	0x16e
 1390 05c4 9A040000 		.4byte	0x49a
 1391 05c8 48       		.byte	0x48
 1392 05c9 09       		.uleb128 0x9
 1393 05ca 723700   		.ascii	"r7\000"
 1394 05cd 0E       		.byte	0xe
 1395 05ce 6F01     		.2byte	0x16f
 1396 05d0 9A040000 		.4byte	0x49a
 1397 05d4 4C       		.byte	0x4c
 1398 05d5 09       		.uleb128 0x9
 1399 05d6 723800   		.ascii	"r8\000"
 1400 05d9 0E       		.byte	0xe
 1401 05da 7001     		.2byte	0x170
 1402 05dc 9A040000 		.4byte	0x49a
 1403 05e0 50       		.byte	0x50
 1404 05e1 09       		.uleb128 0x9
 1405 05e2 723900   		.ascii	"r9\000"
 1406 05e5 0E       		.byte	0xe
 1407 05e6 7101     		.2byte	0x171
 1408 05e8 9A040000 		.4byte	0x49a
 1409 05ec 54       		.byte	0x54
 1410 05ed 09       		.uleb128 0x9
 1411 05ee 72313000 		.ascii	"r10\000"
 1412 05f2 0E       		.byte	0xe
 1413 05f3 7201     		.2byte	0x172
 1414 05f5 9A040000 		.4byte	0x49a
 1415 05f9 58       		.byte	0x58
 1416 05fa 09       		.uleb128 0x9
 1417 05fb 72313100 		.ascii	"r11\000"
 1418 05ff 0E       		.byte	0xe
 1419 0600 7301     		.2byte	0x173
 1420 0602 9A040000 		.4byte	0x49a
 1421 0606 5C       		.byte	0x5c
 1422 0607 09       		.uleb128 0x9
 1423 0608 6C7200   		.ascii	"lr\000"
 1424 060b 0E       		.byte	0xe
 1425 060c 7401     		.2byte	0x174
ARM GAS  C:\cygwin64\tmp\ccj0RBsU.s 			page 26


 1426 060e 9A040000 		.4byte	0x49a
 1427 0612 60       		.byte	0x60
 1428 0613 00       		.byte	0
 1429 0614 0B       		.uleb128 0xb
 1430 0615 04       		.byte	0x4
 1431 0616 C8040000 		.4byte	0x4c8
 1432 061a 12       		.uleb128 0x12
 1433 061b 04       		.byte	0x4
 1434 061c 0F       		.byte	0xf
 1435 061d 38       		.byte	0x38
 1436 061e 2F060000 		.4byte	0x62f
 1437 0622 07       		.uleb128 0x7
 1438 0623 37070000 		.4byte	.LASF84
 1439 0627 0F       		.byte	0xf
 1440 0628 3C       		.byte	0x3c
 1441 0629 F0000000 		.4byte	0xf0
 1442 062d 00       		.byte	0
 1443 062e 00       		.byte	0
 1444 062f 03       		.uleb128 0x3
 1445 0630 44050000 		.4byte	.LASF85
 1446 0634 0F       		.byte	0xf
 1447 0635 3D       		.byte	0x3d
 1448 0636 1A060000 		.4byte	0x61a
 1449 063a 12       		.uleb128 0x12
 1450 063b 18       		.byte	0x18
 1451 063c 0F       		.byte	0xf
 1452 063d 48       		.byte	0x48
 1453 063e 7D060000 		.4byte	0x67d
 1454 0642 07       		.uleb128 0x7
 1455 0643 07070000 		.4byte	.LASF86
 1456 0647 0F       		.byte	0xf
 1457 0648 49       		.byte	0x49
 1458 0649 F0000000 		.4byte	0xf0
 1459 064d 00       		.byte	0
 1460 064e 07       		.uleb128 0x7
 1461 064f D6000000 		.4byte	.LASF87
 1462 0653 0F       		.byte	0xf
 1463 0654 4A       		.byte	0x4a
 1464 0655 F0000000 		.4byte	0xf0
 1465 0659 04       		.byte	0x4
 1466 065a 07       		.uleb128 0x7
 1467 065b 7D050000 		.4byte	.LASF88
 1468 065f 0F       		.byte	0xf
 1469 0660 4B       		.byte	0x4b
 1470 0661 F0000000 		.4byte	0xf0
 1471 0665 08       		.byte	0x8
 1472 0666 08       		.uleb128 0x8
 1473 0667 6E00     		.ascii	"n\000"
 1474 0669 0F       		.byte	0xf
 1475 066a 4C       		.byte	0x4c
 1476 066b 53010000 		.4byte	0x153
 1477 066f 0C       		.byte	0xc
 1478 0670 07       		.uleb128 0x7
 1479 0671 8D050000 		.4byte	.LASF89
 1480 0675 0F       		.byte	0xf
 1481 0676 4D       		.byte	0x4d
 1482 0677 FB000000 		.4byte	0xfb
ARM GAS  C:\cygwin64\tmp\ccj0RBsU.s 			page 27


 1483 067b 10       		.byte	0x10
 1484 067c 00       		.byte	0
 1485 067d 03       		.uleb128 0x3
 1486 067e DC000000 		.4byte	.LASF90
 1487 0682 0F       		.byte	0xf
 1488 0683 4E       		.byte	0x4e
 1489 0684 3A060000 		.4byte	0x63a
 1490 0688 12       		.uleb128 0x12
 1491 0689 38       		.byte	0x38
 1492 068a 10       		.byte	0x10
 1493 068b 38       		.byte	0x38
 1494 068c C1060000 		.4byte	0x6c1
 1495 0690 07       		.uleb128 0x7
 1496 0691 DC030000 		.4byte	.LASF91
 1497 0695 10       		.byte	0x10
 1498 0696 39       		.byte	0x39
 1499 0697 53010000 		.4byte	0x153
 1500 069b 00       		.byte	0
 1501 069c 07       		.uleb128 0x7
 1502 069d D2050000 		.4byte	.LASF92
 1503 06a1 10       		.byte	0x10
 1504 06a2 3A       		.byte	0x3a
 1505 06a3 53010000 		.4byte	0x153
 1506 06a7 04       		.byte	0x4
 1507 06a8 07       		.uleb128 0x7
 1508 06a9 B9080000 		.4byte	.LASF93
 1509 06ad 10       		.byte	0x10
 1510 06ae 3B       		.byte	0x3b
 1511 06af 7D060000 		.4byte	0x67d
 1512 06b3 08       		.byte	0x8
 1513 06b4 07       		.uleb128 0x7
 1514 06b5 6A040000 		.4byte	.LASF94
 1515 06b9 10       		.byte	0x10
 1516 06ba 3D       		.byte	0x3d
 1517 06bb 7D060000 		.4byte	0x67d
 1518 06bf 20       		.byte	0x20
 1519 06c0 00       		.byte	0
 1520 06c1 03       		.uleb128 0x3
 1521 06c2 F7030000 		.4byte	.LASF95
 1522 06c6 10       		.byte	0x10
 1523 06c7 3F       		.byte	0x3f
 1524 06c8 88060000 		.4byte	0x688
 1525 06cc 13       		.uleb128 0x13
 1526 06cd 04       		.byte	0x4
 1527 06ce 0A       		.byte	0xa
 1528 06cf D2       		.byte	0xd2
 1529 06d0 2F070000 		.4byte	0x72f
 1530 06d4 14       		.uleb128 0x14
 1531 06d5 6B000000 		.4byte	.LASF96
 1532 06d9 0A       		.byte	0xa
 1533 06da D9       		.byte	0xd9
 1534 06db 32010000 		.4byte	0x132
 1535 06df 14       		.uleb128 0x14
 1536 06e0 19010000 		.4byte	.LASF97
 1537 06e4 0A       		.byte	0xa
 1538 06e5 E0       		.byte	0xe0
 1539 06e6 32010000 		.4byte	0x132
ARM GAS  C:\cygwin64\tmp\ccj0RBsU.s 			page 28


 1540 06ea 14       		.uleb128 0x14
 1541 06eb 6B080000 		.4byte	.LASF98
 1542 06ef 0A       		.byte	0xa
 1543 06f0 E7       		.byte	0xe7
 1544 06f1 47030000 		.4byte	0x347
 1545 06f5 14       		.uleb128 0x14
 1546 06f6 B7030000 		.4byte	.LASF99
 1547 06fa 0A       		.byte	0xa
 1548 06fb EE       		.byte	0xee
 1549 06fc 2F070000 		.4byte	0x72f
 1550 0700 14       		.uleb128 0x14
 1551 0701 2D010000 		.4byte	.LASF100
 1552 0705 0A       		.byte	0xa
 1553 0706 F3       		.byte	0xf3
 1554 0707 32010000 		.4byte	0x132
 1555 070b 14       		.uleb128 0x14
 1556 070c B0030000 		.4byte	.LASF101
 1557 0710 0A       		.byte	0xa
 1558 0711 FC       		.byte	0xfc
 1559 0712 5A070000 		.4byte	0x75a
 1560 0716 15       		.uleb128 0x15
 1561 0717 A0060000 		.4byte	.LASF102
 1562 071b 0A       		.byte	0xa
 1563 071c 0501     		.2byte	0x105
 1564 071e 91070000 		.4byte	0x791
 1565 0722 15       		.uleb128 0x15
 1566 0723 20060000 		.4byte	.LASF103
 1567 0727 0A       		.byte	0xa
 1568 0728 0D01     		.2byte	0x10d
 1569 072a 3D010000 		.4byte	0x13d
 1570 072e 00       		.byte	0
 1571 072f 0B       		.uleb128 0xb
 1572 0730 04       		.byte	0x4
 1573 0731 5F020000 		.4byte	0x25f
 1574 0735 06       		.uleb128 0x6
 1575 0736 66060000 		.4byte	.LASF104
 1576 073a 0C       		.byte	0xc
 1577 073b 11       		.byte	0x11
 1578 073c 34       		.byte	0x34
 1579 073d 5A070000 		.4byte	0x75a
 1580 0741 07       		.uleb128 0x7
 1581 0742 E2030000 		.4byte	.LASF33
 1582 0746 11       		.byte	0x11
 1583 0747 35       		.byte	0x35
 1584 0748 94020000 		.4byte	0x294
 1585 074c 00       		.byte	0
 1586 074d 08       		.uleb128 0x8
 1587 074e 636E7400 		.ascii	"cnt\000"
 1588 0752 11       		.byte	0x11
 1589 0753 37       		.byte	0x37
 1590 0754 48010000 		.4byte	0x148
 1591 0758 08       		.byte	0x8
 1592 0759 00       		.byte	0
 1593 075a 0B       		.uleb128 0xb
 1594 075b 04       		.byte	0x4
 1595 075c 35070000 		.4byte	0x735
 1596 0760 06       		.uleb128 0x6
ARM GAS  C:\cygwin64\tmp\ccj0RBsU.s 			page 29


 1597 0761 55070000 		.4byte	.LASF105
 1598 0765 10       		.byte	0x10
 1599 0766 12       		.byte	0x12
 1600 0767 39       		.byte	0x39
 1601 0768 91070000 		.4byte	0x791
 1602 076c 07       		.uleb128 0x7
 1603 076d E2030000 		.4byte	.LASF33
 1604 0771 12       		.byte	0x12
 1605 0772 3A       		.byte	0x3a
 1606 0773 94020000 		.4byte	0x294
 1607 0777 00       		.byte	0
 1608 0778 07       		.uleb128 0x7
 1609 0779 B7060000 		.4byte	.LASF106
 1610 077d 12       		.byte	0x12
 1611 077e 3C       		.byte	0x3c
 1612 077f 6A020000 		.4byte	0x26a
 1613 0783 08       		.byte	0x8
 1614 0784 07       		.uleb128 0x7
 1615 0785 58010000 		.4byte	.LASF53
 1616 0789 12       		.byte	0x12
 1617 078a 3E       		.byte	0x3e
 1618 078b FE080000 		.4byte	0x8fe
 1619 078f 0C       		.byte	0xc
 1620 0790 00       		.byte	0
 1621 0791 0B       		.uleb128 0xb
 1622 0792 04       		.byte	0x4
 1623 0793 60070000 		.4byte	0x760
 1624 0797 0B       		.uleb128 0xb
 1625 0798 04       		.byte	0x4
 1626 0799 A9070000 		.4byte	0x7a9
 1627 079d 05       		.uleb128 0x5
 1628 079e 97070000 		.4byte	0x797
 1629 07a2 04       		.uleb128 0x4
 1630 07a3 01       		.byte	0x1
 1631 07a4 08       		.byte	0x8
 1632 07a5 D6060000 		.4byte	.LASF107
 1633 07a9 16       		.uleb128 0x16
 1634 07aa A2070000 		.4byte	0x7a2
 1635 07ae 0B       		.uleb128 0xb
 1636 07af 04       		.byte	0x4
 1637 07b0 A5040000 		.4byte	0x4a5
 1638 07b4 0B       		.uleb128 0xb
 1639 07b5 04       		.byte	0x4
 1640 07b6 49030000 		.4byte	0x349
 1641 07ba 17       		.uleb128 0x17
 1642 07bb 636800   		.ascii	"ch\000"
 1643 07be 0A       		.byte	0xa
 1644 07bf D201     		.2byte	0x1d2
 1645 07c1 16040000 		.4byte	0x416
 1646 07c5 18       		.uleb128 0x18
 1647 07c6 A5040000 		.4byte	0x4a5
 1648 07ca D0070000 		.4byte	0x7d0
 1649 07ce 19       		.uleb128 0x19
 1650 07cf 00       		.byte	0
 1651 07d0 10       		.uleb128 0x10
 1652 07d1 7C060000 		.4byte	.LASF108
 1653 07d5 03       		.byte	0x3
ARM GAS  C:\cygwin64\tmp\ccj0RBsU.s 			page 30


 1654 07d6 2B01     		.2byte	0x12b
 1655 07d8 C5070000 		.4byte	0x7c5
 1656 07dc 12       		.uleb128 0x12
 1657 07dd 16       		.byte	0x16
 1658 07de 13       		.byte	0x13
 1659 07df 34       		.byte	0x34
 1660 07e0 BD080000 		.4byte	0x8bd
 1661 07e4 07       		.uleb128 0x7
 1662 07e5 B2070000 		.4byte	.LASF109
 1663 07e9 13       		.byte	0x13
 1664 07ea 35       		.byte	0x35
 1665 07eb BD080000 		.4byte	0x8bd
 1666 07ef 00       		.byte	0
 1667 07f0 07       		.uleb128 0x7
 1668 07f1 49030000 		.4byte	.LASF110
 1669 07f5 13       		.byte	0x13
 1670 07f6 36       		.byte	0x36
 1671 07f7 B4000000 		.4byte	0xb4
 1672 07fb 04       		.byte	0x4
 1673 07fc 07       		.uleb128 0x7
 1674 07fd 80010000 		.4byte	.LASF111
 1675 0801 13       		.byte	0x13
 1676 0802 37       		.byte	0x37
 1677 0803 B4000000 		.4byte	0xb4
 1678 0807 05       		.byte	0x5
 1679 0808 07       		.uleb128 0x7
 1680 0809 BC040000 		.4byte	.LASF112
 1681 080d 13       		.byte	0x13
 1682 080e 38       		.byte	0x38
 1683 080f BF000000 		.4byte	0xbf
 1684 0813 06       		.byte	0x6
 1685 0814 07       		.uleb128 0x7
 1686 0815 EF070000 		.4byte	.LASF113
 1687 0819 13       		.byte	0x13
 1688 081a 39       		.byte	0x39
 1689 081b B4000000 		.4byte	0xb4
 1690 081f 08       		.byte	0x8
 1691 0820 07       		.uleb128 0x7
 1692 0821 8E060000 		.4byte	.LASF114
 1693 0825 13       		.byte	0x13
 1694 0826 3A       		.byte	0x3a
 1695 0827 B4000000 		.4byte	0xb4
 1696 082b 09       		.byte	0x9
 1697 082c 07       		.uleb128 0x7
 1698 082d AA050000 		.4byte	.LASF115
 1699 0831 13       		.byte	0x13
 1700 0832 3B       		.byte	0x3b
 1701 0833 B4000000 		.4byte	0xb4
 1702 0837 0A       		.byte	0xa
 1703 0838 07       		.uleb128 0x7
 1704 0839 F7050000 		.4byte	.LASF116
 1705 083d 13       		.byte	0x13
 1706 083e 3C       		.byte	0x3c
 1707 083f B4000000 		.4byte	0xb4
 1708 0843 0B       		.byte	0xb
 1709 0844 07       		.uleb128 0x7
 1710 0845 49040000 		.4byte	.LASF117
ARM GAS  C:\cygwin64\tmp\ccj0RBsU.s 			page 31


 1711 0849 13       		.byte	0x13
 1712 084a 3D       		.byte	0x3d
 1713 084b B4000000 		.4byte	0xb4
 1714 084f 0C       		.byte	0xc
 1715 0850 07       		.uleb128 0x7
 1716 0851 2D050000 		.4byte	.LASF118
 1717 0855 13       		.byte	0x13
 1718 0856 3E       		.byte	0x3e
 1719 0857 B4000000 		.4byte	0xb4
 1720 085b 0D       		.byte	0xd
 1721 085c 07       		.uleb128 0x7
 1722 085d 5E070000 		.4byte	.LASF119
 1723 0861 13       		.byte	0x13
 1724 0862 3F       		.byte	0x3f
 1725 0863 B4000000 		.4byte	0xb4
 1726 0867 0E       		.byte	0xe
 1727 0868 07       		.uleb128 0x7
 1728 0869 8F040000 		.4byte	.LASF120
 1729 086d 13       		.byte	0x13
 1730 086e 40       		.byte	0x40
 1731 086f B4000000 		.4byte	0xb4
 1732 0873 0F       		.byte	0xf
 1733 0874 07       		.uleb128 0x7
 1734 0875 00060000 		.4byte	.LASF121
 1735 0879 13       		.byte	0x13
 1736 087a 41       		.byte	0x41
 1737 087b B4000000 		.4byte	0xb4
 1738 087f 10       		.byte	0x10
 1739 0880 07       		.uleb128 0x7
 1740 0881 81080000 		.4byte	.LASF122
 1741 0885 13       		.byte	0x13
 1742 0886 42       		.byte	0x42
 1743 0887 B4000000 		.4byte	0xb4
 1744 088b 11       		.byte	0x11
 1745 088c 07       		.uleb128 0x7
 1746 088d A7080000 		.4byte	.LASF123
 1747 0891 13       		.byte	0x13
 1748 0892 43       		.byte	0x43
 1749 0893 B4000000 		.4byte	0xb4
 1750 0897 12       		.byte	0x12
 1751 0898 07       		.uleb128 0x7
 1752 0899 EE030000 		.4byte	.LASF124
 1753 089d 13       		.byte	0x13
 1754 089e 44       		.byte	0x44
 1755 089f B4000000 		.4byte	0xb4
 1756 08a3 13       		.byte	0x13
 1757 08a4 07       		.uleb128 0x7
 1758 08a5 DA020000 		.4byte	.LASF125
 1759 08a9 13       		.byte	0x13
 1760 08aa 45       		.byte	0x45
 1761 08ab B4000000 		.4byte	0xb4
 1762 08af 14       		.byte	0x14
 1763 08b0 07       		.uleb128 0x7
 1764 08b1 73060000 		.4byte	.LASF126
 1765 08b5 13       		.byte	0x13
 1766 08b6 46       		.byte	0x46
 1767 08b7 B4000000 		.4byte	0xb4
ARM GAS  C:\cygwin64\tmp\ccj0RBsU.s 			page 32


 1768 08bb 15       		.byte	0x15
 1769 08bc 00       		.byte	0
 1770 08bd 18       		.uleb128 0x18
 1771 08be A2070000 		.4byte	0x7a2
 1772 08c2 CD080000 		.4byte	0x8cd
 1773 08c6 1A       		.uleb128 0x1a
 1774 08c7 7C040000 		.4byte	0x47c
 1775 08cb 03       		.byte	0x3
 1776 08cc 00       		.byte	0
 1777 08cd 03       		.uleb128 0x3
 1778 08ce A0050000 		.4byte	.LASF127
 1779 08d2 13       		.byte	0x13
 1780 08d3 47       		.byte	0x47
 1781 08d4 DC070000 		.4byte	0x7dc
 1782 08d8 16       		.uleb128 0x16
 1783 08d9 CD080000 		.4byte	0x8cd
 1784 08dd 11       		.uleb128 0x11
 1785 08de BD030000 		.4byte	.LASF128
 1786 08e2 13       		.byte	0x13
 1787 08e3 6C       		.byte	0x6c
 1788 08e4 D8080000 		.4byte	0x8d8
 1789 08e8 03       		.uleb128 0x3
 1790 08e9 49060000 		.4byte	.LASF129
 1791 08ed 11       		.byte	0x11
 1792 08ee 38       		.byte	0x38
 1793 08ef 35070000 		.4byte	0x735
 1794 08f3 03       		.uleb128 0x3
 1795 08f4 4E030000 		.4byte	.LASF130
 1796 08f8 12       		.byte	0x12
 1797 08f9 34       		.byte	0x34
 1798 08fa 60070000 		.4byte	0x760
 1799 08fe 0B       		.uleb128 0xb
 1800 08ff 04       		.byte	0x4
 1801 0900 F3080000 		.4byte	0x8f3
 1802 0904 04       		.uleb128 0x4
 1803 0905 01       		.byte	0x1
 1804 0906 02       		.byte	0x2
 1805 0907 DB050000 		.4byte	.LASF131
 1806 090b 03       		.uleb128 0x3
 1807 090c C5070000 		.4byte	.LASF132
 1808 0910 14       		.byte	0x14
 1809 0911 47       		.byte	0x47
 1810 0912 16090000 		.4byte	0x916
 1811 0916 0B       		.uleb128 0xb
 1812 0917 04       		.byte	0x4
 1813 0918 1C090000 		.4byte	0x91c
 1814 091c 1B       		.uleb128 0x1b
 1815 091d 47030000 		.4byte	0x347
 1816 0921 30090000 		.4byte	0x930
 1817 0925 0E       		.uleb128 0xe
 1818 0926 2C000000 		.4byte	0x2c
 1819 092a 0E       		.uleb128 0xe
 1820 092b 37000000 		.4byte	0x37
 1821 092f 00       		.byte	0
 1822 0930 06       		.uleb128 0x6
 1823 0931 07080000 		.4byte	.LASF133
 1824 0935 04       		.byte	0x4
ARM GAS  C:\cygwin64\tmp\ccj0RBsU.s 			page 33


 1825 0936 04       		.byte	0x4
 1826 0937 38       		.byte	0x38
 1827 0938 49090000 		.4byte	0x949
 1828 093c 07       		.uleb128 0x7
 1829 093d 58010000 		.4byte	.LASF53
 1830 0941 04       		.byte	0x4
 1831 0942 39       		.byte	0x39
 1832 0943 49090000 		.4byte	0x949
 1833 0947 00       		.byte	0
 1834 0948 00       		.byte	0
 1835 0949 0B       		.uleb128 0xb
 1836 094a 04       		.byte	0x4
 1837 094b 30090000 		.4byte	0x930
 1838 094f 12       		.uleb128 0x12
 1839 0950 0C       		.byte	0xc
 1840 0951 04       		.byte	0x4
 1841 0952 40       		.byte	0x40
 1842 0953 7C090000 		.4byte	0x97c
 1843 0957 07       		.uleb128 0x7
 1844 0958 58010000 		.4byte	.LASF53
 1845 095c 04       		.byte	0x4
 1846 095d 41       		.byte	0x41
 1847 095e 49090000 		.4byte	0x949
 1848 0962 00       		.byte	0
 1849 0963 07       		.uleb128 0x7
 1850 0964 E3070000 		.4byte	.LASF134
 1851 0968 04       		.byte	0x4
 1852 0969 42       		.byte	0x42
 1853 096a 2C000000 		.4byte	0x2c
 1854 096e 04       		.byte	0x4
 1855 096f 07       		.uleb128 0x7
 1856 0970 C3000000 		.4byte	.LASF135
 1857 0974 04       		.byte	0x4
 1858 0975 44       		.byte	0x44
 1859 0976 0B090000 		.4byte	0x90b
 1860 097a 08       		.byte	0x8
 1861 097b 00       		.byte	0
 1862 097c 03       		.uleb128 0x3
 1863 097d CE030000 		.4byte	.LASF136
 1864 0981 04       		.byte	0x4
 1865 0982 46       		.byte	0x46
 1866 0983 4F090000 		.4byte	0x94f
 1867 0987 12       		.uleb128 0x12
 1868 0988 18       		.byte	0x18
 1869 0989 04       		.byte	0x4
 1870 098a 4C       		.byte	0x4c
 1871 098b A8090000 		.4byte	0x9a8
 1872 098f 08       		.uleb128 0x8
 1873 0990 73656D00 		.ascii	"sem\000"
 1874 0994 04       		.byte	0x4
 1875 0995 4D       		.byte	0x4d
 1876 0996 E8080000 		.4byte	0x8e8
 1877 099a 00       		.byte	0
 1878 099b 07       		.uleb128 0x7
 1879 099c 19080000 		.4byte	.LASF137
 1880 09a0 04       		.byte	0x4
 1881 09a1 4F       		.byte	0x4f
ARM GAS  C:\cygwin64\tmp\ccj0RBsU.s 			page 34


 1882 09a2 7C090000 		.4byte	0x97c
 1883 09a6 0C       		.byte	0xc
 1884 09a7 00       		.byte	0
 1885 09a8 03       		.uleb128 0x3
 1886 09a9 00000000 		.4byte	.LASF138
 1887 09ad 04       		.byte	0x4
 1888 09ae 50       		.byte	0x50
 1889 09af 87090000 		.4byte	0x987
 1890 09b3 1C       		.uleb128 0x1c
 1891 09b4 1B040000 		.4byte	.LASF140
 1892 09b8 01       		.byte	0x1
 1893 09b9 4701     		.2byte	0x147
 1894 09bb 00000000 		.4byte	.LFB257
 1895 09bf 28000000 		.4byte	.LFE257-.LFB257
 1896 09c3 01       		.uleb128 0x1
 1897 09c4 9C       		.byte	0x9c
 1898 09c5 B60A0000 		.4byte	0xab6
 1899 09c9 1D       		.uleb128 0x1d
 1900 09ca 676D7000 		.ascii	"gmp\000"
 1901 09ce 01       		.byte	0x1
 1902 09cf 4701     		.2byte	0x147
 1903 09d1 B60A0000 		.4byte	0xab6
 1904 09d5 00000000 		.4byte	.LLST34
 1905 09d9 1E       		.uleb128 0x1e
 1906 09da 44060000 		.4byte	.LASF139
 1907 09de 01       		.byte	0x1
 1908 09df 4701     		.2byte	0x147
 1909 09e1 47030000 		.4byte	0x347
 1910 09e5 1E000000 		.4byte	.LLST35
 1911 09e9 1F       		.uleb128 0x1f
 1912 09ea D3110000 		.4byte	0x11d3
 1913 09ee 06000000 		.4byte	.LBB109
 1914 09f2 0A000000 		.4byte	.LBE109-.LBB109
 1915 09f6 01       		.byte	0x1
 1916 09f7 4901     		.2byte	0x149
 1917 09f9 360A0000 		.4byte	0xa36
 1918 09fd 1F       		.uleb128 0x1f
 1919 09fe E5110000 		.4byte	0x11e5
 1920 0a02 06000000 		.4byte	.LBB111
 1921 0a06 06000000 		.4byte	.LBE111-.LBB111
 1922 0a0a 03       		.byte	0x3
 1923 0a0b 7801     		.2byte	0x178
 1924 0a0d 2C0A0000 		.4byte	0xa2c
 1925 0a11 20       		.uleb128 0x20
 1926 0a12 EE110000 		.4byte	0x11ee
 1927 0a16 06000000 		.4byte	.LBB112
 1928 0a1a 06000000 		.4byte	.LBE112-.LBB112
 1929 0a1e 0E       		.byte	0xe
 1930 0a1f 5A02     		.2byte	0x25a
 1931 0a21 21       		.uleb128 0x21
 1932 0a22 FB110000 		.4byte	0x11fb
 1933 0a26 3C000000 		.4byte	.LLST36
 1934 0a2a 00       		.byte	0
 1935 0a2b 00       		.byte	0
 1936 0a2c 22       		.uleb128 0x22
 1937 0a2d 10000000 		.4byte	.LVL47
 1938 0a31 64120000 		.4byte	0x1264
ARM GAS  C:\cygwin64\tmp\ccj0RBsU.s 			page 35


 1939 0a35 00       		.byte	0
 1940 0a36 1F       		.uleb128 0x1f
 1941 0a37 B8110000 		.4byte	0x11b8
 1942 0a3b 1C000000 		.4byte	.LBB114
 1943 0a3f 0C000000 		.4byte	.LBE114-.LBB114
 1944 0a43 01       		.byte	0x1
 1945 0a44 4C01     		.2byte	0x14c
 1946 0a46 920A0000 		.4byte	0xa92
 1947 0a4a 23       		.uleb128 0x23
 1948 0a4b 1C000000 		.4byte	.LBB115
 1949 0a4f 0C000000 		.4byte	.LBE115-.LBB115
 1950 0a53 24       		.uleb128 0x24
 1951 0a54 C5110000 		.4byte	0x11c5
 1952 0a58 1F       		.uleb128 0x1f
 1953 0a59 DC110000 		.4byte	0x11dc
 1954 0a5d 20000000 		.4byte	.LBB116
 1955 0a61 08000000 		.4byte	.LBE116-.LBB116
 1956 0a65 03       		.byte	0x3
 1957 0a66 8F01     		.2byte	0x18f
 1958 0a68 870A0000 		.4byte	0xa87
 1959 0a6c 20       		.uleb128 0x20
 1960 0a6d EE110000 		.4byte	0x11ee
 1961 0a71 20000000 		.4byte	.LBB117
 1962 0a75 08000000 		.4byte	.LBE117-.LBB117
 1963 0a79 0E       		.byte	0xe
 1964 0a7a 6D02     		.2byte	0x26d
 1965 0a7c 21       		.uleb128 0x21
 1966 0a7d FB110000 		.4byte	0x11fb
 1967 0a81 51000000 		.4byte	.LLST37
 1968 0a85 00       		.byte	0
 1969 0a86 00       		.byte	0
 1970 0a87 22       		.uleb128 0x22
 1971 0a88 20000000 		.4byte	.LVL50
 1972 0a8c 6F120000 		.4byte	0x126f
 1973 0a90 00       		.byte	0
 1974 0a91 00       		.byte	0
 1975 0a92 25       		.uleb128 0x25
 1976 0a93 18000000 		.4byte	.LVL48
 1977 0a97 BC0A0000 		.4byte	0xabc
 1978 0a9b AC0A0000 		.4byte	0xaac
 1979 0a9f 26       		.uleb128 0x26
 1980 0aa0 01       		.uleb128 0x1
 1981 0aa1 50       		.byte	0x50
 1982 0aa2 02       		.uleb128 0x2
 1983 0aa3 74       		.byte	0x74
 1984 0aa4 00       		.sleb128 0
 1985 0aa5 26       		.uleb128 0x26
 1986 0aa6 01       		.uleb128 0x1
 1987 0aa7 51       		.byte	0x51
 1988 0aa8 02       		.uleb128 0x2
 1989 0aa9 75       		.byte	0x75
 1990 0aaa 00       		.sleb128 0
 1991 0aab 00       		.byte	0
 1992 0aac 22       		.uleb128 0x22
 1993 0aad 1C000000 		.4byte	.LVL49
 1994 0ab1 7A120000 		.4byte	0x127a
 1995 0ab5 00       		.byte	0
ARM GAS  C:\cygwin64\tmp\ccj0RBsU.s 			page 36


 1996 0ab6 0B       		.uleb128 0xb
 1997 0ab7 04       		.byte	0x4
 1998 0ab8 A8090000 		.4byte	0x9a8
 1999 0abc 1C       		.uleb128 0x1c
 2000 0abd 06010000 		.4byte	.LASF141
 2001 0ac1 01       		.byte	0x1
 2002 0ac2 3501     		.2byte	0x135
 2003 0ac4 00000000 		.4byte	.LFB256
 2004 0ac8 0A000000 		.4byte	.LFE256-.LFB256
 2005 0acc 01       		.uleb128 0x1
 2006 0acd 9C       		.byte	0x9c
 2007 0ace 3F0B0000 		.4byte	0xb3f
 2008 0ad2 1D       		.uleb128 0x1d
 2009 0ad3 676D7000 		.ascii	"gmp\000"
 2010 0ad7 01       		.byte	0x1
 2011 0ad8 3501     		.2byte	0x135
 2012 0ada B60A0000 		.4byte	0xab6
 2013 0ade 65000000 		.4byte	.LLST30
 2014 0ae2 1E       		.uleb128 0x1e
 2015 0ae3 44060000 		.4byte	.LASF139
 2016 0ae7 01       		.byte	0x1
 2017 0ae8 3501     		.2byte	0x135
 2018 0aea 47030000 		.4byte	0x347
 2019 0aee 86000000 		.4byte	.LLST31
 2020 0af2 1F       		.uleb128 0x1f
 2021 0af3 F30E0000 		.4byte	0xef3
 2022 0af7 00000000 		.4byte	.LBB97
 2023 0afb 06000000 		.4byte	.LBE97-.LBB97
 2024 0aff 01       		.byte	0x1
 2025 0b00 3701     		.2byte	0x137
 2026 0b02 2D0B0000 		.4byte	0xb2d
 2027 0b06 21       		.uleb128 0x21
 2028 0b07 090F0000 		.4byte	0xf09
 2029 0b0b A7000000 		.4byte	.LLST32
 2030 0b0f 21       		.uleb128 0x21
 2031 0b10 FF0E0000 		.4byte	0xeff
 2032 0b14 BA000000 		.4byte	.LLST33
 2033 0b18 23       		.uleb128 0x23
 2034 0b19 00000000 		.4byte	.LBB98
 2035 0b1d 06000000 		.4byte	.LBE98-.LBB98
 2036 0b21 24       		.uleb128 0x24
 2037 0b22 57120000 		.4byte	0x1257
 2038 0b26 24       		.uleb128 0x24
 2039 0b27 5E120000 		.4byte	0x125e
 2040 0b2b 00       		.byte	0
 2041 0b2c 00       		.byte	0
 2042 0b2d 27       		.uleb128 0x27
 2043 0b2e 0A000000 		.4byte	.LVL44
 2044 0b32 86120000 		.4byte	0x1286
 2045 0b36 26       		.uleb128 0x26
 2046 0b37 01       		.uleb128 0x1
 2047 0b38 50       		.byte	0x50
 2048 0b39 03       		.uleb128 0x3
 2049 0b3a F3       		.byte	0xf3
 2050 0b3b 01       		.uleb128 0x1
 2051 0b3c 50       		.byte	0x50
 2052 0b3d 00       		.byte	0
ARM GAS  C:\cygwin64\tmp\ccj0RBsU.s 			page 37


 2053 0b3e 00       		.byte	0
 2054 0b3f 28       		.uleb128 0x28
 2055 0b40 2F030000 		.4byte	.LASF143
 2056 0b44 01       		.byte	0x1
 2057 0b45 1E01     		.2byte	0x11e
 2058 0b47 47030000 		.4byte	0x347
 2059 0b4b 00000000 		.4byte	.LFB255
 2060 0b4f 28000000 		.4byte	.LFE255-.LFB255
 2061 0b53 01       		.uleb128 0x1
 2062 0b54 9C       		.byte	0x9c
 2063 0b55 470C0000 		.4byte	0xc47
 2064 0b59 1D       		.uleb128 0x1d
 2065 0b5a 676D7000 		.ascii	"gmp\000"
 2066 0b5e 01       		.byte	0x1
 2067 0b5f 1E01     		.2byte	0x11e
 2068 0b61 B60A0000 		.4byte	0xab6
 2069 0b65 CF000000 		.4byte	.LLST25
 2070 0b69 1E       		.uleb128 0x1e
 2071 0b6a C6030000 		.4byte	.LASF142
 2072 0b6e 01       		.byte	0x1
 2073 0b6f 1F01     		.2byte	0x11f
 2074 0b71 5E010000 		.4byte	0x15e
 2075 0b75 FB000000 		.4byte	.LLST26
 2076 0b79 29       		.uleb128 0x29
 2077 0b7a 7000     		.ascii	"p\000"
 2078 0b7c 01       		.byte	0x1
 2079 0b7d 2001     		.2byte	0x120
 2080 0b7f 47030000 		.4byte	0x347
 2081 0b83 19010000 		.4byte	.LLST27
 2082 0b87 1F       		.uleb128 0x1f
 2083 0b88 D3110000 		.4byte	0x11d3
 2084 0b8c 06000000 		.4byte	.LBB87
 2085 0b90 0A000000 		.4byte	.LBE87-.LBB87
 2086 0b94 01       		.byte	0x1
 2087 0b95 2201     		.2byte	0x122
 2088 0b97 D40B0000 		.4byte	0xbd4
 2089 0b9b 1F       		.uleb128 0x1f
 2090 0b9c E5110000 		.4byte	0x11e5
 2091 0ba0 06000000 		.4byte	.LBB89
 2092 0ba4 06000000 		.4byte	.LBE89-.LBB89
 2093 0ba8 03       		.byte	0x3
 2094 0ba9 7801     		.2byte	0x178
 2095 0bab CA0B0000 		.4byte	0xbca
 2096 0baf 20       		.uleb128 0x20
 2097 0bb0 EE110000 		.4byte	0x11ee
 2098 0bb4 06000000 		.4byte	.LBB90
 2099 0bb8 06000000 		.4byte	.LBE90-.LBB90
 2100 0bbc 0E       		.byte	0xe
 2101 0bbd 5A02     		.2byte	0x25a
 2102 0bbf 21       		.uleb128 0x21
 2103 0bc0 FB110000 		.4byte	0x11fb
 2104 0bc4 37010000 		.4byte	.LLST28
 2105 0bc8 00       		.byte	0
 2106 0bc9 00       		.byte	0
 2107 0bca 22       		.uleb128 0x22
 2108 0bcb 10000000 		.4byte	.LVL37
 2109 0bcf 64120000 		.4byte	0x1264
ARM GAS  C:\cygwin64\tmp\ccj0RBsU.s 			page 38


 2110 0bd3 00       		.byte	0
 2111 0bd4 1F       		.uleb128 0x1f
 2112 0bd5 B8110000 		.4byte	0x11b8
 2113 0bd9 1A000000 		.4byte	.LBB92
 2114 0bdd 0A000000 		.4byte	.LBE92-.LBB92
 2115 0be1 01       		.byte	0x1
 2116 0be2 2401     		.2byte	0x124
 2117 0be4 300C0000 		.4byte	0xc30
 2118 0be8 23       		.uleb128 0x23
 2119 0be9 1A000000 		.4byte	.LBB93
 2120 0bed 0A000000 		.4byte	.LBE93-.LBB93
 2121 0bf1 24       		.uleb128 0x24
 2122 0bf2 C5110000 		.4byte	0x11c5
 2123 0bf6 1F       		.uleb128 0x1f
 2124 0bf7 DC110000 		.4byte	0x11dc
 2125 0bfb 1E000000 		.4byte	.LBB94
 2126 0bff 06000000 		.4byte	.LBE94-.LBB94
 2127 0c03 03       		.byte	0x3
 2128 0c04 8F01     		.2byte	0x18f
 2129 0c06 250C0000 		.4byte	0xc25
 2130 0c0a 20       		.uleb128 0x20
 2131 0c0b EE110000 		.4byte	0x11ee
 2132 0c0f 1E000000 		.4byte	.LBB95
 2133 0c13 06000000 		.4byte	.LBE95-.LBB95
 2134 0c17 0E       		.byte	0xe
 2135 0c18 6D02     		.2byte	0x26d
 2136 0c1a 21       		.uleb128 0x21
 2137 0c1b FB110000 		.4byte	0x11fb
 2138 0c1f 4C010000 		.4byte	.LLST29
 2139 0c23 00       		.byte	0
 2140 0c24 00       		.byte	0
 2141 0c25 22       		.uleb128 0x22
 2142 0c26 1E000000 		.4byte	.LVL40
 2143 0c2a 6F120000 		.4byte	0x126f
 2144 0c2e 00       		.byte	0
 2145 0c2f 00       		.byte	0
 2146 0c30 2A       		.uleb128 0x2a
 2147 0c31 18000000 		.4byte	.LVL38
 2148 0c35 470C0000 		.4byte	0xc47
 2149 0c39 26       		.uleb128 0x26
 2150 0c3a 01       		.uleb128 0x1
 2151 0c3b 50       		.byte	0x50
 2152 0c3c 02       		.uleb128 0x2
 2153 0c3d 74       		.byte	0x74
 2154 0c3e 00       		.sleb128 0
 2155 0c3f 26       		.uleb128 0x26
 2156 0c40 01       		.uleb128 0x1
 2157 0c41 51       		.byte	0x51
 2158 0c42 02       		.uleb128 0x2
 2159 0c43 75       		.byte	0x75
 2160 0c44 00       		.sleb128 0
 2161 0c45 00       		.byte	0
 2162 0c46 00       		.byte	0
 2163 0c47 28       		.uleb128 0x28
 2164 0c48 55050000 		.4byte	.LASF144
 2165 0c4c 01       		.byte	0x1
 2166 0c4d 0301     		.2byte	0x103
ARM GAS  C:\cygwin64\tmp\ccj0RBsU.s 			page 39


 2167 0c4f 47030000 		.4byte	0x347
 2168 0c53 00000000 		.4byte	.LFB254
 2169 0c57 1A000000 		.4byte	.LFE254-.LFB254
 2170 0c5b 01       		.uleb128 0x1
 2171 0c5c 9C       		.byte	0x9c
 2172 0c5d C00C0000 		.4byte	0xcc0
 2173 0c61 1D       		.uleb128 0x1d
 2174 0c62 676D7000 		.ascii	"gmp\000"
 2175 0c66 01       		.byte	0x1
 2176 0c67 0301     		.2byte	0x103
 2177 0c69 B60A0000 		.4byte	0xab6
 2178 0c6d 60010000 		.4byte	.LLST22
 2179 0c71 1E       		.uleb128 0x1e
 2180 0c72 C6030000 		.4byte	.LASF142
 2181 0c76 01       		.byte	0x1
 2182 0c77 0401     		.2byte	0x104
 2183 0c79 5E010000 		.4byte	0x15e
 2184 0c7d A4010000 		.4byte	.LLST23
 2185 0c81 29       		.uleb128 0x29
 2186 0c82 6D736700 		.ascii	"msg\000"
 2187 0c86 01       		.byte	0x1
 2188 0c87 0501     		.2byte	0x105
 2189 0c89 32010000 		.4byte	0x132
 2190 0c8d C5010000 		.4byte	.LLST24
 2191 0c91 25       		.uleb128 0x25
 2192 0c92 08000000 		.4byte	.LVL30
 2193 0c96 91120000 		.4byte	0x1291
 2194 0c9a AC0C0000 		.4byte	0xcac
 2195 0c9e 26       		.uleb128 0x26
 2196 0c9f 01       		.uleb128 0x1
 2197 0ca0 50       		.byte	0x50
 2198 0ca1 02       		.uleb128 0x2
 2199 0ca2 74       		.byte	0x74
 2200 0ca3 00       		.sleb128 0
 2201 0ca4 26       		.uleb128 0x26
 2202 0ca5 01       		.uleb128 0x1
 2203 0ca6 51       		.byte	0x51
 2204 0ca7 03       		.uleb128 0x3
 2205 0ca8 F3       		.byte	0xf3
 2206 0ca9 01       		.uleb128 0x1
 2207 0caa 51       		.byte	0x51
 2208 0cab 00       		.byte	0
 2209 0cac 27       		.uleb128 0x27
 2210 0cad 16000000 		.4byte	.LVL33
 2211 0cb1 30100000 		.4byte	0x1030
 2212 0cb5 26       		.uleb128 0x26
 2213 0cb6 01       		.uleb128 0x1
 2214 0cb7 50       		.byte	0x50
 2215 0cb8 05       		.uleb128 0x5
 2216 0cb9 F3       		.byte	0xf3
 2217 0cba 01       		.uleb128 0x1
 2218 0cbb 50       		.byte	0x50
 2219 0cbc 23       		.byte	0x23
 2220 0cbd 0C       		.uleb128 0xc
 2221 0cbe 00       		.byte	0
 2222 0cbf 00       		.byte	0
 2223 0cc0 2B       		.uleb128 0x2b
ARM GAS  C:\cygwin64\tmp\ccj0RBsU.s 			page 40


 2224 0cc1 3E070000 		.4byte	.LASF145
 2225 0cc5 01       		.byte	0x1
 2226 0cc6 E7       		.byte	0xe7
 2227 0cc7 00000000 		.4byte	.LFB253
 2228 0ccb 1C000000 		.4byte	.LFE253-.LFB253
 2229 0ccf 01       		.uleb128 0x1
 2230 0cd0 9C       		.byte	0x9c
 2231 0cd1 400D0000 		.4byte	0xd40
 2232 0cd5 2C       		.uleb128 0x2c
 2233 0cd6 676D7000 		.ascii	"gmp\000"
 2234 0cda 01       		.byte	0x1
 2235 0cdb E7       		.byte	0xe7
 2236 0cdc B60A0000 		.4byte	0xab6
 2237 0ce0 E3010000 		.4byte	.LLST38
 2238 0ce4 2C       		.uleb128 0x2c
 2239 0ce5 7000     		.ascii	"p\000"
 2240 0ce7 01       		.byte	0x1
 2241 0ce8 E7       		.byte	0xe7
 2242 0ce9 47030000 		.4byte	0x347
 2243 0ced 01020000 		.4byte	.LLST39
 2244 0cf1 2C       		.uleb128 0x2c
 2245 0cf2 6E00     		.ascii	"n\000"
 2246 0cf4 01       		.byte	0x1
 2247 0cf5 E7       		.byte	0xe7
 2248 0cf6 2C000000 		.4byte	0x2c
 2249 0cfa 1F020000 		.4byte	.LLST40
 2250 0cfe 2D       		.uleb128 0x2d
 2251 0cff 31060000 		.4byte	.LASF148
 2252 0d03 500D0000 		.4byte	0xd50
 2253 0d07 2E       		.uleb128 0x2e
 2254 0d08 73110000 		.4byte	0x1173
 2255 0d0c 0C000000 		.4byte	.LBB119
 2256 0d10 08000000 		.4byte	.LBE119-.LBB119
 2257 0d14 01       		.byte	0x1
 2258 0d15 EC       		.byte	0xec
 2259 0d16 21       		.uleb128 0x21
 2260 0d17 8A110000 		.4byte	0x118a
 2261 0d1b 55020000 		.4byte	.LLST41
 2262 0d1f 21       		.uleb128 0x21
 2263 0d20 7F110000 		.4byte	0x117f
 2264 0d24 68020000 		.4byte	.LLST42
 2265 0d28 2A       		.uleb128 0x2a
 2266 0d29 14000000 		.4byte	.LVL55
 2267 0d2d B3090000 		.4byte	0x9b3
 2268 0d31 26       		.uleb128 0x26
 2269 0d32 01       		.uleb128 0x1
 2270 0d33 50       		.byte	0x50
 2271 0d34 02       		.uleb128 0x2
 2272 0d35 76       		.byte	0x76
 2273 0d36 00       		.sleb128 0
 2274 0d37 26       		.uleb128 0x26
 2275 0d38 01       		.uleb128 0x1
 2276 0d39 51       		.byte	0x51
 2277 0d3a 02       		.uleb128 0x2
 2278 0d3b 75       		.byte	0x75
 2279 0d3c 00       		.sleb128 0
 2280 0d3d 00       		.byte	0
ARM GAS  C:\cygwin64\tmp\ccj0RBsU.s 			page 41


 2281 0d3e 00       		.byte	0
 2282 0d3f 00       		.byte	0
 2283 0d40 18       		.uleb128 0x18
 2284 0d41 A9070000 		.4byte	0x7a9
 2285 0d45 500D0000 		.4byte	0xd50
 2286 0d49 1A       		.uleb128 0x1a
 2287 0d4a 7C040000 		.4byte	0x47c
 2288 0d4e 16       		.byte	0x16
 2289 0d4f 00       		.byte	0
 2290 0d50 16       		.uleb128 0x16
 2291 0d51 400D0000 		.4byte	0xd40
 2292 0d55 2B       		.uleb128 0x2b
 2293 0d56 7F030000 		.4byte	.LASF146
 2294 0d5a 01       		.byte	0x1
 2295 0d5b D4       		.byte	0xd4
 2296 0d5c 00000000 		.4byte	.LFB252
 2297 0d60 0E000000 		.4byte	.LFE252-.LFB252
 2298 0d64 01       		.uleb128 0x1
 2299 0d65 9C       		.byte	0x9c
 2300 0d66 DD0D0000 		.4byte	0xddd
 2301 0d6a 2C       		.uleb128 0x2c
 2302 0d6b 676D7000 		.ascii	"gmp\000"
 2303 0d6f 01       		.byte	0x1
 2304 0d70 D4       		.byte	0xd4
 2305 0d71 B60A0000 		.4byte	0xab6
 2306 0d75 7B020000 		.4byte	.LLST17
 2307 0d79 2F       		.uleb128 0x2f
 2308 0d7a 80010000 		.4byte	.LASF111
 2309 0d7e 01       		.byte	0x1
 2310 0d7f D4       		.byte	0xd4
 2311 0d80 2C000000 		.4byte	0x2c
 2312 0d84 9C020000 		.4byte	.LLST18
 2313 0d88 30       		.uleb128 0x30
 2314 0d89 24110000 		.4byte	0x1124
 2315 0d8d 00000000 		.4byte	.LBB75
 2316 0d91 08000000 		.4byte	.LBE75-.LBB75
 2317 0d95 01       		.byte	0x1
 2318 0d96 D6       		.byte	0xd6
 2319 0d97 C60D0000 		.4byte	0xdc6
 2320 0d9b 21       		.uleb128 0x21
 2321 0d9c 45110000 		.4byte	0x1145
 2322 0da0 C9020000 		.4byte	.LLST19
 2323 0da4 21       		.uleb128 0x21
 2324 0da5 3A110000 		.4byte	0x113a
 2325 0da9 DD020000 		.4byte	.LLST20
 2326 0dad 21       		.uleb128 0x21
 2327 0dae 30110000 		.4byte	0x1130
 2328 0db2 F0020000 		.4byte	.LLST21
 2329 0db6 23       		.uleb128 0x23
 2330 0db7 00000000 		.4byte	.LBB76
 2331 0dbb 08000000 		.4byte	.LBE76-.LBB76
 2332 0dbf 24       		.uleb128 0x24
 2333 0dc0 30120000 		.4byte	0x1230
 2334 0dc4 00       		.byte	0
 2335 0dc5 00       		.byte	0
 2336 0dc6 27       		.uleb128 0x27
 2337 0dc7 0E000000 		.4byte	.LVL28
ARM GAS  C:\cygwin64\tmp\ccj0RBsU.s 			page 42


 2338 0dcb 9C120000 		.4byte	0x129c
 2339 0dcf 26       		.uleb128 0x26
 2340 0dd0 01       		.uleb128 0x1
 2341 0dd1 50       		.byte	0x50
 2342 0dd2 03       		.uleb128 0x3
 2343 0dd3 F3       		.byte	0xf3
 2344 0dd4 01       		.uleb128 0x1
 2345 0dd5 50       		.byte	0x50
 2346 0dd6 26       		.uleb128 0x26
 2347 0dd7 01       		.uleb128 0x1
 2348 0dd8 51       		.byte	0x51
 2349 0dd9 01       		.uleb128 0x1
 2350 0dda 30       		.byte	0x30
 2351 0ddb 00       		.byte	0
 2352 0ddc 00       		.byte	0
 2353 0ddd 2B       		.uleb128 0x2b
 2354 0dde 32080000 		.4byte	.LASF147
 2355 0de2 01       		.byte	0x1
 2356 0de3 C2       		.byte	0xc2
 2357 0de4 00000000 		.4byte	.LFB251
 2358 0de8 22000000 		.4byte	.LFE251-.LFB251
 2359 0dec 01       		.uleb128 0x1
 2360 0ded 9C       		.byte	0x9c
 2361 0dee ED0E0000 		.4byte	0xeed
 2362 0df2 2C       		.uleb128 0x2c
 2363 0df3 6D7000   		.ascii	"mp\000"
 2364 0df6 01       		.byte	0x1
 2365 0df7 C2       		.byte	0xc2
 2366 0df8 ED0E0000 		.4byte	0xeed
 2367 0dfc 05030000 		.4byte	.LLST6
 2368 0e00 2F       		.uleb128 0x2f
 2369 0e01 44060000 		.4byte	.LASF139
 2370 0e05 01       		.byte	0x1
 2371 0e06 C2       		.byte	0xc2
 2372 0e07 47030000 		.4byte	0x347
 2373 0e0b 23030000 		.4byte	.LLST7
 2374 0e0f 30       		.uleb128 0x30
 2375 0e10 D3110000 		.4byte	0x11d3
 2376 0e14 06000000 		.4byte	.LBB61
 2377 0e18 0A000000 		.4byte	.LBE61-.LBB61
 2378 0e1c 01       		.byte	0x1
 2379 0e1d C4       		.byte	0xc4
 2380 0e1e 5B0E0000 		.4byte	0xe5b
 2381 0e22 1F       		.uleb128 0x1f
 2382 0e23 E5110000 		.4byte	0x11e5
 2383 0e27 06000000 		.4byte	.LBB63
 2384 0e2b 06000000 		.4byte	.LBE63-.LBB63
 2385 0e2f 03       		.byte	0x3
 2386 0e30 7801     		.2byte	0x178
 2387 0e32 510E0000 		.4byte	0xe51
 2388 0e36 20       		.uleb128 0x20
 2389 0e37 EE110000 		.4byte	0x11ee
 2390 0e3b 06000000 		.4byte	.LBB64
 2391 0e3f 06000000 		.4byte	.LBE64-.LBB64
 2392 0e43 0E       		.byte	0xe
 2393 0e44 5A02     		.2byte	0x25a
 2394 0e46 21       		.uleb128 0x21
ARM GAS  C:\cygwin64\tmp\ccj0RBsU.s 			page 43


 2395 0e47 FB110000 		.4byte	0x11fb
 2396 0e4b 41030000 		.4byte	.LLST8
 2397 0e4f 00       		.byte	0
 2398 0e50 00       		.byte	0
 2399 0e51 22       		.uleb128 0x22
 2400 0e52 10000000 		.4byte	.LVL15
 2401 0e56 64120000 		.4byte	0x1264
 2402 0e5a 00       		.byte	0
 2403 0e5b 30       		.uleb128 0x30
 2404 0e5c F30E0000 		.4byte	0xef3
 2405 0e60 10000000 		.4byte	.LBB66
 2406 0e64 06000000 		.4byte	.LBE66-.LBB66
 2407 0e68 01       		.byte	0x1
 2408 0e69 C5       		.byte	0xc5
 2409 0e6a 950E0000 		.4byte	0xe95
 2410 0e6e 21       		.uleb128 0x21
 2411 0e6f 090F0000 		.4byte	0xf09
 2412 0e73 56030000 		.4byte	.LLST9
 2413 0e77 21       		.uleb128 0x21
 2414 0e78 FF0E0000 		.4byte	0xeff
 2415 0e7c 69030000 		.4byte	.LLST10
 2416 0e80 23       		.uleb128 0x23
 2417 0e81 10000000 		.4byte	.LBB67
 2418 0e85 06000000 		.4byte	.LBE67-.LBB67
 2419 0e89 24       		.uleb128 0x24
 2420 0e8a 57120000 		.4byte	0x1257
 2421 0e8e 24       		.uleb128 0x24
 2422 0e8f 5E120000 		.4byte	0x125e
 2423 0e93 00       		.byte	0
 2424 0e94 00       		.byte	0
 2425 0e95 2E       		.uleb128 0x2e
 2426 0e96 B8110000 		.4byte	0x11b8
 2427 0e9a 16000000 		.4byte	.LBB68
 2428 0e9e 0C000000 		.4byte	.LBE68-.LBB68
 2429 0ea2 01       		.byte	0x1
 2430 0ea3 C6       		.byte	0xc6
 2431 0ea4 23       		.uleb128 0x23
 2432 0ea5 16000000 		.4byte	.LBB69
 2433 0ea9 0C000000 		.4byte	.LBE69-.LBB69
 2434 0ead 24       		.uleb128 0x24
 2435 0eae C5110000 		.4byte	0x11c5
 2436 0eb2 1F       		.uleb128 0x1f
 2437 0eb3 DC110000 		.4byte	0x11dc
 2438 0eb7 1A000000 		.4byte	.LBB70
 2439 0ebb 08000000 		.4byte	.LBE70-.LBB70
 2440 0ebf 03       		.byte	0x3
 2441 0ec0 8F01     		.2byte	0x18f
 2442 0ec2 E10E0000 		.4byte	0xee1
 2443 0ec6 20       		.uleb128 0x20
 2444 0ec7 EE110000 		.4byte	0x11ee
 2445 0ecb 1A000000 		.4byte	.LBB71
 2446 0ecf 08000000 		.4byte	.LBE71-.LBB71
 2447 0ed3 0E       		.byte	0xe
 2448 0ed4 6D02     		.2byte	0x26d
 2449 0ed6 21       		.uleb128 0x21
 2450 0ed7 FB110000 		.4byte	0x11fb
 2451 0edb 7C030000 		.4byte	.LLST11
ARM GAS  C:\cygwin64\tmp\ccj0RBsU.s 			page 44


 2452 0edf 00       		.byte	0
 2453 0ee0 00       		.byte	0
 2454 0ee1 22       		.uleb128 0x22
 2455 0ee2 1A000000 		.4byte	.LVL17
 2456 0ee6 6F120000 		.4byte	0x126f
 2457 0eea 00       		.byte	0
 2458 0eeb 00       		.byte	0
 2459 0eec 00       		.byte	0
 2460 0eed 0B       		.uleb128 0xb
 2461 0eee 04       		.byte	0x4
 2462 0eef 7C090000 		.4byte	0x97c
 2463 0ef3 31       		.uleb128 0x31
 2464 0ef4 0B030000 		.4byte	.LASF152
 2465 0ef8 01       		.byte	0x1
 2466 0ef9 AC       		.byte	0xac
 2467 0efa 01       		.byte	0x1
 2468 0efb 2D0F0000 		.4byte	0xf2d
 2469 0eff 32       		.uleb128 0x32
 2470 0f00 6D7000   		.ascii	"mp\000"
 2471 0f03 01       		.byte	0x1
 2472 0f04 AC       		.byte	0xac
 2473 0f05 ED0E0000 		.4byte	0xeed
 2474 0f09 33       		.uleb128 0x33
 2475 0f0a 44060000 		.4byte	.LASF139
 2476 0f0e 01       		.byte	0x1
 2477 0f0f AC       		.byte	0xac
 2478 0f10 47030000 		.4byte	0x347
 2479 0f14 34       		.uleb128 0x34
 2480 0f15 70687000 		.ascii	"php\000"
 2481 0f19 01       		.byte	0x1
 2482 0f1a AD       		.byte	0xad
 2483 0f1b 49090000 		.4byte	0x949
 2484 0f1f 35       		.uleb128 0x35
 2485 0f20 31060000 		.4byte	.LASF148
 2486 0f24 3D0F0000 		.4byte	0xf3d
 2487 0f28 0B030000 		.4byte	.LASF152
 2488 0f2c 00       		.byte	0
 2489 0f2d 18       		.uleb128 0x18
 2490 0f2e A9070000 		.4byte	0x7a9
 2491 0f32 3D0F0000 		.4byte	0xf3d
 2492 0f36 1A       		.uleb128 0x1a
 2493 0f37 7C040000 		.4byte	0x47c
 2494 0f3b 0B       		.byte	0xb
 2495 0f3c 00       		.byte	0
 2496 0f3d 16       		.uleb128 0x16
 2497 0f3e 2D0F0000 		.4byte	0xf2d
 2498 0f42 36       		.uleb128 0x36
 2499 0f43 26080000 		.4byte	.LASF149
 2500 0f47 01       		.byte	0x1
 2501 0f48 96       		.byte	0x96
 2502 0f49 47030000 		.4byte	0x347
 2503 0f4d 00000000 		.4byte	.LFB249
 2504 0f51 24000000 		.4byte	.LFE249-.LFB249
 2505 0f55 01       		.uleb128 0x1
 2506 0f56 9C       		.byte	0x9c
 2507 0f57 30100000 		.4byte	0x1030
 2508 0f5b 2C       		.uleb128 0x2c
ARM GAS  C:\cygwin64\tmp\ccj0RBsU.s 			page 45


 2509 0f5c 6D7000   		.ascii	"mp\000"
 2510 0f5f 01       		.byte	0x1
 2511 0f60 96       		.byte	0x96
 2512 0f61 ED0E0000 		.4byte	0xeed
 2513 0f65 90030000 		.4byte	.LLST2
 2514 0f69 37       		.uleb128 0x37
 2515 0f6a 44060000 		.4byte	.LASF139
 2516 0f6e 01       		.byte	0x1
 2517 0f6f 97       		.byte	0x97
 2518 0f70 47030000 		.4byte	0x347
 2519 0f74 BC030000 		.4byte	.LLST3
 2520 0f78 38       		.uleb128 0x38
 2521 0f79 D3110000 		.4byte	0x11d3
 2522 0f7d 02000000 		.4byte	.LBB34
 2523 0f81 00000000 		.4byte	.Ldebug_ranges0+0
 2524 0f85 01       		.byte	0x1
 2525 0f86 99       		.byte	0x99
 2526 0f87 C40F0000 		.4byte	0xfc4
 2527 0f8b 39       		.uleb128 0x39
 2528 0f8c E5110000 		.4byte	0x11e5
 2529 0f90 02000000 		.4byte	.LBB36
 2530 0f94 18000000 		.4byte	.Ldebug_ranges0+0x18
 2531 0f98 03       		.byte	0x3
 2532 0f99 7801     		.2byte	0x178
 2533 0f9b BA0F0000 		.4byte	0xfba
 2534 0f9f 3A       		.uleb128 0x3a
 2535 0fa0 EE110000 		.4byte	0x11ee
 2536 0fa4 02000000 		.4byte	.LBB37
 2537 0fa8 18000000 		.4byte	.Ldebug_ranges0+0x18
 2538 0fac 0E       		.byte	0xe
 2539 0fad 5A02     		.2byte	0x25a
 2540 0faf 21       		.uleb128 0x21
 2541 0fb0 FB110000 		.4byte	0x11fb
 2542 0fb4 DA030000 		.4byte	.LLST4
 2543 0fb8 00       		.byte	0
 2544 0fb9 00       		.byte	0
 2545 0fba 22       		.uleb128 0x22
 2546 0fbb 0E000000 		.4byte	.LVL7
 2547 0fbf 64120000 		.4byte	0x1264
 2548 0fc3 00       		.byte	0
 2549 0fc4 30       		.uleb128 0x30
 2550 0fc5 B8110000 		.4byte	0x11b8
 2551 0fc9 16000000 		.4byte	.LBB44
 2552 0fcd 0A000000 		.4byte	.LBE44-.LBB44
 2553 0fd1 01       		.byte	0x1
 2554 0fd2 9B       		.byte	0x9b
 2555 0fd3 1F100000 		.4byte	0x101f
 2556 0fd7 23       		.uleb128 0x23
 2557 0fd8 16000000 		.4byte	.LBB45
 2558 0fdc 0A000000 		.4byte	.LBE45-.LBB45
 2559 0fe0 24       		.uleb128 0x24
 2560 0fe1 C5110000 		.4byte	0x11c5
 2561 0fe5 1F       		.uleb128 0x1f
 2562 0fe6 DC110000 		.4byte	0x11dc
 2563 0fea 1A000000 		.4byte	.LBB46
 2564 0fee 06000000 		.4byte	.LBE46-.LBB46
 2565 0ff2 03       		.byte	0x3
ARM GAS  C:\cygwin64\tmp\ccj0RBsU.s 			page 46


 2566 0ff3 8F01     		.2byte	0x18f
 2567 0ff5 14100000 		.4byte	0x1014
 2568 0ff9 20       		.uleb128 0x20
 2569 0ffa EE110000 		.4byte	0x11ee
 2570 0ffe 1A000000 		.4byte	.LBB47
 2571 1002 06000000 		.4byte	.LBE47-.LBB47
 2572 1006 0E       		.byte	0xe
 2573 1007 6D02     		.2byte	0x26d
 2574 1009 21       		.uleb128 0x21
 2575 100a FB110000 		.4byte	0x11fb
 2576 100e EF030000 		.4byte	.LLST5
 2577 1012 00       		.byte	0
 2578 1013 00       		.byte	0
 2579 1014 22       		.uleb128 0x22
 2580 1015 1A000000 		.4byte	.LVL10
 2581 1019 6F120000 		.4byte	0x126f
 2582 101d 00       		.byte	0
 2583 101e 00       		.byte	0
 2584 101f 2A       		.uleb128 0x2a
 2585 1020 14000000 		.4byte	.LVL8
 2586 1024 30100000 		.4byte	0x1030
 2587 1028 26       		.uleb128 0x26
 2588 1029 01       		.uleb128 0x1
 2589 102a 50       		.byte	0x50
 2590 102b 02       		.uleb128 0x2
 2591 102c 74       		.byte	0x74
 2592 102d 00       		.sleb128 0
 2593 102e 00       		.byte	0
 2594 102f 00       		.byte	0
 2595 1030 36       		.uleb128 0x36
 2596 1031 20050000 		.4byte	.LASF150
 2597 1035 01       		.byte	0x1
 2598 1036 79       		.byte	0x79
 2599 1037 47030000 		.4byte	0x347
 2600 103b 00000000 		.4byte	.LFB248
 2601 103f 18000000 		.4byte	.LFE248-.LFB248
 2602 1043 01       		.uleb128 0x1
 2603 1044 9C       		.byte	0x9c
 2604 1045 7B100000 		.4byte	0x107b
 2605 1049 2C       		.uleb128 0x2c
 2606 104a 6D7000   		.ascii	"mp\000"
 2607 104d 01       		.byte	0x1
 2608 104e 79       		.byte	0x79
 2609 104f ED0E0000 		.4byte	0xeed
 2610 1053 03040000 		.4byte	.LLST0
 2611 1057 37       		.uleb128 0x37
 2612 1058 44060000 		.4byte	.LASF139
 2613 105c 01       		.byte	0x1
 2614 105d 7A       		.byte	0x7a
 2615 105e 47030000 		.4byte	0x347
 2616 1062 3A040000 		.4byte	.LLST1
 2617 1066 2D       		.uleb128 0x2d
 2618 1067 31060000 		.4byte	.LASF148
 2619 106b 8B100000 		.4byte	0x108b
 2620 106f 3B       		.uleb128 0x3b
 2621 1070 16000000 		.4byte	.LVL4
 2622 1074 26       		.uleb128 0x26
ARM GAS  C:\cygwin64\tmp\ccj0RBsU.s 			page 47


 2623 1075 01       		.uleb128 0x1
 2624 1076 51       		.byte	0x51
 2625 1077 01       		.uleb128 0x1
 2626 1078 34       		.byte	0x34
 2627 1079 00       		.byte	0
 2628 107a 00       		.byte	0
 2629 107b 18       		.uleb128 0x18
 2630 107c A9070000 		.4byte	0x7a9
 2631 1080 8B100000 		.4byte	0x108b
 2632 1084 1A       		.uleb128 0x1a
 2633 1085 7C040000 		.4byte	0x47c
 2634 1089 0C       		.byte	0xc
 2635 108a 00       		.byte	0
 2636 108b 16       		.uleb128 0x16
 2637 108c 7B100000 		.4byte	0x107b
 2638 1090 2B       		.uleb128 0x2b
 2639 1091 97080000 		.4byte	.LASF151
 2640 1095 01       		.byte	0x1
 2641 1096 62       		.byte	0x62
 2642 1097 00000000 		.4byte	.LFB247
 2643 109b 1C000000 		.4byte	.LFE247-.LFB247
 2644 109f 01       		.uleb128 0x1
 2645 10a0 9C       		.byte	0x9c
 2646 10a1 0F110000 		.4byte	0x110f
 2647 10a5 2C       		.uleb128 0x2c
 2648 10a6 6D7000   		.ascii	"mp\000"
 2649 10a9 01       		.byte	0x1
 2650 10aa 62       		.byte	0x62
 2651 10ab ED0E0000 		.4byte	0xeed
 2652 10af 64040000 		.4byte	.LLST12
 2653 10b3 2C       		.uleb128 0x2c
 2654 10b4 7000     		.ascii	"p\000"
 2655 10b6 01       		.byte	0x1
 2656 10b7 62       		.byte	0x62
 2657 10b8 47030000 		.4byte	0x347
 2658 10bc 82040000 		.4byte	.LLST13
 2659 10c0 2C       		.uleb128 0x2c
 2660 10c1 6E00     		.ascii	"n\000"
 2661 10c3 01       		.byte	0x1
 2662 10c4 62       		.byte	0x62
 2663 10c5 2C000000 		.4byte	0x2c
 2664 10c9 A0040000 		.4byte	.LLST14
 2665 10cd 2D       		.uleb128 0x2d
 2666 10ce 31060000 		.4byte	.LASF148
 2667 10d2 1F110000 		.4byte	0x111f
 2668 10d6 2E       		.uleb128 0x2e
 2669 10d7 96110000 		.4byte	0x1196
 2670 10db 0C000000 		.4byte	.LBB73
 2671 10df 08000000 		.4byte	.LBE73-.LBB73
 2672 10e3 01       		.byte	0x1
 2673 10e4 67       		.byte	0x67
 2674 10e5 21       		.uleb128 0x21
 2675 10e6 AC110000 		.4byte	0x11ac
 2676 10ea D6040000 		.4byte	.LLST15
 2677 10ee 21       		.uleb128 0x21
 2678 10ef A2110000 		.4byte	0x11a2
 2679 10f3 E9040000 		.4byte	.LLST16
ARM GAS  C:\cygwin64\tmp\ccj0RBsU.s 			page 48


 2680 10f7 2A       		.uleb128 0x2a
 2681 10f8 14000000 		.4byte	.LVL22
 2682 10fc DD0D0000 		.4byte	0xddd
 2683 1100 26       		.uleb128 0x26
 2684 1101 01       		.uleb128 0x1
 2685 1102 50       		.byte	0x50
 2686 1103 02       		.uleb128 0x2
 2687 1104 76       		.byte	0x76
 2688 1105 00       		.sleb128 0
 2689 1106 26       		.uleb128 0x26
 2690 1107 01       		.uleb128 0x1
 2691 1108 51       		.byte	0x51
 2692 1109 02       		.uleb128 0x2
 2693 110a 75       		.byte	0x75
 2694 110b 00       		.sleb128 0
 2695 110c 00       		.byte	0
 2696 110d 00       		.byte	0
 2697 110e 00       		.byte	0
 2698 110f 18       		.uleb128 0x18
 2699 1110 A9070000 		.4byte	0x7a9
 2700 1114 1F110000 		.4byte	0x111f
 2701 1118 1A       		.uleb128 0x1a
 2702 1119 7C040000 		.4byte	0x47c
 2703 111d 0F       		.byte	0xf
 2704 111e 00       		.byte	0
 2705 111f 16       		.uleb128 0x16
 2706 1120 0F110000 		.4byte	0x110f
 2707 1124 31       		.uleb128 0x31
 2708 1125 59040000 		.4byte	.LASF153
 2709 1129 01       		.byte	0x1
 2710 112a 4C       		.byte	0x4c
 2711 112b 01       		.byte	0x1
 2712 112c 5E110000 		.4byte	0x115e
 2713 1130 32       		.uleb128 0x32
 2714 1131 6D7000   		.ascii	"mp\000"
 2715 1134 01       		.byte	0x1
 2716 1135 4C       		.byte	0x4c
 2717 1136 ED0E0000 		.4byte	0xeed
 2718 113a 33       		.uleb128 0x33
 2719 113b 80010000 		.4byte	.LASF111
 2720 113f 01       		.byte	0x1
 2721 1140 4C       		.byte	0x4c
 2722 1141 2C000000 		.4byte	0x2c
 2723 1145 33       		.uleb128 0x33
 2724 1146 C3000000 		.4byte	.LASF135
 2725 114a 01       		.byte	0x1
 2726 114b 4C       		.byte	0x4c
 2727 114c 0B090000 		.4byte	0x90b
 2728 1150 35       		.uleb128 0x35
 2729 1151 31060000 		.4byte	.LASF148
 2730 1155 6E110000 		.4byte	0x116e
 2731 1159 59040000 		.4byte	.LASF153
 2732 115d 00       		.byte	0
 2733 115e 18       		.uleb128 0x18
 2734 115f A9070000 		.4byte	0x7a9
 2735 1163 6E110000 		.4byte	0x116e
 2736 1167 1A       		.uleb128 0x1a
ARM GAS  C:\cygwin64\tmp\ccj0RBsU.s 			page 49


 2737 1168 7C040000 		.4byte	0x47c
 2738 116c 10       		.byte	0x10
 2739 116d 00       		.byte	0
 2740 116e 16       		.uleb128 0x16
 2741 116f 5E110000 		.4byte	0x115e
 2742 1173 3C       		.uleb128 0x3c
 2743 1174 D2070000 		.4byte	.LASF154
 2744 1178 04       		.byte	0x4
 2745 1179 E2       		.byte	0xe2
 2746 117a 03       		.byte	0x3
 2747 117b 96110000 		.4byte	0x1196
 2748 117f 32       		.uleb128 0x32
 2749 1180 676D7000 		.ascii	"gmp\000"
 2750 1184 04       		.byte	0x4
 2751 1185 E2       		.byte	0xe2
 2752 1186 B60A0000 		.4byte	0xab6
 2753 118a 33       		.uleb128 0x33
 2754 118b 44060000 		.4byte	.LASF139
 2755 118f 04       		.byte	0x4
 2756 1190 E2       		.byte	0xe2
 2757 1191 47030000 		.4byte	0x347
 2758 1195 00       		.byte	0
 2759 1196 3C       		.uleb128 0x3c
 2760 1197 61080000 		.4byte	.LASF155
 2761 119b 04       		.byte	0x4
 2762 119c B8       		.byte	0xb8
 2763 119d 03       		.byte	0x3
 2764 119e B8110000 		.4byte	0x11b8
 2765 11a2 32       		.uleb128 0x32
 2766 11a3 6D7000   		.ascii	"mp\000"
 2767 11a6 04       		.byte	0x4
 2768 11a7 B8       		.byte	0xb8
 2769 11a8 ED0E0000 		.4byte	0xeed
 2770 11ac 33       		.uleb128 0x33
 2771 11ad 44060000 		.4byte	.LASF139
 2772 11b1 04       		.byte	0x4
 2773 11b2 B8       		.byte	0xb8
 2774 11b3 47030000 		.4byte	0x347
 2775 11b7 00       		.byte	0
 2776 11b8 3D       		.uleb128 0x3d
 2777 11b9 8B080000 		.4byte	.LASF156
 2778 11bd 03       		.byte	0x3
 2779 11be 8201     		.2byte	0x182
 2780 11c0 03       		.byte	0x3
 2781 11c1 D3110000 		.4byte	0x11d3
 2782 11c5 35       		.uleb128 0x35
 2783 11c6 31060000 		.4byte	.LASF148
 2784 11ca 3D0F0000 		.4byte	0xf3d
 2785 11ce 8B080000 		.4byte	.LASF156
 2786 11d2 00       		.byte	0
 2787 11d3 3E       		.uleb128 0x3e
 2788 11d4 3A060000 		.4byte	.LASF157
 2789 11d8 03       		.byte	0x3
 2790 11d9 7601     		.2byte	0x176
 2791 11db 03       		.byte	0x3
 2792 11dc 3E       		.uleb128 0x3e
 2793 11dd A2020000 		.4byte	.LASF158
ARM GAS  C:\cygwin64\tmp\ccj0RBsU.s 			page 50


 2794 11e1 0E       		.byte	0xe
 2795 11e2 6A02     		.2byte	0x26a
 2796 11e4 03       		.byte	0x3
 2797 11e5 3E       		.uleb128 0x3e
 2798 11e6 CC000000 		.4byte	.LASF159
 2799 11ea 0E       		.byte	0xe
 2800 11eb 5202     		.2byte	0x252
 2801 11ed 03       		.byte	0x3
 2802 11ee 3D       		.uleb128 0x3d
 2803 11ef 1F070000 		.4byte	.LASF160
 2804 11f3 02       		.byte	0x2
 2805 11f4 0601     		.2byte	0x106
 2806 11f6 03       		.byte	0x3
 2807 11f7 08120000 		.4byte	0x1208
 2808 11fb 3F       		.uleb128 0x3f
 2809 11fc 56030000 		.4byte	.LASF161
 2810 1200 02       		.byte	0x2
 2811 1201 0601     		.2byte	0x106
 2812 1203 DA000000 		.4byte	0xda
 2813 1207 00       		.byte	0
 2814 1208 40       		.uleb128 0x40
 2815 1209 24110000 		.4byte	0x1124
 2816 120d 00000000 		.4byte	.LFB246
 2817 1211 0A000000 		.4byte	.LFE246-.LFB246
 2818 1215 01       		.uleb128 0x1
 2819 1216 9C       		.byte	0x9c
 2820 1217 36120000 		.4byte	0x1236
 2821 121b 41       		.uleb128 0x41
 2822 121c 30110000 		.4byte	0x1130
 2823 1220 01       		.uleb128 0x1
 2824 1221 50       		.byte	0x50
 2825 1222 41       		.uleb128 0x41
 2826 1223 3A110000 		.4byte	0x113a
 2827 1227 01       		.uleb128 0x1
 2828 1228 51       		.byte	0x51
 2829 1229 41       		.uleb128 0x41
 2830 122a 45110000 		.4byte	0x1145
 2831 122e 01       		.uleb128 0x1
 2832 122f 52       		.byte	0x52
 2833 1230 24       		.uleb128 0x24
 2834 1231 50110000 		.4byte	0x1150
 2835 1235 00       		.byte	0
 2836 1236 40       		.uleb128 0x40
 2837 1237 F30E0000 		.4byte	0xef3
 2838 123b 00000000 		.4byte	.LFB250
 2839 123f 08000000 		.4byte	.LFE250-.LFB250
 2840 1243 01       		.uleb128 0x1
 2841 1244 9C       		.byte	0x9c
 2842 1245 64120000 		.4byte	0x1264
 2843 1249 41       		.uleb128 0x41
 2844 124a FF0E0000 		.4byte	0xeff
 2845 124e 01       		.uleb128 0x1
 2846 124f 50       		.byte	0x50
 2847 1250 41       		.uleb128 0x41
 2848 1251 090F0000 		.4byte	0xf09
 2849 1255 01       		.uleb128 0x1
 2850 1256 51       		.byte	0x51
ARM GAS  C:\cygwin64\tmp\ccj0RBsU.s 			page 51


 2851 1257 42       		.uleb128 0x42
 2852 1258 140F0000 		.4byte	0xf14
 2853 125c 01       		.uleb128 0x1
 2854 125d 51       		.byte	0x51
 2855 125e 24       		.uleb128 0x24
 2856 125f 1F0F0000 		.4byte	0xf1f
 2857 1263 00       		.byte	0
 2858 1264 43       		.uleb128 0x43
 2859 1265 43080000 		.4byte	.LASF162
 2860 1269 43080000 		.4byte	.LASF162
 2861 126d 10       		.byte	0x10
 2862 126e 4F       		.byte	0x4f
 2863 126f 43       		.uleb128 0x43
 2864 1270 C4040000 		.4byte	.LASF163
 2865 1274 C4040000 		.4byte	.LASF163
 2866 1278 10       		.byte	0x10
 2867 1279 50       		.byte	0x50
 2868 127a 44       		.uleb128 0x44
 2869 127b E6020000 		.4byte	.LASF164
 2870 127f E6020000 		.4byte	.LASF164
 2871 1283 0A       		.byte	0xa
 2872 1284 E101     		.2byte	0x1e1
 2873 1286 43       		.uleb128 0x43
 2874 1287 51000000 		.4byte	.LASF165
 2875 128b 51000000 		.4byte	.LASF165
 2876 128f 11       		.byte	0x11
 2877 1290 63       		.byte	0x63
 2878 1291 43       		.uleb128 0x43
 2879 1292 E1060000 		.4byte	.LASF166
 2880 1296 E1060000 		.4byte	.LASF166
 2881 129a 11       		.byte	0x11
 2882 129b 61       		.byte	0x61
 2883 129c 43       		.uleb128 0x43
 2884 129d 5C030000 		.4byte	.LASF167
 2885 12a1 5C030000 		.4byte	.LASF167
 2886 12a5 11       		.byte	0x11
 2887 12a6 5B       		.byte	0x5b
 2888 12a7 00       		.byte	0
 2889              		.section	.debug_abbrev,"",%progbits
 2890              	.Ldebug_abbrev0:
 2891 0000 01       		.uleb128 0x1
 2892 0001 11       		.uleb128 0x11
 2893 0002 01       		.byte	0x1
 2894 0003 25       		.uleb128 0x25
 2895 0004 0E       		.uleb128 0xe
 2896 0005 13       		.uleb128 0x13
 2897 0006 0B       		.uleb128 0xb
 2898 0007 03       		.uleb128 0x3
 2899 0008 0E       		.uleb128 0xe
 2900 0009 1B       		.uleb128 0x1b
 2901 000a 0E       		.uleb128 0xe
 2902 000b 55       		.uleb128 0x55
 2903 000c 17       		.uleb128 0x17
 2904 000d 11       		.uleb128 0x11
 2905 000e 01       		.uleb128 0x1
 2906 000f 10       		.uleb128 0x10
 2907 0010 17       		.uleb128 0x17
ARM GAS  C:\cygwin64\tmp\ccj0RBsU.s 			page 52


 2908 0011 00       		.byte	0
 2909 0012 00       		.byte	0
 2910 0013 02       		.uleb128 0x2
 2911 0014 24       		.uleb128 0x24
 2912 0015 00       		.byte	0
 2913 0016 0B       		.uleb128 0xb
 2914 0017 0B       		.uleb128 0xb
 2915 0018 3E       		.uleb128 0x3e
 2916 0019 0B       		.uleb128 0xb
 2917 001a 03       		.uleb128 0x3
 2918 001b 08       		.uleb128 0x8
 2919 001c 00       		.byte	0
 2920 001d 00       		.byte	0
 2921 001e 03       		.uleb128 0x3
 2922 001f 16       		.uleb128 0x16
 2923 0020 00       		.byte	0
 2924 0021 03       		.uleb128 0x3
 2925 0022 0E       		.uleb128 0xe
 2926 0023 3A       		.uleb128 0x3a
 2927 0024 0B       		.uleb128 0xb
 2928 0025 3B       		.uleb128 0x3b
 2929 0026 0B       		.uleb128 0xb
 2930 0027 49       		.uleb128 0x49
 2931 0028 13       		.uleb128 0x13
 2932 0029 00       		.byte	0
 2933 002a 00       		.byte	0
 2934 002b 04       		.uleb128 0x4
 2935 002c 24       		.uleb128 0x24
 2936 002d 00       		.byte	0
 2937 002e 0B       		.uleb128 0xb
 2938 002f 0B       		.uleb128 0xb
 2939 0030 3E       		.uleb128 0x3e
 2940 0031 0B       		.uleb128 0xb
 2941 0032 03       		.uleb128 0x3
 2942 0033 0E       		.uleb128 0xe
 2943 0034 00       		.byte	0
 2944 0035 00       		.byte	0
 2945 0036 05       		.uleb128 0x5
 2946 0037 35       		.uleb128 0x35
 2947 0038 00       		.byte	0
 2948 0039 49       		.uleb128 0x49
 2949 003a 13       		.uleb128 0x13
 2950 003b 00       		.byte	0
 2951 003c 00       		.byte	0
 2952 003d 06       		.uleb128 0x6
 2953 003e 13       		.uleb128 0x13
 2954 003f 01       		.byte	0x1
 2955 0040 03       		.uleb128 0x3
 2956 0041 0E       		.uleb128 0xe
 2957 0042 0B       		.uleb128 0xb
 2958 0043 0B       		.uleb128 0xb
 2959 0044 3A       		.uleb128 0x3a
 2960 0045 0B       		.uleb128 0xb
 2961 0046 3B       		.uleb128 0x3b
 2962 0047 0B       		.uleb128 0xb
 2963 0048 01       		.uleb128 0x1
 2964 0049 13       		.uleb128 0x13
ARM GAS  C:\cygwin64\tmp\ccj0RBsU.s 			page 53


 2965 004a 00       		.byte	0
 2966 004b 00       		.byte	0
 2967 004c 07       		.uleb128 0x7
 2968 004d 0D       		.uleb128 0xd
 2969 004e 00       		.byte	0
 2970 004f 03       		.uleb128 0x3
 2971 0050 0E       		.uleb128 0xe
 2972 0051 3A       		.uleb128 0x3a
 2973 0052 0B       		.uleb128 0xb
 2974 0053 3B       		.uleb128 0x3b
 2975 0054 0B       		.uleb128 0xb
 2976 0055 49       		.uleb128 0x49
 2977 0056 13       		.uleb128 0x13
 2978 0057 38       		.uleb128 0x38
 2979 0058 0B       		.uleb128 0xb
 2980 0059 00       		.byte	0
 2981 005a 00       		.byte	0
 2982 005b 08       		.uleb128 0x8
 2983 005c 0D       		.uleb128 0xd
 2984 005d 00       		.byte	0
 2985 005e 03       		.uleb128 0x3
 2986 005f 08       		.uleb128 0x8
 2987 0060 3A       		.uleb128 0x3a
 2988 0061 0B       		.uleb128 0xb
 2989 0062 3B       		.uleb128 0x3b
 2990 0063 0B       		.uleb128 0xb
 2991 0064 49       		.uleb128 0x49
 2992 0065 13       		.uleb128 0x13
 2993 0066 38       		.uleb128 0x38
 2994 0067 0B       		.uleb128 0xb
 2995 0068 00       		.byte	0
 2996 0069 00       		.byte	0
 2997 006a 09       		.uleb128 0x9
 2998 006b 0D       		.uleb128 0xd
 2999 006c 00       		.byte	0
 3000 006d 03       		.uleb128 0x3
 3001 006e 08       		.uleb128 0x8
 3002 006f 3A       		.uleb128 0x3a
 3003 0070 0B       		.uleb128 0xb
 3004 0071 3B       		.uleb128 0x3b
 3005 0072 05       		.uleb128 0x5
 3006 0073 49       		.uleb128 0x49
 3007 0074 13       		.uleb128 0x13
 3008 0075 38       		.uleb128 0x38
 3009 0076 0B       		.uleb128 0xb
 3010 0077 00       		.byte	0
 3011 0078 00       		.byte	0
 3012 0079 0A       		.uleb128 0xa
 3013 007a 0D       		.uleb128 0xd
 3014 007b 00       		.byte	0
 3015 007c 03       		.uleb128 0x3
 3016 007d 0E       		.uleb128 0xe
 3017 007e 3A       		.uleb128 0x3a
 3018 007f 0B       		.uleb128 0xb
 3019 0080 3B       		.uleb128 0x3b
 3020 0081 05       		.uleb128 0x5
 3021 0082 49       		.uleb128 0x49
ARM GAS  C:\cygwin64\tmp\ccj0RBsU.s 			page 54


 3022 0083 13       		.uleb128 0x13
 3023 0084 38       		.uleb128 0x38
 3024 0085 0B       		.uleb128 0xb
 3025 0086 00       		.byte	0
 3026 0087 00       		.byte	0
 3027 0088 0B       		.uleb128 0xb
 3028 0089 0F       		.uleb128 0xf
 3029 008a 00       		.byte	0
 3030 008b 0B       		.uleb128 0xb
 3031 008c 0B       		.uleb128 0xb
 3032 008d 49       		.uleb128 0x49
 3033 008e 13       		.uleb128 0x13
 3034 008f 00       		.byte	0
 3035 0090 00       		.byte	0
 3036 0091 0C       		.uleb128 0xc
 3037 0092 13       		.uleb128 0x13
 3038 0093 01       		.byte	0x1
 3039 0094 03       		.uleb128 0x3
 3040 0095 0E       		.uleb128 0xe
 3041 0096 0B       		.uleb128 0xb
 3042 0097 0B       		.uleb128 0xb
 3043 0098 3A       		.uleb128 0x3a
 3044 0099 0B       		.uleb128 0xb
 3045 009a 3B       		.uleb128 0x3b
 3046 009b 05       		.uleb128 0x5
 3047 009c 01       		.uleb128 0x1
 3048 009d 13       		.uleb128 0x13
 3049 009e 00       		.byte	0
 3050 009f 00       		.byte	0
 3051 00a0 0D       		.uleb128 0xd
 3052 00a1 15       		.uleb128 0x15
 3053 00a2 01       		.byte	0x1
 3054 00a3 27       		.uleb128 0x27
 3055 00a4 19       		.uleb128 0x19
 3056 00a5 01       		.uleb128 0x1
 3057 00a6 13       		.uleb128 0x13
 3058 00a7 00       		.byte	0
 3059 00a8 00       		.byte	0
 3060 00a9 0E       		.uleb128 0xe
 3061 00aa 05       		.uleb128 0x5
 3062 00ab 00       		.byte	0
 3063 00ac 49       		.uleb128 0x49
 3064 00ad 13       		.uleb128 0x13
 3065 00ae 00       		.byte	0
 3066 00af 00       		.byte	0
 3067 00b0 0F       		.uleb128 0xf
 3068 00b1 0F       		.uleb128 0xf
 3069 00b2 00       		.byte	0
 3070 00b3 0B       		.uleb128 0xb
 3071 00b4 0B       		.uleb128 0xb
 3072 00b5 00       		.byte	0
 3073 00b6 00       		.byte	0
 3074 00b7 10       		.uleb128 0x10
 3075 00b8 34       		.uleb128 0x34
 3076 00b9 00       		.byte	0
 3077 00ba 03       		.uleb128 0x3
 3078 00bb 0E       		.uleb128 0xe
ARM GAS  C:\cygwin64\tmp\ccj0RBsU.s 			page 55


 3079 00bc 3A       		.uleb128 0x3a
 3080 00bd 0B       		.uleb128 0xb
 3081 00be 3B       		.uleb128 0x3b
 3082 00bf 05       		.uleb128 0x5
 3083 00c0 49       		.uleb128 0x49
 3084 00c1 13       		.uleb128 0x13
 3085 00c2 3F       		.uleb128 0x3f
 3086 00c3 19       		.uleb128 0x19
 3087 00c4 3C       		.uleb128 0x3c
 3088 00c5 19       		.uleb128 0x19
 3089 00c6 00       		.byte	0
 3090 00c7 00       		.byte	0
 3091 00c8 11       		.uleb128 0x11
 3092 00c9 34       		.uleb128 0x34
 3093 00ca 00       		.byte	0
 3094 00cb 03       		.uleb128 0x3
 3095 00cc 0E       		.uleb128 0xe
 3096 00cd 3A       		.uleb128 0x3a
 3097 00ce 0B       		.uleb128 0xb
 3098 00cf 3B       		.uleb128 0x3b
 3099 00d0 0B       		.uleb128 0xb
 3100 00d1 49       		.uleb128 0x49
 3101 00d2 13       		.uleb128 0x13
 3102 00d3 3F       		.uleb128 0x3f
 3103 00d4 19       		.uleb128 0x19
 3104 00d5 3C       		.uleb128 0x3c
 3105 00d6 19       		.uleb128 0x19
 3106 00d7 00       		.byte	0
 3107 00d8 00       		.byte	0
 3108 00d9 12       		.uleb128 0x12
 3109 00da 13       		.uleb128 0x13
 3110 00db 01       		.byte	0x1
 3111 00dc 0B       		.uleb128 0xb
 3112 00dd 0B       		.uleb128 0xb
 3113 00de 3A       		.uleb128 0x3a
 3114 00df 0B       		.uleb128 0xb
 3115 00e0 3B       		.uleb128 0x3b
 3116 00e1 0B       		.uleb128 0xb
 3117 00e2 01       		.uleb128 0x1
 3118 00e3 13       		.uleb128 0x13
 3119 00e4 00       		.byte	0
 3120 00e5 00       		.byte	0
 3121 00e6 13       		.uleb128 0x13
 3122 00e7 17       		.uleb128 0x17
 3123 00e8 01       		.byte	0x1
 3124 00e9 0B       		.uleb128 0xb
 3125 00ea 0B       		.uleb128 0xb
 3126 00eb 3A       		.uleb128 0x3a
 3127 00ec 0B       		.uleb128 0xb
 3128 00ed 3B       		.uleb128 0x3b
 3129 00ee 0B       		.uleb128 0xb
 3130 00ef 01       		.uleb128 0x1
 3131 00f0 13       		.uleb128 0x13
 3132 00f1 00       		.byte	0
 3133 00f2 00       		.byte	0
 3134 00f3 14       		.uleb128 0x14
 3135 00f4 0D       		.uleb128 0xd
ARM GAS  C:\cygwin64\tmp\ccj0RBsU.s 			page 56


 3136 00f5 00       		.byte	0
 3137 00f6 03       		.uleb128 0x3
 3138 00f7 0E       		.uleb128 0xe
 3139 00f8 3A       		.uleb128 0x3a
 3140 00f9 0B       		.uleb128 0xb
 3141 00fa 3B       		.uleb128 0x3b
 3142 00fb 0B       		.uleb128 0xb
 3143 00fc 49       		.uleb128 0x49
 3144 00fd 13       		.uleb128 0x13
 3145 00fe 00       		.byte	0
 3146 00ff 00       		.byte	0
 3147 0100 15       		.uleb128 0x15
 3148 0101 0D       		.uleb128 0xd
 3149 0102 00       		.byte	0
 3150 0103 03       		.uleb128 0x3
 3151 0104 0E       		.uleb128 0xe
 3152 0105 3A       		.uleb128 0x3a
 3153 0106 0B       		.uleb128 0xb
 3154 0107 3B       		.uleb128 0x3b
 3155 0108 05       		.uleb128 0x5
 3156 0109 49       		.uleb128 0x49
 3157 010a 13       		.uleb128 0x13
 3158 010b 00       		.byte	0
 3159 010c 00       		.byte	0
 3160 010d 16       		.uleb128 0x16
 3161 010e 26       		.uleb128 0x26
 3162 010f 00       		.byte	0
 3163 0110 49       		.uleb128 0x49
 3164 0111 13       		.uleb128 0x13
 3165 0112 00       		.byte	0
 3166 0113 00       		.byte	0
 3167 0114 17       		.uleb128 0x17
 3168 0115 34       		.uleb128 0x34
 3169 0116 00       		.byte	0
 3170 0117 03       		.uleb128 0x3
 3171 0118 08       		.uleb128 0x8
 3172 0119 3A       		.uleb128 0x3a
 3173 011a 0B       		.uleb128 0xb
 3174 011b 3B       		.uleb128 0x3b
 3175 011c 05       		.uleb128 0x5
 3176 011d 49       		.uleb128 0x49
 3177 011e 13       		.uleb128 0x13
 3178 011f 3F       		.uleb128 0x3f
 3179 0120 19       		.uleb128 0x19
 3180 0121 3C       		.uleb128 0x3c
 3181 0122 19       		.uleb128 0x19
 3182 0123 00       		.byte	0
 3183 0124 00       		.byte	0
 3184 0125 18       		.uleb128 0x18
 3185 0126 01       		.uleb128 0x1
 3186 0127 01       		.byte	0x1
 3187 0128 49       		.uleb128 0x49
 3188 0129 13       		.uleb128 0x13
 3189 012a 01       		.uleb128 0x1
 3190 012b 13       		.uleb128 0x13
 3191 012c 00       		.byte	0
 3192 012d 00       		.byte	0
ARM GAS  C:\cygwin64\tmp\ccj0RBsU.s 			page 57


 3193 012e 19       		.uleb128 0x19
 3194 012f 21       		.uleb128 0x21
 3195 0130 00       		.byte	0
 3196 0131 00       		.byte	0
 3197 0132 00       		.byte	0
 3198 0133 1A       		.uleb128 0x1a
 3199 0134 21       		.uleb128 0x21
 3200 0135 00       		.byte	0
 3201 0136 49       		.uleb128 0x49
 3202 0137 13       		.uleb128 0x13
 3203 0138 2F       		.uleb128 0x2f
 3204 0139 0B       		.uleb128 0xb
 3205 013a 00       		.byte	0
 3206 013b 00       		.byte	0
 3207 013c 1B       		.uleb128 0x1b
 3208 013d 15       		.uleb128 0x15
 3209 013e 01       		.byte	0x1
 3210 013f 27       		.uleb128 0x27
 3211 0140 19       		.uleb128 0x19
 3212 0141 49       		.uleb128 0x49
 3213 0142 13       		.uleb128 0x13
 3214 0143 01       		.uleb128 0x1
 3215 0144 13       		.uleb128 0x13
 3216 0145 00       		.byte	0
 3217 0146 00       		.byte	0
 3218 0147 1C       		.uleb128 0x1c
 3219 0148 2E       		.uleb128 0x2e
 3220 0149 01       		.byte	0x1
 3221 014a 3F       		.uleb128 0x3f
 3222 014b 19       		.uleb128 0x19
 3223 014c 03       		.uleb128 0x3
 3224 014d 0E       		.uleb128 0xe
 3225 014e 3A       		.uleb128 0x3a
 3226 014f 0B       		.uleb128 0xb
 3227 0150 3B       		.uleb128 0x3b
 3228 0151 05       		.uleb128 0x5
 3229 0152 27       		.uleb128 0x27
 3230 0153 19       		.uleb128 0x19
 3231 0154 11       		.uleb128 0x11
 3232 0155 01       		.uleb128 0x1
 3233 0156 12       		.uleb128 0x12
 3234 0157 06       		.uleb128 0x6
 3235 0158 40       		.uleb128 0x40
 3236 0159 18       		.uleb128 0x18
 3237 015a 9742     		.uleb128 0x2117
 3238 015c 19       		.uleb128 0x19
 3239 015d 01       		.uleb128 0x1
 3240 015e 13       		.uleb128 0x13
 3241 015f 00       		.byte	0
 3242 0160 00       		.byte	0
 3243 0161 1D       		.uleb128 0x1d
 3244 0162 05       		.uleb128 0x5
 3245 0163 00       		.byte	0
 3246 0164 03       		.uleb128 0x3
 3247 0165 08       		.uleb128 0x8
 3248 0166 3A       		.uleb128 0x3a
 3249 0167 0B       		.uleb128 0xb
ARM GAS  C:\cygwin64\tmp\ccj0RBsU.s 			page 58


 3250 0168 3B       		.uleb128 0x3b
 3251 0169 05       		.uleb128 0x5
 3252 016a 49       		.uleb128 0x49
 3253 016b 13       		.uleb128 0x13
 3254 016c 02       		.uleb128 0x2
 3255 016d 17       		.uleb128 0x17
 3256 016e 00       		.byte	0
 3257 016f 00       		.byte	0
 3258 0170 1E       		.uleb128 0x1e
 3259 0171 05       		.uleb128 0x5
 3260 0172 00       		.byte	0
 3261 0173 03       		.uleb128 0x3
 3262 0174 0E       		.uleb128 0xe
 3263 0175 3A       		.uleb128 0x3a
 3264 0176 0B       		.uleb128 0xb
 3265 0177 3B       		.uleb128 0x3b
 3266 0178 05       		.uleb128 0x5
 3267 0179 49       		.uleb128 0x49
 3268 017a 13       		.uleb128 0x13
 3269 017b 02       		.uleb128 0x2
 3270 017c 17       		.uleb128 0x17
 3271 017d 00       		.byte	0
 3272 017e 00       		.byte	0
 3273 017f 1F       		.uleb128 0x1f
 3274 0180 1D       		.uleb128 0x1d
 3275 0181 01       		.byte	0x1
 3276 0182 31       		.uleb128 0x31
 3277 0183 13       		.uleb128 0x13
 3278 0184 11       		.uleb128 0x11
 3279 0185 01       		.uleb128 0x1
 3280 0186 12       		.uleb128 0x12
 3281 0187 06       		.uleb128 0x6
 3282 0188 58       		.uleb128 0x58
 3283 0189 0B       		.uleb128 0xb
 3284 018a 59       		.uleb128 0x59
 3285 018b 05       		.uleb128 0x5
 3286 018c 01       		.uleb128 0x1
 3287 018d 13       		.uleb128 0x13
 3288 018e 00       		.byte	0
 3289 018f 00       		.byte	0
 3290 0190 20       		.uleb128 0x20
 3291 0191 1D       		.uleb128 0x1d
 3292 0192 01       		.byte	0x1
 3293 0193 31       		.uleb128 0x31
 3294 0194 13       		.uleb128 0x13
 3295 0195 11       		.uleb128 0x11
 3296 0196 01       		.uleb128 0x1
 3297 0197 12       		.uleb128 0x12
 3298 0198 06       		.uleb128 0x6
 3299 0199 58       		.uleb128 0x58
 3300 019a 0B       		.uleb128 0xb
 3301 019b 59       		.uleb128 0x59
 3302 019c 05       		.uleb128 0x5
 3303 019d 00       		.byte	0
 3304 019e 00       		.byte	0
 3305 019f 21       		.uleb128 0x21
 3306 01a0 05       		.uleb128 0x5
ARM GAS  C:\cygwin64\tmp\ccj0RBsU.s 			page 59


 3307 01a1 00       		.byte	0
 3308 01a2 31       		.uleb128 0x31
 3309 01a3 13       		.uleb128 0x13
 3310 01a4 02       		.uleb128 0x2
 3311 01a5 17       		.uleb128 0x17
 3312 01a6 00       		.byte	0
 3313 01a7 00       		.byte	0
 3314 01a8 22       		.uleb128 0x22
 3315 01a9 898201   		.uleb128 0x4109
 3316 01ac 00       		.byte	0
 3317 01ad 11       		.uleb128 0x11
 3318 01ae 01       		.uleb128 0x1
 3319 01af 31       		.uleb128 0x31
 3320 01b0 13       		.uleb128 0x13
 3321 01b1 00       		.byte	0
 3322 01b2 00       		.byte	0
 3323 01b3 23       		.uleb128 0x23
 3324 01b4 0B       		.uleb128 0xb
 3325 01b5 01       		.byte	0x1
 3326 01b6 11       		.uleb128 0x11
 3327 01b7 01       		.uleb128 0x1
 3328 01b8 12       		.uleb128 0x12
 3329 01b9 06       		.uleb128 0x6
 3330 01ba 00       		.byte	0
 3331 01bb 00       		.byte	0
 3332 01bc 24       		.uleb128 0x24
 3333 01bd 34       		.uleb128 0x34
 3334 01be 00       		.byte	0
 3335 01bf 31       		.uleb128 0x31
 3336 01c0 13       		.uleb128 0x13
 3337 01c1 00       		.byte	0
 3338 01c2 00       		.byte	0
 3339 01c3 25       		.uleb128 0x25
 3340 01c4 898201   		.uleb128 0x4109
 3341 01c7 01       		.byte	0x1
 3342 01c8 11       		.uleb128 0x11
 3343 01c9 01       		.uleb128 0x1
 3344 01ca 31       		.uleb128 0x31
 3345 01cb 13       		.uleb128 0x13
 3346 01cc 01       		.uleb128 0x1
 3347 01cd 13       		.uleb128 0x13
 3348 01ce 00       		.byte	0
 3349 01cf 00       		.byte	0
 3350 01d0 26       		.uleb128 0x26
 3351 01d1 8A8201   		.uleb128 0x410a
 3352 01d4 00       		.byte	0
 3353 01d5 02       		.uleb128 0x2
 3354 01d6 18       		.uleb128 0x18
 3355 01d7 9142     		.uleb128 0x2111
 3356 01d9 18       		.uleb128 0x18
 3357 01da 00       		.byte	0
 3358 01db 00       		.byte	0
 3359 01dc 27       		.uleb128 0x27
 3360 01dd 898201   		.uleb128 0x4109
 3361 01e0 01       		.byte	0x1
 3362 01e1 11       		.uleb128 0x11
 3363 01e2 01       		.uleb128 0x1
ARM GAS  C:\cygwin64\tmp\ccj0RBsU.s 			page 60


 3364 01e3 9542     		.uleb128 0x2115
 3365 01e5 19       		.uleb128 0x19
 3366 01e6 31       		.uleb128 0x31
 3367 01e7 13       		.uleb128 0x13
 3368 01e8 00       		.byte	0
 3369 01e9 00       		.byte	0
 3370 01ea 28       		.uleb128 0x28
 3371 01eb 2E       		.uleb128 0x2e
 3372 01ec 01       		.byte	0x1
 3373 01ed 3F       		.uleb128 0x3f
 3374 01ee 19       		.uleb128 0x19
 3375 01ef 03       		.uleb128 0x3
 3376 01f0 0E       		.uleb128 0xe
 3377 01f1 3A       		.uleb128 0x3a
 3378 01f2 0B       		.uleb128 0xb
 3379 01f3 3B       		.uleb128 0x3b
 3380 01f4 05       		.uleb128 0x5
 3381 01f5 27       		.uleb128 0x27
 3382 01f6 19       		.uleb128 0x19
 3383 01f7 49       		.uleb128 0x49
 3384 01f8 13       		.uleb128 0x13
 3385 01f9 11       		.uleb128 0x11
 3386 01fa 01       		.uleb128 0x1
 3387 01fb 12       		.uleb128 0x12
 3388 01fc 06       		.uleb128 0x6
 3389 01fd 40       		.uleb128 0x40
 3390 01fe 18       		.uleb128 0x18
 3391 01ff 9742     		.uleb128 0x2117
 3392 0201 19       		.uleb128 0x19
 3393 0202 01       		.uleb128 0x1
 3394 0203 13       		.uleb128 0x13
 3395 0204 00       		.byte	0
 3396 0205 00       		.byte	0
 3397 0206 29       		.uleb128 0x29
 3398 0207 34       		.uleb128 0x34
 3399 0208 00       		.byte	0
 3400 0209 03       		.uleb128 0x3
 3401 020a 08       		.uleb128 0x8
 3402 020b 3A       		.uleb128 0x3a
 3403 020c 0B       		.uleb128 0xb
 3404 020d 3B       		.uleb128 0x3b
 3405 020e 05       		.uleb128 0x5
 3406 020f 49       		.uleb128 0x49
 3407 0210 13       		.uleb128 0x13
 3408 0211 02       		.uleb128 0x2
 3409 0212 17       		.uleb128 0x17
 3410 0213 00       		.byte	0
 3411 0214 00       		.byte	0
 3412 0215 2A       		.uleb128 0x2a
 3413 0216 898201   		.uleb128 0x4109
 3414 0219 01       		.byte	0x1
 3415 021a 11       		.uleb128 0x11
 3416 021b 01       		.uleb128 0x1
 3417 021c 31       		.uleb128 0x31
 3418 021d 13       		.uleb128 0x13
 3419 021e 00       		.byte	0
 3420 021f 00       		.byte	0
ARM GAS  C:\cygwin64\tmp\ccj0RBsU.s 			page 61


 3421 0220 2B       		.uleb128 0x2b
 3422 0221 2E       		.uleb128 0x2e
 3423 0222 01       		.byte	0x1
 3424 0223 3F       		.uleb128 0x3f
 3425 0224 19       		.uleb128 0x19
 3426 0225 03       		.uleb128 0x3
 3427 0226 0E       		.uleb128 0xe
 3428 0227 3A       		.uleb128 0x3a
 3429 0228 0B       		.uleb128 0xb
 3430 0229 3B       		.uleb128 0x3b
 3431 022a 0B       		.uleb128 0xb
 3432 022b 27       		.uleb128 0x27
 3433 022c 19       		.uleb128 0x19
 3434 022d 11       		.uleb128 0x11
 3435 022e 01       		.uleb128 0x1
 3436 022f 12       		.uleb128 0x12
 3437 0230 06       		.uleb128 0x6
 3438 0231 40       		.uleb128 0x40
 3439 0232 18       		.uleb128 0x18
 3440 0233 9742     		.uleb128 0x2117
 3441 0235 19       		.uleb128 0x19
 3442 0236 01       		.uleb128 0x1
 3443 0237 13       		.uleb128 0x13
 3444 0238 00       		.byte	0
 3445 0239 00       		.byte	0
 3446 023a 2C       		.uleb128 0x2c
 3447 023b 05       		.uleb128 0x5
 3448 023c 00       		.byte	0
 3449 023d 03       		.uleb128 0x3
 3450 023e 08       		.uleb128 0x8
 3451 023f 3A       		.uleb128 0x3a
 3452 0240 0B       		.uleb128 0xb
 3453 0241 3B       		.uleb128 0x3b
 3454 0242 0B       		.uleb128 0xb
 3455 0243 49       		.uleb128 0x49
 3456 0244 13       		.uleb128 0x13
 3457 0245 02       		.uleb128 0x2
 3458 0246 17       		.uleb128 0x17
 3459 0247 00       		.byte	0
 3460 0248 00       		.byte	0
 3461 0249 2D       		.uleb128 0x2d
 3462 024a 34       		.uleb128 0x34
 3463 024b 00       		.byte	0
 3464 024c 03       		.uleb128 0x3
 3465 024d 0E       		.uleb128 0xe
 3466 024e 49       		.uleb128 0x49
 3467 024f 13       		.uleb128 0x13
 3468 0250 34       		.uleb128 0x34
 3469 0251 19       		.uleb128 0x19
 3470 0252 00       		.byte	0
 3471 0253 00       		.byte	0
 3472 0254 2E       		.uleb128 0x2e
 3473 0255 1D       		.uleb128 0x1d
 3474 0256 01       		.byte	0x1
 3475 0257 31       		.uleb128 0x31
 3476 0258 13       		.uleb128 0x13
 3477 0259 11       		.uleb128 0x11
ARM GAS  C:\cygwin64\tmp\ccj0RBsU.s 			page 62


 3478 025a 01       		.uleb128 0x1
 3479 025b 12       		.uleb128 0x12
 3480 025c 06       		.uleb128 0x6
 3481 025d 58       		.uleb128 0x58
 3482 025e 0B       		.uleb128 0xb
 3483 025f 59       		.uleb128 0x59
 3484 0260 0B       		.uleb128 0xb
 3485 0261 00       		.byte	0
 3486 0262 00       		.byte	0
 3487 0263 2F       		.uleb128 0x2f
 3488 0264 05       		.uleb128 0x5
 3489 0265 00       		.byte	0
 3490 0266 03       		.uleb128 0x3
 3491 0267 0E       		.uleb128 0xe
 3492 0268 3A       		.uleb128 0x3a
 3493 0269 0B       		.uleb128 0xb
 3494 026a 3B       		.uleb128 0x3b
 3495 026b 0B       		.uleb128 0xb
 3496 026c 49       		.uleb128 0x49
 3497 026d 13       		.uleb128 0x13
 3498 026e 02       		.uleb128 0x2
 3499 026f 17       		.uleb128 0x17
 3500 0270 00       		.byte	0
 3501 0271 00       		.byte	0
 3502 0272 30       		.uleb128 0x30
 3503 0273 1D       		.uleb128 0x1d
 3504 0274 01       		.byte	0x1
 3505 0275 31       		.uleb128 0x31
 3506 0276 13       		.uleb128 0x13
 3507 0277 11       		.uleb128 0x11
 3508 0278 01       		.uleb128 0x1
 3509 0279 12       		.uleb128 0x12
 3510 027a 06       		.uleb128 0x6
 3511 027b 58       		.uleb128 0x58
 3512 027c 0B       		.uleb128 0xb
 3513 027d 59       		.uleb128 0x59
 3514 027e 0B       		.uleb128 0xb
 3515 027f 01       		.uleb128 0x1
 3516 0280 13       		.uleb128 0x13
 3517 0281 00       		.byte	0
 3518 0282 00       		.byte	0
 3519 0283 31       		.uleb128 0x31
 3520 0284 2E       		.uleb128 0x2e
 3521 0285 01       		.byte	0x1
 3522 0286 3F       		.uleb128 0x3f
 3523 0287 19       		.uleb128 0x19
 3524 0288 03       		.uleb128 0x3
 3525 0289 0E       		.uleb128 0xe
 3526 028a 3A       		.uleb128 0x3a
 3527 028b 0B       		.uleb128 0xb
 3528 028c 3B       		.uleb128 0x3b
 3529 028d 0B       		.uleb128 0xb
 3530 028e 27       		.uleb128 0x27
 3531 028f 19       		.uleb128 0x19
 3532 0290 20       		.uleb128 0x20
 3533 0291 0B       		.uleb128 0xb
 3534 0292 01       		.uleb128 0x1
ARM GAS  C:\cygwin64\tmp\ccj0RBsU.s 			page 63


 3535 0293 13       		.uleb128 0x13
 3536 0294 00       		.byte	0
 3537 0295 00       		.byte	0
 3538 0296 32       		.uleb128 0x32
 3539 0297 05       		.uleb128 0x5
 3540 0298 00       		.byte	0
 3541 0299 03       		.uleb128 0x3
 3542 029a 08       		.uleb128 0x8
 3543 029b 3A       		.uleb128 0x3a
 3544 029c 0B       		.uleb128 0xb
 3545 029d 3B       		.uleb128 0x3b
 3546 029e 0B       		.uleb128 0xb
 3547 029f 49       		.uleb128 0x49
 3548 02a0 13       		.uleb128 0x13
 3549 02a1 00       		.byte	0
 3550 02a2 00       		.byte	0
 3551 02a3 33       		.uleb128 0x33
 3552 02a4 05       		.uleb128 0x5
 3553 02a5 00       		.byte	0
 3554 02a6 03       		.uleb128 0x3
 3555 02a7 0E       		.uleb128 0xe
 3556 02a8 3A       		.uleb128 0x3a
 3557 02a9 0B       		.uleb128 0xb
 3558 02aa 3B       		.uleb128 0x3b
 3559 02ab 0B       		.uleb128 0xb
 3560 02ac 49       		.uleb128 0x49
 3561 02ad 13       		.uleb128 0x13
 3562 02ae 00       		.byte	0
 3563 02af 00       		.byte	0
 3564 02b0 34       		.uleb128 0x34
 3565 02b1 34       		.uleb128 0x34
 3566 02b2 00       		.byte	0
 3567 02b3 03       		.uleb128 0x3
 3568 02b4 08       		.uleb128 0x8
 3569 02b5 3A       		.uleb128 0x3a
 3570 02b6 0B       		.uleb128 0xb
 3571 02b7 3B       		.uleb128 0x3b
 3572 02b8 0B       		.uleb128 0xb
 3573 02b9 49       		.uleb128 0x49
 3574 02ba 13       		.uleb128 0x13
 3575 02bb 00       		.byte	0
 3576 02bc 00       		.byte	0
 3577 02bd 35       		.uleb128 0x35
 3578 02be 34       		.uleb128 0x34
 3579 02bf 00       		.byte	0
 3580 02c0 03       		.uleb128 0x3
 3581 02c1 0E       		.uleb128 0xe
 3582 02c2 49       		.uleb128 0x49
 3583 02c3 13       		.uleb128 0x13
 3584 02c4 34       		.uleb128 0x34
 3585 02c5 19       		.uleb128 0x19
 3586 02c6 1C       		.uleb128 0x1c
 3587 02c7 0E       		.uleb128 0xe
 3588 02c8 00       		.byte	0
 3589 02c9 00       		.byte	0
 3590 02ca 36       		.uleb128 0x36
 3591 02cb 2E       		.uleb128 0x2e
ARM GAS  C:\cygwin64\tmp\ccj0RBsU.s 			page 64


 3592 02cc 01       		.byte	0x1
 3593 02cd 3F       		.uleb128 0x3f
 3594 02ce 19       		.uleb128 0x19
 3595 02cf 03       		.uleb128 0x3
 3596 02d0 0E       		.uleb128 0xe
 3597 02d1 3A       		.uleb128 0x3a
 3598 02d2 0B       		.uleb128 0xb
 3599 02d3 3B       		.uleb128 0x3b
 3600 02d4 0B       		.uleb128 0xb
 3601 02d5 27       		.uleb128 0x27
 3602 02d6 19       		.uleb128 0x19
 3603 02d7 49       		.uleb128 0x49
 3604 02d8 13       		.uleb128 0x13
 3605 02d9 11       		.uleb128 0x11
 3606 02da 01       		.uleb128 0x1
 3607 02db 12       		.uleb128 0x12
 3608 02dc 06       		.uleb128 0x6
 3609 02dd 40       		.uleb128 0x40
 3610 02de 18       		.uleb128 0x18
 3611 02df 9742     		.uleb128 0x2117
 3612 02e1 19       		.uleb128 0x19
 3613 02e2 01       		.uleb128 0x1
 3614 02e3 13       		.uleb128 0x13
 3615 02e4 00       		.byte	0
 3616 02e5 00       		.byte	0
 3617 02e6 37       		.uleb128 0x37
 3618 02e7 34       		.uleb128 0x34
 3619 02e8 00       		.byte	0
 3620 02e9 03       		.uleb128 0x3
 3621 02ea 0E       		.uleb128 0xe
 3622 02eb 3A       		.uleb128 0x3a
 3623 02ec 0B       		.uleb128 0xb
 3624 02ed 3B       		.uleb128 0x3b
 3625 02ee 0B       		.uleb128 0xb
 3626 02ef 49       		.uleb128 0x49
 3627 02f0 13       		.uleb128 0x13
 3628 02f1 02       		.uleb128 0x2
 3629 02f2 17       		.uleb128 0x17
 3630 02f3 00       		.byte	0
 3631 02f4 00       		.byte	0
 3632 02f5 38       		.uleb128 0x38
 3633 02f6 1D       		.uleb128 0x1d
 3634 02f7 01       		.byte	0x1
 3635 02f8 31       		.uleb128 0x31
 3636 02f9 13       		.uleb128 0x13
 3637 02fa 52       		.uleb128 0x52
 3638 02fb 01       		.uleb128 0x1
 3639 02fc 55       		.uleb128 0x55
 3640 02fd 17       		.uleb128 0x17
 3641 02fe 58       		.uleb128 0x58
 3642 02ff 0B       		.uleb128 0xb
 3643 0300 59       		.uleb128 0x59
 3644 0301 0B       		.uleb128 0xb
 3645 0302 01       		.uleb128 0x1
 3646 0303 13       		.uleb128 0x13
 3647 0304 00       		.byte	0
 3648 0305 00       		.byte	0
ARM GAS  C:\cygwin64\tmp\ccj0RBsU.s 			page 65


 3649 0306 39       		.uleb128 0x39
 3650 0307 1D       		.uleb128 0x1d
 3651 0308 01       		.byte	0x1
 3652 0309 31       		.uleb128 0x31
 3653 030a 13       		.uleb128 0x13
 3654 030b 52       		.uleb128 0x52
 3655 030c 01       		.uleb128 0x1
 3656 030d 55       		.uleb128 0x55
 3657 030e 17       		.uleb128 0x17
 3658 030f 58       		.uleb128 0x58
 3659 0310 0B       		.uleb128 0xb
 3660 0311 59       		.uleb128 0x59
 3661 0312 05       		.uleb128 0x5
 3662 0313 01       		.uleb128 0x1
 3663 0314 13       		.uleb128 0x13
 3664 0315 00       		.byte	0
 3665 0316 00       		.byte	0
 3666 0317 3A       		.uleb128 0x3a
 3667 0318 1D       		.uleb128 0x1d
 3668 0319 01       		.byte	0x1
 3669 031a 31       		.uleb128 0x31
 3670 031b 13       		.uleb128 0x13
 3671 031c 52       		.uleb128 0x52
 3672 031d 01       		.uleb128 0x1
 3673 031e 55       		.uleb128 0x55
 3674 031f 17       		.uleb128 0x17
 3675 0320 58       		.uleb128 0x58
 3676 0321 0B       		.uleb128 0xb
 3677 0322 59       		.uleb128 0x59
 3678 0323 05       		.uleb128 0x5
 3679 0324 00       		.byte	0
 3680 0325 00       		.byte	0
 3681 0326 3B       		.uleb128 0x3b
 3682 0327 898201   		.uleb128 0x4109
 3683 032a 01       		.byte	0x1
 3684 032b 11       		.uleb128 0x11
 3685 032c 01       		.uleb128 0x1
 3686 032d 9542     		.uleb128 0x2115
 3687 032f 19       		.uleb128 0x19
 3688 0330 00       		.byte	0
 3689 0331 00       		.byte	0
 3690 0332 3C       		.uleb128 0x3c
 3691 0333 2E       		.uleb128 0x2e
 3692 0334 01       		.byte	0x1
 3693 0335 03       		.uleb128 0x3
 3694 0336 0E       		.uleb128 0xe
 3695 0337 3A       		.uleb128 0x3a
 3696 0338 0B       		.uleb128 0xb
 3697 0339 3B       		.uleb128 0x3b
 3698 033a 0B       		.uleb128 0xb
 3699 033b 27       		.uleb128 0x27
 3700 033c 19       		.uleb128 0x19
 3701 033d 20       		.uleb128 0x20
 3702 033e 0B       		.uleb128 0xb
 3703 033f 01       		.uleb128 0x1
 3704 0340 13       		.uleb128 0x13
 3705 0341 00       		.byte	0
ARM GAS  C:\cygwin64\tmp\ccj0RBsU.s 			page 66


 3706 0342 00       		.byte	0
 3707 0343 3D       		.uleb128 0x3d
 3708 0344 2E       		.uleb128 0x2e
 3709 0345 01       		.byte	0x1
 3710 0346 03       		.uleb128 0x3
 3711 0347 0E       		.uleb128 0xe
 3712 0348 3A       		.uleb128 0x3a
 3713 0349 0B       		.uleb128 0xb
 3714 034a 3B       		.uleb128 0x3b
 3715 034b 05       		.uleb128 0x5
 3716 034c 27       		.uleb128 0x27
 3717 034d 19       		.uleb128 0x19
 3718 034e 20       		.uleb128 0x20
 3719 034f 0B       		.uleb128 0xb
 3720 0350 01       		.uleb128 0x1
 3721 0351 13       		.uleb128 0x13
 3722 0352 00       		.byte	0
 3723 0353 00       		.byte	0
 3724 0354 3E       		.uleb128 0x3e
 3725 0355 2E       		.uleb128 0x2e
 3726 0356 00       		.byte	0
 3727 0357 03       		.uleb128 0x3
 3728 0358 0E       		.uleb128 0xe
 3729 0359 3A       		.uleb128 0x3a
 3730 035a 0B       		.uleb128 0xb
 3731 035b 3B       		.uleb128 0x3b
 3732 035c 05       		.uleb128 0x5
 3733 035d 27       		.uleb128 0x27
 3734 035e 19       		.uleb128 0x19
 3735 035f 20       		.uleb128 0x20
 3736 0360 0B       		.uleb128 0xb
 3737 0361 00       		.byte	0
 3738 0362 00       		.byte	0
 3739 0363 3F       		.uleb128 0x3f
 3740 0364 05       		.uleb128 0x5
 3741 0365 00       		.byte	0
 3742 0366 03       		.uleb128 0x3
 3743 0367 0E       		.uleb128 0xe
 3744 0368 3A       		.uleb128 0x3a
 3745 0369 0B       		.uleb128 0xb
 3746 036a 3B       		.uleb128 0x3b
 3747 036b 05       		.uleb128 0x5
 3748 036c 49       		.uleb128 0x49
 3749 036d 13       		.uleb128 0x13
 3750 036e 00       		.byte	0
 3751 036f 00       		.byte	0
 3752 0370 40       		.uleb128 0x40
 3753 0371 2E       		.uleb128 0x2e
 3754 0372 01       		.byte	0x1
 3755 0373 31       		.uleb128 0x31
 3756 0374 13       		.uleb128 0x13
 3757 0375 11       		.uleb128 0x11
 3758 0376 01       		.uleb128 0x1
 3759 0377 12       		.uleb128 0x12
 3760 0378 06       		.uleb128 0x6
 3761 0379 40       		.uleb128 0x40
 3762 037a 18       		.uleb128 0x18
ARM GAS  C:\cygwin64\tmp\ccj0RBsU.s 			page 67


 3763 037b 9742     		.uleb128 0x2117
 3764 037d 19       		.uleb128 0x19
 3765 037e 01       		.uleb128 0x1
 3766 037f 13       		.uleb128 0x13
 3767 0380 00       		.byte	0
 3768 0381 00       		.byte	0
 3769 0382 41       		.uleb128 0x41
 3770 0383 05       		.uleb128 0x5
 3771 0384 00       		.byte	0
 3772 0385 31       		.uleb128 0x31
 3773 0386 13       		.uleb128 0x13
 3774 0387 02       		.uleb128 0x2
 3775 0388 18       		.uleb128 0x18
 3776 0389 00       		.byte	0
 3777 038a 00       		.byte	0
 3778 038b 42       		.uleb128 0x42
 3779 038c 34       		.uleb128 0x34
 3780 038d 00       		.byte	0
 3781 038e 31       		.uleb128 0x31
 3782 038f 13       		.uleb128 0x13
 3783 0390 02       		.uleb128 0x2
 3784 0391 18       		.uleb128 0x18
 3785 0392 00       		.byte	0
 3786 0393 00       		.byte	0
 3787 0394 43       		.uleb128 0x43
 3788 0395 2E       		.uleb128 0x2e
 3789 0396 00       		.byte	0
 3790 0397 3F       		.uleb128 0x3f
 3791 0398 19       		.uleb128 0x19
 3792 0399 3C       		.uleb128 0x3c
 3793 039a 19       		.uleb128 0x19
 3794 039b 6E       		.uleb128 0x6e
 3795 039c 0E       		.uleb128 0xe
 3796 039d 03       		.uleb128 0x3
 3797 039e 0E       		.uleb128 0xe
 3798 039f 3A       		.uleb128 0x3a
 3799 03a0 0B       		.uleb128 0xb
 3800 03a1 3B       		.uleb128 0x3b
 3801 03a2 0B       		.uleb128 0xb
 3802 03a3 00       		.byte	0
 3803 03a4 00       		.byte	0
 3804 03a5 44       		.uleb128 0x44
 3805 03a6 2E       		.uleb128 0x2e
 3806 03a7 00       		.byte	0
 3807 03a8 3F       		.uleb128 0x3f
 3808 03a9 19       		.uleb128 0x19
 3809 03aa 3C       		.uleb128 0x3c
 3810 03ab 19       		.uleb128 0x19
 3811 03ac 6E       		.uleb128 0x6e
 3812 03ad 0E       		.uleb128 0xe
 3813 03ae 03       		.uleb128 0x3
 3814 03af 0E       		.uleb128 0xe
 3815 03b0 3A       		.uleb128 0x3a
 3816 03b1 0B       		.uleb128 0xb
 3817 03b2 3B       		.uleb128 0x3b
 3818 03b3 05       		.uleb128 0x5
 3819 03b4 00       		.byte	0
ARM GAS  C:\cygwin64\tmp\ccj0RBsU.s 			page 68


 3820 03b5 00       		.byte	0
 3821 03b6 00       		.byte	0
 3822              		.section	.debug_loc,"",%progbits
 3823              	.Ldebug_loc0:
 3824              	.LLST34:
 3825 0000 00000000 		.4byte	.LVL45
 3826 0004 0F000000 		.4byte	.LVL47-1
 3827 0008 0100     		.2byte	0x1
 3828 000a 50       		.byte	0x50
 3829 000b 0F000000 		.4byte	.LVL47-1
 3830 000f 28000000 		.4byte	.LFE257
 3831 0013 0100     		.2byte	0x1
 3832 0015 54       		.byte	0x54
 3833 0016 00000000 		.4byte	0
 3834 001a 00000000 		.4byte	0
 3835              	.LLST35:
 3836 001e 00000000 		.4byte	.LVL45
 3837 0022 0F000000 		.4byte	.LVL47-1
 3838 0026 0100     		.2byte	0x1
 3839 0028 51       		.byte	0x51
 3840 0029 0F000000 		.4byte	.LVL47-1
 3841 002d 28000000 		.4byte	.LFE257
 3842 0031 0100     		.2byte	0x1
 3843 0033 55       		.byte	0x55
 3844 0034 00000000 		.4byte	0
 3845 0038 00000000 		.4byte	0
 3846              	.LLST36:
 3847 003c 00000000 		.4byte	.LVL45
 3848 0040 0C000000 		.4byte	.LVL46
 3849 0044 0300     		.2byte	0x3
 3850 0046 08       		.byte	0x8
 3851 0047 20       		.byte	0x20
 3852 0048 9F       		.byte	0x9f
 3853 0049 00000000 		.4byte	0
 3854 004d 00000000 		.4byte	0
 3855              	.LLST37:
 3856 0051 20000000 		.4byte	.LVL50
 3857 0055 26000000 		.4byte	.LVL51
 3858 0059 0200     		.2byte	0x2
 3859 005b 30       		.byte	0x30
 3860 005c 9F       		.byte	0x9f
 3861 005d 00000000 		.4byte	0
 3862 0061 00000000 		.4byte	0
 3863              	.LLST30:
 3864 0065 00000000 		.4byte	.LVL42
 3865 0069 09000000 		.4byte	.LVL44-1
 3866 006d 0100     		.2byte	0x1
 3867 006f 50       		.byte	0x50
 3868 0070 09000000 		.4byte	.LVL44-1
 3869 0074 0A000000 		.4byte	.LFE256
 3870 0078 0400     		.2byte	0x4
 3871 007a F3       		.byte	0xf3
 3872 007b 01       		.uleb128 0x1
 3873 007c 50       		.byte	0x50
 3874 007d 9F       		.byte	0x9f
 3875 007e 00000000 		.4byte	0
 3876 0082 00000000 		.4byte	0
ARM GAS  C:\cygwin64\tmp\ccj0RBsU.s 			page 69


 3877              	.LLST31:
 3878 0086 00000000 		.4byte	.LVL42
 3879 008a 09000000 		.4byte	.LVL44-1
 3880 008e 0100     		.2byte	0x1
 3881 0090 51       		.byte	0x51
 3882 0091 09000000 		.4byte	.LVL44-1
 3883 0095 0A000000 		.4byte	.LFE256
 3884 0099 0400     		.2byte	0x4
 3885 009b F3       		.byte	0xf3
 3886 009c 01       		.uleb128 0x1
 3887 009d 51       		.byte	0x51
 3888 009e 9F       		.byte	0x9f
 3889 009f 00000000 		.4byte	0
 3890 00a3 00000000 		.4byte	0
 3891              	.LLST32:
 3892 00a7 00000000 		.4byte	.LVL42
 3893 00ab 06000000 		.4byte	.LVL43
 3894 00af 0100     		.2byte	0x1
 3895 00b1 51       		.byte	0x51
 3896 00b2 00000000 		.4byte	0
 3897 00b6 00000000 		.4byte	0
 3898              	.LLST33:
 3899 00ba 00000000 		.4byte	.LVL42
 3900 00be 06000000 		.4byte	.LVL43
 3901 00c2 0300     		.2byte	0x3
 3902 00c4 70       		.byte	0x70
 3903 00c5 0C       		.sleb128 12
 3904 00c6 9F       		.byte	0x9f
 3905 00c7 00000000 		.4byte	0
 3906 00cb 00000000 		.4byte	0
 3907              	.LLST25:
 3908 00cf 00000000 		.4byte	.LVL35
 3909 00d3 0F000000 		.4byte	.LVL37-1
 3910 00d7 0100     		.2byte	0x1
 3911 00d9 50       		.byte	0x50
 3912 00da 0F000000 		.4byte	.LVL37-1
 3913 00de 1A000000 		.4byte	.LVL39
 3914 00e2 0100     		.2byte	0x1
 3915 00e4 54       		.byte	0x54
 3916 00e5 1A000000 		.4byte	.LVL39
 3917 00e9 28000000 		.4byte	.LFE255
 3918 00ed 0400     		.2byte	0x4
 3919 00ef F3       		.byte	0xf3
 3920 00f0 01       		.uleb128 0x1
 3921 00f1 50       		.byte	0x50
 3922 00f2 9F       		.byte	0x9f
 3923 00f3 00000000 		.4byte	0
 3924 00f7 00000000 		.4byte	0
 3925              	.LLST26:
 3926 00fb 00000000 		.4byte	.LVL35
 3927 00ff 0F000000 		.4byte	.LVL37-1
 3928 0103 0100     		.2byte	0x1
 3929 0105 51       		.byte	0x51
 3930 0106 0F000000 		.4byte	.LVL37-1
 3931 010a 28000000 		.4byte	.LFE255
 3932 010e 0100     		.2byte	0x1
 3933 0110 55       		.byte	0x55
ARM GAS  C:\cygwin64\tmp\ccj0RBsU.s 			page 70


 3934 0111 00000000 		.4byte	0
 3935 0115 00000000 		.4byte	0
 3936              	.LLST27:
 3937 0119 1A000000 		.4byte	.LVL39
 3938 011d 1D000000 		.4byte	.LVL40-1
 3939 0121 0100     		.2byte	0x1
 3940 0123 50       		.byte	0x50
 3941 0124 1D000000 		.4byte	.LVL40-1
 3942 0128 28000000 		.4byte	.LFE255
 3943 012c 0100     		.2byte	0x1
 3944 012e 54       		.byte	0x54
 3945 012f 00000000 		.4byte	0
 3946 0133 00000000 		.4byte	0
 3947              	.LLST28:
 3948 0137 00000000 		.4byte	.LVL35
 3949 013b 0C000000 		.4byte	.LVL36
 3950 013f 0300     		.2byte	0x3
 3951 0141 08       		.byte	0x8
 3952 0142 20       		.byte	0x20
 3953 0143 9F       		.byte	0x9f
 3954 0144 00000000 		.4byte	0
 3955 0148 00000000 		.4byte	0
 3956              	.LLST29:
 3957 014c 1E000000 		.4byte	.LVL40
 3958 0150 24000000 		.4byte	.LVL41
 3959 0154 0200     		.2byte	0x2
 3960 0156 30       		.byte	0x30
 3961 0157 9F       		.byte	0x9f
 3962 0158 00000000 		.4byte	0
 3963 015c 00000000 		.4byte	0
 3964              	.LLST22:
 3965 0160 00000000 		.4byte	.LVL29
 3966 0164 07000000 		.4byte	.LVL30-1
 3967 0168 0100     		.2byte	0x1
 3968 016a 50       		.byte	0x50
 3969 016b 07000000 		.4byte	.LVL30-1
 3970 016f 12000000 		.4byte	.LVL32
 3971 0173 0100     		.2byte	0x1
 3972 0175 54       		.byte	0x54
 3973 0176 12000000 		.4byte	.LVL32
 3974 017a 15000000 		.4byte	.LVL33-1
 3975 017e 0300     		.2byte	0x3
 3976 0180 70       		.byte	0x70
 3977 0181 74       		.sleb128 -12
 3978 0182 9F       		.byte	0x9f
 3979 0183 15000000 		.4byte	.LVL33-1
 3980 0187 16000000 		.4byte	.LVL33
 3981 018b 0400     		.2byte	0x4
 3982 018d F3       		.byte	0xf3
 3983 018e 01       		.uleb128 0x1
 3984 018f 50       		.byte	0x50
 3985 0190 9F       		.byte	0x9f
 3986 0191 16000000 		.4byte	.LVL33
 3987 0195 1A000000 		.4byte	.LFE254
 3988 0199 0100     		.2byte	0x1
 3989 019b 54       		.byte	0x54
 3990 019c 00000000 		.4byte	0
ARM GAS  C:\cygwin64\tmp\ccj0RBsU.s 			page 71


 3991 01a0 00000000 		.4byte	0
 3992              	.LLST23:
 3993 01a4 00000000 		.4byte	.LVL29
 3994 01a8 07000000 		.4byte	.LVL30-1
 3995 01ac 0100     		.2byte	0x1
 3996 01ae 51       		.byte	0x51
 3997 01af 07000000 		.4byte	.LVL30-1
 3998 01b3 1A000000 		.4byte	.LFE254
 3999 01b7 0400     		.2byte	0x4
 4000 01b9 F3       		.byte	0xf3
 4001 01ba 01       		.uleb128 0x1
 4002 01bb 51       		.byte	0x51
 4003 01bc 9F       		.byte	0x9f
 4004 01bd 00000000 		.4byte	0
 4005 01c1 00000000 		.4byte	0
 4006              	.LLST24:
 4007 01c5 08000000 		.4byte	.LVL30
 4008 01c9 0E000000 		.4byte	.LVL31
 4009 01cd 0100     		.2byte	0x1
 4010 01cf 50       		.byte	0x50
 4011 01d0 16000000 		.4byte	.LVL33
 4012 01d4 18000000 		.4byte	.LVL34
 4013 01d8 0100     		.2byte	0x1
 4014 01da 50       		.byte	0x50
 4015 01db 00000000 		.4byte	0
 4016 01df 00000000 		.4byte	0
 4017              	.LLST38:
 4018 01e3 00000000 		.4byte	.LVL52
 4019 01e7 08000000 		.4byte	.LVL53
 4020 01eb 0100     		.2byte	0x1
 4021 01ed 50       		.byte	0x50
 4022 01ee 08000000 		.4byte	.LVL53
 4023 01f2 1C000000 		.4byte	.LFE253
 4024 01f6 0100     		.2byte	0x1
 4025 01f8 56       		.byte	0x56
 4026 01f9 00000000 		.4byte	0
 4027 01fd 00000000 		.4byte	0
 4028              	.LLST39:
 4029 0201 00000000 		.4byte	.LVL52
 4030 0205 08000000 		.4byte	.LVL53
 4031 0209 0100     		.2byte	0x1
 4032 020b 51       		.byte	0x51
 4033 020c 08000000 		.4byte	.LVL53
 4034 0210 1C000000 		.4byte	.LFE253
 4035 0214 0100     		.2byte	0x1
 4036 0216 55       		.byte	0x55
 4037 0217 00000000 		.4byte	0
 4038 021b 00000000 		.4byte	0
 4039              	.LLST40:
 4040 021f 00000000 		.4byte	.LVL52
 4041 0223 08000000 		.4byte	.LVL53
 4042 0227 0100     		.2byte	0x1
 4043 0229 52       		.byte	0x52
 4044 022a 08000000 		.4byte	.LVL53
 4045 022e 18000000 		.4byte	.LVL56
 4046 0232 0100     		.2byte	0x1
 4047 0234 54       		.byte	0x54
ARM GAS  C:\cygwin64\tmp\ccj0RBsU.s 			page 72


 4048 0235 18000000 		.4byte	.LVL56
 4049 0239 1A000000 		.4byte	.LVL57
 4050 023d 0300     		.2byte	0x3
 4051 023f 74       		.byte	0x74
 4052 0240 01       		.sleb128 1
 4053 0241 9F       		.byte	0x9f
 4054 0242 1A000000 		.4byte	.LVL57
 4055 0246 1C000000 		.4byte	.LFE253
 4056 024a 0100     		.2byte	0x1
 4057 024c 54       		.byte	0x54
 4058 024d 00000000 		.4byte	0
 4059 0251 00000000 		.4byte	0
 4060              	.LLST41:
 4061 0255 0C000000 		.4byte	.LVL54
 4062 0259 14000000 		.4byte	.LVL55
 4063 025d 0100     		.2byte	0x1
 4064 025f 55       		.byte	0x55
 4065 0260 00000000 		.4byte	0
 4066 0264 00000000 		.4byte	0
 4067              	.LLST42:
 4068 0268 0C000000 		.4byte	.LVL54
 4069 026c 14000000 		.4byte	.LVL55
 4070 0270 0100     		.2byte	0x1
 4071 0272 56       		.byte	0x56
 4072 0273 00000000 		.4byte	0
 4073 0277 00000000 		.4byte	0
 4074              	.LLST17:
 4075 027b 00000000 		.4byte	.LVL25
 4076 027f 0D000000 		.4byte	.LVL28-1
 4077 0283 0100     		.2byte	0x1
 4078 0285 50       		.byte	0x50
 4079 0286 0D000000 		.4byte	.LVL28-1
 4080 028a 0E000000 		.4byte	.LFE252
 4081 028e 0400     		.2byte	0x4
 4082 0290 F3       		.byte	0xf3
 4083 0291 01       		.uleb128 0x1
 4084 0292 50       		.byte	0x50
 4085 0293 9F       		.byte	0x9f
 4086 0294 00000000 		.4byte	0
 4087 0298 00000000 		.4byte	0
 4088              	.LLST18:
 4089 029c 00000000 		.4byte	.LVL25
 4090 02a0 0A000000 		.4byte	.LVL27
 4091 02a4 0100     		.2byte	0x1
 4092 02a6 51       		.byte	0x51
 4093 02a7 0A000000 		.4byte	.LVL27
 4094 02ab 0D000000 		.4byte	.LVL28-1
 4095 02af 0200     		.2byte	0x2
 4096 02b1 70       		.byte	0x70
 4097 02b2 10       		.sleb128 16
 4098 02b3 0D000000 		.4byte	.LVL28-1
 4099 02b7 0E000000 		.4byte	.LFE252
 4100 02bb 0400     		.2byte	0x4
 4101 02bd F3       		.byte	0xf3
 4102 02be 01       		.uleb128 0x1
 4103 02bf 51       		.byte	0x51
 4104 02c0 9F       		.byte	0x9f
ARM GAS  C:\cygwin64\tmp\ccj0RBsU.s 			page 73


 4105 02c1 00000000 		.4byte	0
 4106 02c5 00000000 		.4byte	0
 4107              	.LLST19:
 4108 02c9 00000000 		.4byte	.LVL25
 4109 02cd 08000000 		.4byte	.LVL26
 4110 02d1 0200     		.2byte	0x2
 4111 02d3 30       		.byte	0x30
 4112 02d4 9F       		.byte	0x9f
 4113 02d5 00000000 		.4byte	0
 4114 02d9 00000000 		.4byte	0
 4115              	.LLST20:
 4116 02dd 00000000 		.4byte	.LVL25
 4117 02e1 08000000 		.4byte	.LVL26
 4118 02e5 0100     		.2byte	0x1
 4119 02e7 51       		.byte	0x51
 4120 02e8 00000000 		.4byte	0
 4121 02ec 00000000 		.4byte	0
 4122              	.LLST21:
 4123 02f0 00000000 		.4byte	.LVL25
 4124 02f4 08000000 		.4byte	.LVL26
 4125 02f8 0300     		.2byte	0x3
 4126 02fa 70       		.byte	0x70
 4127 02fb 0C       		.sleb128 12
 4128 02fc 9F       		.byte	0x9f
 4129 02fd 00000000 		.4byte	0
 4130 0301 00000000 		.4byte	0
 4131              	.LLST6:
 4132 0305 00000000 		.4byte	.LVL13
 4133 0309 0F000000 		.4byte	.LVL15-1
 4134 030d 0100     		.2byte	0x1
 4135 030f 50       		.byte	0x50
 4136 0310 0F000000 		.4byte	.LVL15-1
 4137 0314 22000000 		.4byte	.LFE251
 4138 0318 0100     		.2byte	0x1
 4139 031a 54       		.byte	0x54
 4140 031b 00000000 		.4byte	0
 4141 031f 00000000 		.4byte	0
 4142              	.LLST7:
 4143 0323 00000000 		.4byte	.LVL13
 4144 0327 0F000000 		.4byte	.LVL15-1
 4145 032b 0100     		.2byte	0x1
 4146 032d 51       		.byte	0x51
 4147 032e 0F000000 		.4byte	.LVL15-1
 4148 0332 22000000 		.4byte	.LFE251
 4149 0336 0100     		.2byte	0x1
 4150 0338 55       		.byte	0x55
 4151 0339 00000000 		.4byte	0
 4152 033d 00000000 		.4byte	0
 4153              	.LLST8:
 4154 0341 00000000 		.4byte	.LVL13
 4155 0345 0C000000 		.4byte	.LVL14
 4156 0349 0300     		.2byte	0x3
 4157 034b 08       		.byte	0x8
 4158 034c 20       		.byte	0x20
 4159 034d 9F       		.byte	0x9f
 4160 034e 00000000 		.4byte	0
 4161 0352 00000000 		.4byte	0
ARM GAS  C:\cygwin64\tmp\ccj0RBsU.s 			page 74


 4162              	.LLST9:
 4163 0356 10000000 		.4byte	.LVL15
 4164 035a 16000000 		.4byte	.LVL16
 4165 035e 0100     		.2byte	0x1
 4166 0360 55       		.byte	0x55
 4167 0361 00000000 		.4byte	0
 4168 0365 00000000 		.4byte	0
 4169              	.LLST10:
 4170 0369 10000000 		.4byte	.LVL15
 4171 036d 16000000 		.4byte	.LVL16
 4172 0371 0100     		.2byte	0x1
 4173 0373 54       		.byte	0x54
 4174 0374 00000000 		.4byte	0
 4175 0378 00000000 		.4byte	0
 4176              	.LLST11:
 4177 037c 1A000000 		.4byte	.LVL17
 4178 0380 20000000 		.4byte	.LVL18
 4179 0384 0200     		.2byte	0x2
 4180 0386 30       		.byte	0x30
 4181 0387 9F       		.byte	0x9f
 4182 0388 00000000 		.4byte	0
 4183 038c 00000000 		.4byte	0
 4184              	.LLST2:
 4185 0390 00000000 		.4byte	.LVL5
 4186 0394 0D000000 		.4byte	.LVL7-1
 4187 0398 0100     		.2byte	0x1
 4188 039a 50       		.byte	0x50
 4189 039b 0D000000 		.4byte	.LVL7-1
 4190 039f 16000000 		.4byte	.LVL9
 4191 03a3 0100     		.2byte	0x1
 4192 03a5 54       		.byte	0x54
 4193 03a6 16000000 		.4byte	.LVL9
 4194 03aa 24000000 		.4byte	.LFE249
 4195 03ae 0400     		.2byte	0x4
 4196 03b0 F3       		.byte	0xf3
 4197 03b1 01       		.uleb128 0x1
 4198 03b2 50       		.byte	0x50
 4199 03b3 9F       		.byte	0x9f
 4200 03b4 00000000 		.4byte	0
 4201 03b8 00000000 		.4byte	0
 4202              	.LLST3:
 4203 03bc 16000000 		.4byte	.LVL9
 4204 03c0 19000000 		.4byte	.LVL10-1
 4205 03c4 0100     		.2byte	0x1
 4206 03c6 50       		.byte	0x50
 4207 03c7 19000000 		.4byte	.LVL10-1
 4208 03cb 24000000 		.4byte	.LFE249
 4209 03cf 0100     		.2byte	0x1
 4210 03d1 54       		.byte	0x54
 4211 03d2 00000000 		.4byte	0
 4212 03d6 00000000 		.4byte	0
 4213              	.LLST4:
 4214 03da 00000000 		.4byte	.LVL5
 4215 03de 0A000000 		.4byte	.LVL6
 4216 03e2 0300     		.2byte	0x3
 4217 03e4 08       		.byte	0x8
 4218 03e5 20       		.byte	0x20
ARM GAS  C:\cygwin64\tmp\ccj0RBsU.s 			page 75


 4219 03e6 9F       		.byte	0x9f
 4220 03e7 00000000 		.4byte	0
 4221 03eb 00000000 		.4byte	0
 4222              	.LLST5:
 4223 03ef 1A000000 		.4byte	.LVL10
 4224 03f3 20000000 		.4byte	.LVL11
 4225 03f7 0200     		.2byte	0x2
 4226 03f9 30       		.byte	0x30
 4227 03fa 9F       		.byte	0x9f
 4228 03fb 00000000 		.4byte	0
 4229 03ff 00000000 		.4byte	0
 4230              	.LLST0:
 4231 0403 00000000 		.4byte	.LVL1
 4232 0407 04000000 		.4byte	.LVL2
 4233 040b 0100     		.2byte	0x1
 4234 040d 50       		.byte	0x50
 4235 040e 04000000 		.4byte	.LVL2
 4236 0412 15000000 		.4byte	.LVL4-1
 4237 0416 0100     		.2byte	0x1
 4238 0418 53       		.byte	0x53
 4239 0419 15000000 		.4byte	.LVL4-1
 4240 041d 16000000 		.4byte	.LVL4
 4241 0421 0400     		.2byte	0x4
 4242 0423 F3       		.byte	0xf3
 4243 0424 01       		.uleb128 0x1
 4244 0425 50       		.byte	0x50
 4245 0426 9F       		.byte	0x9f
 4246 0427 16000000 		.4byte	.LVL4
 4247 042b 18000000 		.4byte	.LFE248
 4248 042f 0100     		.2byte	0x1
 4249 0431 53       		.byte	0x53
 4250 0432 00000000 		.4byte	0
 4251 0436 00000000 		.4byte	0
 4252              	.LLST1:
 4253 043a 04000000 		.4byte	.LVL2
 4254 043e 14000000 		.4byte	.LVL3
 4255 0442 0100     		.2byte	0x1
 4256 0444 50       		.byte	0x50
 4257 0445 14000000 		.4byte	.LVL3
 4258 0449 15000000 		.4byte	.LVL4-1
 4259 044d 0200     		.2byte	0x2
 4260 044f 73       		.byte	0x73
 4261 0450 00       		.sleb128 0
 4262 0451 16000000 		.4byte	.LVL4
 4263 0455 18000000 		.4byte	.LFE248
 4264 0459 0100     		.2byte	0x1
 4265 045b 50       		.byte	0x50
 4266 045c 00000000 		.4byte	0
 4267 0460 00000000 		.4byte	0
 4268              	.LLST12:
 4269 0464 00000000 		.4byte	.LVL19
 4270 0468 08000000 		.4byte	.LVL20
 4271 046c 0100     		.2byte	0x1
 4272 046e 50       		.byte	0x50
 4273 046f 08000000 		.4byte	.LVL20
 4274 0473 1C000000 		.4byte	.LFE247
 4275 0477 0100     		.2byte	0x1
ARM GAS  C:\cygwin64\tmp\ccj0RBsU.s 			page 76


 4276 0479 56       		.byte	0x56
 4277 047a 00000000 		.4byte	0
 4278 047e 00000000 		.4byte	0
 4279              	.LLST13:
 4280 0482 00000000 		.4byte	.LVL19
 4281 0486 08000000 		.4byte	.LVL20
 4282 048a 0100     		.2byte	0x1
 4283 048c 51       		.byte	0x51
 4284 048d 08000000 		.4byte	.LVL20
 4285 0491 1C000000 		.4byte	.LFE247
 4286 0495 0100     		.2byte	0x1
 4287 0497 55       		.byte	0x55
 4288 0498 00000000 		.4byte	0
 4289 049c 00000000 		.4byte	0
 4290              	.LLST14:
 4291 04a0 00000000 		.4byte	.LVL19
 4292 04a4 08000000 		.4byte	.LVL20
 4293 04a8 0100     		.2byte	0x1
 4294 04aa 52       		.byte	0x52
 4295 04ab 08000000 		.4byte	.LVL20
 4296 04af 18000000 		.4byte	.LVL23
 4297 04b3 0100     		.2byte	0x1
 4298 04b5 54       		.byte	0x54
 4299 04b6 18000000 		.4byte	.LVL23
 4300 04ba 1A000000 		.4byte	.LVL24
 4301 04be 0300     		.2byte	0x3
 4302 04c0 74       		.byte	0x74
 4303 04c1 01       		.sleb128 1
 4304 04c2 9F       		.byte	0x9f
 4305 04c3 1A000000 		.4byte	.LVL24
 4306 04c7 1C000000 		.4byte	.LFE247
 4307 04cb 0100     		.2byte	0x1
 4308 04cd 54       		.byte	0x54
 4309 04ce 00000000 		.4byte	0
 4310 04d2 00000000 		.4byte	0
 4311              	.LLST15:
 4312 04d6 0C000000 		.4byte	.LVL21
 4313 04da 14000000 		.4byte	.LVL22
 4314 04de 0100     		.2byte	0x1
 4315 04e0 55       		.byte	0x55
 4316 04e1 00000000 		.4byte	0
 4317 04e5 00000000 		.4byte	0
 4318              	.LLST16:
 4319 04e9 0C000000 		.4byte	.LVL21
 4320 04ed 14000000 		.4byte	.LVL22
 4321 04f1 0100     		.2byte	0x1
 4322 04f3 56       		.byte	0x56
 4323 04f4 00000000 		.4byte	0
 4324 04f8 00000000 		.4byte	0
 4325              		.section	.debug_aranges,"",%progbits
 4326 0000 74000000 		.4byte	0x74
 4327 0004 0200     		.2byte	0x2
 4328 0006 00000000 		.4byte	.Ldebug_info0
 4329 000a 04       		.byte	0x4
 4330 000b 00       		.byte	0
 4331 000c 0000     		.2byte	0
 4332 000e 0000     		.2byte	0
ARM GAS  C:\cygwin64\tmp\ccj0RBsU.s 			page 77


 4333 0010 00000000 		.4byte	.LFB246
 4334 0014 0A000000 		.4byte	.LFE246-.LFB246
 4335 0018 00000000 		.4byte	.LFB248
 4336 001c 18000000 		.4byte	.LFE248-.LFB248
 4337 0020 00000000 		.4byte	.LFB249
 4338 0024 24000000 		.4byte	.LFE249-.LFB249
 4339 0028 00000000 		.4byte	.LFB250
 4340 002c 08000000 		.4byte	.LFE250-.LFB250
 4341 0030 00000000 		.4byte	.LFB251
 4342 0034 22000000 		.4byte	.LFE251-.LFB251
 4343 0038 00000000 		.4byte	.LFB247
 4344 003c 1C000000 		.4byte	.LFE247-.LFB247
 4345 0040 00000000 		.4byte	.LFB252
 4346 0044 0E000000 		.4byte	.LFE252-.LFB252
 4347 0048 00000000 		.4byte	.LFB254
 4348 004c 1A000000 		.4byte	.LFE254-.LFB254
 4349 0050 00000000 		.4byte	.LFB255
 4350 0054 28000000 		.4byte	.LFE255-.LFB255
 4351 0058 00000000 		.4byte	.LFB256
 4352 005c 0A000000 		.4byte	.LFE256-.LFB256
 4353 0060 00000000 		.4byte	.LFB257
 4354 0064 28000000 		.4byte	.LFE257-.LFB257
 4355 0068 00000000 		.4byte	.LFB253
 4356 006c 1C000000 		.4byte	.LFE253-.LFB253
 4357 0070 00000000 		.4byte	0
 4358 0074 00000000 		.4byte	0
 4359              		.section	.debug_ranges,"",%progbits
 4360              	.Ldebug_ranges0:
 4361 0000 02000000 		.4byte	.LBB34
 4362 0004 04000000 		.4byte	.LBE34
 4363 0008 06000000 		.4byte	.LBB43
 4364 000c 0E000000 		.4byte	.LBE43
 4365 0010 00000000 		.4byte	0
 4366 0014 00000000 		.4byte	0
 4367 0018 02000000 		.4byte	.LBB36
 4368 001c 04000000 		.4byte	.LBE36
 4369 0020 06000000 		.4byte	.LBB41
 4370 0024 0A000000 		.4byte	.LBE41
 4371 0028 00000000 		.4byte	0
 4372 002c 00000000 		.4byte	0
 4373 0030 00000000 		.4byte	.LFB246
 4374 0034 0A000000 		.4byte	.LFE246
 4375 0038 00000000 		.4byte	.LFB248
 4376 003c 18000000 		.4byte	.LFE248
 4377 0040 00000000 		.4byte	.LFB249
 4378 0044 24000000 		.4byte	.LFE249
 4379 0048 00000000 		.4byte	.LFB250
 4380 004c 08000000 		.4byte	.LFE250
 4381 0050 00000000 		.4byte	.LFB251
 4382 0054 22000000 		.4byte	.LFE251
 4383 0058 00000000 		.4byte	.LFB247
 4384 005c 1C000000 		.4byte	.LFE247
 4385 0060 00000000 		.4byte	.LFB252
 4386 0064 0E000000 		.4byte	.LFE252
 4387 0068 00000000 		.4byte	.LFB254
 4388 006c 1A000000 		.4byte	.LFE254
 4389 0070 00000000 		.4byte	.LFB255
ARM GAS  C:\cygwin64\tmp\ccj0RBsU.s 			page 78


 4390 0074 28000000 		.4byte	.LFE255
 4391 0078 00000000 		.4byte	.LFB256
 4392 007c 0A000000 		.4byte	.LFE256
 4393 0080 00000000 		.4byte	.LFB257
 4394 0084 28000000 		.4byte	.LFE257
 4395 0088 00000000 		.4byte	.LFB253
 4396 008c 1C000000 		.4byte	.LFE253
 4397 0090 00000000 		.4byte	0
 4398 0094 00000000 		.4byte	0
 4399              		.section	.debug_line,"",%progbits
 4400              	.Ldebug_line0:
 4401 0000 30050000 		.section	.debug_str,"MS",%progbits,1
 4401      02009503 
 4401      00000201 
 4401      FB0E0D00 
 4401      01010101 
 4402              	.LASF138:
 4403 0000 67756172 		.ascii	"guarded_memory_pool_t\000"
 4403      6465645F 
 4403      6D656D6F 
 4403      72795F70 
 4403      6F6F6C5F 
 4404              	.LASF170:
 4405 0016 433A5C63 		.ascii	"C:\\cygwin64\\home\\calfan\\ardupilot\\build\\fmuv3"
 4405      79677769 
 4405      6E36345C 
 4405      686F6D65 
 4405      5C63616C 
 4406 0043 00       		.ascii	"\000"
 4407              	.LASF57:
 4408 0044 72656164 		.ascii	"ready_list_t\000"
 4408      795F6C69 
 4408      73745F74 
 4408      00
 4409              	.LASF165:
 4410 0051 63685365 		.ascii	"chSemSignalI\000"
 4410      6D536967 
 4410      6E616C49 
 4410      00
 4411              	.LASF4:
 4412 005e 73697A65 		.ascii	"size_t\000"
 4412      5F7400
 4413              	.LASF63:
 4414 0065 64656C74 		.ascii	"delta\000"
 4414      6100
 4415              	.LASF96:
 4416 006b 7264796D 		.ascii	"rdymsg\000"
 4416      736700
 4417              	.LASF20:
 4418 0072 75696E74 		.ascii	"uint64_t\000"
 4418      36345F74 
 4418      00
 4419              	.LASF76:
 4420 007b 6B65726E 		.ascii	"kernel_stats\000"
 4420      656C5F73 
 4420      74617473 
 4420      00
ARM GAS  C:\cygwin64\tmp\ccj0RBsU.s 			page 79


 4421              	.LASF5:
 4422 0088 5F5F7569 		.ascii	"__uint8_t\000"
 4422      6E74385F 
 4422      7400
 4423              	.LASF56:
 4424 0092 70726576 		.ascii	"prev\000"
 4424      00
 4425              	.LASF83:
 4426 0097 706F7274 		.ascii	"port_intctx\000"
 4426      5F696E74 
 4426      63747800 
 4427              	.LASF55:
 4428 00a3 63685F74 		.ascii	"ch_threads_queue\000"
 4428      68726561 
 4428      64735F71 
 4428      75657565 
 4428      00
 4429              	.LASF68:
 4430 00b4 73797374 		.ascii	"system_debug_t\000"
 4430      656D5F64 
 4430      65627567 
 4430      5F7400
 4431              	.LASF135:
 4432 00c3 70726F76 		.ascii	"provider\000"
 4432      69646572 
 4432      00
 4433              	.LASF159:
 4434 00cc 706F7274 		.ascii	"port_lock\000"
 4434      5F6C6F63 
 4434      6B00
 4435              	.LASF87:
 4436 00d6 776F7273 		.ascii	"worst\000"
 4436      7400
 4437              	.LASF90:
 4438 00dc 74696D65 		.ascii	"time_measurement_t\000"
 4438      5F6D6561 
 4438      73757265 
 4438      6D656E74 
 4438      5F7400
 4439              	.LASF15:
 4440 00ef 6C6F6E67 		.ascii	"long long unsigned int\000"
 4440      206C6F6E 
 4440      6720756E 
 4440      7369676E 
 4440      65642069 
 4441              	.LASF141:
 4442 0106 63684775 		.ascii	"chGuardedPoolFreeI\000"
 4442      61726465 
 4442      64506F6F 
 4442      6C467265 
 4442      654900
 4443              	.LASF97:
 4444 0119 65786974 		.ascii	"exitcode\000"
 4444      636F6465 
 4444      00
 4445              	.LASF75:
 4446 0122 6D61696E 		.ascii	"mainthread\000"
ARM GAS  C:\cygwin64\tmp\ccj0RBsU.s 			page 80


 4446      74687265 
 4446      616400
 4447              	.LASF100:
 4448 012d 73656E74 		.ascii	"sentmsg\000"
 4448      6D736700 
 4449              	.LASF65:
 4450 0135 76697274 		.ascii	"virtual_timers_list_t\000"
 4450      75616C5F 
 4450      74696D65 
 4450      72735F6C 
 4450      6973745F 
 4451              	.LASF78:
 4452 014b 49544D5F 		.ascii	"ITM_RxBuffer\000"
 4452      52784275 
 4452      66666572 
 4452      00
 4453              	.LASF53:
 4454 0158 6E657874 		.ascii	"next\000"
 4454      00
 4455              	.LASF22:
 4456 015d 72747469 		.ascii	"rttime_t\000"
 4456      6D655F74 
 4456      00
 4457              	.LASF1:
 4458 0166 6C6F6E67 		.ascii	"long long int\000"
 4458      206C6F6E 
 4458      6720696E 
 4458      7400
 4459              	.LASF3:
 4460 0174 7369676E 		.ascii	"signed char\000"
 4460      65642063 
 4460      68617200 
 4461              	.LASF111:
 4462 0180 73697A65 		.ascii	"size\000"
 4462      00
 4463              	.LASF168:
 4464 0185 474E5520 		.ascii	"GNU C11 6.3.1 20170620 (release) [ARM/embedded-6-br"
 4464      43313120 
 4464      362E332E 
 4464      31203230 
 4464      31373036 
 4465 01b8 616E6368 		.ascii	"anch revision 249437] -mcpu=cortex-m4 -mfloat-abi=h"
 4465      20726576 
 4465      6973696F 
 4465      6E203234 
 4465      39343337 
 4466 01eb 61726420 		.ascii	"ard -mfpu=fpv4-sp-d16 -mno-thumb-interwork -mthumb "
 4466      2D6D6670 
 4466      753D6670 
 4466      76342D73 
 4466      702D6431 
 4467 021e 2D67202D 		.ascii	"-g -Os -fomit-frame-pointer -falign-functions=16 -f"
 4467      4F73202D 
 4467      666F6D69 
 4467      742D6672 
 4467      616D652D 
 4468 0251 66756E63 		.ascii	"function-sections -fdata-sections -fno-common -fsin"
ARM GAS  C:\cygwin64\tmp\ccj0RBsU.s 			page 81


 4468      74696F6E 
 4468      2D736563 
 4468      74696F6E 
 4468      73202D66 
 4469 0284 676C652D 		.ascii	"gle-precision-constant\000"
 4469      70726563 
 4469      6973696F 
 4469      6E2D636F 
 4469      6E737461 
 4470              	.LASF74:
 4471 029b 76746C69 		.ascii	"vtlist\000"
 4471      737400
 4472              	.LASF158:
 4473 02a2 706F7274 		.ascii	"port_unlock\000"
 4473      5F756E6C 
 4473      6F636B00 
 4474              	.LASF43:
 4475 02ae 6D736771 		.ascii	"msgqueue\000"
 4475      75657565 
 4475      00
 4476              	.LASF39:
 4477 02b7 73746174 		.ascii	"state\000"
 4477      6500
 4478              	.LASF11:
 4479 02bd 6C6F6E67 		.ascii	"long int\000"
 4479      20696E74 
 4479      00
 4480              	.LASF24:
 4481 02c6 74737461 		.ascii	"tstate_t\000"
 4481      74655F74 
 4481      00
 4482              	.LASF64:
 4483 02cf 66756E63 		.ascii	"func\000"
 4483      00
 4484              	.LASF48:
 4485 02d4 73746174 		.ascii	"stats\000"
 4485      7300
 4486              	.LASF125:
 4487 02da 6F66665F 		.ascii	"off_preempt\000"
 4487      70726565 
 4487      6D707400 
 4488              	.LASF164:
 4489 02e6 63685363 		.ascii	"chSchRescheduleS\000"
 4489      68526573 
 4489      63686564 
 4489      756C6553 
 4489      00
 4490              	.LASF12:
 4491 02f7 5F5F7569 		.ascii	"__uint32_t\000"
 4491      6E743332 
 4491      5F7400
 4492              	.LASF80:
 4493 0302 72656761 		.ascii	"regarm_t\000"
 4493      726D5F74 
 4493      00
 4494              	.LASF152:
 4495 030b 6368506F 		.ascii	"chPoolFreeI\000"
ARM GAS  C:\cygwin64\tmp\ccj0RBsU.s 			page 82


 4495      6F6C4672 
 4495      65654900 
 4496              	.LASF69:
 4497 0317 63685F73 		.ascii	"ch_system_debug\000"
 4497      79737465 
 4497      6D5F6465 
 4497      62756700 
 4498              	.LASF42:
 4499 0327 77616974 		.ascii	"waiting\000"
 4499      696E6700 
 4500              	.LASF143:
 4501 032f 63684775 		.ascii	"chGuardedPoolAllocTimeout\000"
 4501      61726465 
 4501      64506F6F 
 4501      6C416C6C 
 4501      6F635469 
 4502              	.LASF110:
 4503 0349 7A65726F 		.ascii	"zero\000"
 4503      00
 4504              	.LASF130:
 4505 034e 6D757465 		.ascii	"mutex_t\000"
 4505      785F7400 
 4506              	.LASF161:
 4507 0356 76616C75 		.ascii	"value\000"
 4507      6500
 4508              	.LASF167:
 4509 035c 63685365 		.ascii	"chSemObjectInit\000"
 4509      6D4F626A 
 4509      65637449 
 4509      6E697400 
 4510              	.LASF29:
 4511 036c 636E745F 		.ascii	"cnt_t\000"
 4511      7400
 4512              	.LASF0:
 4513 0372 756E7369 		.ascii	"unsigned int\000"
 4513      676E6564 
 4513      20696E74 
 4513      00
 4514              	.LASF146:
 4515 037f 63684775 		.ascii	"chGuardedPoolObjectInit\000"
 4515      61726465 
 4515      64506F6F 
 4515      6C4F626A 
 4515      65637449 
 4516              	.LASF17:
 4517 0397 75696E74 		.ascii	"uint16_t\000"
 4517      31365F74 
 4517      00
 4518              	.LASF79:
 4519 03a0 53797374 		.ascii	"SystemCoreClock\000"
 4519      656D436F 
 4519      7265436C 
 4519      6F636B00 
 4520              	.LASF101:
 4521 03b0 77747365 		.ascii	"wtsemp\000"
 4521      6D7000
 4522              	.LASF99:
ARM GAS  C:\cygwin64\tmp\ccj0RBsU.s 			page 83


 4523 03b7 77747472 		.ascii	"wttrp\000"
 4523      7000
 4524              	.LASF128:
 4525 03bd 63685F64 		.ascii	"ch_debug\000"
 4525      65627567 
 4525      00
 4526              	.LASF142:
 4527 03c6 74696D65 		.ascii	"timeout\000"
 4527      6F757400 
 4528              	.LASF136:
 4529 03ce 6D656D6F 		.ascii	"memory_pool_t\000"
 4529      72795F70 
 4529      6F6F6C5F 
 4529      7400
 4530              	.LASF91:
 4531 03dc 6E5F6972 		.ascii	"n_irq\000"
 4531      7100
 4532              	.LASF33:
 4533 03e2 71756575 		.ascii	"queue\000"
 4533      6500
 4534              	.LASF47:
 4535 03e8 6D706F6F 		.ascii	"mpool\000"
 4535      6C00
 4536              	.LASF124:
 4537 03ee 6F66665F 		.ascii	"off_refs\000"
 4537      72656673 
 4537      00
 4538              	.LASF95:
 4539 03f7 6B65726E 		.ascii	"kernel_stats_t\000"
 4539      656C5F73 
 4539      74617473 
 4539      5F7400
 4540              	.LASF37:
 4541 0406 6E616D65 		.ascii	"name\000"
 4541      00
 4542              	.LASF51:
 4543 040b 63685F74 		.ascii	"ch_thread\000"
 4543      68726561 
 4543      6400
 4544              	.LASF27:
 4545 0415 6D73675F 		.ascii	"msg_t\000"
 4545      7400
 4546              	.LASF140:
 4547 041b 63684775 		.ascii	"chGuardedPoolFree\000"
 4547      61726465 
 4547      64506F6F 
 4547      6C467265 
 4547      6500
 4548              	.LASF30:
 4549 042d 75636E74 		.ascii	"ucnt_t\000"
 4549      5F7400
 4550              	.LASF44:
 4551 0434 6570656E 		.ascii	"epending\000"
 4551      64696E67 
 4551      00
 4552              	.LASF71:
 4553 043d 63685F73 		.ascii	"ch_system_t\000"
ARM GAS  C:\cygwin64\tmp\ccj0RBsU.s 			page 84


 4553      79737465 
 4553      6D5F7400 
 4554              	.LASF117:
 4555 0449 6F66665F 		.ascii	"off_ctx\000"
 4555      63747800 
 4556              	.LASF23:
 4557 0451 746D6F64 		.ascii	"tmode_t\000"
 4557      655F7400 
 4558              	.LASF153:
 4559 0459 6368506F 		.ascii	"chPoolObjectInit\000"
 4559      6F6C4F62 
 4559      6A656374 
 4559      496E6974 
 4559      00
 4560              	.LASF94:
 4561 046a 6D5F6372 		.ascii	"m_crit_isr\000"
 4561      69745F69 
 4561      737200
 4562              	.LASF58:
 4563 0475 63685F72 		.ascii	"ch_ready_list\000"
 4563      65616479 
 4563      5F6C6973 
 4563      7400
 4564              	.LASF28:
 4565 0483 6576656E 		.ascii	"eventmask_t\000"
 4565      746D6173 
 4565      6B5F7400 
 4566              	.LASF120:
 4567 048f 6F66665F 		.ascii	"off_name\000"
 4567      6E616D65 
 4567      00
 4568              	.LASF10:
 4569 0498 5F5F696E 		.ascii	"__int32_t\000"
 4569      7433325F 
 4569      7400
 4570              	.LASF81:
 4571 04a2 73746B61 		.ascii	"stkalign_t\000"
 4571      6C69676E 
 4571      5F7400
 4572              	.LASF35:
 4573 04ad 6E657765 		.ascii	"newer\000"
 4573      7200
 4574              	.LASF46:
 4575 04b3 7265616C 		.ascii	"realprio\000"
 4575      7072696F 
 4575      00
 4576              	.LASF112:
 4577 04bc 76657273 		.ascii	"version\000"
 4577      696F6E00 
 4578              	.LASF163:
 4579 04c4 5F737461 		.ascii	"_stats_stop_measure_crit_thd\000"
 4579      74735F73 
 4579      746F705F 
 4579      6D656173 
 4579      7572655F 
 4580              	.LASF77:
 4581 04e1 73697A65 		.ascii	"sizetype\000"
ARM GAS  C:\cygwin64\tmp\ccj0RBsU.s 			page 85


 4581      74797065 
 4581      00
 4582              	.LASF49:
 4583 04ea 74687265 		.ascii	"thread_reference_t\000"
 4583      61645F72 
 4583      65666572 
 4583      656E6365 
 4583      5F7400
 4584              	.LASF66:
 4585 04fd 63685F76 		.ascii	"ch_virtual_timers_list\000"
 4585      69727475 
 4585      616C5F74 
 4585      696D6572 
 4585      735F6C69 
 4586              	.LASF2:
 4587 0514 6C6F6E67 		.ascii	"long double\000"
 4587      20646F75 
 4587      626C6500 
 4588              	.LASF150:
 4589 0520 6368506F 		.ascii	"chPoolAllocI\000"
 4589      6F6C416C 
 4589      6C6F6349 
 4589      00
 4590              	.LASF118:
 4591 052d 6F66665F 		.ascii	"off_newer\000"
 4591      6E657765 
 4591      7200
 4592              	.LASF82:
 4593 0537 706F7274 		.ascii	"port_context\000"
 4593      5F636F6E 
 4593      74657874 
 4593      00
 4594              	.LASF85:
 4595 0544 746D5F63 		.ascii	"tm_calibration_t\000"
 4595      616C6962 
 4595      72617469 
 4595      6F6E5F74 
 4595      00
 4596              	.LASF144:
 4597 0555 63684775 		.ascii	"chGuardedPoolAllocTimeoutS\000"
 4597      61726465 
 4597      64506F6F 
 4597      6C416C6C 
 4597      6F635469 
 4598              	.LASF34:
 4599 0570 7072696F 		.ascii	"prio\000"
 4599      00
 4600              	.LASF59:
 4601 0575 63757272 		.ascii	"current\000"
 4601      656E7400 
 4602              	.LASF88:
 4603 057d 6C617374 		.ascii	"last\000"
 4603      00
 4604              	.LASF14:
 4605 0582 5F5F7569 		.ascii	"__uint64_t\000"
 4605      6E743634 
 4605      5F7400
ARM GAS  C:\cygwin64\tmp\ccj0RBsU.s 			page 86


 4606              	.LASF89:
 4607 058d 63756D75 		.ascii	"cumulative\000"
 4607      6C617469 
 4607      766500
 4608              	.LASF25:
 4609 0598 74726566 		.ascii	"trefs_t\000"
 4609      735F7400 
 4610              	.LASF127:
 4611 05a0 63686465 		.ascii	"chdebug_t\000"
 4611      6275675F 
 4611      7400
 4612              	.LASF115:
 4613 05aa 74687265 		.ascii	"threadsize\000"
 4613      61647369 
 4613      7A6500
 4614              	.LASF41:
 4615 05b5 72656673 		.ascii	"refs\000"
 4615      00
 4616              	.LASF61:
 4617 05ba 76697274 		.ascii	"virtual_timer_t\000"
 4617      75616C5F 
 4617      74696D65 
 4617      725F7400 
 4618              	.LASF26:
 4619 05ca 74707269 		.ascii	"tprio_t\000"
 4619      6F5F7400 
 4620              	.LASF92:
 4621 05d2 6E5F6374 		.ascii	"n_ctxswc\000"
 4621      78737763 
 4621      00
 4622              	.LASF131:
 4623 05db 5F426F6F 		.ascii	"_Bool\000"
 4623      6C00
 4624              	.LASF18:
 4625 05e1 696E7433 		.ascii	"int32_t\000"
 4625      325F7400 
 4626              	.LASF6:
 4627 05e9 756E7369 		.ascii	"unsigned char\000"
 4627      676E6564 
 4627      20636861 
 4627      7200
 4628              	.LASF116:
 4629 05f7 6F66665F 		.ascii	"off_prio\000"
 4629      7072696F 
 4629      00
 4630              	.LASF121:
 4631 0600 6F66665F 		.ascii	"off_stklimit\000"
 4631      73746B6C 
 4631      696D6974 
 4631      00
 4632              	.LASF7:
 4633 060d 73686F72 		.ascii	"short int\000"
 4633      7420696E 
 4633      7400
 4634              	.LASF67:
 4635 0617 6C617374 		.ascii	"lasttime\000"
 4635      74696D65 
ARM GAS  C:\cygwin64\tmp\ccj0RBsU.s 			page 87


 4635      00
 4636              	.LASF103:
 4637 0620 65776D61 		.ascii	"ewmask\000"
 4637      736B00
 4638              	.LASF72:
 4639 0627 63685F73 		.ascii	"ch_system\000"
 4639      79737465 
 4639      6D00
 4640              	.LASF148:
 4641 0631 5F5F6675 		.ascii	"__func__\000"
 4641      6E635F5F 
 4641      00
 4642              	.LASF157:
 4643 063a 63685379 		.ascii	"chSysLock\000"
 4643      734C6F63 
 4643      6B00
 4644              	.LASF139:
 4645 0644 6F626A70 		.ascii	"objp\000"
 4645      00
 4646              	.LASF129:
 4647 0649 73656D61 		.ascii	"semaphore_t\000"
 4647      70686F72 
 4647      655F7400 
 4648              	.LASF62:
 4649 0655 63685F76 		.ascii	"ch_virtual_timer\000"
 4649      69727475 
 4649      616C5F74 
 4649      696D6572 
 4649      00
 4650              	.LASF104:
 4651 0666 63685F73 		.ascii	"ch_semaphore\000"
 4651      656D6170 
 4651      686F7265 
 4651      00
 4652              	.LASF126:
 4653 0673 6F66665F 		.ascii	"off_time\000"
 4653      74696D65 
 4653      00
 4654              	.LASF108:
 4655 067c 63685F69 		.ascii	"ch_idle_thread_wa\000"
 4655      646C655F 
 4655      74687265 
 4655      61645F77 
 4655      6100
 4656              	.LASF114:
 4657 068e 74696D65 		.ascii	"timesize\000"
 4657      73697A65 
 4657      00
 4658              	.LASF19:
 4659 0697 75696E74 		.ascii	"uint32_t\000"
 4659      33325F74 
 4659      00
 4660              	.LASF102:
 4661 06a0 77746D74 		.ascii	"wtmtxp\000"
 4661      787000
 4662              	.LASF52:
 4663 06a7 63685F74 		.ascii	"ch_threads_list\000"
ARM GAS  C:\cygwin64\tmp\ccj0RBsU.s 			page 88


 4663      68726561 
 4663      64735F6C 
 4663      69737400 
 4664              	.LASF106:
 4665 06b7 6F776E65 		.ascii	"owner\000"
 4665      7200
 4666              	.LASF13:
 4667 06bd 6C6F6E67 		.ascii	"long unsigned int\000"
 4667      20756E73 
 4667      69676E65 
 4667      6420696E 
 4667      7400
 4668              	.LASF38:
 4669 06cf 77616261 		.ascii	"wabase\000"
 4669      736500
 4670              	.LASF107:
 4671 06d6 63686172 		.ascii	"char\000"
 4671      00
 4672              	.LASF36:
 4673 06db 6F6C6465 		.ascii	"older\000"
 4673      7200
 4674              	.LASF166:
 4675 06e1 63685365 		.ascii	"chSemWaitTimeoutS\000"
 4675      6D576169 
 4675      7454696D 
 4675      656F7574 
 4675      5300
 4676              	.LASF8:
 4677 06f3 5F5F7569 		.ascii	"__uint16_t\000"
 4677      6E743136 
 4677      5F7400
 4678              	.LASF32:
 4679 06fe 74687265 		.ascii	"thread_t\000"
 4679      61645F74 
 4679      00
 4680              	.LASF86:
 4681 0707 62657374 		.ascii	"best\000"
 4681      00
 4682              	.LASF31:
 4683 070c 73797374 		.ascii	"systime_t\000"
 4683      696D655F 
 4683      7400
 4684              	.LASF60:
 4685 0716 76746675 		.ascii	"vtfunc_t\000"
 4685      6E635F74 
 4685      00
 4686              	.LASF160:
 4687 071f 5F5F7365 		.ascii	"__set_BASEPRI\000"
 4687      745F4241 
 4687      53455052 
 4687      4900
 4688              	.LASF70:
 4689 072d 70616E69 		.ascii	"panic_msg\000"
 4689      635F6D73 
 4689      6700
 4690              	.LASF84:
 4691 0737 6F666673 		.ascii	"offset\000"
ARM GAS  C:\cygwin64\tmp\ccj0RBsU.s 			page 89


 4691      657400
 4692              	.LASF145:
 4693 073e 63684775 		.ascii	"chGuardedPoolLoadArray\000"
 4693      61726465 
 4693      64506F6F 
 4693      6C4C6F61 
 4693      64417272 
 4694              	.LASF105:
 4695 0755 63685F6D 		.ascii	"ch_mutex\000"
 4695      75746578 
 4695      00
 4696              	.LASF119:
 4697 075e 6F66665F 		.ascii	"off_older\000"
 4697      6F6C6465 
 4697      7200
 4698              	.LASF9:
 4699 0768 73686F72 		.ascii	"short unsigned int\000"
 4699      7420756E 
 4699      7369676E 
 4699      65642069 
 4699      6E7400
 4700              	.LASF169:
 4701 077b 2E2E2F2E 		.ascii	"../../modules/ChibiOS/os/common/oslib/src/chmempool"
 4701      2E2F6D6F 
 4701      64756C65 
 4701      732F4368 
 4701      6962694F 
 4702 07ae 732E6300 		.ascii	"s.c\000"
 4703              	.LASF109:
 4704 07b2 6964656E 		.ascii	"identifier\000"
 4704      74696669 
 4704      657200
 4705              	.LASF21:
 4706 07bd 7274636E 		.ascii	"rtcnt_t\000"
 4706      745F7400 
 4707              	.LASF132:
 4708 07c5 6D656D67 		.ascii	"memgetfunc_t\000"
 4708      65746675 
 4708      6E635F74 
 4708      00
 4709              	.LASF154:
 4710 07d2 63684775 		.ascii	"chGuardedPoolAdd\000"
 4710      61726465 
 4710      64506F6F 
 4710      6C416464 
 4710      00
 4711              	.LASF134:
 4712 07e3 6F626A65 		.ascii	"object_size\000"
 4712      63745F73 
 4712      697A6500 
 4713              	.LASF113:
 4714 07ef 70747273 		.ascii	"ptrsize\000"
 4714      697A6500 
 4715              	.LASF54:
 4716 07f7 74687265 		.ascii	"threads_queue_t\000"
 4716      6164735F 
 4716      71756575 
ARM GAS  C:\cygwin64\tmp\ccj0RBsU.s 			page 90


 4716      655F7400 
 4717              	.LASF133:
 4718 0807 706F6F6C 		.ascii	"pool_header\000"
 4718      5F686561 
 4718      64657200 
 4719              	.LASF73:
 4720 0813 726C6973 		.ascii	"rlist\000"
 4720      7400
 4721              	.LASF137:
 4722 0819 706F6F6C 		.ascii	"pool\000"
 4722      00
 4723              	.LASF16:
 4724 081e 75696E74 		.ascii	"uint8_t\000"
 4724      385F7400 
 4725              	.LASF149:
 4726 0826 6368506F 		.ascii	"chPoolAlloc\000"
 4726      6F6C416C 
 4726      6C6F6300 
 4727              	.LASF147:
 4728 0832 6368506F 		.ascii	"chPoolFree\000"
 4728      6F6C4672 
 4728      656500
 4729              	.LASF40:
 4730 083d 666C6167 		.ascii	"flags\000"
 4730      7300
 4731              	.LASF162:
 4732 0843 5F737461 		.ascii	"_stats_start_measure_crit_thd\000"
 4732      74735F73 
 4732      74617274 
 4732      5F6D6561 
 4732      73757265 
 4733              	.LASF155:
 4734 0861 6368506F 		.ascii	"chPoolAdd\000"
 4734      6F6C4164 
 4734      6400
 4735              	.LASF98:
 4736 086b 77746F62 		.ascii	"wtobjp\000"
 4736      6A7000
 4737              	.LASF50:
 4738 0872 74687265 		.ascii	"threads_list_t\000"
 4738      6164735F 
 4738      6C697374 
 4738      5F7400
 4739              	.LASF122:
 4740 0881 6F66665F 		.ascii	"off_state\000"
 4740      73746174 
 4740      6500
 4741              	.LASF156:
 4742 088b 63685379 		.ascii	"chSysUnlock\000"
 4742      73556E6C 
 4742      6F636B00 
 4743              	.LASF151:
 4744 0897 6368506F 		.ascii	"chPoolLoadArray\000"
 4744      6F6C4C6F 
 4744      61644172 
 4744      72617900 
 4745              	.LASF123:
ARM GAS  C:\cygwin64\tmp\ccj0RBsU.s 			page 91


 4746 08a7 6F66665F 		.ascii	"off_flags\000"
 4746      666C6167 
 4746      7300
 4747              	.LASF45:
 4748 08b1 6D74786C 		.ascii	"mtxlist\000"
 4748      69737400 
 4749              	.LASF93:
 4750 08b9 6D5F6372 		.ascii	"m_crit_thd\000"
 4750      69745F74 
 4750      686400
 4751              		.ident	"GCC: (GNU Tools for ARM Embedded Processors 6-2017-q2-update) 6.3.1 20170620 (release) [AR
ARM GAS  C:\cygwin64\tmp\ccj0RBsU.s 			page 92


DEFINED SYMBOLS
                            *ABS*:00000000 chmempools.c
C:\cygwin64\tmp\ccj0RBsU.s:18     .text.chPoolObjectInit:00000000 $t
C:\cygwin64\tmp\ccj0RBsU.s:25     .text.chPoolObjectInit:00000000 chPoolObjectInit
C:\cygwin64\tmp\ccj0RBsU.s:46     .text.chPoolAllocI:00000000 $t
C:\cygwin64\tmp\ccj0RBsU.s:53     .text.chPoolAllocI:00000000 chPoolAllocI
C:\cygwin64\tmp\ccj0RBsU.s:89     .text.chPoolAlloc:00000000 $t
C:\cygwin64\tmp\ccj0RBsU.s:96     .text.chPoolAlloc:00000000 chPoolAlloc
C:\cygwin64\tmp\ccj0RBsU.s:179    .text.chPoolFreeI:00000000 $t
C:\cygwin64\tmp\ccj0RBsU.s:186    .text.chPoolFreeI:00000000 chPoolFreeI
C:\cygwin64\tmp\ccj0RBsU.s:204    .text.chPoolFree:00000000 $t
C:\cygwin64\tmp\ccj0RBsU.s:211    .text.chPoolFree:00000000 chPoolFree
C:\cygwin64\tmp\ccj0RBsU.s:286    .text.chPoolLoadArray:00000000 $t
C:\cygwin64\tmp\ccj0RBsU.s:293    .text.chPoolLoadArray:00000000 chPoolLoadArray
C:\cygwin64\tmp\ccj0RBsU.s:340    .text.chGuardedPoolObjectInit:00000000 $t
C:\cygwin64\tmp\ccj0RBsU.s:347    .text.chGuardedPoolObjectInit:00000000 chGuardedPoolObjectInit
C:\cygwin64\tmp\ccj0RBsU.s:377    .text.chGuardedPoolAllocTimeoutS:00000000 $t
C:\cygwin64\tmp\ccj0RBsU.s:384    .text.chGuardedPoolAllocTimeoutS:00000000 chGuardedPoolAllocTimeoutS
C:\cygwin64\tmp\ccj0RBsU.s:425    .text.chGuardedPoolAllocTimeout:00000000 $t
C:\cygwin64\tmp\ccj0RBsU.s:432    .text.chGuardedPoolAllocTimeout:00000000 chGuardedPoolAllocTimeout
C:\cygwin64\tmp\ccj0RBsU.s:506    .text.chGuardedPoolFreeI:00000000 $t
C:\cygwin64\tmp\ccj0RBsU.s:513    .text.chGuardedPoolFreeI:00000000 chGuardedPoolFreeI
C:\cygwin64\tmp\ccj0RBsU.s:538    .text.chGuardedPoolFree:00000000 $t
C:\cygwin64\tmp\ccj0RBsU.s:545    .text.chGuardedPoolFree:00000000 chGuardedPoolFree
C:\cygwin64\tmp\ccj0RBsU.s:618    .text.chGuardedPoolLoadArray:00000000 $t
C:\cygwin64\tmp\ccj0RBsU.s:625    .text.chGuardedPoolLoadArray:00000000 chGuardedPoolLoadArray
                     .debug_frame:00000010 $d

UNDEFINED SYMBOLS
_stats_start_measure_crit_thd
_stats_stop_measure_crit_thd
chSemObjectInit
chSemWaitTimeoutS
chSemSignalI
chSchRescheduleS
