ARM GAS  C:\cygwin64\tmp\cc2VRj1W.s 			page 1


   1              		.cpu cortex-m4
   2              		.eabi_attribute 27, 1
   3              		.eabi_attribute 28, 1
   4              		.eabi_attribute 20, 1
   5              		.eabi_attribute 21, 1
   6              		.eabi_attribute 23, 3
   7              		.eabi_attribute 24, 1
   8              		.eabi_attribute 25, 1
   9              		.eabi_attribute 26, 1
  10              		.eabi_attribute 30, 4
  11              		.eabi_attribute 34, 1
  12              		.eabi_attribute 18, 4
  13              		.file	"chmemcore.c"
  14              		.text
  15              	.Ltext0:
  16              		.cfi_sections	.debug_frame
  17              		.section	.text._core_init,"ax",%progbits
  18              		.align	1
  19              		.global	_core_init
  20              		.syntax unified
  21              		.thumb
  22              		.thumb_func
  23              		.fpu fpv4-sp-d16
  24              		.type	_core_init, %function
  25              	_core_init:
  26              	.LFB246:
  27              		.file 1 "../../modules/ChibiOS/os/common/oslib/src/chmemcore.c"
  28              		.loc 1 79 0
  29              		.cfi_startproc
  30              		@ args = 0, pretend = 0, frame = 0
  31              		@ frame_needed = 0, uses_anonymous_args = 0
  32              		@ link register save eliminated.
  33              		.loc 1 85 0
  34 0000 034B     		ldr	r3, .L2
  35 0002 044A     		ldr	r2, .L2+4
  36 0004 1A60     		str	r2, [r3]
  37              		.loc 1 86 0
  38 0006 044B     		ldr	r3, .L2+8
  39 0008 044A     		ldr	r2, .L2+12
  40 000a 1A60     		str	r2, [r3]
  41 000c 7047     		bx	lr
  42              	.L3:
  43 000e 00BF     		.align	2
  44              	.L2:
  45 0010 00000000 		.word	.LANCHOR0
  46 0014 00000000 		.word	__heap_base__
  47 0018 00000000 		.word	.LANCHOR1
  48 001c 00000000 		.word	__heap_end__
  49              		.cfi_endproc
  50              	.LFE246:
  51              		.size	_core_init, .-_core_init
  52              		.section	.text.chCoreAllocAlignedI,"ax",%progbits
  53              		.align	1
  54              		.global	chCoreAllocAlignedI
  55              		.syntax unified
  56              		.thumb
  57              		.thumb_func
ARM GAS  C:\cygwin64\tmp\cc2VRj1W.s 			page 2


  58              		.fpu fpv4-sp-d16
  59              		.type	chCoreAllocAlignedI, %function
  60              	chCoreAllocAlignedI:
  61              	.LFB247:
  62              		.loc 1 108 0
  63              		.cfi_startproc
  64              		@ args = 0, pretend = 0, frame = 0
  65              		@ frame_needed = 0, uses_anonymous_args = 0
  66              	.LVL0:
  67 0000 30B5     		push	{r4, r5, lr}
  68              		.cfi_def_cfa_offset 12
  69              		.cfi_offset 4, -12
  70              		.cfi_offset 5, -8
  71              		.cfi_offset 14, -4
  72              		.loc 1 115 0
  73 0002 094C     		ldr	r4, .L7
  74 0004 2368     		ldr	r3, [r4]
  75              		.loc 1 114 0
  76 0006 421E     		subs	r2, r0, #1
  77              		.loc 1 115 0
  78 0008 581E     		subs	r0, r3, #1
  79              	.LVL1:
  80              		.loc 1 117 0
  81 000a 084B     		ldr	r3, .L7+4
  82              		.loc 1 114 0
  83 000c 4D42     		negs	r5, r1
  84              		.loc 1 115 0
  85 000e 0844     		add	r0, r0, r1
  86              		.loc 1 117 0
  87 0010 1B68     		ldr	r3, [r3]
  88              		.loc 1 115 0
  89 0012 2840     		ands	r0, r0, r5
  90              		.loc 1 114 0
  91 0014 0A44     		add	r2, r2, r1
  92              	.LVL2:
  93 0016 2A40     		ands	r2, r2, r5
  94              	.LVL3:
  95              		.loc 1 117 0
  96 0018 1B1A     		subs	r3, r3, r0
  97 001a 9A42     		cmp	r2, r3
  98              		.loc 1 120 0
  99 001c 9ABF     		itte	ls
 100 001e 1218     		addls	r2, r2, r0
 101              	.LVL4:
 102 0020 2260     		strls	r2, [r4]
 103              		.loc 1 118 0
 104 0022 0020     		movhi	r0, #0
 105              	.LVL5:
 106              		.loc 1 123 0
 107 0024 30BD     		pop	{r4, r5, pc}
 108              	.LVL6:
 109              	.L8:
 110 0026 00BF     		.align	2
 111              	.L7:
 112 0028 00000000 		.word	.LANCHOR0
 113 002c 00000000 		.word	.LANCHOR1
 114              		.cfi_endproc
ARM GAS  C:\cygwin64\tmp\cc2VRj1W.s 			page 3


 115              	.LFE247:
 116              		.size	chCoreAllocAlignedI, .-chCoreAllocAlignedI
 117              		.section	.text.chCoreAllocAligned,"ax",%progbits
 118              		.align	1
 119              		.global	chCoreAllocAligned
 120              		.syntax unified
 121              		.thumb
 122              		.thumb_func
 123              		.fpu fpv4-sp-d16
 124              		.type	chCoreAllocAligned, %function
 125              	chCoreAllocAligned:
 126              	.LFB248:
 127              		.loc 1 137 0
 128              		.cfi_startproc
 129              		@ args = 0, pretend = 0, frame = 0
 130              		@ frame_needed = 0, uses_anonymous_args = 0
 131              	.LVL7:
 132 0000 38B5     		push	{r3, r4, r5, lr}
 133              		.cfi_def_cfa_offset 16
 134              		.cfi_offset 3, -16
 135              		.cfi_offset 4, -12
 136              		.cfi_offset 5, -8
 137              		.cfi_offset 14, -4
 138              		.loc 1 137 0
 139 0002 0446     		mov	r4, r0
 140 0004 0D46     		mov	r5, r1
 141              	.LBB24:
 142              	.LBB25:
 143              	.LBB26:
 144              	.LBB27:
 145              	.LBB28:
 146              		.file 2 "../../modules/ChibiOS/os/common/ext/CMSIS/include/cmsis_gcc.h"
 147              		.loc 2 264 0
 148 0006 2023     		movs	r3, #32
 149              		.syntax unified
 150              	@ 264 "../../modules/ChibiOS/os/common/ext/CMSIS/include/cmsis_gcc.h" 1
 151 0008 83F31188 		MSR basepri, r3
 152              	@ 0 "" 2
 153              	.LVL8:
 154              		.thumb
 155              		.syntax unified
 156              	.LBE28:
 157              	.LBE27:
 158              	.LBE26:
 159              		.file 3 "../../modules/ChibiOS/os/rt/include/chsys.h"
 160              		.loc 3 377 0
 161 000c FFF7FEFF 		bl	_stats_start_measure_crit_thd
 162              	.LVL9:
 163              	.LBE25:
 164              	.LBE24:
 165              		.loc 1 141 0
 166 0010 2946     		mov	r1, r5
 167 0012 2046     		mov	r0, r4
 168 0014 FFF7FEFF 		bl	chCoreAllocAlignedI
 169              	.LVL10:
 170 0018 0446     		mov	r4, r0
 171              	.LVL11:
ARM GAS  C:\cygwin64\tmp\cc2VRj1W.s 			page 4


 172              	.LBB29:
 173              	.LBB30:
 174              		.loc 3 389 0
 175 001a FFF7FEFF 		bl	_stats_stop_measure_crit_thd
 176              	.LVL12:
 177              	.LBB31:
 178              	.LBB32:
 179              	.LBB33:
 180              		.loc 2 264 0
 181 001e 0023     		movs	r3, #0
 182              		.syntax unified
 183              	@ 264 "../../modules/ChibiOS/os/common/ext/CMSIS/include/cmsis_gcc.h" 1
 184 0020 83F31188 		MSR basepri, r3
 185              	@ 0 "" 2
 186              	.LVL13:
 187              		.thumb
 188              		.syntax unified
 189              	.LBE33:
 190              	.LBE32:
 191              	.LBE31:
 192              	.LBE30:
 193              	.LBE29:
 194              		.loc 1 145 0
 195 0024 2046     		mov	r0, r4
 196 0026 38BD     		pop	{r3, r4, r5, pc}
 197              		.cfi_endproc
 198              	.LFE248:
 199              		.size	chCoreAllocAligned, .-chCoreAllocAligned
 200              		.section	.text.chCoreGetStatusX,"ax",%progbits
 201              		.align	1
 202              		.global	chCoreGetStatusX
 203              		.syntax unified
 204              		.thumb
 205              		.thumb_func
 206              		.fpu fpv4-sp-d16
 207              		.type	chCoreGetStatusX, %function
 208              	chCoreGetStatusX:
 209              	.LFB249:
 210              		.loc 1 154 0
 211              		.cfi_startproc
 212              		@ args = 0, pretend = 0, frame = 0
 213              		@ frame_needed = 0, uses_anonymous_args = 0
 214              		@ link register save eliminated.
 215              		.loc 1 157 0
 216 0000 024B     		ldr	r3, .L11
 217 0002 1868     		ldr	r0, [r3]
 218 0004 024B     		ldr	r3, .L11+4
 219 0006 1B68     		ldr	r3, [r3]
 220              		.loc 1 159 0
 221 0008 C01A     		subs	r0, r0, r3
 222 000a 7047     		bx	lr
 223              	.L12:
 224              		.align	2
 225              	.L11:
 226 000c 00000000 		.word	.LANCHOR1
 227 0010 00000000 		.word	.LANCHOR0
 228              		.cfi_endproc
ARM GAS  C:\cygwin64\tmp\cc2VRj1W.s 			page 5


 229              	.LFE249:
 230              		.size	chCoreGetStatusX, .-chCoreGetStatusX
 231              		.section	.bss.endmem,"aw",%nobits
 232              		.align	2
 233              		.set	.LANCHOR1,. + 0
 234              		.type	endmem, %object
 235              		.size	endmem, 4
 236              	endmem:
 237 0000 00000000 		.space	4
 238              		.section	.bss.nextmem,"aw",%nobits
 239              		.align	2
 240              		.set	.LANCHOR0,. + 0
 241              		.type	nextmem, %object
 242              		.size	nextmem, 4
 243              	nextmem:
 244 0000 00000000 		.space	4
 245              		.text
 246              	.Letext0:
 247              		.file 4 "c:\\program files (x86)\\gnu tools arm embedded\\6 2017-q2-update\\lib\\gcc\\arm-none-eab
 248              		.file 5 "c:\\program files (x86)\\gnu tools arm embedded\\6 2017-q2-update\\arm-none-eabi\\include
 249              		.file 6 "c:\\program files (x86)\\gnu tools arm embedded\\6 2017-q2-update\\arm-none-eabi\\include
 250              		.file 7 "../../modules/ChibiOS/os/common/ports/ARMCMx/compilers/GCC/chtypes.h"
 251              		.file 8 "../../modules/ChibiOS/os/rt/include/chsystypes.h"
 252              		.file 9 "../../modules/ChibiOS/os/rt/include/chschd.h"
 253              		.file 10 "../../modules/ChibiOS/os/common/ext/CMSIS/include/core_cm4.h"
 254              		.file 11 "../../modules/ChibiOS/os/common/ext/CMSIS/ST/STM32F4xx/system_stm32f4xx.h"
 255              		.file 12 "../../modules/ChibiOS/os/common/ports/ARMCMx/chcore.h"
 256              		.file 13 "../../modules/ChibiOS/os/common/ports/ARMCMx/chcore_v7m.h"
 257              		.file 14 "../../modules/ChibiOS/os/rt/include/chtm.h"
 258              		.file 15 "../../modules/ChibiOS/os/rt/include/chstats.h"
 259              		.file 16 "../../modules/ChibiOS/os/rt/include/chsem.h"
 260              		.file 17 "../../modules/ChibiOS/os/rt/include/chmtx.h"
 261              		.file 18 "../../modules/ChibiOS/os/rt/include/chregistry.h"