ARM GAS  C:\cygwin64\tmp\cc3Ix7in.s 			page 1


   1              		.cpu cortex-m4
   2              		.eabi_attribute 27, 1
   3              		.eabi_attribute 28, 1
   4              		.eabi_attribute 20, 1
   5              		.eabi_attribute 21, 1
   6              		.eabi_attribute 23, 3
   7              		.eabi_attribute 24, 1
   8              		.eabi_attribute 25, 1
   9              		.eabi_attribute 26, 1
  10              		.eabi_attribute 30, 4
  11              		.eabi_attribute 34, 1
  12              		.eabi_attribute 18, 4
  13              		.file	"chmsg.c"
  14              		.text
  15              	.Ltext0:
  16              		.cfi_sections	.debug_frame
  17              		.section	.text.chMsgSend,"ax",%progbits
  18              		.align	1
  19              		.global	chMsgSend
  20              		.syntax unified
  21              		.thumb
  22              		.thumb_func
  23              		.fpu fpv4-sp-d16
  24              		.type	chMsgSend, %function
  25              	chMsgSend:
  26              	.LFB246:
  27              		.file 1 "../../modules/ChibiOS/os/rt/src/chmsg.c"
  28              		.loc 1 87 0
  29              		.cfi_startproc
  30              		@ args = 0, pretend = 0, frame = 0
  31              		@ frame_needed = 0, uses_anonymous_args = 0
  32              	.LVL0:
  33              		.loc 1 88 0
  34 0000 114B     		ldr	r3, .L3
  35              		.loc 1 87 0
  36 0002 70B5     		push	{r4, r5, r6, lr}
  37              		.cfi_def_cfa_offset 16
  38              		.cfi_offset 4, -16
  39              		.cfi_offset 5, -12
  40              		.cfi_offset 6, -8
  41              		.cfi_offset 14, -4
  42              		.loc 1 88 0
  43 0004 9C69     		ldr	r4, [r3, #24]
  44              	.LVL1:
  45              		.loc 1 87 0
  46 0006 0546     		mov	r5, r0
  47 0008 0E46     		mov	r6, r1
  48              	.LBB34:
  49              	.LBB35:
  50              	.LBB36:
  51              	.LBB37:
  52              	.LBB38:
  53              		.file 2 "../../modules/ChibiOS/os/common/ext/CMSIS/include/cmsis_gcc.h"
  54              		.loc 2 264 0
  55 000a 2023     		movs	r3, #32
  56              		.syntax unified
  57              	@ 264 "../../modules/ChibiOS/os/common/ext/CMSIS/include/cmsis_gcc.h" 1
ARM GAS  C:\cygwin64\tmp\cc3Ix7in.s 			page 2


  58 000c 83F31188 		MSR basepri, r3
  59              	@ 0 "" 2
  60              	.LVL2:
  61              		.thumb
  62              		.syntax unified
  63              	.LBE38:
  64              	.LBE37:
  65              	.LBE36:
  66              		.file 3 "../../modules/ChibiOS/os/rt/include/chsys.h"
  67              		.loc 3 377 0
  68 0010 FFF7FEFF 		bl	_stats_start_measure_crit_thd
  69              	.LVL3:
  70              	.LBE35:
  71              	.LBE34:
  72              		.loc 1 93 0
  73 0014 6662     		str	r6, [r4, #36]
  74              	.LVL4:
  75              		.loc 1 94 0
  76 0016 05F12C03 		add	r3, r5, #44
  77              	.LVL5:
  78              	.LBB39:
  79              	.LBB40:
  80              		.file 4 "../../modules/ChibiOS/os/rt/include/chschd.h"
  81              		.loc 4 611 0
  82 001a 2360     		str	r3, [r4]
  83              		.loc 4 612 0
  84 001c 2B6B     		ldr	r3, [r5, #48]
  85              	.LVL6:
  86 001e 6360     		str	r3, [r4, #4]
  87              		.loc 4 613 0
  88 0020 1C60     		str	r4, [r3]
  89              	.LVL7:
  90              	.LBE40:
  91              	.LBE39:
  92              		.loc 1 95 0
  93 0022 95F82030 		ldrb	r3, [r5, #32]	@ zero_extendqisi2
  94              	.LBB42:
  95              	.LBB41:
  96              		.loc 4 614 0
  97 0026 2C63     		str	r4, [r5, #48]
  98              	.LVL8:
  99              	.LBE41:
 100              	.LBE42:
 101              		.loc 1 95 0
 102 0028 0E2B     		cmp	r3, #14
 103 002a 02D1     		bne	.L2
 104              		.loc 1 96 0
 105 002c 2846     		mov	r0, r5
 106 002e FFF7FEFF 		bl	chSchReadyI
 107              	.LVL9:
 108              	.L2:
 109              		.loc 1 98 0
 110 0032 0C20     		movs	r0, #12
 111 0034 FFF7FEFF 		bl	chSchGoSleepS
 112              	.LVL10:
 113              		.loc 1 99 0
 114 0038 646A     		ldr	r4, [r4, #36]
ARM GAS  C:\cygwin64\tmp\cc3Ix7in.s 			page 3


 115              	.LVL11:
 116              	.LBB43:
 117              	.LBB44:
 118              		.loc 3 389 0
 119 003a FFF7FEFF 		bl	_stats_stop_measure_crit_thd
 120              	.LVL12:
 121              	.LBB45:
 122              	.LBB46:
 123              	.LBB47:
 124              		.loc 2 264 0
 125 003e 0023     		movs	r3, #0
 126              		.syntax unified
 127              	@ 264 "../../modules/ChibiOS/os/common/ext/CMSIS/include/cmsis_gcc.h" 1
 128 0040 83F31188 		MSR basepri, r3
 129              	@ 0 "" 2
 130              	.LVL13:
 131              		.thumb
 132              		.syntax unified
 133              	.LBE47:
 134              	.LBE46:
 135              	.LBE45:
 136              	.LBE44:
 137              	.LBE43:
 138              		.loc 1 103 0
 139 0044 2046     		mov	r0, r4
 140 0046 70BD     		pop	{r4, r5, r6, pc}
 141              	.LVL14:
 142              	.L4:
 143              		.align	2
 144              	.L3:
 145 0048 00000000 		.word	ch
 146              		.cfi_endproc
 147              	.LFE246:
 148              		.size	chMsgSend, .-chMsgSend
 149              		.section	.text.chMsgWait,"ax",%progbits
 150              		.align	1
 151              		.global	chMsgWait
 152              		.syntax unified
 153              		.thumb
 154              		.thumb_func
 155              		.fpu fpv4-sp-d16
 156              		.type	chMsgWait, %function
 157              	chMsgWait:
 158              	.LFB247:
 159              		.loc 1 119 0
 160              		.cfi_startproc
 161              		@ args = 0, pretend = 0, frame = 0
 162              		@ frame_needed = 0, uses_anonymous_args = 0
 163              	.LVL15:
 164 0000 10B5     		push	{r4, lr}
 165              		.cfi_def_cfa_offset 8
 166              		.cfi_offset 4, -8
 167              		.cfi_offset 14, -4
 168              	.LBB62:
 169              	.LBB63:
 170              	.LBB64:
 171              	.LBB65:
ARM GAS  C:\cygwin64\tmp\cc3Ix7in.s 			page 4


 172              	.LBB66:
 173              		.loc 2 264 0
 174 0002 2023     		movs	r3, #32
 175              		.syntax unified
 176              	@ 264 "../../modules/ChibiOS/os/common/ext/CMSIS/include/cmsis_gcc.h" 1
 177 0004 83F31188 		MSR basepri, r3
 178              	@ 0 "" 2
 179              	.LVL16:
 180              		.thumb
 181              		.syntax unified
 182              	.LBE66:
 183              	.LBE65:
 184              	.LBE64:
 185              	.LBE63:
 186              	.LBE62:
 187              		.loc 1 123 0
 188 0008 0D4C     		ldr	r4, .L7
 189              	.LBB68:
 190              	.LBB67:
 191              		.loc 3 377 0
 192 000a FFF7FEFF 		bl	_stats_start_measure_crit_thd
 193              	.LVL17:
 194              	.LBE67:
 195              	.LBE68:
 196              		.loc 1 123 0
 197 000e A269     		ldr	r2, [r4, #24]
 198              	.LBB69:
 199              	.LBB70:
 200              		.file 5 "../../modules/ChibiOS/os/rt/include/chmsg.h"
 201              		.loc 5 83 0
 202 0010 02F12C01 		add	r1, r2, #44
 203              	.LBE70:
 204              	.LBE69:
 205              		.loc 1 123 0
 206 0014 D26A     		ldr	r2, [r2, #44]
 207 0016 8A42     		cmp	r2, r1
 208 0018 02D1     		bne	.L6
 209              		.loc 1 124 0
 210 001a 0E20     		movs	r0, #14
 211 001c FFF7FEFF 		bl	chSchGoSleepS
 212              	.LVL18:
 213              	.L6:
 214              		.loc 1 126 0
 215 0020 A369     		ldr	r3, [r4, #24]
 216              	.LVL19:
 217              	.LBB71:
 218              	.LBB72:
 219              		.loc 4 618 0
 220 0022 DC6A     		ldr	r4, [r3, #44]
 221              	.LVL20:
 222              		.loc 4 620 0
 223 0024 2268     		ldr	r2, [r4]
 224 0026 43F82C2F 		str	r2, [r3, #44]!
 225              	.LVL21:
 226              		.loc 4 621 0
 227 002a 5360     		str	r3, [r2, #4]
 228              	.LVL22:
ARM GAS  C:\cygwin64\tmp\cc3Ix7in.s 			page 5


 229              	.LBE72:
 230              	.LBE71:
 231              		.loc 1 127 0
 232 002c 0D23     		movs	r3, #13
 233 002e 84F82030 		strb	r3, [r4, #32]
 234              	.LBB73:
 235              	.LBB74:
 236              		.loc 3 389 0
 237 0032 FFF7FEFF 		bl	_stats_stop_measure_crit_thd
 238              	.LVL23:
 239              	.LBB75:
 240              	.LBB76:
 241              	.LBB77:
 242              		.loc 2 264 0
 243 0036 0023     		movs	r3, #0
 244              		.syntax unified
 245              	@ 264 "../../modules/ChibiOS/os/common/ext/CMSIS/include/cmsis_gcc.h" 1
 246 0038 83F31188 		MSR basepri, r3
 247              	@ 0 "" 2
 248              	.LVL24:
 249              		.thumb
 250              		.syntax unified
 251              	.LBE77:
 252              	.LBE76:
 253              	.LBE75:
 254              	.LBE74:
 255              	.LBE73:
 256              		.loc 1 131 0
 257 003c 2046     		mov	r0, r4
 258 003e 10BD     		pop	{r4, pc}
 259              	.L8:
 260              		.align	2
 261              	.L7:
 262 0040 00000000 		.word	ch
 263              		.cfi_endproc
 264              	.LFE247:
 265              		.size	chMsgWait, .-chMsgWait
 266              		.section	.text.chMsgRelease,"ax",%progbits
 267              		.align	1
 268              		.global	chMsgRelease
 269              		.syntax unified
 270              		.thumb
 271              		.thumb_func
 272              		.fpu fpv4-sp-d16
 273              		.type	chMsgRelease, %function
 274              	chMsgRelease:
 275              	.LFB248:
 276              		.loc 1 143 0
 277              		.cfi_startproc
 278              		@ args = 0, pretend = 0, frame = 0
 279              		@ frame_needed = 0, uses_anonymous_args = 0
 280              	.LVL25:
 281 0000 38B5     		push	{r3, r4, r5, lr}
 282              		.cfi_def_cfa_offset 16
 283              		.cfi_offset 3, -16
 284              		.cfi_offset 4, -12
 285              		.cfi_offset 5, -8
ARM GAS  C:\cygwin64\tmp\cc3Ix7in.s 			page 6


 286              		.cfi_offset 14, -4
 287              		.loc 1 143 0
 288 0002 0446     		mov	r4, r0
 289 0004 0D46     		mov	r5, r1
 290              	.LBB90:
 291              	.LBB91:
 292              	.LBB92:
 293              	.LBB93:
 294              	.LBB94:
 295              		.loc 2 264 0
 296 0006 2023     		movs	r3, #32
 297              		.syntax unified
 298              	@ 264 "../../modules/ChibiOS/os/common/ext/CMSIS/include/cmsis_gcc.h" 1
 299 0008 83F31188 		MSR basepri, r3
 300              	@ 0 "" 2
 301              	.LVL26:
 302              		.thumb
 303              		.syntax unified
 304              	.LBE94:
 305              	.LBE93:
 306              	.LBE92:
 307              		.loc 3 377 0
 308 000c FFF7FEFF 		bl	_stats_start_measure_crit_thd
 309              	.LVL27:
 310              	.LBE91:
 311              	.LBE90:
 312              	.LBB95:
 313              	.LBB96:
 314              		.loc 5 117 0
 315 0010 2946     		mov	r1, r5
 316 0012 2046     		mov	r0, r4
 317 0014 FFF7FEFF 		bl	chSchWakeupS
 318              	.LVL28:
 319              	.LBE96:
 320              	.LBE95:
 321              	.LBB97:
 322              	.LBB98:
 323              		.loc 3 389 0
 324 0018 FFF7FEFF 		bl	_stats_stop_measure_crit_thd
 325              	.LVL29:
 326              	.LBB99:
 327              	.LBB100:
 328              	.LBB101:
 329              		.loc 2 264 0
 330 001c 0023     		movs	r3, #0
 331              		.syntax unified
 332              	@ 264 "../../modules/ChibiOS/os/common/ext/CMSIS/include/cmsis_gcc.h" 1
 333 001e 83F31188 		MSR basepri, r3
 334              	@ 0 "" 2
 335              	.LVL30:
 336              		.thumb
 337              		.syntax unified
 338 0022 38BD     		pop	{r3, r4, r5, pc}
 339              	.LBE101:
 340              	.LBE100:
 341              	.LBE99:
 342              	.LBE98:
ARM GAS  C:\cygwin64\tmp\cc3Ix7in.s 			page 7


 343              	.LBE97:
 344              		.cfi_endproc
 345              	.LFE248:
 346              		.size	chMsgRelease, .-chMsgRelease
 347              		.text
 348              	.Letext0:
 349              		.file 6 "c:\\program files (x86)\\gnu tools arm embedded\\6 2017-q2-update\\arm-none-eabi\\include
 350              		.file 7 "c:\\program files (x86)\\gnu tools arm embedded\\6 2017-q2-update\\arm-none-eabi\\include
 351              		.file 8 "../../modules/ChibiOS/os/common/ports/ARMCMx/compilers/GCC/chtypes.h"
 352              		.file 9 "../../modules/ChibiOS/os/rt/include/chsystypes.h"
 353              		.file 10 "../../modules/ChibiOS/os/common/ext/CMSIS/include/core_cm4.h"
 354              		.file 11 "../../modules/ChibiOS/os/common/ext/CMSIS/ST/STM32F4xx/system_stm32f4xx.h"
 355              		.file 12 "../../modules/ChibiOS/os/common/ports/ARMCMx/chcore.h"
 356              		.file 13 "../../modules/ChibiOS/os/common/ports/ARMCMx/chcore_v7m.h"
 357              		.file 14 "../../modules/ChibiOS/os/rt/include/chtm.h"
 358              		.file 15 "../../modules/ChibiOS/os/rt/include/chstats.h"
 359              		.file 16 "../../modules/ChibiOS/os/rt/include/chsem.h"
 360              		.file 17 "../../modules/ChibiOS/os/rt/include/chmtx.h"
 361              		.file 18 "../../modules/ChibiOS/os/rt/include/chregistry.h"