ARM GAS  C:\cygwin64\tmp\cc3Ix7in.s 			page 1


   1              		.cpu cortex-m4
   2              		.eabi_attribute 27, 1
   3              		.eabi_attribute 28, 1
   4              		.eabi_attribute 20, 1
   5              		.eabi_attribute 21, 1
   6              		.eabi_attribute 23, 3
   7              		.eabi_attribute 24, 1
   8              		.eabi_attribute 25, 1
   9              		.eabi_attribute 26, 1
  10              		.eabi_attribute 30, 4
  11              		.eabi_attribute 34, 1
  12              		.eabi_attribute 18, 4
  13              		.file	"chmsg.c"
  14              		.text
  15              	.Ltext0:
  16              		.cfi_sections	.debug_frame
  17              		.section	.text.chMsgSend,"ax",%progbits
  18              		.align	1
  19              		.global	chMsgSend
  20              		.syntax unified
  21              		.thumb
  22              		.thumb_func
  23              		.fpu fpv4-sp-d16
  24              		.type	chMsgSend, %function
  25              	chMsgSend:
  26              	.LFB246:
  27              		.file 1 "../../modules/ChibiOS/os/rt/src/chmsg.c"
  28              		.loc 1 87 0
  29              		.cfi_startproc
  30              		@ args = 0, pretend = 0, frame = 0
  31              		@ frame_needed = 0, uses_anonymous_args = 0
  32              	.LVL0:
  33              		.loc 1 88 0
  34 0000 114B     		ldr	r3, .L3
  35              		.loc 1 87 0
  36 0002 70B5     		push	{r4, r5, r6, lr}
  37              		.cfi_def_cfa_offset 16
  38              		.cfi_offset 4, -16
  39              		.cfi_offset 5, -12
  40              		.cfi_offset 6, -8
  41              		.cfi_offset 14, -4
  42              		.loc 1 88 0
  43 0004 9C69     		ldr	r4, [r3, #24]
  44              	.LVL1:
  45              		.loc 1 87 0
  46 0006 0546     		mov	r5, r0
  47 0008 0E46     		mov	r6, r1
  48              	.LBB34:
  49              	.LBB35:
  50              	.LBB36:
  51              	.LBB37:
  52              	.LBB38:
  53              		.file 2 "../../modules/ChibiOS/os/common/ext/CMSIS/include/cmsis_gcc.h"
  54              		.loc 2 264 0
  55 000a 2023     		movs	r3, #32
  56              		.syntax unified
  57              	@ 264 "../../modules/ChibiOS/os/common/ext/CMSIS/include/cmsis_gcc.h" 1
ARM GAS  C:\cygwin64\tmp\cc3Ix7in.s 			page 2


  58 000c 83F31188 		MSR basepri, r3
  59              	@ 0 "" 2
  60              	.LVL2:
  61              		.thumb
  62              		.syntax unified
  63              	.LBE38:
  64              	.LBE37:
  65              	.LBE36:
  66              		.file 3 "../../modules/ChibiOS/os/rt/include/chsys.h"
  67              		.loc 3 377 0
  68 0010 FFF7FEFF 		bl	_stats_start_measure_crit_thd
  69              	.LVL3:
  70              	.LBE35:
  71              	.LBE34:
  72              		.loc 1 93 0
  73 0014 6662     		str	r6, [r4, #36]
  74              	.LVL4:
  75              		.loc 1 94 0
  76 0016 05F12C03 		add	r3, r5, #44
  77              	.LVL5:
  78              	.LBB39:
  79              	.LBB40:
  80              		.file 4 "../../modules/ChibiOS/os/rt/include/chschd.h"
  81              		.loc 4 611 0
  82 001a 2360     		str	r3, [r4]
  83              		.loc 4 612 0
  84 001c 2B6B     		ldr	r3, [r5, #48]
  85              	.LVL6:
  86 001e 6360     		str	r3, [r4, #4]
  87              		.loc 4 613 0
  88 0020 1C60     		str	r4, [r3]
  89              	.LVL7:
  90              	.LBE40:
  91              	.LBE39:
  92              		.loc 1 95 0
  93 0022 95F82030 		ldrb	r3, [r5, #32]	@ zero_extendqisi2
  94              	.LBB42:
  95              	.LBB41:
  96              		.loc 4 614 0
  97 0026 2C63     		str	r4, [r5, #48]
  98              	.LVL8:
  99              	.LBE41:
 100              	.LBE42:
 101              		.loc 1 95 0
 102 0028 0E2B     		cmp	r3, #14
 103 002a 02D1     		bne	.L2
 104              		.loc 1 96 0
 105 002c 2846     		mov	r0, r5
 106 002e FFF7FEFF 		bl	chSchReadyI
 107              	.LVL9:
 108              	.L2:
 109              		.loc 1 98 0
 110 0032 0C20     		movs	r0, #12
 111 0034 FFF7FEFF 		bl	chSchGoSleepS
 112              	.LVL10:
 113              		.loc 1 99 0
 114 0038 646A     		ldr	r4, [r4, #36]
ARM GAS  C:\cygwin64\tmp\cc3Ix7in.s 			page 3


 115              	.LVL11:
 116              	.LBB43:
 117              	.LBB44:
 118              		.loc 3 389 0
 119 003a FFF7FEFF 		bl	_stats_stop_measure_crit_thd
 120              	.LVL12:
 121              	.LBB45:
 122              	.LBB46:
 123              	.LBB47:
 124              		.loc 2 264 0
 125 003e 0023     		movs	r3, #0
 126              		.syntax unified
 127              	@ 264 "../../modules/ChibiOS/os/common/ext/CMSIS/include/cmsis_gcc.h" 1
 128 0040 83F31188 		MSR basepri, r3
 129              	@ 0 "" 2
 130              	.LVL13:
 131              		.thumb
 132              		.syntax unified
 133              	.LBE47:
 134              	.LBE46:
 135              	.LBE45:
 136              	.LBE44:
 137              	.LBE43:
 138              		.loc 1 103 0
 139 0044 2046     		mov	r0, r4
 140 0046 70BD     		pop	{r4, r5, r6, pc}
 141              	.LVL14:
 142              	.L4:
 143              		.align	2
 144              	.L3:
 145 0048 00000000 		.word	ch
 146              		.cfi_endproc
 147              	.LFE246:
 148              		.size	chMsgSend, .-chMsgSend
 149              		.section	.text.chMsgWait,"ax",%progbits
 150              		.align	1
 151              		.global	chMsgWait
 152              		.syntax unified
 153              		.thumb
 154              		.thumb_func
 155              		.fpu fpv4-sp-d16
 156              		.type	chMsgWait, %function
 157              	chMsgWait:
 158              	.LFB247:
 159              		.loc 1 119 0
 160              		.cfi_startproc
 161              		@ args = 0, pretend = 0, frame = 0
 162              		@ frame_needed = 0, uses_anonymous_args = 0
 163              	.LVL15:
 164 0000 10B5     		push	{r4, lr}
 165              		.cfi_def_cfa_offset 8
 166              		.cfi_offset 4, -8
 167              		.cfi_offset 14, -4
 168              	.LBB62:
 169              	.LBB63:
 170              	.LBB64:
 171              	.LBB65:
ARM GAS  C:\cygwin64\tmp\cc3Ix7in.s 			page 4


 172              	.LBB66:
 173              		.loc 2 264 0
 174 0002 2023     		movs	r3, #32
 175              		.syntax unified
 176              	@ 264 "../../modules/ChibiOS/os/common/ext/CMSIS/include/cmsis_gcc.h" 1
 177 0004 83F31188 		MSR basepri, r3
 178              	@ 0 "" 2
 179              	.LVL16:
 180              		.thumb
 181              		.syntax unified
 182              	.LBE66:
 183              	.LBE65:
 184              	.LBE64:
 185              	.LBE63:
 186              	.LBE62:
 187              		.loc 1 123 0
 188 0008 0D4C     		ldr	r4, .L7
 189              	.LBB68:
 190              	.LBB67:
 191              		.loc 3 377 0
 192 000a FFF7FEFF 		bl	_stats_start_measure_crit_thd
 193              	.LVL17:
 194              	.LBE67:
 195              	.LBE68:
 196              		.loc 1 123 0
 197 000e A269     		ldr	r2, [r4, #24]
 198              	.LBB69:
 199              	.LBB70:
 200              		.file 5 "../../modules/ChibiOS/os/rt/include/chmsg.h"
 201              		.loc 5 83 0
 202 0010 02F12C01 		add	r1, r2, #44
 203              	.LBE70:
 204              	.LBE69:
 205              		.loc 1 123 0
 206 0014 D26A     		ldr	r2, [r2, #44]
 207 0016 8A42     		cmp	r2, r1
 208 0018 02D1     		bne	.L6
 209              		.loc 1 124 0
 210 001a 0E20     		movs	r0, #14
 211 001c FFF7FEFF 		bl	chSchGoSleepS
 212              	.LVL18:
 213              	.L6:
 214              		.loc 1 126 0
 215 0020 A369     		ldr	r3, [r4, #24]
 216              	.LVL19:
 217              	.LBB71:
 218              	.LBB72:
 219              		.loc 4 618 0
 220 0022 DC6A     		ldr	r4, [r3, #44]
 221              	.LVL20:
 222              		.loc 4 620 0
 223 0024 2268     		ldr	r2, [r4]
 224 0026 43F82C2F 		str	r2, [r3, #44]!
 225              	.LVL21:
 226              		.loc 4 621 0
 227 002a 5360     		str	r3, [r2, #4]
 228              	.LVL22:
ARM GAS  C:\cygwin64\tmp\cc3Ix7in.s 			page 5


 229              	.LBE72:
 230              	.LBE71:
 231              		.loc 1 127 0
 232 002c 0D23     		movs	r3, #13
 233 002e 84F82030 		strb	r3, [r4, #32]
 234              	.LBB73:
 235              	.LBB74:
 236              		.loc 3 389 0
 237 0032 FFF7FEFF 		bl	_stats_stop_measure_crit_thd
 238              	.LVL23:
 239              	.LBB75:
 240              	.LBB76:
 241              	.LBB77:
 242              		.loc 2 264 0
 243 0036 0023     		movs	r3, #0
 244              		.syntax unified
 245              	@ 264 "../../modules/ChibiOS/os/common/ext/CMSIS/include/cmsis_gcc.h" 1
 246 0038 83F31188 		MSR basepri, r3
 247              	@ 0 "" 2
 248              	.LVL24:
 249              		.thumb
 250              		.syntax unified
 251              	.LBE77:
 252              	.LBE76:
 253              	.LBE75:
 254              	.LBE74:
 255              	.LBE73:
 256              		.loc 1 131 0
 257 003c 2046     		mov	r0, r4
 258 003e 10BD     		pop	{r4, pc}
 259              	.L8:
 260              		.align	2
 261              	.L7:
 262 0040 00000000 		.word	ch
 263              		.cfi_endproc
 264              	.LFE247:
 265              		.size	chMsgWait, .-chMsgWait
 266              		.section	.text.chMsgRelease,"ax",%progbits
 267              		.align	1
 268              		.global	chMsgRelease
 269              		.syntax unified
 270              		.thumb
 271              		.thumb_func
 272              		.fpu fpv4-sp-d16
 273              		.type	chMsgRelease, %function
 274              	chMsgRelease:
 275              	.LFB248:
 276              		.loc 1 143 0
 277              		.cfi_startproc
 278              		@ args = 0, pretend = 0, frame = 0
 279              		@ frame_needed = 0, uses_anonymous_args = 0
 280              	.LVL25:
 281 0000 38B5     		push	{r3, r4, r5, lr}
 282              		.cfi_def_cfa_offset 16
 283              		.cfi_offset 3, -16
 284              		.cfi_offset 4, -12
 285              		.cfi_offset 5, -8
ARM GAS  C:\cygwin64\tmp\cc3Ix7in.s 			page 6


 286              		.cfi_offset 14, -4
 287              		.loc 1 143 0
 288 0002 0446     		mov	r4, r0
 289 0004 0D46     		mov	r5, r1
 290              	.LBB90:
 291              	.LBB91:
 292              	.LBB92:
 293              	.LBB93:
 294              	.LBB94:
 295              		.loc 2 264 0
 296 0006 2023     		movs	r3, #32
 297              		.syntax unified
 298              	@ 264 "../../modules/ChibiOS/os/common/ext/CMSIS/include/cmsis_gcc.h" 1
 299 0008 83F31188 		MSR basepri, r3
 300              	@ 0 "" 2
 301              	.LVL26:
 302              		.thumb
 303              		.syntax unified
 304              	.LBE94:
 305              	.LBE93:
 306              	.LBE92:
 307              		.loc 3 377 0
 308 000c FFF7FEFF 		bl	_stats_start_measure_crit_thd
 309              	.LVL27:
 310              	.LBE91:
 311              	.LBE90:
 312              	.LBB95:
 313              	.LBB96:
 314              		.loc 5 117 0
 315 0010 2946     		mov	r1, r5
 316 0012 2046     		mov	r0, r4
 317 0014 FFF7FEFF 		bl	chSchWakeupS
 318              	.LVL28:
 319              	.LBE96:
 320              	.LBE95:
 321              	.LBB97:
 322              	.LBB98:
 323              		.loc 3 389 0
 324 0018 FFF7FEFF 		bl	_stats_stop_measure_crit_thd
 325              	.LVL29:
 326              	.LBB99:
 327              	.LBB100:
 328              	.LBB101:
 329              		.loc 2 264 0
 330 001c 0023     		movs	r3, #0
 331              		.syntax unified
 332              	@ 264 "../../modules/ChibiOS/os/common/ext/CMSIS/include/cmsis_gcc.h" 1
 333 001e 83F31188 		MSR basepri, r3
 334              	@ 0 "" 2
 335              	.LVL30:
 336              		.thumb
 337              		.syntax unified
 338 0022 38BD     		pop	{r3, r4, r5, pc}
 339              	.LBE101:
 340              	.LBE100:
 341              	.LBE99:
 342              	.LBE98:
ARM GAS  C:\cygwin64\tmp\cc3Ix7in.s 			page 7


 343              	.LBE97:
 344              		.cfi_endproc
 345              	.LFE248:
 346              		.size	chMsgRelease, .-chMsgRelease
 347              		.text
 348              	.Letext0:
 349              		.file 6 "c:\\program files (x86)\\gnu tools arm embedded\\6 2017-q2-update\\arm-none-eabi\\include
 350              		.file 7 "c:\\program files (x86)\\gnu tools arm embedded\\6 2017-q2-update\\arm-none-eabi\\include
 351              		.file 8 "../../modules/ChibiOS/os/common/ports/ARMCMx/compilers/GCC/chtypes.h"
 352              		.file 9 "../../modules/ChibiOS/os/rt/include/chsystypes.h"
 353              		.file 10 "../../modules/ChibiOS/os/common/ext/CMSIS/include/core_cm4.h"
 354              		.file 11 "../../modules/ChibiOS/os/common/ext/CMSIS/ST/STM32F4xx/system_stm32f4xx.h"
 355              		.file 12 "../../modules/ChibiOS/os/common/ports/ARMCMx/chcore.h"
 356              		.file 13 "../../modules/ChibiOS/os/common/ports/ARMCMx/chcore_v7m.h"
 357              		.file 14 "../../modules/ChibiOS/os/rt/include/chtm.h"
 358              		.file 15 "../../modules/ChibiOS/os/rt/include/chstats.h"
 359              		.file 16 "../../modules/ChibiOS/os/rt/include/chsem.h"
 360              		.file 17 "../../modules/ChibiOS/os/rt/include/chmtx.h"
 361              		.file 18 "../../modules/ChibiOS/os/rt/include/chregistry.h"
 362              		.section	.debug_info,"",%progbits
 363              	.Ldebug_info0:
 364 0000 C90D0000 		.4byte	0xdc9
 365 0004 0400     		.2byte	0x4
 366 0006 00000000 		.4byte	.Ldebug_abbrev0
 367 000a 04       		.byte	0x4
 368 000b 01       		.uleb128 0x1
 369 000c 52010000 		.4byte	.LASF148
 370 0010 0C       		.byte	0xc
 371 0011 92060000 		.4byte	.LASF149
 372 0015 00000000 		.4byte	.LASF150
 373 0019 30000000 		.4byte	.Ldebug_ranges0+0x30
 374 001d 00000000 		.4byte	0
 375 0021 00000000 		.4byte	.Ldebug_line0
 376 0025 02       		.uleb128 0x2
 377 0026 04       		.byte	0x4
 378 0027 05       		.byte	0x5
 379 0028 696E7400 		.ascii	"int\000"
 380 002c 03       		.uleb128 0x3
 381 002d 04       		.byte	0x4
 382 002e 07       		.byte	0x7
 383 002f 0C030000 		.4byte	.LASF0
 384 0033 03       		.uleb128 0x3
 385 0034 08       		.byte	0x8
 386 0035 05       		.byte	0x5
 387 0036 33010000 		.4byte	.LASF1
 388 003a 03       		.uleb128 0x3
 389 003b 08       		.byte	0x8
 390 003c 04       		.byte	0x4
 391 003d 5C040000 		.4byte	.LASF2
 392 0041 03       		.uleb128 0x3
 393 0042 01       		.byte	0x1
 394 0043 06       		.byte	0x6
 395 0044 41010000 		.4byte	.LASF3
 396 0048 04       		.uleb128 0x4
 397 0049 71000000 		.4byte	.LASF6
 398 004d 06       		.byte	0x6
 399 004e 2B       		.byte	0x2b
ARM GAS  C:\cygwin64\tmp\cc3Ix7in.s 			page 8


 400 004f 53000000 		.4byte	0x53
 401 0053 03       		.uleb128 0x3
 402 0054 01       		.byte	0x1
 403 0055 08       		.byte	0x8
 404 0056 08050000 		.4byte	.LASF4
 405 005a 03       		.uleb128 0x3
 406 005b 02       		.byte	0x2
 407 005c 05       		.byte	0x5
 408 005d 2C050000 		.4byte	.LASF5
 409 0061 04       		.uleb128 0x4
 410 0062 08060000 		.4byte	.LASF7
 411 0066 06       		.byte	0x6
 412 0067 39       		.byte	0x39
 413 0068 6C000000 		.4byte	0x6c
 414 006c 03       		.uleb128 0x3
 415 006d 02       		.byte	0x2
 416 006e 07       		.byte	0x7
 417 006f 7F060000 		.4byte	.LASF8
 418 0073 04       		.uleb128 0x4
 419 0074 E0030000 		.4byte	.LASF9
 420 0078 06       		.byte	0x6
 421 0079 4D       		.byte	0x4d
 422 007a 7E000000 		.4byte	0x7e
 423 007e 03       		.uleb128 0x3
 424 007f 04       		.byte	0x4
 425 0080 05       		.byte	0x5
 426 0081 8A020000 		.4byte	.LASF10
 427 0085 04       		.uleb128 0x4
 428 0086 C7020000 		.4byte	.LASF11
 429 008a 06       		.byte	0x6
 430 008b 4F       		.byte	0x4f
 431 008c 90000000 		.4byte	0x90
 432 0090 03       		.uleb128 0x3
 433 0091 04       		.byte	0x4
 434 0092 07       		.byte	0x7
 435 0093 E4050000 		.4byte	.LASF12
 436 0097 04       		.uleb128 0x4
 437 0098 9D040000 		.4byte	.LASF13
 438 009c 06       		.byte	0x6
 439 009d 69       		.byte	0x69
 440 009e A2000000 		.4byte	0xa2
 441 00a2 03       		.uleb128 0x3
 442 00a3 08       		.byte	0x8
 443 00a4 07       		.byte	0x7
 444 00a5 CF000000 		.4byte	.LASF14
 445 00a9 04       		.uleb128 0x4
 446 00aa 0B070000 		.4byte	.LASF15
 447 00ae 07       		.byte	0x7
 448 00af 18       		.byte	0x18
 449 00b0 48000000 		.4byte	0x48
 450 00b4 04       		.uleb128 0x4
 451 00b5 19030000 		.4byte	.LASF16
 452 00b9 07       		.byte	0x7
 453 00ba 24       		.byte	0x24
 454 00bb 61000000 		.4byte	0x61
 455 00bf 04       		.uleb128 0x4
 456 00c0 00050000 		.4byte	.LASF17
ARM GAS  C:\cygwin64\tmp\cc3Ix7in.s 			page 9


 457 00c4 07       		.byte	0x7
 458 00c5 2C       		.byte	0x2c
 459 00c6 73000000 		.4byte	0x73
 460 00ca 05       		.uleb128 0x5
 461 00cb BF000000 		.4byte	0xbf
 462 00cf 04       		.uleb128 0x4
 463 00d0 B2050000 		.4byte	.LASF18
 464 00d4 07       		.byte	0x7
 465 00d5 30       		.byte	0x30
 466 00d6 85000000 		.4byte	0x85
 467 00da 04       		.uleb128 0x4
 468 00db 5B000000 		.4byte	.LASF19
 469 00df 07       		.byte	0x7
 470 00e0 3C       		.byte	0x3c
 471 00e1 97000000 		.4byte	0x97
 472 00e5 04       		.uleb128 0x4
 473 00e6 C5060000 		.4byte	.LASF20
 474 00ea 08       		.byte	0x8
 475 00eb 39       		.byte	0x39
 476 00ec CF000000 		.4byte	0xcf
 477 00f0 04       		.uleb128 0x4
 478 00f1 2A010000 		.4byte	.LASF21
 479 00f5 08       		.byte	0x8
 480 00f6 3A       		.byte	0x3a
 481 00f7 DA000000 		.4byte	0xda
 482 00fb 04       		.uleb128 0x4
 483 00fc AA030000 		.4byte	.LASF22
 484 0100 08       		.byte	0x8
 485 0101 3C       		.byte	0x3c
 486 0102 A9000000 		.4byte	0xa9
 487 0106 04       		.uleb128 0x4
 488 0107 9D020000 		.4byte	.LASF23
 489 010b 08       		.byte	0x8
 490 010c 3D       		.byte	0x3d
 491 010d A9000000 		.4byte	0xa9
 492 0111 04       		.uleb128 0x4
 493 0112 B3040000 		.4byte	.LASF24
 494 0116 08       		.byte	0x8
 495 0117 3E       		.byte	0x3e
 496 0118 A9000000 		.4byte	0xa9
 497 011c 04       		.uleb128 0x4
 498 011d DB040000 		.4byte	.LASF25
 499 0121 08       		.byte	0x8
 500 0122 40       		.byte	0x40
 501 0123 CF000000 		.4byte	0xcf
 502 0127 04       		.uleb128 0x4
 503 0128 7B030000 		.4byte	.LASF26
 504 012c 08       		.byte	0x8
 505 012d 41       		.byte	0x41
 506 012e BF000000 		.4byte	0xbf
 507 0132 04       		.uleb128 0x4
 508 0133 CB030000 		.4byte	.LASF27
 509 0137 08       		.byte	0x8
 510 0138 43       		.byte	0x43
 511 0139 CF000000 		.4byte	0xcf
 512 013d 04       		.uleb128 0x4
 513 013e 06030000 		.4byte	.LASF28
ARM GAS  C:\cygwin64\tmp\cc3Ix7in.s 			page 10


 514 0142 08       		.byte	0x8
 515 0143 45       		.byte	0x45
 516 0144 BF000000 		.4byte	0xbf
 517 0148 04       		.uleb128 0x4
 518 0149 86030000 		.4byte	.LASF29
 519 014d 08       		.byte	0x8
 520 014e 46       		.byte	0x46
 521 014f CF000000 		.4byte	0xcf
 522 0153 04       		.uleb128 0x4
 523 0154 33060000 		.4byte	.LASF30
 524 0158 09       		.byte	0x9
 525 0159 33       		.byte	0x33
 526 015a CF000000 		.4byte	0xcf
 527 015e 04       		.uleb128 0x4
 528 015f 13060000 		.4byte	.LASF31
 529 0163 09       		.byte	0x9
 530 0164 3F       		.byte	0x3f
 531 0165 69010000 		.4byte	0x169
 532 0169 06       		.uleb128 0x6
 533 016a 6C030000 		.4byte	.LASF50
 534 016e 60       		.byte	0x60
 535 016f 04       		.byte	0x4
 536 0170 9A       		.byte	0x9a
 537 0171 54020000 		.4byte	0x254
 538 0175 07       		.uleb128 0x7
 539 0176 48030000 		.4byte	.LASF32
 540 017a 04       		.byte	0x4
 541 017b 9B       		.byte	0x9b
 542 017c 89020000 		.4byte	0x289
 543 0180 00       		.byte	0
 544 0181 07       		.uleb128 0x7
 545 0182 90040000 		.4byte	.LASF33
 546 0186 04       		.byte	0x4
 547 0187 9C       		.byte	0x9c
 548 0188 1C010000 		.4byte	0x11c
 549 018c 08       		.byte	0x8
 550 018d 08       		.uleb128 0x8
 551 018e 63747800 		.ascii	"ctx\000"
 552 0192 04       		.byte	0x4
 553 0193 9D       		.byte	0x9d
 554 0194 A5040000 		.4byte	0x4a5
 555 0198 0C       		.byte	0xc
 556 0199 07       		.uleb128 0x7
 557 019a F5030000 		.4byte	.LASF34
 558 019e 04       		.byte	0x4
 559 019f 9F       		.byte	0x9f
 560 01a0 5F020000 		.4byte	0x25f
 561 01a4 10       		.byte	0x10
 562 01a5 07       		.uleb128 0x7
 563 01a6 02060000 		.4byte	.LASF35
 564 01aa 04       		.byte	0x4
 565 01ab A0       		.byte	0xa0
 566 01ac 5F020000 		.4byte	0x25f
 567 01b0 14       		.byte	0x14
 568 01b1 07       		.uleb128 0x7
 569 01b2 76030000 		.4byte	.LASF36
 570 01b6 04       		.byte	0x4
ARM GAS  C:\cygwin64\tmp\cc3Ix7in.s 			page 11


 571 01b7 A7       		.byte	0xa7
 572 01b8 8C070000 		.4byte	0x78c
 573 01bc 18       		.byte	0x18
 574 01bd 07       		.uleb128 0x7
 575 01be F6050000 		.4byte	.LASF37
 576 01c2 04       		.byte	0x4
 577 01c3 B0       		.byte	0xb0
 578 01c4 A3070000 		.4byte	0x7a3
 579 01c8 1C       		.byte	0x1c
 580 01c9 07       		.uleb128 0x7
 581 01ca 84020000 		.4byte	.LASF38
 582 01ce 04       		.byte	0x4
 583 01cf B5       		.byte	0xb5
 584 01d0 06010000 		.4byte	0x106
 585 01d4 20       		.byte	0x20
 586 01d5 07       		.uleb128 0x7
 587 01d6 13070000 		.4byte	.LASF39
 588 01da 04       		.byte	0x4
 589 01db B9       		.byte	0xb9
 590 01dc FB000000 		.4byte	0xfb
 591 01e0 21       		.byte	0x21
 592 01e1 07       		.uleb128 0x7
 593 01e2 C6040000 		.4byte	.LASF40
 594 01e6 04       		.byte	0x4
 595 01e7 BE       		.byte	0xbe
 596 01e8 11010000 		.4byte	0x111
 597 01ec 22       		.byte	0x22
 598 01ed 09       		.uleb128 0x9
 599 01ee 7500     		.ascii	"u\000"
 600 01f0 04       		.byte	0x4
 601 01f1 0F01     		.2byte	0x10f
 602 01f3 C1060000 		.4byte	0x6c1
 603 01f7 24       		.byte	0x24
 604 01f8 0A       		.uleb128 0xa
 605 01f9 EB020000 		.4byte	.LASF41
 606 01fd 04       		.byte	0x4
 607 01fe 1401     		.2byte	0x114
 608 0200 65020000 		.4byte	0x265
 609 0204 28       		.byte	0x28
 610 0205 0A       		.uleb128 0xa
 611 0206 7B020000 		.4byte	.LASF42
 612 020a 04       		.byte	0x4
 613 020b 1A01     		.2byte	0x11a
 614 020d 89020000 		.4byte	0x289
 615 0211 2C       		.byte	0x2c
 616 0212 0A       		.uleb128 0xa
 617 0213 8D030000 		.4byte	.LASF43
 618 0217 04       		.byte	0x4
 619 0218 2001     		.2byte	0x120
 620 021a 32010000 		.4byte	0x132
 621 021e 34       		.byte	0x34
 622 021f 0A       		.uleb128 0xa
 623 0220 7B070000 		.4byte	.LASF44
 624 0224 04       		.byte	0x4
 625 0225 2701     		.2byte	0x127
 626 0227 86070000 		.4byte	0x786
 627 022b 38       		.byte	0x38
ARM GAS  C:\cygwin64\tmp\cc3Ix7in.s 			page 12


 628 022c 0A       		.uleb128 0xa
 629 022d FB030000 		.4byte	.LASF45
 630 0231 04       		.byte	0x4
 631 0232 2B01     		.2byte	0x12b
 632 0234 1C010000 		.4byte	0x11c
 633 0238 3C       		.byte	0x3c
 634 0239 0A       		.uleb128 0xa
 635 023a 4E030000 		.4byte	.LASF46
 636 023e 04       		.byte	0x4
 637 023f 3201     		.2byte	0x132
 638 0241 3C030000 		.4byte	0x33c
 639 0245 40       		.byte	0x40
 640 0246 0A       		.uleb128 0xa
 641 0247 AB020000 		.4byte	.LASF47
 642 024b 04       		.byte	0x4
 643 024c 3801     		.2byte	0x138
 644 024e 72060000 		.4byte	0x672
 645 0252 48       		.byte	0x48
 646 0253 00       		.byte	0
 647 0254 04       		.uleb128 0x4
 648 0255 32040000 		.4byte	.LASF48
 649 0259 09       		.byte	0x9
 650 025a 44       		.byte	0x44
 651 025b 5F020000 		.4byte	0x25f
 652 025f 0B       		.uleb128 0xb
 653 0260 04       		.byte	0x4
 654 0261 5E010000 		.4byte	0x15e
 655 0265 04       		.uleb128 0x4
 656 0266 3E070000 		.4byte	.LASF49
 657 026a 09       		.byte	0x9
 658 026b 49       		.byte	0x49
 659 026c 70020000 		.4byte	0x270
 660 0270 06       		.uleb128 0x6
 661 0271 CE050000 		.4byte	.LASF51
 662 0275 04       		.byte	0x4
 663 0276 04       		.byte	0x4
 664 0277 88       		.byte	0x88
 665 0278 89020000 		.4byte	0x289
 666 027c 07       		.uleb128 0x7
 667 027d 25010000 		.4byte	.LASF52
 668 0281 04       		.byte	0x4
 669 0282 89       		.byte	0x89
 670 0283 5F020000 		.4byte	0x25f
 671 0287 00       		.byte	0
 672 0288 00       		.byte	0
 673 0289 04       		.uleb128 0x4
 674 028a EC060000 		.4byte	.LASF53
 675 028e 09       		.byte	0x9
 676 028f 50       		.byte	0x50
 677 0290 94020000 		.4byte	0x294
 678 0294 06       		.uleb128 0x6
 679 0295 8C000000 		.4byte	.LASF54
 680 0299 08       		.byte	0x8
 681 029a 04       		.byte	0x4
 682 029b 8F       		.byte	0x8f
 683 029c B9020000 		.4byte	0x2b9
 684 02a0 07       		.uleb128 0x7
ARM GAS  C:\cygwin64\tmp\cc3Ix7in.s 			page 13


 685 02a1 25010000 		.4byte	.LASF52
 686 02a5 04       		.byte	0x4
 687 02a6 90       		.byte	0x90
 688 02a7 5F020000 		.4byte	0x25f
 689 02ab 00       		.byte	0
 690 02ac 07       		.uleb128 0x7
 691 02ad 7B000000 		.4byte	.LASF55
 692 02b1 04       		.byte	0x4
 693 02b2 91       		.byte	0x91
 694 02b3 5F020000 		.4byte	0x25f
 695 02b7 04       		.byte	0x4
 696 02b8 00       		.byte	0
 697 02b9 04       		.uleb128 0x4
 698 02ba 2E000000 		.4byte	.LASF56
 699 02be 09       		.byte	0x9
 700 02bf 57       		.byte	0x57
 701 02c0 C4020000 		.4byte	0x2c4
 702 02c4 0C       		.uleb128 0xc
 703 02c5 BD030000 		.4byte	.LASF57
 704 02c9 1C       		.byte	0x1c
 705 02ca 04       		.byte	0x4
 706 02cb 6A01     		.2byte	0x16a
 707 02cd 20030000 		.4byte	0x320
 708 02d1 0A       		.uleb128 0xa
 709 02d2 48030000 		.4byte	.LASF32
 710 02d6 04       		.byte	0x4
 711 02d7 6B01     		.2byte	0x16b
 712 02d9 89020000 		.4byte	0x289
 713 02dd 00       		.byte	0
 714 02de 0A       		.uleb128 0xa
 715 02df 90040000 		.4byte	.LASF33
 716 02e3 04       		.byte	0x4
 717 02e4 6C01     		.2byte	0x16c
 718 02e6 1C010000 		.4byte	0x11c
 719 02ea 08       		.byte	0x8
 720 02eb 09       		.uleb128 0x9
 721 02ec 63747800 		.ascii	"ctx\000"
 722 02f0 04       		.byte	0x4
 723 02f1 6E01     		.2byte	0x16e
 724 02f3 A5040000 		.4byte	0x4a5
 725 02f7 0C       		.byte	0xc
 726 02f8 0A       		.uleb128 0xa
 727 02f9 F5030000 		.4byte	.LASF34
 728 02fd 04       		.byte	0x4
 729 02fe 7101     		.2byte	0x171
 730 0300 5F020000 		.4byte	0x25f
 731 0304 10       		.byte	0x10
 732 0305 0A       		.uleb128 0xa
 733 0306 02060000 		.4byte	.LASF35
 734 030a 04       		.byte	0x4
 735 030b 7201     		.2byte	0x172
 736 030d 5F020000 		.4byte	0x25f
 737 0311 14       		.byte	0x14
 738 0312 0A       		.uleb128 0xa
 739 0313 95040000 		.4byte	.LASF58
 740 0317 04       		.byte	0x4
 741 0318 7501     		.2byte	0x175
ARM GAS  C:\cygwin64\tmp\cc3Ix7in.s 			page 14


 742 031a 5F020000 		.4byte	0x25f
 743 031e 18       		.byte	0x18
 744 031f 00       		.byte	0
 745 0320 04       		.uleb128 0x4
 746 0321 3D060000 		.4byte	.LASF59
 747 0325 09       		.byte	0x9
 748 0326 5C       		.byte	0x5c
 749 0327 2B030000 		.4byte	0x32b
 750 032b 0B       		.uleb128 0xb
 751 032c 04       		.byte	0x4
 752 032d 31030000 		.4byte	0x331
 753 0331 0D       		.uleb128 0xd
 754 0332 3C030000 		.4byte	0x33c
 755 0336 0E       		.uleb128 0xe
 756 0337 3C030000 		.4byte	0x33c
 757 033b 00       		.byte	0
 758 033c 0F       		.uleb128 0xf
 759 033d 04       		.byte	0x4
 760 033e 04       		.uleb128 0x4
 761 033f CB040000 		.4byte	.LASF60
 762 0343 09       		.byte	0x9
 763 0344 61       		.byte	0x61
 764 0345 49030000 		.4byte	0x349
 765 0349 0C       		.uleb128 0xc
 766 034a 63050000 		.4byte	.LASF61
 767 034e 14       		.byte	0x14
 768 034f 04       		.byte	0x4
 769 0350 4501     		.2byte	0x145
 770 0352 98030000 		.4byte	0x398
 771 0356 0A       		.uleb128 0xa
 772 0357 25010000 		.4byte	.LASF52
 773 035b 04       		.byte	0x4
 774 035c 4601     		.2byte	0x146
 775 035e A9070000 		.4byte	0x7a9
 776 0362 00       		.byte	0
 777 0363 0A       		.uleb128 0xa
 778 0364 7B000000 		.4byte	.LASF55
 779 0368 04       		.byte	0x4
 780 0369 4701     		.2byte	0x147
 781 036b A9070000 		.4byte	0x7a9
 782 036f 04       		.byte	0x4
 783 0370 0A       		.uleb128 0xa
 784 0371 4E000000 		.4byte	.LASF62
 785 0375 04       		.byte	0x4
 786 0376 4801     		.2byte	0x148
 787 0378 53010000 		.4byte	0x153
 788 037c 08       		.byte	0x8
 789 037d 0A       		.uleb128 0xa
 790 037e A6020000 		.4byte	.LASF63
 791 0382 04       		.byte	0x4
 792 0383 4901     		.2byte	0x149
 793 0385 20030000 		.4byte	0x320
 794 0389 0C       		.byte	0xc
 795 038a 09       		.uleb128 0x9
 796 038b 70617200 		.ascii	"par\000"
 797 038f 04       		.byte	0x4
 798 0390 4B01     		.2byte	0x14b
ARM GAS  C:\cygwin64\tmp\cc3Ix7in.s 			page 15


 799 0392 3C030000 		.4byte	0x33c
 800 0396 10       		.byte	0x10
 801 0397 00       		.byte	0
 802 0398 04       		.uleb128 0x4
 803 0399 02010000 		.4byte	.LASF64
 804 039d 09       		.byte	0x9
 805 039e 66       		.byte	0x66
 806 039f A3030000 		.4byte	0x3a3
 807 03a3 0C       		.uleb128 0xc
 808 03a4 45040000 		.4byte	.LASF65
 809 03a8 10       		.byte	0x10
 810 03a9 04       		.byte	0x4
 811 03aa 5501     		.2byte	0x155
 812 03ac E5030000 		.4byte	0x3e5
 813 03b0 0A       		.uleb128 0xa
 814 03b1 25010000 		.4byte	.LASF52
 815 03b5 04       		.byte	0x4
 816 03b6 5601     		.2byte	0x156
 817 03b8 A9070000 		.4byte	0x7a9
 818 03bc 00       		.byte	0
 819 03bd 0A       		.uleb128 0xa
 820 03be 7B000000 		.4byte	.LASF55
 821 03c2 04       		.byte	0x4
 822 03c3 5801     		.2byte	0x158
 823 03c5 A9070000 		.4byte	0x7a9
 824 03c9 04       		.byte	0x4
 825 03ca 0A       		.uleb128 0xa
 826 03cb 4E000000 		.4byte	.LASF62
 827 03cf 04       		.byte	0x4
 828 03d0 5A01     		.2byte	0x15a
 829 03d2 53010000 		.4byte	0x153
 830 03d6 08       		.byte	0x8
 831 03d7 0A       		.uleb128 0xa
 832 03d8 36050000 		.4byte	.LASF66
 833 03dc 04       		.byte	0x4
 834 03dd 6201     		.2byte	0x162
 835 03df 53010000 		.4byte	0x153
 836 03e3 0C       		.byte	0xc
 837 03e4 00       		.byte	0
 838 03e5 04       		.uleb128 0x4
 839 03e6 9D000000 		.4byte	.LASF67
 840 03ea 09       		.byte	0x9
 841 03eb 6B       		.byte	0x6b
 842 03ec F0030000 		.4byte	0x3f0
 843 03f0 0C       		.uleb128 0xc
 844 03f1 DB020000 		.4byte	.LASF68
 845 03f5 04       		.byte	0x4
 846 03f6 04       		.byte	0x4
 847 03f7 7C01     		.2byte	0x17c
 848 03f9 0B040000 		.4byte	0x40b
 849 03fd 0A       		.uleb128 0xa
 850 03fe 64060000 		.4byte	.LASF69
 851 0402 04       		.byte	0x4
 852 0403 8401     		.2byte	0x184
 853 0405 92070000 		.4byte	0x792
 854 0409 00       		.byte	0
 855 040a 00       		.byte	0
ARM GAS  C:\cygwin64\tmp\cc3Ix7in.s 			page 16


 856 040b 04       		.uleb128 0x4
 857 040c 96030000 		.4byte	.LASF70
 858 0410 09       		.byte	0x9
 859 0411 70       		.byte	0x70
 860 0412 16040000 		.4byte	0x416
 861 0416 0C       		.uleb128 0xc
 862 0417 46050000 		.4byte	.LASF71
 863 041b D0       		.byte	0xd0
 864 041c 04       		.byte	0x4
 865 041d 9C01     		.2byte	0x19c
 866 041f 71040000 		.4byte	0x471
 867 0423 0A       		.uleb128 0xa
 868 0424 05070000 		.4byte	.LASF72
 869 0428 04       		.byte	0x4
 870 0429 A001     		.2byte	0x1a0
 871 042b B9020000 		.4byte	0x2b9
 872 042f 00       		.byte	0
 873 0430 0A       		.uleb128 0xa
 874 0431 68020000 		.4byte	.LASF73
 875 0435 04       		.byte	0x4
 876 0436 A401     		.2byte	0x1a4
 877 0438 98030000 		.4byte	0x398
 878 043c 1C       		.byte	0x1c
 879 043d 09       		.uleb128 0x9
 880 043e 64626700 		.ascii	"dbg\000"
 881 0442 04       		.byte	0x4
 882 0443 A801     		.2byte	0x1a8
 883 0445 E5030000 		.4byte	0x3e5
 884 0449 2C       		.byte	0x2c
 885 044a 0A       		.uleb128 0xa
 886 044b EF000000 		.4byte	.LASF74
 887 044f 04       		.byte	0x4
 888 0450 AC01     		.2byte	0x1ac
 889 0452 5E010000 		.4byte	0x15e
 890 0456 30       		.byte	0x30
 891 0457 09       		.uleb128 0x9
 892 0458 746D00   		.ascii	"tm\000"
 893 045b 04       		.byte	0x4
 894 045c B101     		.2byte	0x1b1
 895 045e 24060000 		.4byte	0x624
 896 0462 90       		.byte	0x90
 897 0463 0A       		.uleb128 0xa
 898 0464 64000000 		.4byte	.LASF75
 899 0468 04       		.byte	0x4
 900 0469 B701     		.2byte	0x1b7
 901 046b B6060000 		.4byte	0x6b6
 902 046f 98       		.byte	0x98
 903 0470 00       		.byte	0
 904 0471 03       		.uleb128 0x3
 905 0472 04       		.byte	0x4
 906 0473 07       		.byte	0x7
 907 0474 29040000 		.4byte	.LASF76
 908 0478 10       		.uleb128 0x10
 909 0479 18010000 		.4byte	.LASF77
 910 047d 0A       		.byte	0xa
 911 047e 4407     		.2byte	0x744
 912 0480 CA000000 		.4byte	0xca
ARM GAS  C:\cygwin64\tmp\cc3Ix7in.s 			page 17


 913 0484 11       		.uleb128 0x11
 914 0485 22030000 		.4byte	.LASF78
 915 0489 0B       		.byte	0xb
 916 048a 4C       		.byte	0x4c
 917 048b CF000000 		.4byte	0xcf
 918 048f 04       		.uleb128 0x4
 919 0490 D2020000 		.4byte	.LASF79
 920 0494 0C       		.byte	0xc
 921 0495 65       		.byte	0x65
 922 0496 3C030000 		.4byte	0x33c
 923 049a 04       		.uleb128 0x4
 924 049b EA030000 		.4byte	.LASF80
 925 049f 0C       		.byte	0xc
 926 04a0 6D       		.byte	0x6d
 927 04a1 DA000000 		.4byte	0xda
 928 04a5 06       		.uleb128 0x6
 929 04a6 72040000 		.4byte	.LASF81
 930 04aa 04       		.byte	0x4
 931 04ab 0C       		.byte	0xc
 932 04ac 89       		.byte	0x89
 933 04ad BD040000 		.4byte	0x4bd
 934 04b1 08       		.uleb128 0x8
 935 04b2 737000   		.ascii	"sp\000"
 936 04b5 0C       		.byte	0xc
 937 04b6 8A       		.byte	0x8a
 938 04b7 09060000 		.4byte	0x609
 939 04bb 00       		.byte	0
 940 04bc 00       		.byte	0
 941 04bd 0C       		.uleb128 0xc
 942 04be 80000000 		.4byte	.LASF82
 943 04c2 64       		.byte	0x64
 944 04c3 0D       		.byte	0xd
 945 04c4 5901     		.2byte	0x159
 946 04c6 09060000 		.4byte	0x609
 947 04ca 09       		.uleb128 0x9
 948 04cb 73313600 		.ascii	"s16\000"
 949 04cf 0D       		.byte	0xd
 950 04d0 5B01     		.2byte	0x15b
 951 04d2 8F040000 		.4byte	0x48f
 952 04d6 00       		.byte	0
 953 04d7 09       		.uleb128 0x9
 954 04d8 73313700 		.ascii	"s17\000"
 955 04dc 0D       		.byte	0xd
 956 04dd 5C01     		.2byte	0x15c
 957 04df 8F040000 		.4byte	0x48f
 958 04e3 04       		.byte	0x4
 959 04e4 09       		.uleb128 0x9
 960 04e5 73313800 		.ascii	"s18\000"
 961 04e9 0D       		.byte	0xd
 962 04ea 5D01     		.2byte	0x15d
 963 04ec 8F040000 		.4byte	0x48f
 964 04f0 08       		.byte	0x8
 965 04f1 09       		.uleb128 0x9
 966 04f2 73313900 		.ascii	"s19\000"
 967 04f6 0D       		.byte	0xd
 968 04f7 5E01     		.2byte	0x15e
 969 04f9 8F040000 		.4byte	0x48f
ARM GAS  C:\cygwin64\tmp\cc3Ix7in.s 			page 18


 970 04fd 0C       		.byte	0xc
 971 04fe 09       		.uleb128 0x9
 972 04ff 73323000 		.ascii	"s20\000"
 973 0503 0D       		.byte	0xd
 974 0504 5F01     		.2byte	0x15f
 975 0506 8F040000 		.4byte	0x48f
 976 050a 10       		.byte	0x10
 977 050b 09       		.uleb128 0x9
 978 050c 73323100 		.ascii	"s21\000"
 979 0510 0D       		.byte	0xd
 980 0511 6001     		.2byte	0x160
 981 0513 8F040000 		.4byte	0x48f
 982 0517 14       		.byte	0x14
 983 0518 09       		.uleb128 0x9
 984 0519 73323200 		.ascii	"s22\000"
 985 051d 0D       		.byte	0xd
 986 051e 6101     		.2byte	0x161
 987 0520 8F040000 		.4byte	0x48f
 988 0524 18       		.byte	0x18
 989 0525 09       		.uleb128 0x9
 990 0526 73323300 		.ascii	"s23\000"
 991 052a 0D       		.byte	0xd
 992 052b 6201     		.2byte	0x162
 993 052d 8F040000 		.4byte	0x48f
 994 0531 1C       		.byte	0x1c
 995 0532 09       		.uleb128 0x9
 996 0533 73323400 		.ascii	"s24\000"
 997 0537 0D       		.byte	0xd
 998 0538 6301     		.2byte	0x163
 999 053a 8F040000 		.4byte	0x48f
 1000 053e 20       		.byte	0x20
 1001 053f 09       		.uleb128 0x9
 1002 0540 73323500 		.ascii	"s25\000"
 1003 0544 0D       		.byte	0xd
 1004 0545 6401     		.2byte	0x164
 1005 0547 8F040000 		.4byte	0x48f
 1006 054b 24       		.byte	0x24
 1007 054c 09       		.uleb128 0x9
 1008 054d 73323600 		.ascii	"s26\000"
 1009 0551 0D       		.byte	0xd
 1010 0552 6501     		.2byte	0x165
 1011 0554 8F040000 		.4byte	0x48f
 1012 0558 28       		.byte	0x28
 1013 0559 09       		.uleb128 0x9
 1014 055a 73323700 		.ascii	"s27\000"
 1015 055e 0D       		.byte	0xd
 1016 055f 6601     		.2byte	0x166
 1017 0561 8F040000 		.4byte	0x48f
 1018 0565 2C       		.byte	0x2c
 1019 0566 09       		.uleb128 0x9
 1020 0567 73323800 		.ascii	"s28\000"
 1021 056b 0D       		.byte	0xd
 1022 056c 6701     		.2byte	0x167
 1023 056e 8F040000 		.4byte	0x48f
 1024 0572 30       		.byte	0x30
 1025 0573 09       		.uleb128 0x9
 1026 0574 73323900 		.ascii	"s29\000"
ARM GAS  C:\cygwin64\tmp\cc3Ix7in.s 			page 19


 1027 0578 0D       		.byte	0xd
 1028 0579 6801     		.2byte	0x168
 1029 057b 8F040000 		.4byte	0x48f
 1030 057f 34       		.byte	0x34
 1031 0580 09       		.uleb128 0x9
 1032 0581 73333000 		.ascii	"s30\000"
 1033 0585 0D       		.byte	0xd
 1034 0586 6901     		.2byte	0x169
 1035 0588 8F040000 		.4byte	0x48f
 1036 058c 38       		.byte	0x38
 1037 058d 09       		.uleb128 0x9
 1038 058e 73333100 		.ascii	"s31\000"
 1039 0592 0D       		.byte	0xd
 1040 0593 6A01     		.2byte	0x16a
 1041 0595 8F040000 		.4byte	0x48f
 1042 0599 3C       		.byte	0x3c
 1043 059a 09       		.uleb128 0x9
 1044 059b 723400   		.ascii	"r4\000"
 1045 059e 0D       		.byte	0xd
 1046 059f 6C01     		.2byte	0x16c
 1047 05a1 8F040000 		.4byte	0x48f
 1048 05a5 40       		.byte	0x40
 1049 05a6 09       		.uleb128 0x9
 1050 05a7 723500   		.ascii	"r5\000"
 1051 05aa 0D       		.byte	0xd
 1052 05ab 6D01     		.2byte	0x16d
 1053 05ad 8F040000 		.4byte	0x48f
 1054 05b1 44       		.byte	0x44
 1055 05b2 09       		.uleb128 0x9
 1056 05b3 723600   		.ascii	"r6\000"
 1057 05b6 0D       		.byte	0xd
 1058 05b7 6E01     		.2byte	0x16e
 1059 05b9 8F040000 		.4byte	0x48f
 1060 05bd 48       		.byte	0x48
 1061 05be 09       		.uleb128 0x9
 1062 05bf 723700   		.ascii	"r7\000"
 1063 05c2 0D       		.byte	0xd
 1064 05c3 6F01     		.2byte	0x16f
 1065 05c5 8F040000 		.4byte	0x48f
 1066 05c9 4C       		.byte	0x4c
 1067 05ca 09       		.uleb128 0x9
 1068 05cb 723800   		.ascii	"r8\000"
 1069 05ce 0D       		.byte	0xd
 1070 05cf 7001     		.2byte	0x170
 1071 05d1 8F040000 		.4byte	0x48f
 1072 05d5 50       		.byte	0x50
 1073 05d6 09       		.uleb128 0x9
 1074 05d7 723900   		.ascii	"r9\000"
 1075 05da 0D       		.byte	0xd
 1076 05db 7101     		.2byte	0x171
 1077 05dd 8F040000 		.4byte	0x48f
 1078 05e1 54       		.byte	0x54
 1079 05e2 09       		.uleb128 0x9
 1080 05e3 72313000 		.ascii	"r10\000"
 1081 05e7 0D       		.byte	0xd
 1082 05e8 7201     		.2byte	0x172
 1083 05ea 8F040000 		.4byte	0x48f
ARM GAS  C:\cygwin64\tmp\cc3Ix7in.s 			page 20


 1084 05ee 58       		.byte	0x58
 1085 05ef 09       		.uleb128 0x9
 1086 05f0 72313100 		.ascii	"r11\000"
 1087 05f4 0D       		.byte	0xd
 1088 05f5 7301     		.2byte	0x173
 1089 05f7 8F040000 		.4byte	0x48f
 1090 05fb 5C       		.byte	0x5c
 1091 05fc 09       		.uleb128 0x9
 1092 05fd 6C7200   		.ascii	"lr\000"
 1093 0600 0D       		.byte	0xd
 1094 0601 7401     		.2byte	0x174
 1095 0603 8F040000 		.4byte	0x48f
 1096 0607 60       		.byte	0x60
 1097 0608 00       		.byte	0
 1098 0609 0B       		.uleb128 0xb
 1099 060a 04       		.byte	0x4
 1100 060b BD040000 		.4byte	0x4bd
 1101 060f 12       		.uleb128 0x12
 1102 0610 04       		.byte	0x4
 1103 0611 0E       		.byte	0xe
 1104 0612 38       		.byte	0x38
 1105 0613 24060000 		.4byte	0x624
 1106 0617 07       		.uleb128 0x7
 1107 0618 6E060000 		.4byte	.LASF83
 1108 061c 0E       		.byte	0xe
 1109 061d 3C       		.byte	0x3c
 1110 061e E5000000 		.4byte	0xe5
 1111 0622 00       		.byte	0
 1112 0623 00       		.byte	0
 1113 0624 04       		.uleb128 0x4
 1114 0625 7F040000 		.4byte	.LASF84
 1115 0629 0E       		.byte	0xe
 1116 062a 3D       		.byte	0x3d
 1117 062b 0F060000 		.4byte	0x60f
 1118 062f 12       		.uleb128 0x12
 1119 0630 18       		.byte	0x18
 1120 0631 0E       		.byte	0xe
 1121 0632 48       		.byte	0x48
 1122 0633 72060000 		.4byte	0x672
 1123 0637 07       		.uleb128 0x7
 1124 0638 1C060000 		.4byte	.LASF85
 1125 063c 0E       		.byte	0xe
 1126 063d 49       		.byte	0x49
 1127 063e E5000000 		.4byte	0xe5
 1128 0642 00       		.byte	0
 1129 0643 07       		.uleb128 0x7
 1130 0644 B6000000 		.4byte	.LASF86
 1131 0648 0E       		.byte	0xe
 1132 0649 4A       		.byte	0x4a
 1133 064a E5000000 		.4byte	0xe5
 1134 064e 04       		.byte	0x4
 1135 064f 07       		.uleb128 0x7
 1136 0650 81030000 		.4byte	.LASF87
 1137 0654 0E       		.byte	0xe
 1138 0655 4B       		.byte	0x4b
 1139 0656 E5000000 		.4byte	0xe5
 1140 065a 08       		.byte	0x8
ARM GAS  C:\cygwin64\tmp\cc3Ix7in.s 			page 21


 1141 065b 08       		.uleb128 0x8
 1142 065c 6E00     		.ascii	"n\000"
 1143 065e 0E       		.byte	0xe
 1144 065f 4C       		.byte	0x4c
 1145 0660 48010000 		.4byte	0x148
 1146 0664 0C       		.byte	0xc
 1147 0665 07       		.uleb128 0x7
 1148 0666 A8040000 		.4byte	.LASF88
 1149 066a 0E       		.byte	0xe
 1150 066b 4D       		.byte	0x4d
 1151 066c F0000000 		.4byte	0xf0
 1152 0670 10       		.byte	0x10
 1153 0671 00       		.byte	0
 1154 0672 04       		.uleb128 0x4
 1155 0673 BC000000 		.4byte	.LASF89
 1156 0677 0E       		.byte	0xe
 1157 0678 4E       		.byte	0x4e
 1158 0679 2F060000 		.4byte	0x62f
 1159 067d 12       		.uleb128 0x12
 1160 067e 38       		.byte	0x38
 1161 067f 0F       		.byte	0xf
 1162 0680 38       		.byte	0x38
 1163 0681 B6060000 		.4byte	0x6b6
 1164 0685 07       		.uleb128 0x7
 1165 0686 42030000 		.4byte	.LASF90
 1166 068a 0F       		.byte	0xf
 1167 068b 39       		.byte	0x39
 1168 068c 48010000 		.4byte	0x148
 1169 0690 00       		.byte	0
 1170 0691 07       		.uleb128 0x7
 1171 0692 F1040000 		.4byte	.LASF91
 1172 0696 0F       		.byte	0xf
 1173 0697 3A       		.byte	0x3a
 1174 0698 48010000 		.4byte	0x148
 1175 069c 04       		.byte	0x4
 1176 069d 07       		.uleb128 0x7
 1177 069e 83070000 		.4byte	.LASF92
 1178 06a2 0F       		.byte	0xf
 1179 06a3 3B       		.byte	0x3b
 1180 06a4 72060000 		.4byte	0x672
 1181 06a8 08       		.byte	0x8
 1182 06a9 07       		.uleb128 0x7
 1183 06aa B2030000 		.4byte	.LASF93
 1184 06ae 0F       		.byte	0xf
 1185 06af 3D       		.byte	0x3d
 1186 06b0 72060000 		.4byte	0x672
 1187 06b4 20       		.byte	0x20
 1188 06b5 00       		.byte	0
 1189 06b6 04       		.uleb128 0x4
 1190 06b7 5D030000 		.4byte	.LASF94
 1191 06bb 0F       		.byte	0xf
 1192 06bc 3F       		.byte	0x3f
 1193 06bd 7D060000 		.4byte	0x67d
 1194 06c1 13       		.uleb128 0x13
 1195 06c2 04       		.byte	0x4
 1196 06c3 04       		.byte	0x4
 1197 06c4 D2       		.byte	0xd2
ARM GAS  C:\cygwin64\tmp\cc3Ix7in.s 			page 22


 1198 06c5 24070000 		.4byte	0x724
 1199 06c9 14       		.uleb128 0x14
 1200 06ca 54000000 		.4byte	.LASF95
 1201 06ce 04       		.byte	0x4
 1202 06cf D9       		.byte	0xd9
 1203 06d0 27010000 		.4byte	0x127
 1204 06d4 14       		.uleb128 0x14
 1205 06d5 E6000000 		.4byte	.LASF96
 1206 06d9 04       		.byte	0x4
 1207 06da E0       		.byte	0xe0
 1208 06db 27010000 		.4byte	0x127
 1209 06df 14       		.uleb128 0x14
 1210 06e0 37070000 		.4byte	.LASF97
 1211 06e4 04       		.byte	0x4
 1212 06e5 E7       		.byte	0xe7
 1213 06e6 3C030000 		.4byte	0x33c
 1214 06ea 14       		.uleb128 0x14
 1215 06eb 48000000 		.4byte	.LASF98
 1216 06ef 04       		.byte	0x4
 1217 06f0 EE       		.byte	0xee
 1218 06f1 24070000 		.4byte	0x724
 1219 06f5 14       		.uleb128 0x14
 1220 06f6 FA000000 		.4byte	.LASF99
 1221 06fa 04       		.byte	0x4
 1222 06fb F3       		.byte	0xf3
 1223 06fc 27010000 		.4byte	0x127
 1224 0700 14       		.uleb128 0x14
 1225 0701 32030000 		.4byte	.LASF100
 1226 0705 04       		.byte	0x4
 1227 0706 FC       		.byte	0xfc
 1228 0707 4F070000 		.4byte	0x74f
 1229 070b 15       		.uleb128 0x15
 1230 070c BB050000 		.4byte	.LASF101
 1231 0710 04       		.byte	0x4
 1232 0711 0501     		.2byte	0x105
 1233 0713 86070000 		.4byte	0x786
 1234 0717 15       		.uleb128 0x15
 1235 0718 3F050000 		.4byte	.LASF102
 1236 071c 04       		.byte	0x4
 1237 071d 0D01     		.2byte	0x10d
 1238 071f 32010000 		.4byte	0x132
 1239 0723 00       		.byte	0
 1240 0724 0B       		.uleb128 0xb
 1241 0725 04       		.byte	0x4
 1242 0726 54020000 		.4byte	0x254
 1243 072a 06       		.uleb128 0x6
 1244 072b 81050000 		.4byte	.LASF103
 1245 072f 0C       		.byte	0xc
 1246 0730 10       		.byte	0x10
 1247 0731 34       		.byte	0x34
 1248 0732 4F070000 		.4byte	0x74f
 1249 0736 07       		.uleb128 0x7
 1250 0737 48030000 		.4byte	.LASF32
 1251 073b 10       		.byte	0x10
 1252 073c 35       		.byte	0x35
 1253 073d 89020000 		.4byte	0x289
 1254 0741 00       		.byte	0
ARM GAS  C:\cygwin64\tmp\cc3Ix7in.s 			page 23


 1255 0742 08       		.uleb128 0x8
 1256 0743 636E7400 		.ascii	"cnt\000"
 1257 0747 10       		.byte	0x10
 1258 0748 37       		.byte	0x37
 1259 0749 3D010000 		.4byte	0x13d
 1260 074d 08       		.byte	0x8
 1261 074e 00       		.byte	0
 1262 074f 0B       		.uleb128 0xb
 1263 0750 04       		.byte	0x4
 1264 0751 2A070000 		.4byte	0x72a
 1265 0755 06       		.uleb128 0x6
 1266 0756 FC060000 		.4byte	.LASF104
 1267 075a 10       		.byte	0x10
 1268 075b 11       		.byte	0x11
 1269 075c 39       		.byte	0x39
 1270 075d 86070000 		.4byte	0x786
 1271 0761 07       		.uleb128 0x7
 1272 0762 48030000 		.4byte	.LASF32
 1273 0766 11       		.byte	0x11
 1274 0767 3A       		.byte	0x3a
 1275 0768 89020000 		.4byte	0x289
 1276 076c 00       		.byte	0
 1277 076d 07       		.uleb128 0x7
 1278 076e DE050000 		.4byte	.LASF105
 1279 0772 11       		.byte	0x11
 1280 0773 3C       		.byte	0x3c
 1281 0774 5F020000 		.4byte	0x25f
 1282 0778 08       		.byte	0x8
 1283 0779 07       		.uleb128 0x7
 1284 077a 25010000 		.4byte	.LASF52
 1285 077e 11       		.byte	0x11
 1286 077f 3E       		.byte	0x3e
 1287 0780 E8080000 		.4byte	0x8e8
 1288 0784 0C       		.byte	0xc
 1289 0785 00       		.byte	0
 1290 0786 0B       		.uleb128 0xb
 1291 0787 04       		.byte	0x4
 1292 0788 55070000 		.4byte	0x755
 1293 078c 0B       		.uleb128 0xb
 1294 078d 04       		.byte	0x4
 1295 078e 9E070000 		.4byte	0x79e
 1296 0792 05       		.uleb128 0x5
 1297 0793 8C070000 		.4byte	0x78c
 1298 0797 03       		.uleb128 0x3
 1299 0798 01       		.byte	0x1
 1300 0799 08       		.byte	0x8
 1301 079a FD050000 		.4byte	.LASF106
 1302 079e 16       		.uleb128 0x16
 1303 079f 97070000 		.4byte	0x797
 1304 07a3 0B       		.uleb128 0xb
 1305 07a4 04       		.byte	0x4
 1306 07a5 9A040000 		.4byte	0x49a
 1307 07a9 0B       		.uleb128 0xb
 1308 07aa 04       		.byte	0x4
 1309 07ab 3E030000 		.4byte	0x33e
 1310 07af 17       		.uleb128 0x17
 1311 07b0 636800   		.ascii	"ch\000"
ARM GAS  C:\cygwin64\tmp\cc3Ix7in.s 			page 24


 1312 07b3 04       		.byte	0x4
 1313 07b4 D201     		.2byte	0x1d2
 1314 07b6 0B040000 		.4byte	0x40b
 1315 07ba 18       		.uleb128 0x18
 1316 07bb 9A040000 		.4byte	0x49a
 1317 07bf C5070000 		.4byte	0x7c5
 1318 07c3 19       		.uleb128 0x19
 1319 07c4 00       		.byte	0
 1320 07c5 10       		.uleb128 0x10
 1321 07c6 97050000 		.4byte	.LASF107
 1322 07ca 03       		.byte	0x3
 1323 07cb 2B01     		.2byte	0x12b
 1324 07cd BA070000 		.4byte	0x7ba
 1325 07d1 12       		.uleb128 0x12
 1326 07d2 16       		.byte	0x16
 1327 07d3 12       		.byte	0x12
 1328 07d4 34       		.byte	0x34
 1329 07d5 B2080000 		.4byte	0x8b2
 1330 07d9 07       		.uleb128 0x7
 1331 07da BA060000 		.4byte	.LASF108
 1332 07de 12       		.byte	0x12
 1333 07df 35       		.byte	0x35
 1334 07e0 B2080000 		.4byte	0x8b2
 1335 07e4 00       		.byte	0
 1336 07e5 07       		.uleb128 0x7
 1337 07e6 F3020000 		.4byte	.LASF109
 1338 07ea 12       		.byte	0x12
 1339 07eb 36       		.byte	0x36
 1340 07ec A9000000 		.4byte	0xa9
 1341 07f0 04       		.byte	0x4
 1342 07f1 07       		.uleb128 0x7
 1343 07f2 4D010000 		.4byte	.LASF110
 1344 07f6 12       		.byte	0x12
 1345 07f7 37       		.byte	0x37
 1346 07f8 A9000000 		.4byte	0xa9
 1347 07fc 05       		.byte	0x5
 1348 07fd 07       		.uleb128 0x7
 1349 07fe 04040000 		.4byte	.LASF111
 1350 0802 12       		.byte	0x12
 1351 0803 38       		.byte	0x38
 1352 0804 B4000000 		.4byte	0xb4
 1353 0808 06       		.byte	0x6
 1354 0809 07       		.uleb128 0x7
 1355 080a E4060000 		.4byte	.LASF112
 1356 080e 12       		.byte	0x12
 1357 080f 39       		.byte	0x39
 1358 0810 A9000000 		.4byte	0xa9
 1359 0814 08       		.byte	0x8
 1360 0815 07       		.uleb128 0x7
 1361 0816 A9050000 		.4byte	.LASF113
 1362 081a 12       		.byte	0x12
 1363 081b 3A       		.byte	0x3a
 1364 081c A9000000 		.4byte	0xa9
 1365 0820 09       		.byte	0x9
 1366 0821 07       		.uleb128 0x7
 1367 0822 BB040000 		.4byte	.LASF114
 1368 0826 12       		.byte	0x12
ARM GAS  C:\cygwin64\tmp\cc3Ix7in.s 			page 25


 1369 0827 3B       		.byte	0x3b
 1370 0828 A9000000 		.4byte	0xa9
 1371 082c 0A       		.byte	0xa
 1372 082d 07       		.uleb128 0x7
 1373 082e 16050000 		.4byte	.LASF115
 1374 0832 12       		.byte	0x12
 1375 0833 3C       		.byte	0x3c
 1376 0834 A9000000 		.4byte	0xa9
 1377 0838 0B       		.byte	0xb
 1378 0839 07       		.uleb128 0x7
 1379 083a A2030000 		.4byte	.LASF116
 1380 083e 12       		.byte	0x12
 1381 083f 3D       		.byte	0x3d
 1382 0840 A9000000 		.4byte	0xa9
 1383 0844 0C       		.byte	0xc
 1384 0845 07       		.uleb128 0x7
 1385 0846 68040000 		.4byte	.LASF117
 1386 084a 12       		.byte	0x12
 1387 084b 3E       		.byte	0x3e
 1388 084c A9000000 		.4byte	0xa9
 1389 0850 0D       		.byte	0xd
 1390 0851 07       		.uleb128 0x7
 1391 0852 75060000 		.4byte	.LASF118
 1392 0856 12       		.byte	0x12
 1393 0857 3F       		.byte	0x3f
 1394 0858 A9000000 		.4byte	0xa9
 1395 085c 0E       		.byte	0xe
 1396 085d 07       		.uleb128 0x7
 1397 085e D7030000 		.4byte	.LASF119
 1398 0862 12       		.byte	0x12
 1399 0863 40       		.byte	0x40
 1400 0864 A9000000 		.4byte	0xa9
 1401 0868 0F       		.byte	0xf
 1402 0869 07       		.uleb128 0x7
 1403 086a 1F050000 		.4byte	.LASF120
 1404 086e 12       		.byte	0x12
 1405 086f 41       		.byte	0x41
 1406 0870 A9000000 		.4byte	0xa9
 1407 0874 10       		.byte	0x10
 1408 0875 07       		.uleb128 0x7
 1409 0876 4D070000 		.4byte	.LASF121
 1410 087a 12       		.byte	0x12
 1411 087b 42       		.byte	0x42
 1412 087c A9000000 		.4byte	0xa9
 1413 0880 11       		.byte	0x11
 1414 0881 07       		.uleb128 0x7
 1415 0882 71070000 		.4byte	.LASF122
 1416 0886 12       		.byte	0x12
 1417 0887 43       		.byte	0x43
 1418 0888 A9000000 		.4byte	0xa9
 1419 088c 12       		.byte	0x12
 1420 088d 07       		.uleb128 0x7
 1421 088e 54030000 		.4byte	.LASF123
 1422 0892 12       		.byte	0x12
 1423 0893 44       		.byte	0x44
 1424 0894 A9000000 		.4byte	0xa9
 1425 0898 13       		.byte	0x13
ARM GAS  C:\cygwin64\tmp\cc3Ix7in.s 			page 26


 1426 0899 07       		.uleb128 0x7
 1427 089a BB020000 		.4byte	.LASF124
 1428 089e 12       		.byte	0x12
 1429 089f 45       		.byte	0x45
 1430 08a0 A9000000 		.4byte	0xa9
 1431 08a4 14       		.byte	0x14
 1432 08a5 07       		.uleb128 0x7
 1433 08a6 8E050000 		.4byte	.LASF125
 1434 08aa 12       		.byte	0x12
 1435 08ab 46       		.byte	0x46
 1436 08ac A9000000 		.4byte	0xa9
 1437 08b0 15       		.byte	0x15
 1438 08b1 00       		.byte	0
 1439 08b2 18       		.uleb128 0x18
 1440 08b3 97070000 		.4byte	0x797
 1441 08b7 C2080000 		.4byte	0x8c2
 1442 08bb 1A       		.uleb128 0x1a
 1443 08bc 71040000 		.4byte	0x471
 1444 08c0 03       		.byte	0x3
 1445 08c1 00       		.byte	0
 1446 08c2 04       		.uleb128 0x4
 1447 08c3 B1020000 		.4byte	.LASF126
 1448 08c7 12       		.byte	0x12
 1449 08c8 47       		.byte	0x47
 1450 08c9 D1070000 		.4byte	0x7d1
 1451 08cd 16       		.uleb128 0x16
 1452 08ce C2080000 		.4byte	0x8c2
 1453 08d2 11       		.uleb128 0x11
 1454 08d3 39030000 		.4byte	.LASF127
 1455 08d7 12       		.byte	0x12
 1456 08d8 6C       		.byte	0x6c
 1457 08d9 CD080000 		.4byte	0x8cd
 1458 08dd 04       		.uleb128 0x4
 1459 08de F8020000 		.4byte	.LASF128
 1460 08e2 11       		.byte	0x11
 1461 08e3 34       		.byte	0x34
 1462 08e4 55070000 		.4byte	0x755
 1463 08e8 0B       		.uleb128 0xb
 1464 08e9 04       		.byte	0x4
 1465 08ea DD080000 		.4byte	0x8dd
 1466 08ee 03       		.uleb128 0x3
 1467 08ef 01       		.byte	0x1
 1468 08f0 02       		.byte	0x2
 1469 08f1 FA040000 		.4byte	.LASF129
 1470 08f5 1B       		.uleb128 0x1b
 1471 08f6 74050000 		.4byte	.LASF151
 1472 08fa 01       		.byte	0x1
 1473 08fb 8F       		.byte	0x8f
 1474 08fc 00000000 		.4byte	.LFB248
 1475 0900 24000000 		.4byte	.LFE248-.LFB248
 1476 0904 01       		.uleb128 0x1
 1477 0905 9C       		.byte	0x9c
 1478 0906 100A0000 		.4byte	0xa10
 1479 090a 1C       		.uleb128 0x1c
 1480 090b 747000   		.ascii	"tp\000"
 1481 090e 01       		.byte	0x1
 1482 090f 8F       		.byte	0x8f
ARM GAS  C:\cygwin64\tmp\cc3Ix7in.s 			page 27


 1483 0910 5F020000 		.4byte	0x25f
 1484 0914 00000000 		.4byte	.LLST11
 1485 0918 1C       		.uleb128 0x1c
 1486 0919 6D736700 		.ascii	"msg\000"
 1487 091d 01       		.byte	0x1
 1488 091e 8F       		.byte	0x8f
 1489 091f 27010000 		.4byte	0x127
 1490 0923 1E000000 		.4byte	.LLST12
 1491 0927 1D       		.uleb128 0x1d
 1492 0928 50050000 		.4byte	.LASF132
 1493 092c 200A0000 		.4byte	0xa20
 1494 0930 1E       		.uleb128 0x1e
 1495 0931 090D0000 		.4byte	0xd09
 1496 0935 06000000 		.4byte	.LBB90
 1497 0939 0A000000 		.4byte	.LBE90-.LBB90
 1498 093d 01       		.byte	0x1
 1499 093e 91       		.byte	0x91
 1500 093f 7C090000 		.4byte	0x97c
 1501 0943 1F       		.uleb128 0x1f
 1502 0944 6F0D0000 		.4byte	0xd6f
 1503 0948 06000000 		.4byte	.LBB92
 1504 094c 06000000 		.4byte	.LBE92-.LBB92
 1505 0950 03       		.byte	0x3
 1506 0951 7801     		.2byte	0x178
 1507 0953 72090000 		.4byte	0x972
 1508 0957 20       		.uleb128 0x20
 1509 0958 780D0000 		.4byte	0xd78
 1510 095c 06000000 		.4byte	.LBB93
 1511 0960 06000000 		.4byte	.LBE93-.LBB93
 1512 0964 0D       		.byte	0xd
 1513 0965 5A02     		.2byte	0x25a
 1514 0967 21       		.uleb128 0x21
 1515 0968 850D0000 		.4byte	0xd85
 1516 096c 3C000000 		.4byte	.LLST13
 1517 0970 00       		.byte	0
 1518 0971 00       		.byte	0
 1519 0972 22       		.uleb128 0x22
 1520 0973 10000000 		.4byte	.LVL27
 1521 0977 920D0000 		.4byte	0xd92
 1522 097b 00       		.byte	0
 1523 097c 1E       		.uleb128 0x1e
 1524 097d 9C0C0000 		.4byte	0xc9c
 1525 0981 10000000 		.4byte	.LBB95
 1526 0985 08000000 		.4byte	.LBE95-.LBB95
 1527 0989 01       		.byte	0x1
 1528 098a 93       		.byte	0x93
 1529 098b B8090000 		.4byte	0x9b8
 1530 098f 21       		.uleb128 0x21
 1531 0990 B20C0000 		.4byte	0xcb2
 1532 0994 51000000 		.4byte	.LLST14
 1533 0998 21       		.uleb128 0x21
 1534 0999 A80C0000 		.4byte	0xca8
 1535 099d 64000000 		.4byte	.LLST15
 1536 09a1 23       		.uleb128 0x23
 1537 09a2 18000000 		.4byte	.LVL28
 1538 09a6 9D0D0000 		.4byte	0xd9d
 1539 09aa 24       		.uleb128 0x24
ARM GAS  C:\cygwin64\tmp\cc3Ix7in.s 			page 28


 1540 09ab 01       		.uleb128 0x1
 1541 09ac 50       		.byte	0x50
 1542 09ad 02       		.uleb128 0x2
 1543 09ae 74       		.byte	0x74
 1544 09af 00       		.sleb128 0
 1545 09b0 24       		.uleb128 0x24
 1546 09b1 01       		.uleb128 0x1
 1547 09b2 51       		.byte	0x51
 1548 09b3 02       		.uleb128 0x2
 1549 09b4 75       		.byte	0x75
 1550 09b5 00       		.sleb128 0
 1551 09b6 00       		.byte	0
 1552 09b7 00       		.byte	0
 1553 09b8 25       		.uleb128 0x25
 1554 09b9 D90C0000 		.4byte	0xcd9
 1555 09bd 18000000 		.4byte	.LBB97
 1556 09c1 0C000000 		.4byte	.LBE97-.LBB97
 1557 09c5 01       		.byte	0x1
 1558 09c6 94       		.byte	0x94
 1559 09c7 26       		.uleb128 0x26
 1560 09c8 18000000 		.4byte	.LBB98
 1561 09cc 0C000000 		.4byte	.LBE98-.LBB98
 1562 09d0 27       		.uleb128 0x27
 1563 09d1 E60C0000 		.4byte	0xce6
 1564 09d5 1F       		.uleb128 0x1f
 1565 09d6 660D0000 		.4byte	0xd66
 1566 09da 1C000000 		.4byte	.LBB99
 1567 09de 08000000 		.4byte	.LBE99-.LBB99
 1568 09e2 03       		.byte	0x3
 1569 09e3 8F01     		.2byte	0x18f
 1570 09e5 040A0000 		.4byte	0xa04
 1571 09e9 20       		.uleb128 0x20
 1572 09ea 780D0000 		.4byte	0xd78
 1573 09ee 1C000000 		.4byte	.LBB100
 1574 09f2 08000000 		.4byte	.LBE100-.LBB100
 1575 09f6 0D       		.byte	0xd
 1576 09f7 6D02     		.2byte	0x26d
 1577 09f9 21       		.uleb128 0x21
 1578 09fa 850D0000 		.4byte	0xd85
 1579 09fe 77000000 		.4byte	.LLST16
 1580 0a02 00       		.byte	0
 1581 0a03 00       		.byte	0
 1582 0a04 22       		.uleb128 0x22
 1583 0a05 1C000000 		.4byte	.LVL29
 1584 0a09 A90D0000 		.4byte	0xda9
 1585 0a0d 00       		.byte	0
 1586 0a0e 00       		.byte	0
 1587 0a0f 00       		.byte	0
 1588 0a10 18       		.uleb128 0x18
 1589 0a11 9E070000 		.4byte	0x79e
 1590 0a15 200A0000 		.4byte	0xa20
 1591 0a19 1A       		.uleb128 0x1a
 1592 0a1a 71040000 		.4byte	0x471
 1593 0a1e 0C       		.byte	0xc
 1594 0a1f 00       		.byte	0
 1595 0a20 16       		.uleb128 0x16
 1596 0a21 100A0000 		.4byte	0xa10
ARM GAS  C:\cygwin64\tmp\cc3Ix7in.s 			page 29


 1597 0a25 28       		.uleb128 0x28
 1598 0a26 DA060000 		.4byte	.LASF130
 1599 0a2a 01       		.byte	0x1
 1600 0a2b 77       		.byte	0x77
 1601 0a2c 5F020000 		.4byte	0x25f
 1602 0a30 00000000 		.4byte	.LFB247
 1603 0a34 44000000 		.4byte	.LFE247-.LFB247
 1604 0a38 01       		.uleb128 0x1
 1605 0a39 9C       		.byte	0x9c
 1606 0a3a 480B0000 		.4byte	0xb48
 1607 0a3e 29       		.uleb128 0x29
 1608 0a3f 747000   		.ascii	"tp\000"
 1609 0a42 01       		.byte	0x1
 1610 0a43 78       		.byte	0x78
 1611 0a44 5F020000 		.4byte	0x25f
 1612 0a48 2A       		.uleb128 0x2a
 1613 0a49 090D0000 		.4byte	0xd09
 1614 0a4d 02000000 		.4byte	.LBB62
 1615 0a51 18000000 		.4byte	.Ldebug_ranges0+0x18
 1616 0a55 01       		.byte	0x1
 1617 0a56 7A       		.byte	0x7a
 1618 0a57 940A0000 		.4byte	0xa94
 1619 0a5b 1F       		.uleb128 0x1f
 1620 0a5c 6F0D0000 		.4byte	0xd6f
 1621 0a60 02000000 		.4byte	.LBB64
 1622 0a64 06000000 		.4byte	.LBE64-.LBB64
 1623 0a68 03       		.byte	0x3
 1624 0a69 7801     		.2byte	0x178
 1625 0a6b 8A0A0000 		.4byte	0xa8a
 1626 0a6f 20       		.uleb128 0x20
 1627 0a70 780D0000 		.4byte	0xd78
 1628 0a74 02000000 		.4byte	.LBB65
 1629 0a78 06000000 		.4byte	.LBE65-.LBB65
 1630 0a7c 0D       		.byte	0xd
 1631 0a7d 5A02     		.2byte	0x25a
 1632 0a7f 21       		.uleb128 0x21
 1633 0a80 850D0000 		.4byte	0xd85
 1634 0a84 8B000000 		.4byte	.LLST7
 1635 0a88 00       		.byte	0
 1636 0a89 00       		.byte	0
 1637 0a8a 22       		.uleb128 0x22
 1638 0a8b 0E000000 		.4byte	.LVL17
 1639 0a8f 920D0000 		.4byte	0xd92
 1640 0a93 00       		.byte	0
 1641 0a94 1E       		.uleb128 0x1e
 1642 0a95 BE0C0000 		.4byte	0xcbe
 1643 0a99 10000000 		.4byte	.LBB69
 1644 0a9d 04000000 		.4byte	.LBE69-.LBB69
 1645 0aa1 01       		.byte	0x1
 1646 0aa2 7B       		.byte	0x7b
 1647 0aa3 AD0A0000 		.4byte	0xaad
 1648 0aa7 2B       		.uleb128 0x2b
 1649 0aa8 CE0C0000 		.4byte	0xcce
 1650 0aac 00       		.byte	0
 1651 0aad 1E       		.uleb128 0x1e
 1652 0aae 120D0000 		.4byte	0xd12
 1653 0ab2 22000000 		.4byte	.LBB71
ARM GAS  C:\cygwin64\tmp\cc3Ix7in.s 			page 30


 1654 0ab6 0A000000 		.4byte	.LBE71-.LBB71
 1655 0aba 01       		.byte	0x1
 1656 0abb 7E       		.byte	0x7e
 1657 0abc DD0A0000 		.4byte	0xadd
 1658 0ac0 21       		.uleb128 0x21
 1659 0ac1 230D0000 		.4byte	0xd23
 1660 0ac5 A0000000 		.4byte	.LLST8
 1661 0ac9 26       		.uleb128 0x26
 1662 0aca 22000000 		.4byte	.LBB72
 1663 0ace 0A000000 		.4byte	.LBE72-.LBB72
 1664 0ad2 2C       		.uleb128 0x2c
 1665 0ad3 2F0D0000 		.4byte	0xd2f
 1666 0ad7 C0000000 		.4byte	.LLST9
 1667 0adb 00       		.byte	0
 1668 0adc 00       		.byte	0
 1669 0add 1E       		.uleb128 0x1e
 1670 0ade D90C0000 		.4byte	0xcd9
 1671 0ae2 32000000 		.4byte	.LBB73
 1672 0ae6 0A000000 		.4byte	.LBE73-.LBB73
 1673 0aea 01       		.byte	0x1
 1674 0aeb 80       		.byte	0x80
 1675 0aec 380B0000 		.4byte	0xb38
 1676 0af0 26       		.uleb128 0x26
 1677 0af1 32000000 		.4byte	.LBB74
 1678 0af5 0A000000 		.4byte	.LBE74-.LBB74
 1679 0af9 27       		.uleb128 0x27
 1680 0afa E60C0000 		.4byte	0xce6
 1681 0afe 1F       		.uleb128 0x1f
 1682 0aff 660D0000 		.4byte	0xd66
 1683 0b03 36000000 		.4byte	.LBB75
 1684 0b07 06000000 		.4byte	.LBE75-.LBB75
 1685 0b0b 03       		.byte	0x3
 1686 0b0c 8F01     		.2byte	0x18f
 1687 0b0e 2D0B0000 		.4byte	0xb2d
 1688 0b12 20       		.uleb128 0x20
 1689 0b13 780D0000 		.4byte	0xd78
 1690 0b17 36000000 		.4byte	.LBB76
 1691 0b1b 06000000 		.4byte	.LBE76-.LBB76
 1692 0b1f 0D       		.byte	0xd
 1693 0b20 6D02     		.2byte	0x26d
 1694 0b22 21       		.uleb128 0x21
 1695 0b23 850D0000 		.4byte	0xd85
 1696 0b27 D3000000 		.4byte	.LLST10
 1697 0b2b 00       		.byte	0
 1698 0b2c 00       		.byte	0
 1699 0b2d 22       		.uleb128 0x22
 1700 0b2e 36000000 		.4byte	.LVL23
 1701 0b32 A90D0000 		.4byte	0xda9
 1702 0b36 00       		.byte	0
 1703 0b37 00       		.byte	0
 1704 0b38 23       		.uleb128 0x23
 1705 0b39 20000000 		.4byte	.LVL18
 1706 0b3d B40D0000 		.4byte	0xdb4
 1707 0b41 24       		.uleb128 0x24
 1708 0b42 01       		.uleb128 0x1
 1709 0b43 50       		.byte	0x50
 1710 0b44 01       		.uleb128 0x1
ARM GAS  C:\cygwin64\tmp\cc3Ix7in.s 			page 31


 1711 0b45 3E       		.byte	0x3e
 1712 0b46 00       		.byte	0
 1713 0b47 00       		.byte	0
 1714 0b48 28       		.uleb128 0x28
 1715 0b49 93020000 		.4byte	.LASF131
 1716 0b4d 01       		.byte	0x1
 1717 0b4e 57       		.byte	0x57
 1718 0b4f 27010000 		.4byte	0x127
 1719 0b53 00000000 		.4byte	.LFB246
 1720 0b57 4C000000 		.4byte	.LFE246-.LFB246
 1721 0b5b 01       		.uleb128 0x1
 1722 0b5c 9C       		.byte	0x9c
 1723 0b5d 870C0000 		.4byte	0xc87
 1724 0b61 1C       		.uleb128 0x1c
 1725 0b62 747000   		.ascii	"tp\000"
 1726 0b65 01       		.byte	0x1
 1727 0b66 57       		.byte	0x57
 1728 0b67 5F020000 		.4byte	0x25f
 1729 0b6b E7000000 		.4byte	.LLST0
 1730 0b6f 1C       		.uleb128 0x1c
 1731 0b70 6D736700 		.ascii	"msg\000"
 1732 0b74 01       		.byte	0x1
 1733 0b75 57       		.byte	0x57
 1734 0b76 27010000 		.4byte	0x127
 1735 0b7a 13010000 		.4byte	.LLST1
 1736 0b7e 2D       		.uleb128 0x2d
 1737 0b7f 63747000 		.ascii	"ctp\000"
 1738 0b83 01       		.byte	0x1
 1739 0b84 58       		.byte	0x58
 1740 0b85 5F020000 		.4byte	0x25f
 1741 0b89 47010000 		.4byte	.LLST2
 1742 0b8d 1D       		.uleb128 0x1d
 1743 0b8e 50050000 		.4byte	.LASF132
 1744 0b92 970C0000 		.4byte	0xc97
 1745 0b96 1E       		.uleb128 0x1e
 1746 0b97 090D0000 		.4byte	0xd09
 1747 0b9b 0A000000 		.4byte	.LBB34
 1748 0b9f 0A000000 		.4byte	.LBE34-.LBB34
 1749 0ba3 01       		.byte	0x1
 1750 0ba4 5C       		.byte	0x5c
 1751 0ba5 E20B0000 		.4byte	0xbe2
 1752 0ba9 1F       		.uleb128 0x1f
 1753 0baa 6F0D0000 		.4byte	0xd6f
 1754 0bae 0A000000 		.4byte	.LBB36
 1755 0bb2 06000000 		.4byte	.LBE36-.LBB36
 1756 0bb6 03       		.byte	0x3
 1757 0bb7 7801     		.2byte	0x178
 1758 0bb9 D80B0000 		.4byte	0xbd8
 1759 0bbd 20       		.uleb128 0x20
 1760 0bbe 780D0000 		.4byte	0xd78
 1761 0bc2 0A000000 		.4byte	.LBB37
 1762 0bc6 06000000 		.4byte	.LBE37-.LBB37
 1763 0bca 0D       		.byte	0xd
 1764 0bcb 5A02     		.2byte	0x25a
 1765 0bcd 21       		.uleb128 0x21
 1766 0bce 850D0000 		.4byte	0xd85
 1767 0bd2 5A010000 		.4byte	.LLST3
ARM GAS  C:\cygwin64\tmp\cc3Ix7in.s 			page 32


 1768 0bd6 00       		.byte	0
 1769 0bd7 00       		.byte	0
 1770 0bd8 22       		.uleb128 0x22
 1771 0bd9 14000000 		.4byte	.LVL3
 1772 0bdd 920D0000 		.4byte	0xd92
 1773 0be1 00       		.byte	0
 1774 0be2 2A       		.uleb128 0x2a
 1775 0be3 410D0000 		.4byte	0xd41
 1776 0be7 1A000000 		.4byte	.LBB39
 1777 0beb 00000000 		.4byte	.Ldebug_ranges0+0
 1778 0bef 01       		.byte	0x1
 1779 0bf0 5E       		.byte	0x5e
 1780 0bf1 080C0000 		.4byte	0xc08
 1781 0bf5 21       		.uleb128 0x21
 1782 0bf6 590D0000 		.4byte	0xd59
 1783 0bfa 6F010000 		.4byte	.LLST4
 1784 0bfe 21       		.uleb128 0x21
 1785 0bff 4E0D0000 		.4byte	0xd4e
 1786 0c03 A8010000 		.4byte	.LLST5
 1787 0c07 00       		.byte	0
 1788 0c08 1E       		.uleb128 0x1e
 1789 0c09 D90C0000 		.4byte	0xcd9
 1790 0c0d 3A000000 		.4byte	.LBB43
 1791 0c11 0A000000 		.4byte	.LBE43-.LBB43
 1792 0c15 01       		.byte	0x1
 1793 0c16 64       		.byte	0x64
 1794 0c17 630C0000 		.4byte	0xc63
 1795 0c1b 26       		.uleb128 0x26
 1796 0c1c 3A000000 		.4byte	.LBB44
 1797 0c20 0A000000 		.4byte	.LBE44-.LBB44
 1798 0c24 27       		.uleb128 0x27
 1799 0c25 E60C0000 		.4byte	0xce6
 1800 0c29 1F       		.uleb128 0x1f
 1801 0c2a 660D0000 		.4byte	0xd66
 1802 0c2e 3E000000 		.4byte	.LBB45
 1803 0c32 06000000 		.4byte	.LBE45-.LBB45
 1804 0c36 03       		.byte	0x3
 1805 0c37 8F01     		.2byte	0x18f
 1806 0c39 580C0000 		.4byte	0xc58
 1807 0c3d 20       		.uleb128 0x20
 1808 0c3e 780D0000 		.4byte	0xd78
 1809 0c42 3E000000 		.4byte	.LBB46
 1810 0c46 06000000 		.4byte	.LBE46-.LBB46
 1811 0c4a 0D       		.byte	0xd
 1812 0c4b 6D02     		.2byte	0x26d
 1813 0c4d 21       		.uleb128 0x21
 1814 0c4e 850D0000 		.4byte	0xd85
 1815 0c52 BB010000 		.4byte	.LLST6
 1816 0c56 00       		.byte	0
 1817 0c57 00       		.byte	0
 1818 0c58 22       		.uleb128 0x22
 1819 0c59 3E000000 		.4byte	.LVL12
 1820 0c5d A90D0000 		.4byte	0xda9
 1821 0c61 00       		.byte	0
 1822 0c62 00       		.byte	0
 1823 0c63 2E       		.uleb128 0x2e
 1824 0c64 32000000 		.4byte	.LVL9
ARM GAS  C:\cygwin64\tmp\cc3Ix7in.s 			page 33


 1825 0c68 C00D0000 		.4byte	0xdc0
 1826 0c6c 770C0000 		.4byte	0xc77
 1827 0c70 24       		.uleb128 0x24
 1828 0c71 01       		.uleb128 0x1
 1829 0c72 50       		.byte	0x50
 1830 0c73 02       		.uleb128 0x2
 1831 0c74 75       		.byte	0x75
 1832 0c75 00       		.sleb128 0
 1833 0c76 00       		.byte	0
 1834 0c77 23       		.uleb128 0x23
 1835 0c78 38000000 		.4byte	.LVL10
 1836 0c7c B40D0000 		.4byte	0xdb4
 1837 0c80 24       		.uleb128 0x24
 1838 0c81 01       		.uleb128 0x1
 1839 0c82 50       		.byte	0x50
 1840 0c83 01       		.uleb128 0x1
 1841 0c84 3C       		.byte	0x3c
 1842 0c85 00       		.byte	0
 1843 0c86 00       		.byte	0
 1844 0c87 18       		.uleb128 0x18
 1845 0c88 9E070000 		.4byte	0x79e
 1846 0c8c 970C0000 		.4byte	0xc97
 1847 0c90 1A       		.uleb128 0x1a
 1848 0c91 71040000 		.4byte	0x471
 1849 0c95 09       		.byte	0x9
 1850 0c96 00       		.byte	0
 1851 0c97 16       		.uleb128 0x16
 1852 0c98 870C0000 		.4byte	0xc87
 1853 0c9c 2F       		.uleb128 0x2f
 1854 0c9d 63070000 		.4byte	.LASF133
 1855 0ca1 05       		.byte	0x5
 1856 0ca2 71       		.byte	0x71
 1857 0ca3 03       		.byte	0x3
 1858 0ca4 BE0C0000 		.4byte	0xcbe
 1859 0ca8 30       		.uleb128 0x30
 1860 0ca9 747000   		.ascii	"tp\000"
 1861 0cac 05       		.byte	0x5
 1862 0cad 71       		.byte	0x71
 1863 0cae 5F020000 		.4byte	0x25f
 1864 0cb2 30       		.uleb128 0x30
 1865 0cb3 6D736700 		.ascii	"msg\000"
 1866 0cb7 05       		.byte	0x5
 1867 0cb8 71       		.byte	0x71
 1868 0cb9 27010000 		.4byte	0x127
 1869 0cbd 00       		.byte	0
 1870 0cbe 31       		.uleb128 0x31
 1871 0cbf 46060000 		.4byte	.LASF135
 1872 0cc3 05       		.byte	0x5
 1873 0cc4 4F       		.byte	0x4f
 1874 0cc5 EE080000 		.4byte	0x8ee
 1875 0cc9 03       		.byte	0x3
 1876 0cca D90C0000 		.4byte	0xcd9
 1877 0cce 30       		.uleb128 0x30
 1878 0ccf 747000   		.ascii	"tp\000"
 1879 0cd2 05       		.byte	0x5
 1880 0cd3 4F       		.byte	0x4f
 1881 0cd4 5F020000 		.4byte	0x25f
ARM GAS  C:\cygwin64\tmp\cc3Ix7in.s 			page 34


 1882 0cd8 00       		.byte	0
 1883 0cd9 32       		.uleb128 0x32
 1884 0cda 57070000 		.4byte	.LASF134
 1885 0cde 03       		.byte	0x3
 1886 0cdf 8201     		.2byte	0x182
 1887 0ce1 03       		.byte	0x3
 1888 0ce2 F40C0000 		.4byte	0xcf4
 1889 0ce6 33       		.uleb128 0x33
 1890 0ce7 50050000 		.4byte	.LASF132
 1891 0ceb 040D0000 		.4byte	0xd04
 1892 0cef 57070000 		.4byte	.LASF134
 1893 0cf3 00       		.byte	0
 1894 0cf4 18       		.uleb128 0x18
 1895 0cf5 9E070000 		.4byte	0x79e
 1896 0cf9 040D0000 		.4byte	0xd04
 1897 0cfd 1A       		.uleb128 0x1a
 1898 0cfe 71040000 		.4byte	0x471
 1899 0d02 0B       		.byte	0xb
 1900 0d03 00       		.byte	0
 1901 0d04 16       		.uleb128 0x16
 1902 0d05 F40C0000 		.4byte	0xcf4
 1903 0d09 34       		.uleb128 0x34
 1904 0d0a 59050000 		.4byte	.LASF138
 1905 0d0e 03       		.byte	0x3
 1906 0d0f 7601     		.2byte	0x176
 1907 0d11 03       		.byte	0x3
 1908 0d12 35       		.uleb128 0x35
 1909 0d13 21060000 		.4byte	.LASF136
 1910 0d17 04       		.byte	0x4
 1911 0d18 6902     		.2byte	0x269
 1912 0d1a 5F020000 		.4byte	0x25f
 1913 0d1e 03       		.byte	0x3
 1914 0d1f 3B0D0000 		.4byte	0xd3b
 1915 0d23 36       		.uleb128 0x36
 1916 0d24 74717000 		.ascii	"tqp\000"
 1917 0d28 04       		.byte	0x4
 1918 0d29 6902     		.2byte	0x269
 1919 0d2b 3B0D0000 		.4byte	0xd3b
 1920 0d2f 37       		.uleb128 0x37
 1921 0d30 747000   		.ascii	"tp\000"
 1922 0d33 04       		.byte	0x4
 1923 0d34 6A02     		.2byte	0x26a
 1924 0d36 5F020000 		.4byte	0x25f
 1925 0d3a 00       		.byte	0
 1926 0d3b 0B       		.uleb128 0xb
 1927 0d3c 04       		.byte	0x4
 1928 0d3d 89020000 		.4byte	0x289
 1929 0d41 32       		.uleb128 0x32
 1930 0d42 3B000000 		.4byte	.LASF137
 1931 0d46 04       		.byte	0x4
 1932 0d47 6102     		.2byte	0x261
 1933 0d49 03       		.byte	0x3
 1934 0d4a 660D0000 		.4byte	0xd66
 1935 0d4e 36       		.uleb128 0x36
 1936 0d4f 747000   		.ascii	"tp\000"
 1937 0d52 04       		.byte	0x4
 1938 0d53 6102     		.2byte	0x261
ARM GAS  C:\cygwin64\tmp\cc3Ix7in.s 			page 35


 1939 0d55 5F020000 		.4byte	0x25f
 1940 0d59 36       		.uleb128 0x36
 1941 0d5a 74717000 		.ascii	"tqp\000"
 1942 0d5e 04       		.byte	0x4
 1943 0d5f 6102     		.2byte	0x261
 1944 0d61 3B0D0000 		.4byte	0xd3b
 1945 0d65 00       		.byte	0
 1946 0d66 34       		.uleb128 0x34
 1947 0d67 6F020000 		.4byte	.LASF139
 1948 0d6b 0D       		.byte	0xd
 1949 0d6c 6A02     		.2byte	0x26a
 1950 0d6e 03       		.byte	0x3
 1951 0d6f 34       		.uleb128 0x34
 1952 0d70 AC000000 		.4byte	.LASF140
 1953 0d74 0D       		.byte	0xd
 1954 0d75 5202     		.2byte	0x252
 1955 0d77 03       		.byte	0x3
 1956 0d78 32       		.uleb128 0x32
 1957 0d79 56060000 		.4byte	.LASF141
 1958 0d7d 02       		.byte	0x2
 1959 0d7e 0601     		.2byte	0x106
 1960 0d80 03       		.byte	0x3
 1961 0d81 920D0000 		.4byte	0xd92
 1962 0d85 38       		.uleb128 0x38
 1963 0d86 00030000 		.4byte	.LASF142
 1964 0d8a 02       		.byte	0x2
 1965 0d8b 0601     		.2byte	0x106
 1966 0d8d CF000000 		.4byte	0xcf
 1967 0d91 00       		.byte	0
 1968 0d92 39       		.uleb128 0x39
 1969 0d93 19070000 		.4byte	.LASF143
 1970 0d97 19070000 		.4byte	.LASF143
 1971 0d9b 0F       		.byte	0xf
 1972 0d9c 4F       		.byte	0x4f
 1973 0d9d 3A       		.uleb128 0x3a
 1974 0d9e CD060000 		.4byte	.LASF144
 1975 0da2 CD060000 		.4byte	.LASF144
 1976 0da6 04       		.byte	0x4
 1977 0da7 E001     		.2byte	0x1e0
 1978 0da9 39       		.uleb128 0x39
 1979 0daa 0C040000 		.4byte	.LASF145
 1980 0dae 0C040000 		.4byte	.LASF145
 1981 0db2 0F       		.byte	0xf
 1982 0db3 50       		.byte	0x50
 1983 0db4 3A       		.uleb128 0x3a
 1984 0db5 E3040000 		.4byte	.LASF146
 1985 0db9 E3040000 		.4byte	.LASF146
 1986 0dbd 04       		.byte	0x4
 1987 0dbe DE01     		.2byte	0x1de
 1988 0dc0 3A       		.uleb128 0x3a
 1989 0dc1 C2050000 		.4byte	.LASF147
 1990 0dc5 C2050000 		.4byte	.LASF147
 1991 0dc9 04       		.byte	0x4
 1992 0dca DC01     		.2byte	0x1dc
 1993 0dcc 00       		.byte	0
 1994              		.section	.debug_abbrev,"",%progbits
 1995              	.Ldebug_abbrev0:
ARM GAS  C:\cygwin64\tmp\cc3Ix7in.s 			page 36


 1996 0000 01       		.uleb128 0x1
 1997 0001 11       		.uleb128 0x11
 1998 0002 01       		.byte	0x1
 1999 0003 25       		.uleb128 0x25
 2000 0004 0E       		.uleb128 0xe
 2001 0005 13       		.uleb128 0x13
 2002 0006 0B       		.uleb128 0xb
 2003 0007 03       		.uleb128 0x3
 2004 0008 0E       		.uleb128 0xe
 2005 0009 1B       		.uleb128 0x1b
 2006 000a 0E       		.uleb128 0xe
 2007 000b 55       		.uleb128 0x55
 2008 000c 17       		.uleb128 0x17
 2009 000d 11       		.uleb128 0x11
 2010 000e 01       		.uleb128 0x1
 2011 000f 10       		.uleb128 0x10
 2012 0010 17       		.uleb128 0x17
 2013 0011 00       		.byte	0
 2014 0012 00       		.byte	0
 2015 0013 02       		.uleb128 0x2
 2016 0014 24       		.uleb128 0x24
 2017 0015 00       		.byte	0
 2018 0016 0B       		.uleb128 0xb
 2019 0017 0B       		.uleb128 0xb
 2020 0018 3E       		.uleb128 0x3e
 2021 0019 0B       		.uleb128 0xb
 2022 001a 03       		.uleb128 0x3
 2023 001b 08       		.uleb128 0x8
 2024 001c 00       		.byte	0
 2025 001d 00       		.byte	0
 2026 001e 03       		.uleb128 0x3
 2027 001f 24       		.uleb128 0x24
 2028 0020 00       		.byte	0
 2029 0021 0B       		.uleb128 0xb
 2030 0022 0B       		.uleb128 0xb
 2031 0023 3E       		.uleb128 0x3e
 2032 0024 0B       		.uleb128 0xb
 2033 0025 03       		.uleb128 0x3
 2034 0026 0E       		.uleb128 0xe
 2035 0027 00       		.byte	0
 2036 0028 00       		.byte	0
 2037 0029 04       		.uleb128 0x4
 2038 002a 16       		.uleb128 0x16
 2039 002b 00       		.byte	0
 2040 002c 03       		.uleb128 0x3
 2041 002d 0E       		.uleb128 0xe
 2042 002e 3A       		.uleb128 0x3a
 2043 002f 0B       		.uleb128 0xb
 2044 0030 3B       		.uleb128 0x3b
 2045 0031 0B       		.uleb128 0xb
 2046 0032 49       		.uleb128 0x49
 2047 0033 13       		.uleb128 0x13
 2048 0034 00       		.byte	0
 2049 0035 00       		.byte	0
 2050 0036 05       		.uleb128 0x5
 2051 0037 35       		.uleb128 0x35
 2052 0038 00       		.byte	0
ARM GAS  C:\cygwin64\tmp\cc3Ix7in.s 			page 37


 2053 0039 49       		.uleb128 0x49
 2054 003a 13       		.uleb128 0x13
 2055 003b 00       		.byte	0
 2056 003c 00       		.byte	0
 2057 003d 06       		.uleb128 0x6
 2058 003e 13       		.uleb128 0x13
 2059 003f 01       		.byte	0x1
 2060 0040 03       		.uleb128 0x3
 2061 0041 0E       		.uleb128 0xe
 2062 0042 0B       		.uleb128 0xb
 2063 0043 0B       		.uleb128 0xb
 2064 0044 3A       		.uleb128 0x3a
 2065 0045 0B       		.uleb128 0xb
 2066 0046 3B       		.uleb128 0x3b
 2067 0047 0B       		.uleb128 0xb
 2068 0048 01       		.uleb128 0x1
 2069 0049 13       		.uleb128 0x13
 2070 004a 00       		.byte	0
 2071 004b 00       		.byte	0
 2072 004c 07       		.uleb128 0x7
 2073 004d 0D       		.uleb128 0xd
 2074 004e 00       		.byte	0
 2075 004f 03       		.uleb128 0x3
 2076 0050 0E       		.uleb128 0xe
 2077 0051 3A       		.uleb128 0x3a
 2078 0052 0B       		.uleb128 0xb
 2079 0053 3B       		.uleb128 0x3b
 2080 0054 0B       		.uleb128 0xb
 2081 0055 49       		.uleb128 0x49
 2082 0056 13       		.uleb128 0x13
 2083 0057 38       		.uleb128 0x38
 2084 0058 0B       		.uleb128 0xb
 2085 0059 00       		.byte	0
 2086 005a 00       		.byte	0
 2087 005b 08       		.uleb128 0x8
 2088 005c 0D       		.uleb128 0xd
 2089 005d 00       		.byte	0
 2090 005e 03       		.uleb128 0x3
 2091 005f 08       		.uleb128 0x8
 2092 0060 3A       		.uleb128 0x3a
 2093 0061 0B       		.uleb128 0xb
 2094 0062 3B       		.uleb128 0x3b
 2095 0063 0B       		.uleb128 0xb
 2096 0064 49       		.uleb128 0x49
 2097 0065 13       		.uleb128 0x13
 2098 0066 38       		.uleb128 0x38
 2099 0067 0B       		.uleb128 0xb
 2100 0068 00       		.byte	0
 2101 0069 00       		.byte	0
 2102 006a 09       		.uleb128 0x9
 2103 006b 0D       		.uleb128 0xd
 2104 006c 00       		.byte	0
 2105 006d 03       		.uleb128 0x3
 2106 006e 08       		.uleb128 0x8
 2107 006f 3A       		.uleb128 0x3a
 2108 0070 0B       		.uleb128 0xb
 2109 0071 3B       		.uleb128 0x3b
ARM GAS  C:\cygwin64\tmp\cc3Ix7in.s 			page 38


 2110 0072 05       		.uleb128 0x5
 2111 0073 49       		.uleb128 0x49
 2112 0074 13       		.uleb128 0x13
 2113 0075 38       		.uleb128 0x38
 2114 0076 0B       		.uleb128 0xb
 2115 0077 00       		.byte	0
 2116 0078 00       		.byte	0
 2117 0079 0A       		.uleb128 0xa
 2118 007a 0D       		.uleb128 0xd
 2119 007b 00       		.byte	0
 2120 007c 03       		.uleb128 0x3
 2121 007d 0E       		.uleb128 0xe
 2122 007e 3A       		.uleb128 0x3a
 2123 007f 0B       		.uleb128 0xb
 2124 0080 3B       		.uleb128 0x3b
 2125 0081 05       		.uleb128 0x5
 2126 0082 49       		.uleb128 0x49
 2127 0083 13       		.uleb128 0x13
 2128 0084 38       		.uleb128 0x38
 2129 0085 0B       		.uleb128 0xb
 2130 0086 00       		.byte	0
 2131 0087 00       		.byte	0
 2132 0088 0B       		.uleb128 0xb
 2133 0089 0F       		.uleb128 0xf
 2134 008a 00       		.byte	0
 2135 008b 0B       		.uleb128 0xb
 2136 008c 0B       		.uleb128 0xb
 2137 008d 49       		.uleb128 0x49
 2138 008e 13       		.uleb128 0x13
 2139 008f 00       		.byte	0
 2140 0090 00       		.byte	0
 2141 0091 0C       		.uleb128 0xc
 2142 0092 13       		.uleb128 0x13
 2143 0093 01       		.byte	0x1
 2144 0094 03       		.uleb128 0x3
 2145 0095 0E       		.uleb128 0xe
 2146 0096 0B       		.uleb128 0xb
 2147 0097 0B       		.uleb128 0xb
 2148 0098 3A       		.uleb128 0x3a
 2149 0099 0B       		.uleb128 0xb
 2150 009a 3B       		.uleb128 0x3b
 2151 009b 05       		.uleb128 0x5
 2152 009c 01       		.uleb128 0x1
 2153 009d 13       		.uleb128 0x13
 2154 009e 00       		.byte	0
 2155 009f 00       		.byte	0
 2156 00a0 0D       		.uleb128 0xd
 2157 00a1 15       		.uleb128 0x15
 2158 00a2 01       		.byte	0x1
 2159 00a3 27       		.uleb128 0x27
 2160 00a4 19       		.uleb128 0x19
 2161 00a5 01       		.uleb128 0x1
 2162 00a6 13       		.uleb128 0x13
 2163 00a7 00       		.byte	0
 2164 00a8 00       		.byte	0
 2165 00a9 0E       		.uleb128 0xe
 2166 00aa 05       		.uleb128 0x5
ARM GAS  C:\cygwin64\tmp\cc3Ix7in.s 			page 39


 2167 00ab 00       		.byte	0
 2168 00ac 49       		.uleb128 0x49
 2169 00ad 13       		.uleb128 0x13
 2170 00ae 00       		.byte	0
 2171 00af 00       		.byte	0
 2172 00b0 0F       		.uleb128 0xf
 2173 00b1 0F       		.uleb128 0xf
 2174 00b2 00       		.byte	0
 2175 00b3 0B       		.uleb128 0xb
 2176 00b4 0B       		.uleb128 0xb
 2177 00b5 00       		.byte	0
 2178 00b6 00       		.byte	0
 2179 00b7 10       		.uleb128 0x10
 2180 00b8 34       		.uleb128 0x34
 2181 00b9 00       		.byte	0
 2182 00ba 03       		.uleb128 0x3
 2183 00bb 0E       		.uleb128 0xe
 2184 00bc 3A       		.uleb128 0x3a
 2185 00bd 0B       		.uleb128 0xb
 2186 00be 3B       		.uleb128 0x3b
 2187 00bf 05       		.uleb128 0x5
 2188 00c0 49       		.uleb128 0x49
 2189 00c1 13       		.uleb128 0x13
 2190 00c2 3F       		.uleb128 0x3f
 2191 00c3 19       		.uleb128 0x19
 2192 00c4 3C       		.uleb128 0x3c
 2193 00c5 19       		.uleb128 0x19
 2194 00c6 00       		.byte	0
 2195 00c7 00       		.byte	0
 2196 00c8 11       		.uleb128 0x11
 2197 00c9 34       		.uleb128 0x34
 2198 00ca 00       		.byte	0
 2199 00cb 03       		.uleb128 0x3
 2200 00cc 0E       		.uleb128 0xe
 2201 00cd 3A       		.uleb128 0x3a
 2202 00ce 0B       		.uleb128 0xb
 2203 00cf 3B       		.uleb128 0x3b
 2204 00d0 0B       		.uleb128 0xb
 2205 00d1 49       		.uleb128 0x49
 2206 00d2 13       		.uleb128 0x13
 2207 00d3 3F       		.uleb128 0x3f
 2208 00d4 19       		.uleb128 0x19
 2209 00d5 3C       		.uleb128 0x3c
 2210 00d6 19       		.uleb128 0x19
 2211 00d7 00       		.byte	0
 2212 00d8 00       		.byte	0
 2213 00d9 12       		.uleb128 0x12
 2214 00da 13       		.uleb128 0x13
 2215 00db 01       		.byte	0x1
 2216 00dc 0B       		.uleb128 0xb
 2217 00dd 0B       		.uleb128 0xb
 2218 00de 3A       		.uleb128 0x3a
 2219 00df 0B       		.uleb128 0xb
 2220 00e0 3B       		.uleb128 0x3b
 2221 00e1 0B       		.uleb128 0xb
 2222 00e2 01       		.uleb128 0x1
 2223 00e3 13       		.uleb128 0x13
ARM GAS  C:\cygwin64\tmp\cc3Ix7in.s 			page 40


 2224 00e4 00       		.byte	0
 2225 00e5 00       		.byte	0
 2226 00e6 13       		.uleb128 0x13
 2227 00e7 17       		.uleb128 0x17
 2228 00e8 01       		.byte	0x1
 2229 00e9 0B       		.uleb128 0xb
 2230 00ea 0B       		.uleb128 0xb
 2231 00eb 3A       		.uleb128 0x3a
 2232 00ec 0B       		.uleb128 0xb
 2233 00ed 3B       		.uleb128 0x3b
 2234 00ee 0B       		.uleb128 0xb
 2235 00ef 01       		.uleb128 0x1
 2236 00f0 13       		.uleb128 0x13
 2237 00f1 00       		.byte	0
 2238 00f2 00       		.byte	0
 2239 00f3 14       		.uleb128 0x14
 2240 00f4 0D       		.uleb128 0xd
 2241 00f5 00       		.byte	0
 2242 00f6 03       		.uleb128 0x3
 2243 00f7 0E       		.uleb128 0xe
 2244 00f8 3A       		.uleb128 0x3a
 2245 00f9 0B       		.uleb128 0xb
 2246 00fa 3B       		.uleb128 0x3b
 2247 00fb 0B       		.uleb128 0xb
 2248 00fc 49       		.uleb128 0x49
 2249 00fd 13       		.uleb128 0x13
 2250 00fe 00       		.byte	0
 2251 00ff 00       		.byte	0
 2252 0100 15       		.uleb128 0x15
 2253 0101 0D       		.uleb128 0xd
 2254 0102 00       		.byte	0
 2255 0103 03       		.uleb128 0x3
 2256 0104 0E       		.uleb128 0xe
 2257 0105 3A       		.uleb128 0x3a
 2258 0106 0B       		.uleb128 0xb
 2259 0107 3B       		.uleb128 0x3b
 2260 0108 05       		.uleb128 0x5
 2261 0109 49       		.uleb128 0x49
 2262 010a 13       		.uleb128 0x13
 2263 010b 00       		.byte	0
 2264 010c 00       		.byte	0
 2265 010d 16       		.uleb128 0x16
 2266 010e 26       		.uleb128 0x26
 2267 010f 00       		.byte	0
 2268 0110 49       		.uleb128 0x49
 2269 0111 13       		.uleb128 0x13
 2270 0112 00       		.byte	0
 2271 0113 00       		.byte	0
 2272 0114 17       		.uleb128 0x17
 2273 0115 34       		.uleb128 0x34
 2274 0116 00       		.byte	0
 2275 0117 03       		.uleb128 0x3
 2276 0118 08       		.uleb128 0x8
 2277 0119 3A       		.uleb128 0x3a
 2278 011a 0B       		.uleb128 0xb
 2279 011b 3B       		.uleb128 0x3b
 2280 011c 05       		.uleb128 0x5
ARM GAS  C:\cygwin64\tmp\cc3Ix7in.s 			page 41


 2281 011d 49       		.uleb128 0x49
 2282 011e 13       		.uleb128 0x13
 2283 011f 3F       		.uleb128 0x3f
 2284 0120 19       		.uleb128 0x19
 2285 0121 3C       		.uleb128 0x3c
 2286 0122 19       		.uleb128 0x19
 2287 0123 00       		.byte	0
 2288 0124 00       		.byte	0
 2289 0125 18       		.uleb128 0x18
 2290 0126 01       		.uleb128 0x1
 2291 0127 01       		.byte	0x1
 2292 0128 49       		.uleb128 0x49
 2293 0129 13       		.uleb128 0x13
 2294 012a 01       		.uleb128 0x1
 2295 012b 13       		.uleb128 0x13
 2296 012c 00       		.byte	0
 2297 012d 00       		.byte	0
 2298 012e 19       		.uleb128 0x19
 2299 012f 21       		.uleb128 0x21
 2300 0130 00       		.byte	0
 2301 0131 00       		.byte	0
 2302 0132 00       		.byte	0
 2303 0133 1A       		.uleb128 0x1a
 2304 0134 21       		.uleb128 0x21
 2305 0135 00       		.byte	0
 2306 0136 49       		.uleb128 0x49
 2307 0137 13       		.uleb128 0x13
 2308 0138 2F       		.uleb128 0x2f
 2309 0139 0B       		.uleb128 0xb
 2310 013a 00       		.byte	0
 2311 013b 00       		.byte	0
 2312 013c 1B       		.uleb128 0x1b
 2313 013d 2E       		.uleb128 0x2e
 2314 013e 01       		.byte	0x1
 2315 013f 3F       		.uleb128 0x3f
 2316 0140 19       		.uleb128 0x19
 2317 0141 03       		.uleb128 0x3
 2318 0142 0E       		.uleb128 0xe
 2319 0143 3A       		.uleb128 0x3a
 2320 0144 0B       		.uleb128 0xb
 2321 0145 3B       		.uleb128 0x3b
 2322 0146 0B       		.uleb128 0xb
 2323 0147 27       		.uleb128 0x27
 2324 0148 19       		.uleb128 0x19
 2325 0149 11       		.uleb128 0x11
 2326 014a 01       		.uleb128 0x1
 2327 014b 12       		.uleb128 0x12
 2328 014c 06       		.uleb128 0x6
 2329 014d 40       		.uleb128 0x40
 2330 014e 18       		.uleb128 0x18
 2331 014f 9742     		.uleb128 0x2117
 2332 0151 19       		.uleb128 0x19
 2333 0152 01       		.uleb128 0x1
 2334 0153 13       		.uleb128 0x13
 2335 0154 00       		.byte	0
 2336 0155 00       		.byte	0
 2337 0156 1C       		.uleb128 0x1c
ARM GAS  C:\cygwin64\tmp\cc3Ix7in.s 			page 42


 2338 0157 05       		.uleb128 0x5
 2339 0158 00       		.byte	0
 2340 0159 03       		.uleb128 0x3
 2341 015a 08       		.uleb128 0x8
 2342 015b 3A       		.uleb128 0x3a
 2343 015c 0B       		.uleb128 0xb
 2344 015d 3B       		.uleb128 0x3b
 2345 015e 0B       		.uleb128 0xb
 2346 015f 49       		.uleb128 0x49
 2347 0160 13       		.uleb128 0x13
 2348 0161 02       		.uleb128 0x2
 2349 0162 17       		.uleb128 0x17
 2350 0163 00       		.byte	0
 2351 0164 00       		.byte	0
 2352 0165 1D       		.uleb128 0x1d
 2353 0166 34       		.uleb128 0x34
 2354 0167 00       		.byte	0
 2355 0168 03       		.uleb128 0x3
 2356 0169 0E       		.uleb128 0xe
 2357 016a 49       		.uleb128 0x49
 2358 016b 13       		.uleb128 0x13
 2359 016c 34       		.uleb128 0x34
 2360 016d 19       		.uleb128 0x19
 2361 016e 00       		.byte	0
 2362 016f 00       		.byte	0
 2363 0170 1E       		.uleb128 0x1e
 2364 0171 1D       		.uleb128 0x1d
 2365 0172 01       		.byte	0x1
 2366 0173 31       		.uleb128 0x31
 2367 0174 13       		.uleb128 0x13
 2368 0175 11       		.uleb128 0x11
 2369 0176 01       		.uleb128 0x1
 2370 0177 12       		.uleb128 0x12
 2371 0178 06       		.uleb128 0x6
 2372 0179 58       		.uleb128 0x58
 2373 017a 0B       		.uleb128 0xb
 2374 017b 59       		.uleb128 0x59
 2375 017c 0B       		.uleb128 0xb
 2376 017d 01       		.uleb128 0x1
 2377 017e 13       		.uleb128 0x13
 2378 017f 00       		.byte	0
 2379 0180 00       		.byte	0
 2380 0181 1F       		.uleb128 0x1f
 2381 0182 1D       		.uleb128 0x1d
 2382 0183 01       		.byte	0x1
 2383 0184 31       		.uleb128 0x31
 2384 0185 13       		.uleb128 0x13
 2385 0186 11       		.uleb128 0x11
 2386 0187 01       		.uleb128 0x1
 2387 0188 12       		.uleb128 0x12
 2388 0189 06       		.uleb128 0x6
 2389 018a 58       		.uleb128 0x58
 2390 018b 0B       		.uleb128 0xb
 2391 018c 59       		.uleb128 0x59
 2392 018d 05       		.uleb128 0x5
 2393 018e 01       		.uleb128 0x1
 2394 018f 13       		.uleb128 0x13
ARM GAS  C:\cygwin64\tmp\cc3Ix7in.s 			page 43


 2395 0190 00       		.byte	0
 2396 0191 00       		.byte	0
 2397 0192 20       		.uleb128 0x20
 2398 0193 1D       		.uleb128 0x1d
 2399 0194 01       		.byte	0x1
 2400 0195 31       		.uleb128 0x31
 2401 0196 13       		.uleb128 0x13
 2402 0197 11       		.uleb128 0x11
 2403 0198 01       		.uleb128 0x1
 2404 0199 12       		.uleb128 0x12
 2405 019a 06       		.uleb128 0x6
 2406 019b 58       		.uleb128 0x58
 2407 019c 0B       		.uleb128 0xb
 2408 019d 59       		.uleb128 0x59
 2409 019e 05       		.uleb128 0x5
 2410 019f 00       		.byte	0
 2411 01a0 00       		.byte	0
 2412 01a1 21       		.uleb128 0x21
 2413 01a2 05       		.uleb128 0x5
 2414 01a3 00       		.byte	0
 2415 01a4 31       		.uleb128 0x31
 2416 01a5 13       		.uleb128 0x13
 2417 01a6 02       		.uleb128 0x2
 2418 01a7 17       		.uleb128 0x17
 2419 01a8 00       		.byte	0
 2420 01a9 00       		.byte	0
 2421 01aa 22       		.uleb128 0x22
 2422 01ab 898201   		.uleb128 0x4109
 2423 01ae 00       		.byte	0
 2424 01af 11       		.uleb128 0x11
 2425 01b0 01       		.uleb128 0x1
 2426 01b1 31       		.uleb128 0x31
 2427 01b2 13       		.uleb128 0x13
 2428 01b3 00       		.byte	0
 2429 01b4 00       		.byte	0
 2430 01b5 23       		.uleb128 0x23
 2431 01b6 898201   		.uleb128 0x4109
 2432 01b9 01       		.byte	0x1
 2433 01ba 11       		.uleb128 0x11
 2434 01bb 01       		.uleb128 0x1
 2435 01bc 31       		.uleb128 0x31
 2436 01bd 13       		.uleb128 0x13
 2437 01be 00       		.byte	0
 2438 01bf 00       		.byte	0
 2439 01c0 24       		.uleb128 0x24
 2440 01c1 8A8201   		.uleb128 0x410a
 2441 01c4 00       		.byte	0
 2442 01c5 02       		.uleb128 0x2
 2443 01c6 18       		.uleb128 0x18
 2444 01c7 9142     		.uleb128 0x2111
 2445 01c9 18       		.uleb128 0x18
 2446 01ca 00       		.byte	0
 2447 01cb 00       		.byte	0
 2448 01cc 25       		.uleb128 0x25
 2449 01cd 1D       		.uleb128 0x1d
 2450 01ce 01       		.byte	0x1
 2451 01cf 31       		.uleb128 0x31
ARM GAS  C:\cygwin64\tmp\cc3Ix7in.s 			page 44


 2452 01d0 13       		.uleb128 0x13
 2453 01d1 11       		.uleb128 0x11
 2454 01d2 01       		.uleb128 0x1
 2455 01d3 12       		.uleb128 0x12
 2456 01d4 06       		.uleb128 0x6
 2457 01d5 58       		.uleb128 0x58
 2458 01d6 0B       		.uleb128 0xb
 2459 01d7 59       		.uleb128 0x59
 2460 01d8 0B       		.uleb128 0xb
 2461 01d9 00       		.byte	0
 2462 01da 00       		.byte	0
 2463 01db 26       		.uleb128 0x26
 2464 01dc 0B       		.uleb128 0xb
 2465 01dd 01       		.byte	0x1
 2466 01de 11       		.uleb128 0x11
 2467 01df 01       		.uleb128 0x1
 2468 01e0 12       		.uleb128 0x12
 2469 01e1 06       		.uleb128 0x6
 2470 01e2 00       		.byte	0
 2471 01e3 00       		.byte	0
 2472 01e4 27       		.uleb128 0x27
 2473 01e5 34       		.uleb128 0x34
 2474 01e6 00       		.byte	0
 2475 01e7 31       		.uleb128 0x31
 2476 01e8 13       		.uleb128 0x13
 2477 01e9 00       		.byte	0
 2478 01ea 00       		.byte	0
 2479 01eb 28       		.uleb128 0x28
 2480 01ec 2E       		.uleb128 0x2e
 2481 01ed 01       		.byte	0x1
 2482 01ee 3F       		.uleb128 0x3f
 2483 01ef 19       		.uleb128 0x19
 2484 01f0 03       		.uleb128 0x3
 2485 01f1 0E       		.uleb128 0xe
 2486 01f2 3A       		.uleb128 0x3a
 2487 01f3 0B       		.uleb128 0xb
 2488 01f4 3B       		.uleb128 0x3b
 2489 01f5 0B       		.uleb128 0xb
 2490 01f6 27       		.uleb128 0x27
 2491 01f7 19       		.uleb128 0x19
 2492 01f8 49       		.uleb128 0x49
 2493 01f9 13       		.uleb128 0x13
 2494 01fa 11       		.uleb128 0x11
 2495 01fb 01       		.uleb128 0x1
 2496 01fc 12       		.uleb128 0x12
 2497 01fd 06       		.uleb128 0x6
 2498 01fe 40       		.uleb128 0x40
 2499 01ff 18       		.uleb128 0x18
 2500 0200 9742     		.uleb128 0x2117
 2501 0202 19       		.uleb128 0x19
 2502 0203 01       		.uleb128 0x1
 2503 0204 13       		.uleb128 0x13
 2504 0205 00       		.byte	0
 2505 0206 00       		.byte	0
 2506 0207 29       		.uleb128 0x29
 2507 0208 34       		.uleb128 0x34
 2508 0209 00       		.byte	0
ARM GAS  C:\cygwin64\tmp\cc3Ix7in.s 			page 45


 2509 020a 03       		.uleb128 0x3
 2510 020b 08       		.uleb128 0x8
 2511 020c 3A       		.uleb128 0x3a
 2512 020d 0B       		.uleb128 0xb
 2513 020e 3B       		.uleb128 0x3b
 2514 020f 0B       		.uleb128 0xb
 2515 0210 49       		.uleb128 0x49
 2516 0211 13       		.uleb128 0x13
 2517 0212 00       		.byte	0
 2518 0213 00       		.byte	0
 2519 0214 2A       		.uleb128 0x2a
 2520 0215 1D       		.uleb128 0x1d
 2521 0216 01       		.byte	0x1
 2522 0217 31       		.uleb128 0x31
 2523 0218 13       		.uleb128 0x13
 2524 0219 52       		.uleb128 0x52
 2525 021a 01       		.uleb128 0x1
 2526 021b 55       		.uleb128 0x55
 2527 021c 17       		.uleb128 0x17
 2528 021d 58       		.uleb128 0x58
 2529 021e 0B       		.uleb128 0xb
 2530 021f 59       		.uleb128 0x59
 2531 0220 0B       		.uleb128 0xb
 2532 0221 01       		.uleb128 0x1
 2533 0222 13       		.uleb128 0x13
 2534 0223 00       		.byte	0
 2535 0224 00       		.byte	0
 2536 0225 2B       		.uleb128 0x2b
 2537 0226 05       		.uleb128 0x5
 2538 0227 00       		.byte	0
 2539 0228 31       		.uleb128 0x31
 2540 0229 13       		.uleb128 0x13
 2541 022a 00       		.byte	0
 2542 022b 00       		.byte	0
 2543 022c 2C       		.uleb128 0x2c
 2544 022d 34       		.uleb128 0x34
 2545 022e 00       		.byte	0
 2546 022f 31       		.uleb128 0x31
 2547 0230 13       		.uleb128 0x13
 2548 0231 02       		.uleb128 0x2
 2549 0232 17       		.uleb128 0x17
 2550 0233 00       		.byte	0
 2551 0234 00       		.byte	0
 2552 0235 2D       		.uleb128 0x2d
 2553 0236 34       		.uleb128 0x34
 2554 0237 00       		.byte	0
 2555 0238 03       		.uleb128 0x3
 2556 0239 08       		.uleb128 0x8
 2557 023a 3A       		.uleb128 0x3a
 2558 023b 0B       		.uleb128 0xb
 2559 023c 3B       		.uleb128 0x3b
 2560 023d 0B       		.uleb128 0xb
 2561 023e 49       		.uleb128 0x49
 2562 023f 13       		.uleb128 0x13
 2563 0240 02       		.uleb128 0x2
 2564 0241 17       		.uleb128 0x17
 2565 0242 00       		.byte	0
ARM GAS  C:\cygwin64\tmp\cc3Ix7in.s 			page 46


 2566 0243 00       		.byte	0
 2567 0244 2E       		.uleb128 0x2e
 2568 0245 898201   		.uleb128 0x4109
 2569 0248 01       		.byte	0x1
 2570 0249 11       		.uleb128 0x11
 2571 024a 01       		.uleb128 0x1
 2572 024b 31       		.uleb128 0x31
 2573 024c 13       		.uleb128 0x13
 2574 024d 01       		.uleb128 0x1
 2575 024e 13       		.uleb128 0x13
 2576 024f 00       		.byte	0
 2577 0250 00       		.byte	0
 2578 0251 2F       		.uleb128 0x2f
 2579 0252 2E       		.uleb128 0x2e
 2580 0253 01       		.byte	0x1
 2581 0254 03       		.uleb128 0x3
 2582 0255 0E       		.uleb128 0xe
 2583 0256 3A       		.uleb128 0x3a
 2584 0257 0B       		.uleb128 0xb
 2585 0258 3B       		.uleb128 0x3b
 2586 0259 0B       		.uleb128 0xb
 2587 025a 27       		.uleb128 0x27
 2588 025b 19       		.uleb128 0x19
 2589 025c 20       		.uleb128 0x20
 2590 025d 0B       		.uleb128 0xb
 2591 025e 01       		.uleb128 0x1
 2592 025f 13       		.uleb128 0x13
 2593 0260 00       		.byte	0
 2594 0261 00       		.byte	0
 2595 0262 30       		.uleb128 0x30
 2596 0263 05       		.uleb128 0x5
 2597 0264 00       		.byte	0
 2598 0265 03       		.uleb128 0x3
 2599 0266 08       		.uleb128 0x8
 2600 0267 3A       		.uleb128 0x3a
 2601 0268 0B       		.uleb128 0xb
 2602 0269 3B       		.uleb128 0x3b
 2603 026a 0B       		.uleb128 0xb
 2604 026b 49       		.uleb128 0x49
 2605 026c 13       		.uleb128 0x13
 2606 026d 00       		.byte	0
 2607 026e 00       		.byte	0
 2608 026f 31       		.uleb128 0x31
 2609 0270 2E       		.uleb128 0x2e
 2610 0271 01       		.byte	0x1
 2611 0272 03       		.uleb128 0x3
 2612 0273 0E       		.uleb128 0xe
 2613 0274 3A       		.uleb128 0x3a
 2614 0275 0B       		.uleb128 0xb
 2615 0276 3B       		.uleb128 0x3b
 2616 0277 0B       		.uleb128 0xb
 2617 0278 27       		.uleb128 0x27
 2618 0279 19       		.uleb128 0x19
 2619 027a 49       		.uleb128 0x49
 2620 027b 13       		.uleb128 0x13
 2621 027c 20       		.uleb128 0x20
 2622 027d 0B       		.uleb128 0xb
ARM GAS  C:\cygwin64\tmp\cc3Ix7in.s 			page 47


 2623 027e 01       		.uleb128 0x1
 2624 027f 13       		.uleb128 0x13
 2625 0280 00       		.byte	0
 2626 0281 00       		.byte	0
 2627 0282 32       		.uleb128 0x32
 2628 0283 2E       		.uleb128 0x2e
 2629 0284 01       		.byte	0x1
 2630 0285 03       		.uleb128 0x3
 2631 0286 0E       		.uleb128 0xe
 2632 0287 3A       		.uleb128 0x3a
 2633 0288 0B       		.uleb128 0xb
 2634 0289 3B       		.uleb128 0x3b
 2635 028a 05       		.uleb128 0x5
 2636 028b 27       		.uleb128 0x27
 2637 028c 19       		.uleb128 0x19
 2638 028d 20       		.uleb128 0x20
 2639 028e 0B       		.uleb128 0xb
 2640 028f 01       		.uleb128 0x1
 2641 0290 13       		.uleb128 0x13
 2642 0291 00       		.byte	0
 2643 0292 00       		.byte	0
 2644 0293 33       		.uleb128 0x33
 2645 0294 34       		.uleb128 0x34
 2646 0295 00       		.byte	0
 2647 0296 03       		.uleb128 0x3
 2648 0297 0E       		.uleb128 0xe
 2649 0298 49       		.uleb128 0x49
 2650 0299 13       		.uleb128 0x13
 2651 029a 34       		.uleb128 0x34
 2652 029b 19       		.uleb128 0x19
 2653 029c 1C       		.uleb128 0x1c
 2654 029d 0E       		.uleb128 0xe
 2655 029e 00       		.byte	0
 2656 029f 00       		.byte	0
 2657 02a0 34       		.uleb128 0x34
 2658 02a1 2E       		.uleb128 0x2e
 2659 02a2 00       		.byte	0
 2660 02a3 03       		.uleb128 0x3
 2661 02a4 0E       		.uleb128 0xe
 2662 02a5 3A       		.uleb128 0x3a
 2663 02a6 0B       		.uleb128 0xb
 2664 02a7 3B       		.uleb128 0x3b
 2665 02a8 05       		.uleb128 0x5
 2666 02a9 27       		.uleb128 0x27
 2667 02aa 19       		.uleb128 0x19
 2668 02ab 20       		.uleb128 0x20
 2669 02ac 0B       		.uleb128 0xb
 2670 02ad 00       		.byte	0
 2671 02ae 00       		.byte	0
 2672 02af 35       		.uleb128 0x35
 2673 02b0 2E       		.uleb128 0x2e
 2674 02b1 01       		.byte	0x1
 2675 02b2 03       		.uleb128 0x3
 2676 02b3 0E       		.uleb128 0xe
 2677 02b4 3A       		.uleb128 0x3a
 2678 02b5 0B       		.uleb128 0xb
 2679 02b6 3B       		.uleb128 0x3b
ARM GAS  C:\cygwin64\tmp\cc3Ix7in.s 			page 48


 2680 02b7 05       		.uleb128 0x5
 2681 02b8 27       		.uleb128 0x27
 2682 02b9 19       		.uleb128 0x19
 2683 02ba 49       		.uleb128 0x49
 2684 02bb 13       		.uleb128 0x13
 2685 02bc 20       		.uleb128 0x20
 2686 02bd 0B       		.uleb128 0xb
 2687 02be 01       		.uleb128 0x1
 2688 02bf 13       		.uleb128 0x13
 2689 02c0 00       		.byte	0
 2690 02c1 00       		.byte	0
 2691 02c2 36       		.uleb128 0x36
 2692 02c3 05       		.uleb128 0x5
 2693 02c4 00       		.byte	0
 2694 02c5 03       		.uleb128 0x3
 2695 02c6 08       		.uleb128 0x8
 2696 02c7 3A       		.uleb128 0x3a
 2697 02c8 0B       		.uleb128 0xb
 2698 02c9 3B       		.uleb128 0x3b
 2699 02ca 05       		.uleb128 0x5
 2700 02cb 49       		.uleb128 0x49
 2701 02cc 13       		.uleb128 0x13
 2702 02cd 00       		.byte	0
 2703 02ce 00       		.byte	0
 2704 02cf 37       		.uleb128 0x37
 2705 02d0 34       		.uleb128 0x34
 2706 02d1 00       		.byte	0
 2707 02d2 03       		.uleb128 0x3
 2708 02d3 08       		.uleb128 0x8
 2709 02d4 3A       		.uleb128 0x3a
 2710 02d5 0B       		.uleb128 0xb
 2711 02d6 3B       		.uleb128 0x3b
 2712 02d7 05       		.uleb128 0x5
 2713 02d8 49       		.uleb128 0x49
 2714 02d9 13       		.uleb128 0x13
 2715 02da 00       		.byte	0
 2716 02db 00       		.byte	0
 2717 02dc 38       		.uleb128 0x38
 2718 02dd 05       		.uleb128 0x5
 2719 02de 00       		.byte	0
 2720 02df 03       		.uleb128 0x3
 2721 02e0 0E       		.uleb128 0xe
 2722 02e1 3A       		.uleb128 0x3a
 2723 02e2 0B       		.uleb128 0xb
 2724 02e3 3B       		.uleb128 0x3b
 2725 02e4 05       		.uleb128 0x5
 2726 02e5 49       		.uleb128 0x49
 2727 02e6 13       		.uleb128 0x13
 2728 02e7 00       		.byte	0
 2729 02e8 00       		.byte	0
 2730 02e9 39       		.uleb128 0x39
 2731 02ea 2E       		.uleb128 0x2e
 2732 02eb 00       		.byte	0
 2733 02ec 3F       		.uleb128 0x3f
 2734 02ed 19       		.uleb128 0x19
 2735 02ee 3C       		.uleb128 0x3c
 2736 02ef 19       		.uleb128 0x19
ARM GAS  C:\cygwin64\tmp\cc3Ix7in.s 			page 49


 2737 02f0 6E       		.uleb128 0x6e
 2738 02f1 0E       		.uleb128 0xe
 2739 02f2 03       		.uleb128 0x3
 2740 02f3 0E       		.uleb128 0xe
 2741 02f4 3A       		.uleb128 0x3a
 2742 02f5 0B       		.uleb128 0xb
 2743 02f6 3B       		.uleb128 0x3b
 2744 02f7 0B       		.uleb128 0xb
 2745 02f8 00       		.byte	0
 2746 02f9 00       		.byte	0
 2747 02fa 3A       		.uleb128 0x3a
 2748 02fb 2E       		.uleb128 0x2e
 2749 02fc 00       		.byte	0
 2750 02fd 3F       		.uleb128 0x3f
 2751 02fe 19       		.uleb128 0x19
 2752 02ff 3C       		.uleb128 0x3c
 2753 0300 19       		.uleb128 0x19
 2754 0301 6E       		.uleb128 0x6e
 2755 0302 0E       		.uleb128 0xe
 2756 0303 03       		.uleb128 0x3
 2757 0304 0E       		.uleb128 0xe
 2758 0305 3A       		.uleb128 0x3a
 2759 0306 0B       		.uleb128 0xb
 2760 0307 3B       		.uleb128 0x3b
 2761 0308 05       		.uleb128 0x5
 2762 0309 00       		.byte	0
 2763 030a 00       		.byte	0
 2764 030b 00       		.byte	0
 2765              		.section	.debug_loc,"",%progbits
 2766              	.Ldebug_loc0:
 2767              	.LLST11:
 2768 0000 00000000 		.4byte	.LVL25
 2769 0004 0F000000 		.4byte	.LVL27-1
 2770 0008 0100     		.2byte	0x1
 2771 000a 50       		.byte	0x50
 2772 000b 0F000000 		.4byte	.LVL27-1
 2773 000f 24000000 		.4byte	.LFE248
 2774 0013 0100     		.2byte	0x1
 2775 0015 54       		.byte	0x54
 2776 0016 00000000 		.4byte	0
 2777 001a 00000000 		.4byte	0
 2778              	.LLST12:
 2779 001e 00000000 		.4byte	.LVL25
 2780 0022 0F000000 		.4byte	.LVL27-1
 2781 0026 0100     		.2byte	0x1
 2782 0028 51       		.byte	0x51
 2783 0029 0F000000 		.4byte	.LVL27-1
 2784 002d 24000000 		.4byte	.LFE248
 2785 0031 0100     		.2byte	0x1
 2786 0033 55       		.byte	0x55
 2787 0034 00000000 		.4byte	0
 2788 0038 00000000 		.4byte	0
 2789              	.LLST13:
 2790 003c 00000000 		.4byte	.LVL25
 2791 0040 0C000000 		.4byte	.LVL26
 2792 0044 0300     		.2byte	0x3
 2793 0046 08       		.byte	0x8
ARM GAS  C:\cygwin64\tmp\cc3Ix7in.s 			page 50


 2794 0047 20       		.byte	0x20
 2795 0048 9F       		.byte	0x9f
 2796 0049 00000000 		.4byte	0
 2797 004d 00000000 		.4byte	0
 2798              	.LLST14:
 2799 0051 10000000 		.4byte	.LVL27
 2800 0055 18000000 		.4byte	.LVL28
 2801 0059 0100     		.2byte	0x1
 2802 005b 55       		.byte	0x55
 2803 005c 00000000 		.4byte	0
 2804 0060 00000000 		.4byte	0
 2805              	.LLST15:
 2806 0064 10000000 		.4byte	.LVL27
 2807 0068 18000000 		.4byte	.LVL28
 2808 006c 0100     		.2byte	0x1
 2809 006e 54       		.byte	0x54
 2810 006f 00000000 		.4byte	0
 2811 0073 00000000 		.4byte	0
 2812              	.LLST16:
 2813 0077 1C000000 		.4byte	.LVL29
 2814 007b 22000000 		.4byte	.LVL30
 2815 007f 0200     		.2byte	0x2
 2816 0081 30       		.byte	0x30
 2817 0082 9F       		.byte	0x9f
 2818 0083 00000000 		.4byte	0
 2819 0087 00000000 		.4byte	0
 2820              	.LLST7:
 2821 008b 00000000 		.4byte	.LVL15
 2822 008f 08000000 		.4byte	.LVL16
 2823 0093 0300     		.2byte	0x3
 2824 0095 08       		.byte	0x8
 2825 0096 20       		.byte	0x20
 2826 0097 9F       		.byte	0x9f
 2827 0098 00000000 		.4byte	0
 2828 009c 00000000 		.4byte	0
 2829              	.LLST8:
 2830 00a0 22000000 		.4byte	.LVL19
 2831 00a4 2A000000 		.4byte	.LVL21
 2832 00a8 0300     		.2byte	0x3
 2833 00aa 73       		.byte	0x73
 2834 00ab 2C       		.sleb128 44
 2835 00ac 9F       		.byte	0x9f
 2836 00ad 2A000000 		.4byte	.LVL21
 2837 00b1 2C000000 		.4byte	.LVL22
 2838 00b5 0100     		.2byte	0x1
 2839 00b7 53       		.byte	0x53
 2840 00b8 00000000 		.4byte	0
 2841 00bc 00000000 		.4byte	0
 2842              	.LLST9:
 2843 00c0 24000000 		.4byte	.LVL20
 2844 00c4 2C000000 		.4byte	.LVL22
 2845 00c8 0100     		.2byte	0x1
 2846 00ca 54       		.byte	0x54
 2847 00cb 00000000 		.4byte	0
 2848 00cf 00000000 		.4byte	0
 2849              	.LLST10:
 2850 00d3 36000000 		.4byte	.LVL23
ARM GAS  C:\cygwin64\tmp\cc3Ix7in.s 			page 51


 2851 00d7 3C000000 		.4byte	.LVL24
 2852 00db 0200     		.2byte	0x2
 2853 00dd 30       		.byte	0x30
 2854 00de 9F       		.byte	0x9f
 2855 00df 00000000 		.4byte	0
 2856 00e3 00000000 		.4byte	0
 2857              	.LLST0:
 2858 00e7 00000000 		.4byte	.LVL0
 2859 00eb 13000000 		.4byte	.LVL3-1
 2860 00ef 0100     		.2byte	0x1
 2861 00f1 50       		.byte	0x50
 2862 00f2 13000000 		.4byte	.LVL3-1
 2863 00f6 48000000 		.4byte	.LVL14
 2864 00fa 0100     		.2byte	0x1
 2865 00fc 55       		.byte	0x55
 2866 00fd 48000000 		.4byte	.LVL14
 2867 0101 4C000000 		.4byte	.LFE246
 2868 0105 0400     		.2byte	0x4
 2869 0107 F3       		.byte	0xf3
 2870 0108 01       		.uleb128 0x1
 2871 0109 50       		.byte	0x50
 2872 010a 9F       		.byte	0x9f
 2873 010b 00000000 		.4byte	0
 2874 010f 00000000 		.4byte	0
 2875              	.LLST1:
 2876 0113 00000000 		.4byte	.LVL0
 2877 0117 13000000 		.4byte	.LVL3-1
 2878 011b 0100     		.2byte	0x1
 2879 011d 51       		.byte	0x51
 2880 011e 13000000 		.4byte	.LVL3-1
 2881 0122 3A000000 		.4byte	.LVL11
 2882 0126 0100     		.2byte	0x1
 2883 0128 56       		.byte	0x56
 2884 0129 3A000000 		.4byte	.LVL11
 2885 012d 48000000 		.4byte	.LVL14
 2886 0131 0100     		.2byte	0x1
 2887 0133 54       		.byte	0x54
 2888 0134 48000000 		.4byte	.LVL14
 2889 0138 4C000000 		.4byte	.LFE246
 2890 013c 0100     		.2byte	0x1
 2891 013e 50       		.byte	0x50
 2892 013f 00000000 		.4byte	0
 2893 0143 00000000 		.4byte	0
 2894              	.LLST2:
 2895 0147 06000000 		.4byte	.LVL1
 2896 014b 3A000000 		.4byte	.LVL11
 2897 014f 0100     		.2byte	0x1
 2898 0151 54       		.byte	0x54
 2899 0152 00000000 		.4byte	0
 2900 0156 00000000 		.4byte	0
 2901              	.LLST3:
 2902 015a 06000000 		.4byte	.LVL1
 2903 015e 10000000 		.4byte	.LVL2
 2904 0162 0300     		.2byte	0x3
 2905 0164 08       		.byte	0x8
 2906 0165 20       		.byte	0x20
 2907 0166 9F       		.byte	0x9f
ARM GAS  C:\cygwin64\tmp\cc3Ix7in.s 			page 52


 2908 0167 00000000 		.4byte	0
 2909 016b 00000000 		.4byte	0
 2910              	.LLST4:
 2911 016f 16000000 		.4byte	.LVL4
 2912 0173 1A000000 		.4byte	.LVL5
 2913 0177 0300     		.2byte	0x3
 2914 0179 75       		.byte	0x75
 2915 017a 2C       		.sleb128 44
 2916 017b 9F       		.byte	0x9f
 2917 017c 1A000000 		.4byte	.LVL5
 2918 0180 1E000000 		.4byte	.LVL6
 2919 0184 0100     		.2byte	0x1
 2920 0186 53       		.byte	0x53
 2921 0187 1E000000 		.4byte	.LVL6
 2922 018b 22000000 		.4byte	.LVL7
 2923 018f 0200     		.2byte	0x2
 2924 0191 74       		.byte	0x74
 2925 0192 00       		.sleb128 0
 2926 0193 22000000 		.4byte	.LVL7
 2927 0197 28000000 		.4byte	.LVL8
 2928 019b 0300     		.2byte	0x3
 2929 019d 75       		.byte	0x75
 2930 019e 2C       		.sleb128 44
 2931 019f 9F       		.byte	0x9f
 2932 01a0 00000000 		.4byte	0
 2933 01a4 00000000 		.4byte	0
 2934              	.LLST5:
 2935 01a8 16000000 		.4byte	.LVL4
 2936 01ac 28000000 		.4byte	.LVL8
 2937 01b0 0100     		.2byte	0x1
 2938 01b2 54       		.byte	0x54
 2939 01b3 00000000 		.4byte	0
 2940 01b7 00000000 		.4byte	0
 2941              	.LLST6:
 2942 01bb 3E000000 		.4byte	.LVL12
 2943 01bf 44000000 		.4byte	.LVL13
 2944 01c3 0200     		.2byte	0x2
 2945 01c5 30       		.byte	0x30
 2946 01c6 9F       		.byte	0x9f
 2947 01c7 00000000 		.4byte	0
 2948 01cb 00000000 		.4byte	0
 2949              		.section	.debug_aranges,"",%progbits
 2950 0000 2C000000 		.4byte	0x2c
 2951 0004 0200     		.2byte	0x2
 2952 0006 00000000 		.4byte	.Ldebug_info0
 2953 000a 04       		.byte	0x4
 2954 000b 00       		.byte	0
 2955 000c 0000     		.2byte	0
 2956 000e 0000     		.2byte	0
 2957 0010 00000000 		.4byte	.LFB246
 2958 0014 4C000000 		.4byte	.LFE246-.LFB246
 2959 0018 00000000 		.4byte	.LFB247
 2960 001c 44000000 		.4byte	.LFE247-.LFB247
 2961 0020 00000000 		.4byte	.LFB248
 2962 0024 24000000 		.4byte	.LFE248-.LFB248
 2963 0028 00000000 		.4byte	0
 2964 002c 00000000 		.4byte	0
ARM GAS  C:\cygwin64\tmp\cc3Ix7in.s 			page 53


 2965              		.section	.debug_ranges,"",%progbits
 2966              	.Ldebug_ranges0:
 2967 0000 1A000000 		.4byte	.LBB39
 2968 0004 22000000 		.4byte	.LBE39
 2969 0008 26000000 		.4byte	.LBB42
 2970 000c 28000000 		.4byte	.LBE42
 2971 0010 00000000 		.4byte	0
 2972 0014 00000000 		.4byte	0
 2973 0018 02000000 		.4byte	.LBB62
 2974 001c 08000000 		.4byte	.LBE62
 2975 0020 0A000000 		.4byte	.LBB68
 2976 0024 0E000000 		.4byte	.LBE68
 2977 0028 00000000 		.4byte	0
 2978 002c 00000000 		.4byte	0
 2979 0030 00000000 		.4byte	.LFB246
 2980 0034 4C000000 		.4byte	.LFE246
 2981 0038 00000000 		.4byte	.LFB247
 2982 003c 44000000 		.4byte	.LFE247
 2983 0040 00000000 		.4byte	.LFB248
 2984 0044 24000000 		.4byte	.LFE248
 2985 0048 00000000 		.4byte	0
 2986 004c 00000000 		.4byte	0
 2987              		.section	.debug_line,"",%progbits
 2988              	.Ldebug_line0:
 2989 0000 B4030000 		.section	.debug_str,"MS",%progbits,1
 2989      0200D502 
 2989      00000201 
 2989      FB0E0D00 
 2989      01010101 
 2990              	.LASF150:
 2991 0000 433A5C63 		.ascii	"C:\\cygwin64\\home\\calfan\\ardupilot\\build\\fmuv3"
 2991      79677769 
 2991      6E36345C 
 2991      686F6D65 
 2991      5C63616C 
 2992 002d 00       		.ascii	"\000"
 2993              	.LASF56:
 2994 002e 72656164 		.ascii	"ready_list_t\000"
 2994      795F6C69 
 2994      73745F74 
 2994      00
 2995              	.LASF137:
 2996 003b 71756575 		.ascii	"queue_insert\000"
 2996      655F696E 
 2996      73657274 
 2996      00
 2997              	.LASF98:
 2998 0048 77747472 		.ascii	"wttrp\000"
 2998      7000
 2999              	.LASF62:
 3000 004e 64656C74 		.ascii	"delta\000"
 3000      6100
 3001              	.LASF95:
 3002 0054 7264796D 		.ascii	"rdymsg\000"
 3002      736700
 3003              	.LASF19:
 3004 005b 75696E74 		.ascii	"uint64_t\000"
ARM GAS  C:\cygwin64\tmp\cc3Ix7in.s 			page 54


 3004      36345F74 
 3004      00
 3005              	.LASF75:
 3006 0064 6B65726E 		.ascii	"kernel_stats\000"
 3006      656C5F73 
 3006      74617473 
 3006      00
 3007              	.LASF6:
 3008 0071 5F5F7569 		.ascii	"__uint8_t\000"
 3008      6E74385F 
 3008      7400
 3009              	.LASF55:
 3010 007b 70726576 		.ascii	"prev\000"
 3010      00
 3011              	.LASF82:
 3012 0080 706F7274 		.ascii	"port_intctx\000"
 3012      5F696E74 
 3012      63747800 
 3013              	.LASF54:
 3014 008c 63685F74 		.ascii	"ch_threads_queue\000"
 3014      68726561 
 3014      64735F71 
 3014      75657565 
 3014      00
 3015              	.LASF67:
 3016 009d 73797374 		.ascii	"system_debug_t\000"
 3016      656D5F64 
 3016      65627567 
 3016      5F7400
 3017              	.LASF140:
 3018 00ac 706F7274 		.ascii	"port_lock\000"
 3018      5F6C6F63 
 3018      6B00
 3019              	.LASF86:
 3020 00b6 776F7273 		.ascii	"worst\000"
 3020      7400
 3021              	.LASF89:
 3022 00bc 74696D65 		.ascii	"time_measurement_t\000"
 3022      5F6D6561 
 3022      73757265 
 3022      6D656E74 
 3022      5F7400
 3023              	.LASF14:
 3024 00cf 6C6F6E67 		.ascii	"long long unsigned int\000"
 3024      206C6F6E 
 3024      6720756E 
 3024      7369676E 
 3024      65642069 
 3025              	.LASF96:
 3026 00e6 65786974 		.ascii	"exitcode\000"
 3026      636F6465 
 3026      00
 3027              	.LASF74:
 3028 00ef 6D61696E 		.ascii	"mainthread\000"
 3028      74687265 
 3028      616400
 3029              	.LASF99:
ARM GAS  C:\cygwin64\tmp\cc3Ix7in.s 			page 55


 3030 00fa 73656E74 		.ascii	"sentmsg\000"
 3030      6D736700 
 3031              	.LASF64:
 3032 0102 76697274 		.ascii	"virtual_timers_list_t\000"
 3032      75616C5F 
 3032      74696D65 
 3032      72735F6C 
 3032      6973745F 
 3033              	.LASF77:
 3034 0118 49544D5F 		.ascii	"ITM_RxBuffer\000"
 3034      52784275 
 3034      66666572 
 3034      00
 3035              	.LASF52:
 3036 0125 6E657874 		.ascii	"next\000"
 3036      00
 3037              	.LASF21:
 3038 012a 72747469 		.ascii	"rttime_t\000"
 3038      6D655F74 
 3038      00
 3039              	.LASF1:
 3040 0133 6C6F6E67 		.ascii	"long long int\000"
 3040      206C6F6E 
 3040      6720696E 
 3040      7400
 3041              	.LASF3:
 3042 0141 7369676E 		.ascii	"signed char\000"
 3042      65642063 
 3042      68617200 
 3043              	.LASF110:
 3044 014d 73697A65 		.ascii	"size\000"
 3044      00
 3045              	.LASF148:
 3046 0152 474E5520 		.ascii	"GNU C11 6.3.1 20170620 (release) [ARM/embedded-6-br"
 3046      43313120 
 3046      362E332E 
 3046      31203230 
 3046      31373036 
 3047 0185 616E6368 		.ascii	"anch revision 249437] -mcpu=cortex-m4 -mfloat-abi=h"
 3047      20726576 
 3047      6973696F 
 3047      6E203234 
 3047      39343337 
 3048 01b8 61726420 		.ascii	"ard -mfpu=fpv4-sp-d16 -mno-thumb-interwork -mthumb "
 3048      2D6D6670 
 3048      753D6670 
 3048      76342D73 
 3048      702D6431 
 3049 01eb 2D67202D 		.ascii	"-g -Os -fomit-frame-pointer -falign-functions=16 -f"
 3049      4F73202D 
 3049      666F6D69 
 3049      742D6672 
 3049      616D652D 
 3050 021e 66756E63 		.ascii	"function-sections -fdata-sections -fno-common -fsin"
 3050      74696F6E 
 3050      2D736563 
 3050      74696F6E 
ARM GAS  C:\cygwin64\tmp\cc3Ix7in.s 			page 56


 3050      73202D66 
 3051 0251 676C652D 		.ascii	"gle-precision-constant\000"
 3051      70726563 
 3051      6973696F 
 3051      6E2D636F 
 3051      6E737461 
 3052              	.LASF73:
 3053 0268 76746C69 		.ascii	"vtlist\000"
 3053      737400
 3054              	.LASF139:
 3055 026f 706F7274 		.ascii	"port_unlock\000"
 3055      5F756E6C 
 3055      6F636B00 
 3056              	.LASF42:
 3057 027b 6D736771 		.ascii	"msgqueue\000"
 3057      75657565 
 3057      00
 3058              	.LASF38:
 3059 0284 73746174 		.ascii	"state\000"
 3059      6500
 3060              	.LASF10:
 3061 028a 6C6F6E67 		.ascii	"long int\000"
 3061      20696E74 
 3061      00
 3062              	.LASF131:
 3063 0293 63684D73 		.ascii	"chMsgSend\000"
 3063      6753656E 
 3063      6400
 3064              	.LASF23:
 3065 029d 74737461 		.ascii	"tstate_t\000"
 3065      74655F74 
 3065      00
 3066              	.LASF63:
 3067 02a6 66756E63 		.ascii	"func\000"
 3067      00
 3068              	.LASF47:
 3069 02ab 73746174 		.ascii	"stats\000"
 3069      7300
 3070              	.LASF126:
 3071 02b1 63686465 		.ascii	"chdebug_t\000"
 3071      6275675F 
 3071      7400
 3072              	.LASF124:
 3073 02bb 6F66665F 		.ascii	"off_preempt\000"
 3073      70726565 
 3073      6D707400 
 3074              	.LASF11:
 3075 02c7 5F5F7569 		.ascii	"__uint32_t\000"
 3075      6E743332 
 3075      5F7400
 3076              	.LASF79:
 3077 02d2 72656761 		.ascii	"regarm_t\000"
 3077      726D5F74 
 3077      00
 3078              	.LASF68:
 3079 02db 63685F73 		.ascii	"ch_system_debug\000"
 3079      79737465 
ARM GAS  C:\cygwin64\tmp\cc3Ix7in.s 			page 57


 3079      6D5F6465 
 3079      62756700 
 3080              	.LASF41:
 3081 02eb 77616974 		.ascii	"waiting\000"
 3081      696E6700 
 3082              	.LASF109:
 3083 02f3 7A65726F 		.ascii	"zero\000"
 3083      00
 3084              	.LASF128:
 3085 02f8 6D757465 		.ascii	"mutex_t\000"
 3085      785F7400 
 3086              	.LASF142:
 3087 0300 76616C75 		.ascii	"value\000"
 3087      6500
 3088              	.LASF28:
 3089 0306 636E745F 		.ascii	"cnt_t\000"
 3089      7400
 3090              	.LASF0:
 3091 030c 756E7369 		.ascii	"unsigned int\000"
 3091      676E6564 
 3091      20696E74 
 3091      00
 3092              	.LASF16:
 3093 0319 75696E74 		.ascii	"uint16_t\000"
 3093      31365F74 
 3093      00
 3094              	.LASF78:
 3095 0322 53797374 		.ascii	"SystemCoreClock\000"
 3095      656D436F 
 3095      7265436C 
 3095      6F636B00 
 3096              	.LASF100:
 3097 0332 77747365 		.ascii	"wtsemp\000"
 3097      6D7000
 3098              	.LASF127:
 3099 0339 63685F64 		.ascii	"ch_debug\000"
 3099      65627567 
 3099      00
 3100              	.LASF90:
 3101 0342 6E5F6972 		.ascii	"n_irq\000"
 3101      7100
 3102              	.LASF32:
 3103 0348 71756575 		.ascii	"queue\000"
 3103      6500
 3104              	.LASF46:
 3105 034e 6D706F6F 		.ascii	"mpool\000"
 3105      6C00
 3106              	.LASF123:
 3107 0354 6F66665F 		.ascii	"off_refs\000"
 3107      72656673 
 3107      00
 3108              	.LASF94:
 3109 035d 6B65726E 		.ascii	"kernel_stats_t\000"
 3109      656C5F73 
 3109      74617473 
 3109      5F7400
 3110              	.LASF50:
ARM GAS  C:\cygwin64\tmp\cc3Ix7in.s 			page 58


 3111 036c 63685F74 		.ascii	"ch_thread\000"
 3111      68726561 
 3111      6400
 3112              	.LASF36:
 3113 0376 6E616D65 		.ascii	"name\000"
 3113      00
 3114              	.LASF26:
 3115 037b 6D73675F 		.ascii	"msg_t\000"
 3115      7400
 3116              	.LASF87:
 3117 0381 6C617374 		.ascii	"last\000"
 3117      00
 3118              	.LASF29:
 3119 0386 75636E74 		.ascii	"ucnt_t\000"
 3119      5F7400
 3120              	.LASF43:
 3121 038d 6570656E 		.ascii	"epending\000"
 3121      64696E67 
 3121      00
 3122              	.LASF70:
 3123 0396 63685F73 		.ascii	"ch_system_t\000"
 3123      79737465 
 3123      6D5F7400 
 3124              	.LASF116:
 3125 03a2 6F66665F 		.ascii	"off_ctx\000"
 3125      63747800 
 3126              	.LASF22:
 3127 03aa 746D6F64 		.ascii	"tmode_t\000"
 3127      655F7400 
 3128              	.LASF93:
 3129 03b2 6D5F6372 		.ascii	"m_crit_isr\000"
 3129      69745F69 
 3129      737200
 3130              	.LASF57:
 3131 03bd 63685F72 		.ascii	"ch_ready_list\000"
 3131      65616479 
 3131      5F6C6973 
 3131      7400
 3132              	.LASF27:
 3133 03cb 6576656E 		.ascii	"eventmask_t\000"
 3133      746D6173 
 3133      6B5F7400 
 3134              	.LASF119:
 3135 03d7 6F66665F 		.ascii	"off_name\000"
 3135      6E616D65 
 3135      00
 3136              	.LASF9:
 3137 03e0 5F5F696E 		.ascii	"__int32_t\000"
 3137      7433325F 
 3137      7400
 3138              	.LASF80:
 3139 03ea 73746B61 		.ascii	"stkalign_t\000"
 3139      6C69676E 
 3139      5F7400
 3140              	.LASF34:
 3141 03f5 6E657765 		.ascii	"newer\000"
 3141      7200
ARM GAS  C:\cygwin64\tmp\cc3Ix7in.s 			page 59


 3142              	.LASF45:
 3143 03fb 7265616C 		.ascii	"realprio\000"
 3143      7072696F 
 3143      00
 3144              	.LASF111:
 3145 0404 76657273 		.ascii	"version\000"
 3145      696F6E00 
 3146              	.LASF145:
 3147 040c 5F737461 		.ascii	"_stats_stop_measure_crit_thd\000"
 3147      74735F73 
 3147      746F705F 
 3147      6D656173 
 3147      7572655F 
 3148              	.LASF76:
 3149 0429 73697A65 		.ascii	"sizetype\000"
 3149      74797065 
 3149      00
 3150              	.LASF48:
 3151 0432 74687265 		.ascii	"thread_reference_t\000"
 3151      61645F72 
 3151      65666572 
 3151      656E6365 
 3151      5F7400
 3152              	.LASF65:
 3153 0445 63685F76 		.ascii	"ch_virtual_timers_list\000"
 3153      69727475 
 3153      616C5F74 
 3153      696D6572 
 3153      735F6C69 
 3154              	.LASF2:
 3155 045c 6C6F6E67 		.ascii	"long double\000"
 3155      20646F75 
 3155      626C6500 
 3156              	.LASF117:
 3157 0468 6F66665F 		.ascii	"off_newer\000"
 3157      6E657765 
 3157      7200
 3158              	.LASF81:
 3159 0472 706F7274 		.ascii	"port_context\000"
 3159      5F636F6E 
 3159      74657874 
 3159      00
 3160              	.LASF84:
 3161 047f 746D5F63 		.ascii	"tm_calibration_t\000"
 3161      616C6962 
 3161      72617469 
 3161      6F6E5F74 
 3161      00
 3162              	.LASF33:
 3163 0490 7072696F 		.ascii	"prio\000"
 3163      00
 3164              	.LASF58:
 3165 0495 63757272 		.ascii	"current\000"
 3165      656E7400 
 3166              	.LASF13:
 3167 049d 5F5F7569 		.ascii	"__uint64_t\000"
 3167      6E743634 
ARM GAS  C:\cygwin64\tmp\cc3Ix7in.s 			page 60


 3167      5F7400
 3168              	.LASF88:
 3169 04a8 63756D75 		.ascii	"cumulative\000"
 3169      6C617469 
 3169      766500
 3170              	.LASF24:
 3171 04b3 74726566 		.ascii	"trefs_t\000"
 3171      735F7400 
 3172              	.LASF114:
 3173 04bb 74687265 		.ascii	"threadsize\000"
 3173      61647369 
 3173      7A6500
 3174              	.LASF40:
 3175 04c6 72656673 		.ascii	"refs\000"
 3175      00
 3176              	.LASF60:
 3177 04cb 76697274 		.ascii	"virtual_timer_t\000"
 3177      75616C5F 
 3177      74696D65 
 3177      725F7400 
 3178              	.LASF25:
 3179 04db 74707269 		.ascii	"tprio_t\000"
 3179      6F5F7400 
 3180              	.LASF146:
 3181 04e3 63685363 		.ascii	"chSchGoSleepS\000"
 3181      68476F53 
 3181      6C656570 
 3181      5300
 3182              	.LASF91:
 3183 04f1 6E5F6374 		.ascii	"n_ctxswc\000"
 3183      78737763 
 3183      00
 3184              	.LASF129:
 3185 04fa 5F426F6F 		.ascii	"_Bool\000"
 3185      6C00
 3186              	.LASF17:
 3187 0500 696E7433 		.ascii	"int32_t\000"
 3187      325F7400 
 3188              	.LASF4:
 3189 0508 756E7369 		.ascii	"unsigned char\000"
 3189      676E6564 
 3189      20636861 
 3189      7200
 3190              	.LASF115:
 3191 0516 6F66665F 		.ascii	"off_prio\000"
 3191      7072696F 
 3191      00
 3192              	.LASF120:
 3193 051f 6F66665F 		.ascii	"off_stklimit\000"
 3193      73746B6C 
 3193      696D6974 
 3193      00
 3194              	.LASF5:
 3195 052c 73686F72 		.ascii	"short int\000"
 3195      7420696E 
 3195      7400
 3196              	.LASF66:
ARM GAS  C:\cygwin64\tmp\cc3Ix7in.s 			page 61


 3197 0536 6C617374 		.ascii	"lasttime\000"
 3197      74696D65 
 3197      00
 3198              	.LASF102:
 3199 053f 65776D61 		.ascii	"ewmask\000"
 3199      736B00
 3200              	.LASF71:
 3201 0546 63685F73 		.ascii	"ch_system\000"
 3201      79737465 
 3201      6D00
 3202              	.LASF132:
 3203 0550 5F5F6675 		.ascii	"__func__\000"
 3203      6E635F5F 
 3203      00
 3204              	.LASF138:
 3205 0559 63685379 		.ascii	"chSysLock\000"
 3205      734C6F63 
 3205      6B00
 3206              	.LASF61:
 3207 0563 63685F76 		.ascii	"ch_virtual_timer\000"
 3207      69727475 
 3207      616C5F74 
 3207      696D6572 
 3207      00
 3208              	.LASF151:
 3209 0574 63684D73 		.ascii	"chMsgRelease\000"
 3209      6752656C 
 3209      65617365 
 3209      00
 3210              	.LASF103:
 3211 0581 63685F73 		.ascii	"ch_semaphore\000"
 3211      656D6170 
 3211      686F7265 
 3211      00
 3212              	.LASF125:
 3213 058e 6F66665F 		.ascii	"off_time\000"
 3213      74696D65 
 3213      00
 3214              	.LASF107:
 3215 0597 63685F69 		.ascii	"ch_idle_thread_wa\000"
 3215      646C655F 
 3215      74687265 
 3215      61645F77 
 3215      6100
 3216              	.LASF113:
 3217 05a9 74696D65 		.ascii	"timesize\000"
 3217      73697A65 
 3217      00
 3218              	.LASF18:
 3219 05b2 75696E74 		.ascii	"uint32_t\000"
 3219      33325F74 
 3219      00
 3220              	.LASF101:
 3221 05bb 77746D74 		.ascii	"wtmtxp\000"
 3221      787000
 3222              	.LASF147:
 3223 05c2 63685363 		.ascii	"chSchReadyI\000"
ARM GAS  C:\cygwin64\tmp\cc3Ix7in.s 			page 62


 3223      68526561 
 3223      64794900 
 3224              	.LASF51:
 3225 05ce 63685F74 		.ascii	"ch_threads_list\000"
 3225      68726561 
 3225      64735F6C 
 3225      69737400 
 3226              	.LASF105:
 3227 05de 6F776E65 		.ascii	"owner\000"
 3227      7200
 3228              	.LASF12:
 3229 05e4 6C6F6E67 		.ascii	"long unsigned int\000"
 3229      20756E73 
 3229      69676E65 
 3229      6420696E 
 3229      7400
 3230              	.LASF37:
 3231 05f6 77616261 		.ascii	"wabase\000"
 3231      736500
 3232              	.LASF106:
 3233 05fd 63686172 		.ascii	"char\000"
 3233      00
 3234              	.LASF35:
 3235 0602 6F6C6465 		.ascii	"older\000"
 3235      7200
 3236              	.LASF7:
 3237 0608 5F5F7569 		.ascii	"__uint16_t\000"
 3237      6E743136 
 3237      5F7400
 3238              	.LASF31:
 3239 0613 74687265 		.ascii	"thread_t\000"
 3239      61645F74 
 3239      00
 3240              	.LASF85:
 3241 061c 62657374 		.ascii	"best\000"
 3241      00
 3242              	.LASF136:
 3243 0621 71756575 		.ascii	"queue_fifo_remove\000"
 3243      655F6669 
 3243      666F5F72 
 3243      656D6F76 
 3243      6500
 3244              	.LASF30:
 3245 0633 73797374 		.ascii	"systime_t\000"
 3245      696D655F 
 3245      7400
 3246              	.LASF59:
 3247 063d 76746675 		.ascii	"vtfunc_t\000"
 3247      6E635F74 
 3247      00
 3248              	.LASF135:
 3249 0646 63684D73 		.ascii	"chMsgIsPendingI\000"
 3249      67497350 
 3249      656E6469 
 3249      6E674900 
 3250              	.LASF141:
 3251 0656 5F5F7365 		.ascii	"__set_BASEPRI\000"
ARM GAS  C:\cygwin64\tmp\cc3Ix7in.s 			page 63


 3251      745F4241 
 3251      53455052 
 3251      4900
 3252              	.LASF69:
 3253 0664 70616E69 		.ascii	"panic_msg\000"
 3253      635F6D73 
 3253      6700
 3254              	.LASF83:
 3255 066e 6F666673 		.ascii	"offset\000"
 3255      657400
 3256              	.LASF118:
 3257 0675 6F66665F 		.ascii	"off_older\000"
 3257      6F6C6465 
 3257      7200
 3258              	.LASF8:
 3259 067f 73686F72 		.ascii	"short unsigned int\000"
 3259      7420756E 
 3259      7369676E 
 3259      65642069 
 3259      6E7400
 3260              	.LASF149:
 3261 0692 2E2E2F2E 		.ascii	"../../modules/ChibiOS/os/rt/src/chmsg.c\000"
 3261      2E2F6D6F 
 3261      64756C65 
 3261      732F4368 
 3261      6962694F 
 3262              	.LASF108:
 3263 06ba 6964656E 		.ascii	"identifier\000"
 3263      74696669 
 3263      657200
 3264              	.LASF20:
 3265 06c5 7274636E 		.ascii	"rtcnt_t\000"
 3265      745F7400 
 3266              	.LASF144:
 3267 06cd 63685363 		.ascii	"chSchWakeupS\000"
 3267      6857616B 
 3267      65757053 
 3267      00
 3268              	.LASF130:
 3269 06da 63684D73 		.ascii	"chMsgWait\000"
 3269      67576169 
 3269      7400
 3270              	.LASF112:
 3271 06e4 70747273 		.ascii	"ptrsize\000"
 3271      697A6500 
 3272              	.LASF53:
 3273 06ec 74687265 		.ascii	"threads_queue_t\000"
 3273      6164735F 
 3273      71756575 
 3273      655F7400 
 3274              	.LASF104:
 3275 06fc 63685F6D 		.ascii	"ch_mutex\000"
 3275      75746578 
 3275      00
 3276              	.LASF72:
 3277 0705 726C6973 		.ascii	"rlist\000"
 3277      7400
ARM GAS  C:\cygwin64\tmp\cc3Ix7in.s 			page 64


 3278              	.LASF15:
 3279 070b 75696E74 		.ascii	"uint8_t\000"
 3279      385F7400 
 3280              	.LASF39:
 3281 0713 666C6167 		.ascii	"flags\000"
 3281      7300
 3282              	.LASF143:
 3283 0719 5F737461 		.ascii	"_stats_start_measure_crit_thd\000"
 3283      74735F73 
 3283      74617274 
 3283      5F6D6561 
 3283      73757265 
 3284              	.LASF97:
 3285 0737 77746F62 		.ascii	"wtobjp\000"
 3285      6A7000
 3286              	.LASF49:
 3287 073e 74687265 		.ascii	"threads_list_t\000"
 3287      6164735F 
 3287      6C697374 
 3287      5F7400
 3288              	.LASF121:
 3289 074d 6F66665F 		.ascii	"off_state\000"
 3289      73746174 
 3289      6500
 3290              	.LASF134:
 3291 0757 63685379 		.ascii	"chSysUnlock\000"
 3291      73556E6C 
 3291      6F636B00 
 3292              	.LASF133:
 3293 0763 63684D73 		.ascii	"chMsgReleaseS\000"
 3293      6752656C 
 3293      65617365 
 3293      5300
 3294              	.LASF122:
 3295 0771 6F66665F 		.ascii	"off_flags\000"
 3295      666C6167 
 3295      7300
 3296              	.LASF44:
 3297 077b 6D74786C 		.ascii	"mtxlist\000"
 3297      69737400 
 3298              	.LASF92:
 3299 0783 6D5F6372 		.ascii	"m_crit_thd\000"
 3299      69745F74 
 3299      686400
 3300              		.ident	"GCC: (GNU Tools for ARM Embedded Processors 6-2017-q2-update) 6.3.1 20170620 (release) [AR
ARM GAS  C:\cygwin64\tmp\cc3Ix7in.s 			page 65


DEFINED SYMBOLS
                            *ABS*:00000000 chmsg.c
C:\cygwin64\tmp\cc3Ix7in.s:18     .text.chMsgSend:00000000 $t
C:\cygwin64\tmp\cc3Ix7in.s:25     .text.chMsgSend:00000000 chMsgSend
C:\cygwin64\tmp\cc3Ix7in.s:145    .text.chMsgSend:00000048 $d
C:\cygwin64\tmp\cc3Ix7in.s:150    .text.chMsgWait:00000000 $t
C:\cygwin64\tmp\cc3Ix7in.s:157    .text.chMsgWait:00000000 chMsgWait
C:\cygwin64\tmp\cc3Ix7in.s:262    .text.chMsgWait:00000040 $d
C:\cygwin64\tmp\cc3Ix7in.s:267    .text.chMsgRelease:00000000 $t
C:\cygwin64\tmp\cc3Ix7in.s:274    .text.chMsgRelease:00000000 chMsgRelease
                     .debug_frame:00000010 $d

UNDEFINED SYMBOLS
_stats_start_measure_crit_thd
chSchReadyI
chSchGoSleepS
_stats_stop_measure_crit_thd
ch
chSchWakeupS
