ARM GAS  C:\cygwin64\tmp\ccBzSRMP.s 			page 1


   1              		.cpu cortex-m4
   2              		.eabi_attribute 27, 1
   3              		.eabi_attribute 28, 1
   4              		.eabi_attribute 20, 1
   5              		.eabi_attribute 21, 1
   6              		.eabi_attribute 23, 3
   7              		.eabi_attribute 24, 1
   8              		.eabi_attribute 25, 1
   9              		.eabi_attribute 26, 1
  10              		.eabi_attribute 30, 4
  11              		.eabi_attribute 34, 1
  12              		.eabi_attribute 18, 4
  13              		.file	"chmtx.c"
  14              		.text
  15              	.Ltext0:
  16              		.cfi_sections	.debug_frame
  17              		.section	.text.queue_prio_insert,"ax",%progbits
  18              		.align	1
  19              		.syntax unified
  20              		.thumb
  21              		.thumb_func
  22              		.fpu fpv4-sp-d16
  23              		.type	queue_prio_insert, %function
  24              	queue_prio_insert:
  25              	.LFB155:
  26              		.file 1 "../../modules/ChibiOS/os/rt/include/chschd.h"
  27              		.loc 1 597 0
  28              		.cfi_startproc
  29              		@ args = 0, pretend = 0, frame = 0
  30              		@ frame_needed = 0, uses_anonymous_args = 0
  31              	.LVL0:
  32 0000 10B5     		push	{r4, lr}
  33              		.cfi_def_cfa_offset 8
  34              		.cfi_offset 4, -8
  35              		.cfi_offset 14, -4
  36              		.loc 1 597 0
  37 0002 0B46     		mov	r3, r1
  38              	.LVL1:
  39              	.L3:
  40              		.loc 1 601 0 discriminator 2
  41 0004 1B68     		ldr	r3, [r3]
  42              	.LVL2:
  43              		.loc 1 602 0 discriminator 2
  44 0006 9942     		cmp	r1, r3
  45 0008 05D1     		bne	.L2
  46              	.L4:
  47              		.loc 1 604 0
  48 000a 5A68     		ldr	r2, [r3, #4]
  49              		.loc 1 603 0
  50 000c 0360     		str	r3, [r0]
  51              		.loc 1 604 0
  52 000e 4260     		str	r2, [r0, #4]
  53              		.loc 1 605 0
  54 0010 1060     		str	r0, [r2]
  55              		.loc 1 606 0
  56 0012 5860     		str	r0, [r3, #4]
  57              		.loc 1 607 0
ARM GAS  C:\cygwin64\tmp\ccBzSRMP.s 			page 2


  58 0014 10BD     		pop	{r4, pc}
  59              	.L2:
  60              		.loc 1 602 0 discriminator 1
  61 0016 9C68     		ldr	r4, [r3, #8]
  62 0018 8268     		ldr	r2, [r0, #8]
  63 001a 9442     		cmp	r4, r2
  64 001c F2D2     		bcs	.L3
  65 001e F4E7     		b	.L4
  66              		.cfi_endproc
  67              	.LFE155:
  68              		.size	queue_prio_insert, .-queue_prio_insert
  69              		.section	.text.chMtxObjectInit,"ax",%progbits
  70              		.align	1
  71              		.global	chMtxObjectInit
  72              		.syntax unified
  73              		.thumb
  74              		.thumb_func
  75              		.fpu fpv4-sp-d16
  76              		.type	chMtxObjectInit, %function
  77              	chMtxObjectInit:
  78              	.LFB246:
  79              		.file 2 "../../modules/ChibiOS/os/rt/src/chmtx.c"
  80              		.loc 2 103 0
  81              		.cfi_startproc
  82              		@ args = 0, pretend = 0, frame = 0
  83              		@ frame_needed = 0, uses_anonymous_args = 0
  84              		@ link register save eliminated.
  85              	.LVL3:
  86              		.loc 2 108 0
  87 0000 0023     		movs	r3, #0
  88              	.LBB56:
  89              	.LBB57:
  90              		.loc 1 550 0
  91 0002 0060     		str	r0, [r0]
  92              		.loc 1 551 0
  93 0004 4060     		str	r0, [r0, #4]
  94              	.LVL4:
  95              	.LBE57:
  96              	.LBE56:
  97              		.loc 2 108 0
  98 0006 8360     		str	r3, [r0, #8]
  99 0008 7047     		bx	lr
 100              		.cfi_endproc
 101              	.LFE246:
 102              		.size	chMtxObjectInit, .-chMtxObjectInit
 103              		.section	.text.chMtxLockS,"ax",%progbits
 104              		.align	1
 105              		.global	chMtxLockS
 106              		.syntax unified
 107              		.thumb
 108              		.thumb_func
 109              		.fpu fpv4-sp-d16
 110              		.type	chMtxLockS, %function
 111              	chMtxLockS:
 112              	.LFB248:
 113              		.loc 2 139 0
 114              		.cfi_startproc
ARM GAS  C:\cygwin64\tmp\ccBzSRMP.s 			page 3


 115              		@ args = 0, pretend = 0, frame = 0
 116              		@ frame_needed = 0, uses_anonymous_args = 0
 117              	.LVL5:
 118 0000 70B5     		push	{r4, r5, r6, lr}
 119              		.cfi_def_cfa_offset 16
 120              		.cfi_offset 4, -16
 121              		.cfi_offset 5, -12
 122              		.cfi_offset 6, -8
 123              		.cfi_offset 14, -4
 124              		.loc 2 140 0
 125 0002 1E4B     		ldr	r3, .L16
 126              		.loc 2 146 0
 127 0004 8468     		ldr	r4, [r0, #8]
 128              		.loc 2 140 0
 129 0006 9D69     		ldr	r5, [r3, #24]
 130              	.LVL6:
 131              		.loc 2 139 0
 132 0008 0646     		mov	r6, r0
 133              		.loc 2 146 0
 134 000a 7CB9     		cbnz	r4, .L10
 135              		.loc 2 233 0
 136 000c AB6B     		ldr	r3, [r5, #56]
 137              		.loc 2 232 0
 138 000e 8560     		str	r5, [r0, #8]
 139              		.loc 2 233 0
 140 0010 C360     		str	r3, [r0, #12]
 141              		.loc 2 234 0
 142 0012 A863     		str	r0, [r5, #56]
 143 0014 70BD     		pop	{r4, r5, r6, pc}
 144              	.LVL7:
 145              	.L12:
 146              	.LBB65:
 147              	.LBB66:
 148              	.LBB67:
 149              		.loc 1 637 0
 150 0016 94E80C00 		ldm	r4, {r2, r3}
 151 001a 1A60     		str	r2, [r3]
 152              		.loc 1 638 0
 153 001c 2268     		ldr	r2, [r4]
 154 001e 5360     		str	r3, [r2, #4]
 155              	.LVL8:
 156              	.LBE67:
 157              	.LBE66:
 158              		.loc 2 173 0
 159 0020 616A     		ldr	r1, [r4, #36]
 160 0022 2046     		mov	r0, r4
 161 0024 FFF7FEFF 		bl	queue_prio_insert
 162              	.LVL9:
 163              		.loc 2 174 0
 164 0028 636A     		ldr	r3, [r4, #36]
 165 002a 9C68     		ldr	r4, [r3, #8]
 166              	.LVL10:
 167              	.L10:
 168              		.loc 2 165 0
 169 002c AB68     		ldr	r3, [r5, #8]
 170 002e A268     		ldr	r2, [r4, #8]
 171 0030 9A42     		cmp	r2, r3
ARM GAS  C:\cygwin64\tmp\ccBzSRMP.s 			page 4


 172 0032 19D2     		bcs	.L11
 173              		.loc 2 167 0
 174 0034 A360     		str	r3, [r4, #8]
 175              		.loc 2 170 0
 176 0036 94F82030 		ldrb	r3, [r4, #32]	@ zero_extendqisi2
 177 003a 062B     		cmp	r3, #6
 178 003c EBD0     		beq	.L12
 179 003e 072B     		cmp	r3, #7
 180 0040 09D0     		beq	.L13
 181 0042 8BB9     		cbnz	r3, .L11
 182              	.LVL11:
 183              	.LBB68:
 184              	.LBB69:
 185              		.loc 1 637 0
 186 0044 94E80C00 		ldm	r4, {r2, r3}
 187 0048 1A60     		str	r2, [r3]
 188              		.loc 1 638 0
 189 004a 2268     		ldr	r2, [r4]
 190              	.LBE69:
 191              	.LBE68:
 192              		.loc 2 202 0
 193 004c 2046     		mov	r0, r4
 194              	.LBB71:
 195              	.LBB70:
 196              		.loc 1 638 0
 197 004e 5360     		str	r3, [r2, #4]
 198              	.LVL12:
 199              	.LBE70:
 200              	.LBE71:
 201              		.loc 2 202 0
 202 0050 FFF7FEFF 		bl	chSchReadyI
 203              	.LVL13:
 204              		.loc 2 203 0
 205 0054 08E0     		b	.L11
 206              	.L13:
 207              	.LVL14:
 208              	.LBB72:
 209              	.LBB73:
 210              		.loc 1 637 0
 211 0056 94E80C00 		ldm	r4, {r2, r3}
 212 005a 1A60     		str	r2, [r3]
 213              		.loc 1 638 0
 214 005c 2268     		ldr	r2, [r4]
 215 005e 5360     		str	r3, [r2, #4]
 216              	.LVL15:
 217              	.LBE73:
 218              	.LBE72:
 219              		.loc 2 193 0
 220 0060 616A     		ldr	r1, [r4, #36]
 221 0062 2046     		mov	r0, r4
 222 0064 FFF7FEFF 		bl	queue_prio_insert
 223              	.LVL16:
 224              	.L11:
 225              		.loc 2 212 0
 226 0068 2846     		mov	r0, r5
 227 006a 3146     		mov	r1, r6
 228 006c FFF7FEFF 		bl	queue_prio_insert
ARM GAS  C:\cygwin64\tmp\ccBzSRMP.s 			page 5


 229              	.LVL17:
 230              		.loc 2 213 0
 231 0070 6E62     		str	r6, [r5, #36]
 232              		.loc 2 214 0
 233 0072 0620     		movs	r0, #6
 234              	.LBE65:
 235              		.loc 2 236 0
 236 0074 BDE87040 		pop	{r4, r5, r6, lr}
 237              		.cfi_restore 14
 238              		.cfi_restore 6
 239              		.cfi_restore 5
 240              		.cfi_restore 4
 241              		.cfi_def_cfa_offset 0
 242              	.LVL18:
 243              	.LBB74:
 244              		.loc 2 214 0
 245 0078 FFF7FEBF 		b	chSchGoSleepS
 246              	.LVL19:
 247              	.L17:
 248              		.align	2
 249              	.L16:
 250 007c 00000000 		.word	ch
 251              	.LBE74:
 252              		.cfi_endproc
 253              	.LFE248:
 254              		.size	chMtxLockS, .-chMtxLockS
 255              		.section	.text.chMtxLock,"ax",%progbits
 256              		.align	1
 257              		.global	chMtxLock
 258              		.syntax unified
 259              		.thumb
 260              		.thumb_func
 261              		.fpu fpv4-sp-d16
 262              		.type	chMtxLock, %function
 263              	chMtxLock:
 264              	.LFB247:
 265              		.loc 2 123 0
 266              		.cfi_startproc
 267              		@ args = 0, pretend = 0, frame = 0
 268              		@ frame_needed = 0, uses_anonymous_args = 0
 269              	.LVL20:
 270 0000 10B5     		push	{r4, lr}
 271              		.cfi_def_cfa_offset 8
 272              		.cfi_offset 4, -8
 273              		.cfi_offset 14, -4
 274              	.LBB85:
 275              	.LBB86:
 276              	.LBB87:
 277              	.LBB88:
 278              	.LBB89:
 279              		.file 3 "../../modules/ChibiOS/os/common/ext/CMSIS/include/cmsis_gcc.h"
 280              		.loc 3 264 0
 281 0002 2023     		movs	r3, #32
 282              	.LBE89:
 283              	.LBE88:
 284              	.LBE87:
 285              	.LBE86:
ARM GAS  C:\cygwin64\tmp\ccBzSRMP.s 			page 6


 286              	.LBE85:
 287              		.loc 2 123 0
 288 0004 0446     		mov	r4, r0
 289              	.LBB94:
 290              	.LBB93:
 291              	.LBB92:
 292              	.LBB91:
 293              	.LBB90:
 294              		.loc 3 264 0
 295              		.syntax unified
 296              	@ 264 "../../modules/ChibiOS/os/common/ext/CMSIS/include/cmsis_gcc.h" 1
 297 0006 83F31188 		MSR basepri, r3
 298              	@ 0 "" 2
 299              	.LVL21:
 300              		.thumb
 301              		.syntax unified
 302              	.LBE90:
 303              	.LBE91:
 304              	.LBE92:
 305              		.file 4 "../../modules/ChibiOS/os/rt/include/chsys.h"
 306              		.loc 4 377 0
 307 000a FFF7FEFF 		bl	_stats_start_measure_crit_thd
 308              	.LVL22:
 309              	.LBE93:
 310              	.LBE94:
 311              		.loc 2 126 0
 312 000e 2046     		mov	r0, r4
 313 0010 FFF7FEFF 		bl	chMtxLockS
 314              	.LVL23:
 315              	.LBB95:
 316              	.LBB96:
 317              		.loc 4 389 0
 318 0014 FFF7FEFF 		bl	_stats_stop_measure_crit_thd
 319              	.LVL24:
 320              	.LBB97:
 321              	.LBB98:
 322              	.LBB99:
 323              		.loc 3 264 0
 324 0018 0023     		movs	r3, #0
 325              		.syntax unified
 326              	@ 264 "../../modules/ChibiOS/os/common/ext/CMSIS/include/cmsis_gcc.h" 1
 327 001a 83F31188 		MSR basepri, r3
 328              	@ 0 "" 2
 329              	.LVL25:
 330              		.thumb
 331              		.syntax unified
 332 001e 10BD     		pop	{r4, pc}
 333              	.LBE99:
 334              	.LBE98:
 335              	.LBE97:
 336              	.LBE96:
 337              	.LBE95:
 338              		.cfi_endproc
 339              	.LFE247:
 340              		.size	chMtxLock, .-chMtxLock
 341              		.section	.text.chMtxTryLockS,"ax",%progbits
 342              		.align	1
ARM GAS  C:\cygwin64\tmp\ccBzSRMP.s 			page 7


 343              		.global	chMtxTryLockS
 344              		.syntax unified
 345              		.thumb
 346              		.thumb_func
 347              		.fpu fpv4-sp-d16
 348              		.type	chMtxTryLockS, %function
 349              	chMtxTryLockS:
 350              	.LFB250:
 351              		.loc 2 282 0
 352              		.cfi_startproc
 353              		@ args = 0, pretend = 0, frame = 0
 354              		@ frame_needed = 0, uses_anonymous_args = 0
 355              		@ link register save eliminated.
 356              	.LVL26:
 357              		.loc 2 287 0
 358 0000 8368     		ldr	r3, [r0, #8]
 359 0002 3BB9     		cbnz	r3, .L21
 360              	.LVL27:
 361              	.LBB102:
 362              	.LBB103:
 363              		.loc 2 305 0
 364 0004 044B     		ldr	r3, .L22
 365 0006 9B69     		ldr	r3, [r3, #24]
 366 0008 8360     		str	r3, [r0, #8]
 367              		.loc 2 306 0
 368 000a 9A6B     		ldr	r2, [r3, #56]
 369 000c C260     		str	r2, [r0, #12]
 370              		.loc 2 307 0
 371 000e 9863     		str	r0, [r3, #56]
 372              	.LVL28:
 373 0010 0120     		movs	r0, #1
 374              	.LVL29:
 375 0012 7047     		bx	lr
 376              	.LVL30:
 377              	.L21:
 378              	.LBE103:
 379              	.LBE102:
 380              		.loc 2 297 0
 381 0014 0020     		movs	r0, #0
 382              	.LVL31:
 383              		.loc 2 309 0
 384 0016 7047     		bx	lr
 385              	.L23:
 386              		.align	2
 387              	.L22:
 388 0018 00000000 		.word	ch
 389              		.cfi_endproc
 390              	.LFE250:
 391              		.size	chMtxTryLockS, .-chMtxTryLockS
 392              		.section	.text.chMtxTryLock,"ax",%progbits
 393              		.align	1
 394              		.global	chMtxTryLock
 395              		.syntax unified
 396              		.thumb
 397              		.thumb_func
 398              		.fpu fpv4-sp-d16
 399              		.type	chMtxTryLock, %function
ARM GAS  C:\cygwin64\tmp\ccBzSRMP.s 			page 8


 400              	chMtxTryLock:
 401              	.LFB249:
 402              		.loc 2 255 0
 403              		.cfi_startproc
 404              		@ args = 0, pretend = 0, frame = 0
 405              		@ frame_needed = 0, uses_anonymous_args = 0
 406              	.LVL32:
 407 0000 10B5     		push	{r4, lr}
 408              		.cfi_def_cfa_offset 8
 409              		.cfi_offset 4, -8
 410              		.cfi_offset 14, -4
 411              	.LBB114:
 412              	.LBB115:
 413              	.LBB116:
 414              	.LBB117:
 415              	.LBB118:
 416              		.loc 3 264 0
 417 0002 2023     		movs	r3, #32
 418              	.LBE118:
 419              	.LBE117:
 420              	.LBE116:
 421              	.LBE115:
 422              	.LBE114:
 423              		.loc 2 255 0
 424 0004 0446     		mov	r4, r0
 425              	.LBB123:
 426              	.LBB122:
 427              	.LBB121:
 428              	.LBB120:
 429              	.LBB119:
 430              		.loc 3 264 0
 431              		.syntax unified
 432              	@ 264 "../../modules/ChibiOS/os/common/ext/CMSIS/include/cmsis_gcc.h" 1
 433 0006 83F31188 		MSR basepri, r3
 434              	@ 0 "" 2
 435              	.LVL33:
 436              		.thumb
 437              		.syntax unified
 438              	.LBE119:
 439              	.LBE120:
 440              	.LBE121:
 441              		.loc 4 377 0
 442 000a FFF7FEFF 		bl	_stats_start_measure_crit_thd
 443              	.LVL34:
 444              	.LBE122:
 445              	.LBE123:
 446              		.loc 2 259 0
 447 000e 2046     		mov	r0, r4
 448 0010 FFF7FEFF 		bl	chMtxTryLockS
 449              	.LVL35:
 450 0014 0446     		mov	r4, r0
 451              	.LVL36:
 452              	.LBB124:
 453              	.LBB125:
 454              		.loc 4 389 0
 455 0016 FFF7FEFF 		bl	_stats_stop_measure_crit_thd
 456              	.LVL37:
ARM GAS  C:\cygwin64\tmp\ccBzSRMP.s 			page 9


 457              	.LBB126:
 458              	.LBB127:
 459              	.LBB128:
 460              		.loc 3 264 0
 461 001a 0023     		movs	r3, #0
 462              		.syntax unified
 463              	@ 264 "../../modules/ChibiOS/os/common/ext/CMSIS/include/cmsis_gcc.h" 1
 464 001c 83F31188 		MSR basepri, r3
 465              	@ 0 "" 2
 466              	.LVL38:
 467              		.thumb
 468              		.syntax unified
 469              	.LBE128:
 470              	.LBE127:
 471              	.LBE126:
 472              	.LBE125:
 473              	.LBE124:
 474              		.loc 2 263 0
 475 0020 2046     		mov	r0, r4
 476 0022 10BD     		pop	{r4, pc}
 477              		.cfi_endproc
 478              	.LFE249:
 479              		.size	chMtxTryLock, .-chMtxTryLock
 480              		.section	.text.chMtxUnlock,"ax",%progbits
 481              		.align	1
 482              		.global	chMtxUnlock
 483              		.syntax unified
 484              		.thumb
 485              		.thumb_func
 486              		.fpu fpv4-sp-d16
 487              		.type	chMtxUnlock, %function
 488              	chMtxUnlock:
 489              	.LFB251:
 490              		.loc 2 323 0
 491              		.cfi_startproc
 492              		@ args = 0, pretend = 0, frame = 0
 493              		@ frame_needed = 0, uses_anonymous_args = 0
 494              	.LVL39:
 495 0000 38B5     		push	{r3, r4, r5, lr}
 496              		.cfi_def_cfa_offset 16
 497              		.cfi_offset 3, -16
 498              		.cfi_offset 4, -12
 499              		.cfi_offset 5, -8
 500              		.cfi_offset 14, -4
 501              		.loc 2 324 0
 502 0002 164B     		ldr	r3, .L31
 503              		.loc 2 323 0
 504 0004 0446     		mov	r4, r0
 505              		.loc 2 324 0
 506 0006 9D69     		ldr	r5, [r3, #24]
 507              	.LVL40:
 508              	.LBB150:
 509              	.LBB151:
 510              	.LBB152:
 511              	.LBB153:
 512              	.LBB154:
 513              		.loc 3 264 0
ARM GAS  C:\cygwin64\tmp\ccBzSRMP.s 			page 10


 514 0008 2023     		movs	r3, #32
 515              		.syntax unified
 516              	@ 264 "../../modules/ChibiOS/os/common/ext/CMSIS/include/cmsis_gcc.h" 1
 517 000a 83F31188 		MSR basepri, r3
 518              	@ 0 "" 2
 519              	.LVL41:
 520              		.thumb
 521              		.syntax unified
 522              	.LBE154:
 523              	.LBE153:
 524              	.LBE152:
 525              		.loc 4 377 0
 526 000e FFF7FEFF 		bl	_stats_start_measure_crit_thd
 527              	.LVL42:
 528              	.LBE151:
 529              	.LBE150:
 530              	.LBB155:
 531              	.LBB156:
 532              	.LBB157:
 533              	.LBB158:
 534              		.loc 1 577 0
 535 0012 2068     		ldr	r0, [r4]
 536              	.LBE158:
 537              	.LBE157:
 538              	.LBE156:
 539              	.LBE155:
 540              		.loc 2 344 0
 541 0014 E368     		ldr	r3, [r4, #12]
 542 0016 AB63     		str	r3, [r5, #56]
 543              	.LVL43:
 544              		.loc 2 347 0
 545 0018 A042     		cmp	r0, r4
 546 001a 1CD0     		beq	.L26
 547              	.LBB159:
 548              		.loc 2 352 0
 549 001c EA6B     		ldr	r2, [r5, #60]
 550              	.LVL44:
 551              	.L27:
 552              		.loc 2 354 0
 553 001e 8BB9     		cbnz	r3, .L29
 554              	.LBB160:
 555              	.LBB161:
 556              		.loc 1 620 0
 557 0020 0368     		ldr	r3, [r0]
 558              	.LVL45:
 559              	.LBE161:
 560              	.LBE160:
 561              		.loc 2 367 0
 562 0022 AA60     		str	r2, [r5, #8]
 563              	.LVL46:
 564              	.LBB163:
 565              	.LBB162:
 566              		.loc 1 620 0
 567 0024 2360     		str	r3, [r4]
 568              		.loc 1 621 0
 569 0026 5C60     		str	r4, [r3, #4]
 570              	.LVL47:
ARM GAS  C:\cygwin64\tmp\ccBzSRMP.s 			page 11


 571              	.LBE162:
 572              	.LBE163:
 573              		.loc 2 376 0
 574 0028 836B     		ldr	r3, [r0, #56]
 575 002a E360     		str	r3, [r4, #12]
 576              		.loc 2 375 0
 577 002c A060     		str	r0, [r4, #8]
 578              		.loc 2 377 0
 579 002e 8463     		str	r4, [r0, #56]
 580              		.loc 2 383 0
 581 0030 FFF7FEFF 		bl	chSchReadyI
 582              	.LVL48:
 583              		.loc 2 384 0
 584 0034 FFF7FEFF 		bl	chSchRescheduleS
 585              	.LVL49:
 586              	.L30:
 587              	.LBE159:
 588              	.LBB168:
 589              	.LBB169:
 590              		.loc 4 389 0
 591 0038 FFF7FEFF 		bl	_stats_stop_measure_crit_thd
 592              	.LVL50:
 593              	.LBB170:
 594              	.LBB171:
 595              	.LBB172:
 596              		.loc 3 264 0
 597 003c 0023     		movs	r3, #0
 598              		.syntax unified
 599              	@ 264 "../../modules/ChibiOS/os/common/ext/CMSIS/include/cmsis_gcc.h" 1
 600 003e 83F31188 		MSR basepri, r3
 601              	@ 0 "" 2
 602              	.LVL51:
 603              		.thumb
 604              		.syntax unified
 605 0042 38BD     		pop	{r3, r4, r5, pc}
 606              	.LVL52:
 607              	.L29:
 608              	.LBE172:
 609              	.LBE171:
 610              	.LBE170:
 611              	.LBE169:
 612              	.LBE168:
 613              	.LBB173:
 614              	.LBB164:
 615              	.LBB165:
 616              	.LBB166:
 617              	.LBB167:
 618              		.loc 1 577 0
 619 0044 1968     		ldr	r1, [r3]
 620              	.LVL53:
 621              	.LBE167:
 622              	.LBE166:
 623              	.LBE165:
 624              	.LBE164:
 625              		.loc 2 358 0
 626 0046 8B42     		cmp	r3, r1
 627 0048 03D0     		beq	.L28
ARM GAS  C:\cygwin64\tmp\ccBzSRMP.s 			page 12


 628 004a 8968     		ldr	r1, [r1, #8]
 629 004c 8A42     		cmp	r2, r1
 630 004e 38BF     		it	cc
 631 0050 0A46     		movcc	r2, r1
 632              	.LVL54:
 633              	.L28:
 634              		.loc 2 362 0
 635 0052 DB68     		ldr	r3, [r3, #12]
 636              	.LVL55:
 637 0054 E3E7     		b	.L27
 638              	.LVL56:
 639              	.L26:
 640              	.LBE173:
 641              		.loc 2 387 0
 642 0056 0023     		movs	r3, #0
 643 0058 8360     		str	r3, [r0, #8]
 644 005a EDE7     		b	.L30
 645              	.L32:
 646              		.align	2
 647              	.L31:
 648 005c 00000000 		.word	ch
 649              		.cfi_endproc
 650              	.LFE251:
 651              		.size	chMtxUnlock, .-chMtxUnlock
 652              		.section	.text.chMtxUnlockS,"ax",%progbits
 653              		.align	1
 654              		.global	chMtxUnlockS
 655              		.syntax unified
 656              		.thumb
 657              		.thumb_func
 658              		.fpu fpv4-sp-d16
 659              		.type	chMtxUnlockS, %function
 660              	chMtxUnlockS:
 661              	.LFB252:
 662              		.loc 2 410 0
 663              		.cfi_startproc
 664              		@ args = 0, pretend = 0, frame = 0
 665              		@ frame_needed = 0, uses_anonymous_args = 0
 666              		@ link register save eliminated.
 667              	.LVL57:
 668              		.loc 2 411 0
 669 0000 114A     		ldr	r2, .L38
 670              		.loc 2 410 0
 671 0002 0346     		mov	r3, r0
 672              		.loc 2 411 0
 673 0004 9169     		ldr	r1, [r2, #24]
 674              	.LVL58:
 675              		.loc 2 430 0
 676 0006 C268     		ldr	r2, [r0, #12]
 677              	.LBB174:
 678              	.LBB175:
 679              	.LBB176:
 680              	.LBB177:
 681              		.loc 1 577 0
 682 0008 0068     		ldr	r0, [r0]
 683              	.LVL59:
 684              	.LBE177:
ARM GAS  C:\cygwin64\tmp\ccBzSRMP.s 			page 13


 685              	.LBE176:
 686              	.LBE175:
 687              	.LBE174:
 688              		.loc 2 433 0
 689 000a 9842     		cmp	r0, r3
 690              		.loc 2 410 0
 691 000c 30B4     		push	{r4, r5}
 692              		.cfi_def_cfa_offset 8
 693              		.cfi_offset 4, -8
 694              		.cfi_offset 5, -4
 695              		.loc 2 430 0
 696 000e 8A63     		str	r2, [r1, #56]
 697              		.loc 2 433 0
 698 0010 15D0     		beq	.L34
 699              	.LBB178:
 700              		.loc 2 438 0
 701 0012 CC6B     		ldr	r4, [r1, #60]
 702              	.LVL60:
 703              	.L35:
 704              		.loc 2 440 0
 705 0014 52B9     		cbnz	r2, .L37
 706              	.LBB179:
 707              	.LBB180:
 708              		.loc 1 620 0
 709 0016 0268     		ldr	r2, [r0]
 710              	.LVL61:
 711              	.LBE180:
 712              	.LBE179:
 713              		.loc 2 453 0
 714 0018 8C60     		str	r4, [r1, #8]
 715              	.LVL62:
 716              	.LBB182:
 717              	.LBB181:
 718              		.loc 1 620 0
 719 001a 1A60     		str	r2, [r3]
 720              		.loc 1 621 0
 721 001c 5360     		str	r3, [r2, #4]
 722              	.LVL63:
 723              	.LBE181:
 724              	.LBE182:
 725              		.loc 2 462 0
 726 001e 826B     		ldr	r2, [r0, #56]
 727              		.loc 2 461 0
 728 0020 9860     		str	r0, [r3, #8]
 729              		.loc 2 462 0
 730 0022 DA60     		str	r2, [r3, #12]
 731              	.LBE178:
 732              		.loc 2 472 0
 733 0024 30BC     		pop	{r4, r5}
 734              		.cfi_remember_state
 735              		.cfi_restore 5
 736              		.cfi_restore 4
 737              		.cfi_def_cfa_offset 0
 738              	.LVL64:
 739              	.LBB187:
 740              		.loc 2 463 0
 741 0026 8363     		str	r3, [r0, #56]
ARM GAS  C:\cygwin64\tmp\ccBzSRMP.s 			page 14


 742              		.loc 2 464 0
 743 0028 FFF7FEBF 		b	chSchReadyI
 744              	.LVL65:
 745              	.L37:
 746              		.cfi_restore_state
 747              	.LBB183:
 748              	.LBB184:
 749              	.LBB185:
 750              	.LBB186:
 751              		.loc 1 577 0
 752 002c 1568     		ldr	r5, [r2]
 753              	.LVL66:
 754              	.LBE186:
 755              	.LBE185:
 756              	.LBE184:
 757              	.LBE183:
 758              		.loc 2 444 0
 759 002e AA42     		cmp	r2, r5
 760 0030 03D0     		beq	.L36
 761 0032 AD68     		ldr	r5, [r5, #8]
 762 0034 AC42     		cmp	r4, r5
 763 0036 38BF     		it	cc
 764 0038 2C46     		movcc	r4, r5
 765              	.LVL67:
 766              	.L36:
 767              		.loc 2 448 0
 768 003a D268     		ldr	r2, [r2, #12]
 769              	.LVL68:
 770 003c EAE7     		b	.L35
 771              	.LVL69:
 772              	.L34:
 773              	.LBE187:
 774              		.loc 2 467 0
 775 003e 0023     		movs	r3, #0
 776              	.LVL70:
 777 0040 8360     		str	r3, [r0, #8]
 778              		.loc 2 472 0
 779 0042 30BC     		pop	{r4, r5}
 780              		.cfi_restore 5
 781              		.cfi_restore 4
 782              		.cfi_def_cfa_offset 0
 783 0044 7047     		bx	lr
 784              	.L39:
 785 0046 00BF     		.align	2
 786              	.L38:
 787 0048 00000000 		.word	ch
 788              		.cfi_endproc
 789              	.LFE252:
 790              		.size	chMtxUnlockS, .-chMtxUnlockS
 791              		.section	.text.chMtxUnlockAllS,"ax",%progbits
 792              		.align	1
 793              		.global	chMtxUnlockAllS
 794              		.syntax unified
 795              		.thumb
 796              		.thumb_func
 797              		.fpu fpv4-sp-d16
 798              		.type	chMtxUnlockAllS, %function
ARM GAS  C:\cygwin64\tmp\ccBzSRMP.s 			page 15


 799              	chMtxUnlockAllS:
 800              	.LFB253:
 801              		.loc 2 487 0
 802              		.cfi_startproc
 803              		@ args = 0, pretend = 0, frame = 0
 804              		@ frame_needed = 0, uses_anonymous_args = 0
 805 0000 38B5     		push	{r3, r4, r5, lr}
 806              		.cfi_def_cfa_offset 16
 807              		.cfi_offset 3, -16
 808              		.cfi_offset 4, -12
 809              		.cfi_offset 5, -8
 810              		.cfi_offset 14, -4
 811              		.loc 2 488 0
 812 0002 0C4B     		ldr	r3, .L45
 813 0004 9C69     		ldr	r4, [r3, #24]
 814              	.LVL71:
 815              	.LBB188:
 816              		.loc 2 507 0
 817 0006 0025     		movs	r5, #0
 818              	.L41:
 819              	.LBE188:
 820              		.loc 2 490 0
 821 0008 A36B     		ldr	r3, [r4, #56]
 822 000a 13B9     		cbnz	r3, .L44
 823              		.loc 2 510 0
 824 000c E36B     		ldr	r3, [r4, #60]
 825 000e A360     		str	r3, [r4, #8]
 826 0010 38BD     		pop	{r3, r4, r5, pc}
 827              	.LVL72:
 828              	.L44:
 829              	.LBB196:
 830              	.LBB189:
 831              	.LBB190:
 832              	.LBB191:
 833              	.LBB192:
 834              		.loc 1 577 0
 835 0012 1868     		ldr	r0, [r3]
 836              	.LBE192:
 837              	.LBE191:
 838              	.LBE190:
 839              	.LBE189:
 840              		.loc 2 492 0
 841 0014 DA68     		ldr	r2, [r3, #12]
 842 0016 A263     		str	r2, [r4, #56]
 843              	.LVL73:
 844              		.loc 2 493 0
 845 0018 8342     		cmp	r3, r0
 846 001a 09D0     		beq	.L42
 847              	.LVL74:
 848              	.LBB193:
 849              	.LBB194:
 850              	.LBB195:
 851              		.loc 1 620 0
 852 001c 0268     		ldr	r2, [r0]
 853 001e 1A60     		str	r2, [r3]
 854              		.loc 1 621 0
 855 0020 5360     		str	r3, [r2, #4]
ARM GAS  C:\cygwin64\tmp\ccBzSRMP.s 			page 16


 856              	.LVL75:
 857              	.LBE195:
 858              	.LBE194:
 859              		.loc 2 499 0
 860 0022 826B     		ldr	r2, [r0, #56]
 861              		.loc 2 498 0
 862 0024 9860     		str	r0, [r3, #8]
 863              		.loc 2 499 0
 864 0026 DA60     		str	r2, [r3, #12]
 865              		.loc 2 500 0
 866 0028 8363     		str	r3, [r0, #56]
 867              		.loc 2 501 0
 868 002a FFF7FEFF 		bl	chSchReadyI
 869              	.LVL76:
 870              	.LBE193:
 871 002e EBE7     		b	.L41
 872              	.LVL77:
 873              	.L42:
 874              		.loc 2 507 0
 875 0030 9D60     		str	r5, [r3, #8]
 876 0032 E9E7     		b	.L41
 877              	.L46:
 878              		.align	2
 879              	.L45:
 880 0034 00000000 		.word	ch
 881              	.LBE196:
 882              		.cfi_endproc
 883              	.LFE253:
 884              		.size	chMtxUnlockAllS, .-chMtxUnlockAllS
 885              		.section	.text.chMtxUnlockAll,"ax",%progbits
 886              		.align	1
 887              		.global	chMtxUnlockAll
 888              		.syntax unified
 889              		.thumb
 890              		.thumb_func
 891              		.fpu fpv4-sp-d16
 892              		.type	chMtxUnlockAll, %function
 893              	chMtxUnlockAll:
 894              	.LFB254:
 895              		.loc 2 524 0
 896              		.cfi_startproc
 897              		@ args = 0, pretend = 0, frame = 0
 898              		@ frame_needed = 0, uses_anonymous_args = 0
 899 0000 38B5     		push	{r3, r4, r5, lr}
 900              		.cfi_def_cfa_offset 16
 901              		.cfi_offset 3, -16
 902              		.cfi_offset 4, -12
 903              		.cfi_offset 5, -8
 904              		.cfi_offset 14, -4
 905              		.loc 2 525 0
 906 0002 144B     		ldr	r3, .L57
 907 0004 9C69     		ldr	r4, [r3, #24]
 908              	.LVL78:
 909              	.LBB215:
 910              	.LBB216:
 911              	.LBB217:
 912              	.LBB218:
ARM GAS  C:\cygwin64\tmp\ccBzSRMP.s 			page 17


 913              	.LBB219:
 914              		.loc 3 264 0
 915 0006 2023     		movs	r3, #32
 916              		.syntax unified
 917              	@ 264 "../../modules/ChibiOS/os/common/ext/CMSIS/include/cmsis_gcc.h" 1
 918 0008 83F31188 		MSR basepri, r3
 919              	@ 0 "" 2
 920              	.LVL79:
 921              		.thumb
 922              		.syntax unified
 923              	.LBE219:
 924              	.LBE218:
 925              	.LBE217:
 926              		.loc 4 377 0
 927 000c FFF7FEFF 		bl	_stats_start_measure_crit_thd
 928              	.LVL80:
 929              	.LBE216:
 930              	.LBE215:
 931              		.loc 2 528 0
 932 0010 A36B     		ldr	r3, [r4, #56]
 933 0012 B3B1     		cbz	r3, .L48
 934              	.LBB220:
 935              		.loc 2 546 0
 936 0014 0025     		movs	r5, #0
 937              	.L54:
 938              		.loc 2 530 0
 939 0016 A36B     		ldr	r3, [r4, #56]
 940              	.LVL81:
 941              	.LBB221:
 942              	.LBB222:
 943              	.LBB223:
 944              	.LBB224:
 945              		.loc 1 577 0
 946 0018 1868     		ldr	r0, [r3]
 947              	.LBE224:
 948              	.LBE223:
 949              	.LBE222:
 950              	.LBE221:
 951              		.loc 2 531 0
 952 001a DA68     		ldr	r2, [r3, #12]
 953 001c A263     		str	r2, [r4, #56]
 954              	.LVL82:
 955              		.loc 2 532 0
 956 001e 8342     		cmp	r3, r0
 957 0020 15D0     		beq	.L49
 958              	.LVL83:
 959              	.LBB225:
 960              	.LBB226:
 961              	.LBB227:
 962              		.loc 1 620 0
 963 0022 0268     		ldr	r2, [r0]
 964 0024 1A60     		str	r2, [r3]
 965              		.loc 1 621 0
 966 0026 5360     		str	r3, [r2, #4]
 967              	.LVL84:
 968              	.LBE227:
 969              	.LBE226:
ARM GAS  C:\cygwin64\tmp\ccBzSRMP.s 			page 18


 970              		.loc 2 538 0
 971 0028 826B     		ldr	r2, [r0, #56]
 972              		.loc 2 537 0
 973 002a 9860     		str	r0, [r3, #8]
 974              		.loc 2 538 0
 975 002c DA60     		str	r2, [r3, #12]
 976              		.loc 2 539 0
 977 002e 8363     		str	r3, [r0, #56]
 978              		.loc 2 540 0
 979 0030 FFF7FEFF 		bl	chSchReadyI
 980              	.LVL85:
 981              	.L50:
 982              	.LBE225:
 983              	.LBE220:
 984              		.loc 2 548 0
 985 0034 A36B     		ldr	r3, [r4, #56]
 986 0036 002B     		cmp	r3, #0
 987 0038 EDD1     		bne	.L54
 988              		.loc 2 549 0
 989 003a E36B     		ldr	r3, [r4, #60]
 990 003c A360     		str	r3, [r4, #8]
 991              		.loc 2 550 0
 992 003e FFF7FEFF 		bl	chSchRescheduleS
 993              	.LVL86:
 994              	.L48:
 995              	.LBB228:
 996              	.LBB229:
 997              		.loc 4 389 0
 998 0042 FFF7FEFF 		bl	_stats_stop_measure_crit_thd
 999              	.LVL87:
 1000              	.LBB230:
 1001              	.LBB231:
 1002              	.LBB232:
 1003              		.loc 3 264 0
 1004 0046 0023     		movs	r3, #0
 1005              		.syntax unified
 1006              	@ 264 "../../modules/ChibiOS/os/common/ext/CMSIS/include/cmsis_gcc.h" 1
 1007 0048 83F31188 		MSR basepri, r3
 1008              	@ 0 "" 2
 1009              	.LVL88:
 1010              		.thumb
 1011              		.syntax unified
 1012 004c 38BD     		pop	{r3, r4, r5, pc}
 1013              	.LVL89:
 1014              	.L49:
 1015              	.LBE232:
 1016              	.LBE231:
 1017              	.LBE230:
 1018              	.LBE229:
 1019              	.LBE228:
 1020              	.LBB233:
 1021              		.loc 2 546 0
 1022 004e 9D60     		str	r5, [r3, #8]
 1023 0050 F0E7     		b	.L50
 1024              	.L58:
 1025 0052 00BF     		.align	2
 1026              	.L57:
ARM GAS  C:\cygwin64\tmp\ccBzSRMP.s 			page 19


 1027 0054 00000000 		.word	ch
 1028              	.LBE233:
 1029              		.cfi_endproc
 1030              	.LFE254:
 1031              		.size	chMtxUnlockAll, .-chMtxUnlockAll
 1032              		.text
 1033              	.Letext0:
 1034              		.file 5 "c:\\program files (x86)\\gnu tools arm embedded\\6 2017-q2-update\\arm-none-eabi\\include
 1035              		.file 6 "c:\\program files (x86)\\gnu tools arm embedded\\6 2017-q2-update\\arm-none-eabi\\include
 1036              		.file 7 "../../modules/ChibiOS/os/common/ports/ARMCMx/compilers/GCC/chtypes.h"
 1037              		.file 8 "../../modules/ChibiOS/os/rt/include/chsystypes.h"
 1038              		.file 9 "../../modules/ChibiOS/os/common/ext/CMSIS/include/core_cm4.h"
 1039              		.file 10 "../../modules/ChibiOS/os/common/ext/CMSIS/ST/STM32F4xx/system_stm32f4xx.h"
 1040              		.file 11 "../../modules/ChibiOS/os/common/ports/ARMCMx/chcore.h"
 1041              		.file 12 "../../modules/ChibiOS/os/common/ports/ARMCMx/chcore_v7m.h"
 1042              		.file 13 "../../modules/ChibiOS/os/rt/include/chtm.h"
 1043              		.file 14 "../../modules/ChibiOS/os/rt/include/chstats.h"
 1044              		.file 15 "../../modules/ChibiOS/os/rt/include/chsem.h"
 1045              		.file 16 "../../modules/ChibiOS/os/rt/include/chmtx.h"
 1046              		.file 17 "../../modules/ChibiOS/os/rt/include/chregistry.h"