ARM GAS  C:\cygwin64\tmp\ccYfXsMJ.s 			page 1


   1              		.cpu cortex-m4
   2              		.eabi_attribute 27, 1
   3              		.eabi_attribute 28, 1
   4              		.eabi_attribute 20, 1
   5              		.eabi_attribute 21, 1
   6              		.eabi_attribute 23, 3
   7              		.eabi_attribute 24, 1
   8              		.eabi_attribute 25, 1
   9              		.eabi_attribute 26, 1
  10              		.eabi_attribute 30, 4
  11              		.eabi_attribute 34, 1
  12              		.eabi_attribute 18, 4
  13              		.file	"chregistry.c"
  14              		.text
  15              	.Ltext0:
  16              		.cfi_sections	.debug_frame
  17              		.section	.text.chRegFirstThread,"ax",%progbits
  18              		.align	1
  19              		.global	chRegFirstThread
  20              		.syntax unified
  21              		.thumb
  22              		.thumb_func
  23              		.fpu fpv4-sp-d16
  24              		.type	chRegFirstThread, %function
  25              	chRegFirstThread:
  26              	.LFB246:
  27              		.file 1 "../../modules/ChibiOS/os/rt/src/chregistry.c"
  28              		.loc 1 134 0
  29              		.cfi_startproc
  30              		@ args = 0, pretend = 0, frame = 0
  31              		@ frame_needed = 0, uses_anonymous_args = 0
  32              	.LVL0:
  33 0000 10B5     		push	{r4, lr}
  34              		.cfi_def_cfa_offset 8
  35              		.cfi_offset 4, -8
  36              		.cfi_offset 14, -4
  37              	.LBB28:
  38              	.LBB29:
  39              	.LBB30:
  40              	.LBB31:
  41              	.LBB32:
  42              		.file 2 "../../modules/ChibiOS/os/common/ext/CMSIS/include/cmsis_gcc.h"
  43              		.loc 2 264 0
  44 0002 2023     		movs	r3, #32
  45              		.syntax unified
  46              	@ 264 "../../modules/ChibiOS/os/common/ext/CMSIS/include/cmsis_gcc.h" 1
  47 0004 83F31188 		MSR basepri, r3
  48              	@ 0 "" 2
  49              	.LVL1:
  50              		.thumb
  51              		.syntax unified
  52              	.LBE32:
  53              	.LBE31:
  54              	.LBE30:
  55              		.file 3 "../../modules/ChibiOS/os/rt/include/chsys.h"
  56              		.loc 3 377 0
  57 0008 FFF7FEFF 		bl	_stats_start_measure_crit_thd
ARM GAS  C:\cygwin64\tmp\ccYfXsMJ.s 			page 2


  58              	.LVL2:
  59              	.LBE29:
  60              	.LBE28:
  61              		.loc 1 138 0
  62 000c 064B     		ldr	r3, .L2
  63 000e 1C69     		ldr	r4, [r3, #16]
  64              	.LVL3:
  65              		.loc 1 140 0
  66 0010 94F82230 		ldrb	r3, [r4, #34]	@ zero_extendqisi2
  67 0014 0133     		adds	r3, r3, #1
  68 0016 84F82230 		strb	r3, [r4, #34]
  69              	.LBB33:
  70              	.LBB34:
  71              		.loc 3 389 0
  72 001a FFF7FEFF 		bl	_stats_stop_measure_crit_thd
  73              	.LVL4:
  74              	.LBB35:
  75              	.LBB36:
  76              	.LBB37:
  77              		.loc 2 264 0
  78 001e 0023     		movs	r3, #0
  79              		.syntax unified
  80              	@ 264 "../../modules/ChibiOS/os/common/ext/CMSIS/include/cmsis_gcc.h" 1
  81 0020 83F31188 		MSR basepri, r3
  82              	@ 0 "" 2
  83              	.LVL5:
  84              		.thumb
  85              		.syntax unified
  86              	.LBE37:
  87              	.LBE36:
  88              	.LBE35:
  89              	.LBE34:
  90              	.LBE33:
  91              		.loc 1 145 0
  92 0024 2046     		mov	r0, r4
  93 0026 10BD     		pop	{r4, pc}
  94              	.LVL6:
  95              	.L3:
  96              		.align	2
  97              	.L2:
  98 0028 00000000 		.word	ch
  99              		.cfi_endproc
 100              	.LFE246:
 101              		.size	chRegFirstThread, .-chRegFirstThread
 102              		.section	.text.chRegNextThread,"ax",%progbits
 103              		.align	1
 104              		.global	chRegNextThread
 105              		.syntax unified
 106              		.thumb
 107              		.thumb_func
 108              		.fpu fpv4-sp-d16
 109              		.type	chRegNextThread, %function
 110              	chRegNextThread:
 111              	.LFB247:
 112              		.loc 1 158 0
 113              		.cfi_startproc
 114              		@ args = 0, pretend = 0, frame = 0
ARM GAS  C:\cygwin64\tmp\ccYfXsMJ.s 			page 3


 115              		@ frame_needed = 0, uses_anonymous_args = 0
 116              	.LVL7:
 117 0000 38B5     		push	{r3, r4, r5, lr}
 118              		.cfi_def_cfa_offset 16
 119              		.cfi_offset 3, -16
 120              		.cfi_offset 4, -12
 121              		.cfi_offset 5, -8
 122              		.cfi_offset 14, -4
 123              		.loc 1 158 0
 124 0002 0546     		mov	r5, r0
 125              	.LBB48:
 126              	.LBB49:
 127              	.LBB50:
 128              	.LBB51:
 129              	.LBB52:
 130              		.loc 2 264 0
 131 0004 2023     		movs	r3, #32
 132              		.syntax unified
 133              	@ 264 "../../modules/ChibiOS/os/common/ext/CMSIS/include/cmsis_gcc.h" 1
 134 0006 83F31188 		MSR basepri, r3
 135              	@ 0 "" 2
 136              	.LVL8:
 137              		.thumb
 138              		.syntax unified
 139              	.LBE52:
 140              	.LBE51:
 141              	.LBE50:
 142              		.loc 3 377 0
 143 000a FFF7FEFF 		bl	_stats_start_measure_crit_thd
 144              	.LVL9:
 145              	.LBE49:
 146              	.LBE48:
 147              		.loc 1 162 0
 148 000e 2C69     		ldr	r4, [r5, #16]
 149              	.LVL10:
 150              		.loc 1 164 0
 151 0010 094B     		ldr	r3, .L7
 152 0012 9C42     		cmp	r4, r3
 153              		.loc 1 171 0
 154 0014 1DBF     		ittte	ne
 155 0016 94F82230 		ldrbne	r3, [r4, #34]	@ zero_extendqisi2
 156 001a 0133     		addne	r3, r3, #1
 157 001c 84F82230 		strbne	r3, [r4, #34]
 158              		.loc 1 166 0
 159 0020 0024     		moveq	r4, #0
 160              	.LVL11:
 161              	.LBB53:
 162              	.LBB54:
 163              		.loc 3 389 0
 164 0022 FFF7FEFF 		bl	_stats_stop_measure_crit_thd
 165              	.LVL12:
 166              	.LBB55:
 167              	.LBB56:
 168              	.LBB57:
 169              		.loc 2 264 0
 170 0026 0023     		movs	r3, #0
 171              		.syntax unified
ARM GAS  C:\cygwin64\tmp\ccYfXsMJ.s 			page 4


 172              	@ 264 "../../modules/ChibiOS/os/common/ext/CMSIS/include/cmsis_gcc.h" 1
 173 0028 83F31188 		MSR basepri, r3
 174              	@ 0 "" 2
 175              	.LVL13:
 176              		.thumb
 177              		.syntax unified
 178              	.LBE57:
 179              	.LBE56:
 180              	.LBE55:
 181              	.LBE54:
 182              	.LBE53:
 183              		.loc 1 176 0
 184 002c 2846     		mov	r0, r5
 185 002e FFF7FEFF 		bl	chThdRelease
 186              	.LVL14:
 187              		.loc 1 180 0
 188 0032 2046     		mov	r0, r4
 189 0034 38BD     		pop	{r3, r4, r5, pc}
 190              	.LVL15:
 191              	.L8:
 192 0036 00BF     		.align	2
 193              	.L7:
 194 0038 00000000 		.word	ch
 195              		.cfi_endproc
 196              	.LFE247:
 197              		.size	chRegNextThread, .-chRegNextThread
 198              		.section	.text.chRegFindThreadByName,"ax",%progbits
 199              		.align	1
 200              		.global	chRegFindThreadByName
 201              		.syntax unified
 202              		.thumb
 203              		.thumb_func
 204              		.fpu fpv4-sp-d16
 205              		.type	chRegFindThreadByName, %function
 206              	chRegFindThreadByName:
 207              	.LFB248:
 208              		.loc 1 194 0
 209              		.cfi_startproc
 210              		@ args = 0, pretend = 0, frame = 0
 211              		@ frame_needed = 0, uses_anonymous_args = 0
 212              	.LVL16:
 213 0000 38B5     		push	{r3, r4, r5, lr}
 214              		.cfi_def_cfa_offset 16
 215              		.cfi_offset 3, -16
 216              		.cfi_offset 4, -12
 217              		.cfi_offset 5, -8
 218              		.cfi_offset 14, -4
 219              		.loc 1 194 0
 220 0002 0546     		mov	r5, r0
 221              		.loc 1 198 0
 222 0004 FFF7FEFF 		bl	chRegFirstThread
 223              	.LVL17:
 224 0008 0446     		mov	r4, r0
 225              	.LVL18:
 226              	.L11:
 227              		.loc 1 200 0
 228 000a 2946     		mov	r1, r5
ARM GAS  C:\cygwin64\tmp\ccYfXsMJ.s 			page 5


 229 000c A069     		ldr	r0, [r4, #24]
 230              	.LVL19:
 231 000e FFF7FEFF 		bl	strcmp
 232              	.LVL20:
 233 0012 28B1     		cbz	r0, .L9
 234              		.loc 1 203 0
 235 0014 2046     		mov	r0, r4
 236 0016 FFF7FEFF 		bl	chRegNextThread
 237              	.LVL21:
 238              		.loc 1 204 0
 239 001a 0446     		mov	r4, r0
 240              	.LVL22:
 241 001c 0028     		cmp	r0, #0
 242 001e F4D1     		bne	.L11
 243              	.LVL23:
 244              	.L9:
 245              		.loc 1 207 0
 246 0020 2046     		mov	r0, r4
 247 0022 38BD     		pop	{r3, r4, r5, pc}
 248              		.cfi_endproc
 249              	.LFE248:
 250              		.size	chRegFindThreadByName, .-chRegFindThreadByName
 251              		.section	.text.chRegFindThreadByPointer,"ax",%progbits
 252              		.align	1
 253              		.global	chRegFindThreadByPointer
 254              		.syntax unified
 255              		.thumb
 256              		.thumb_func
 257              		.fpu fpv4-sp-d16
 258              		.type	chRegFindThreadByPointer, %function
 259              	chRegFindThreadByPointer:
 260              	.LFB249:
 261              		.loc 1 221 0
 262              		.cfi_startproc
 263              		@ args = 0, pretend = 0, frame = 0
 264              		@ frame_needed = 0, uses_anonymous_args = 0
 265              	.LVL24:
 266 0000 10B5     		push	{r4, lr}
 267              		.cfi_def_cfa_offset 8
 268              		.cfi_offset 4, -8
 269              		.cfi_offset 14, -4
 270              		.loc 1 221 0
 271 0002 0446     		mov	r4, r0
 272              		.loc 1 225 0
 273 0004 FFF7FEFF 		bl	chRegFirstThread
 274              	.LVL25:
 275              	.L18:
 276              		.loc 1 227 0
 277 0008 A042     		cmp	r0, r4
 278 000a 03D0     		beq	.L16
 279              		.loc 1 230 0
 280 000c FFF7FEFF 		bl	chRegNextThread
 281              	.LVL26:
 282              		.loc 1 231 0
 283 0010 0028     		cmp	r0, #0
 284 0012 F9D1     		bne	.L18
 285              	.L16:
ARM GAS  C:\cygwin64\tmp\ccYfXsMJ.s 			page 6


 286              		.loc 1 234 0
 287 0014 10BD     		pop	{r4, pc}
 288              		.cfi_endproc
 289              	.LFE249:
 290              		.size	chRegFindThreadByPointer, .-chRegFindThreadByPointer
 291              		.section	.text.chRegFindThreadByWorkingArea,"ax",%progbits
 292              		.align	1
 293              		.global	chRegFindThreadByWorkingArea
 294              		.syntax unified
 295              		.thumb
 296              		.thumb_func
 297              		.fpu fpv4-sp-d16
 298              		.type	chRegFindThreadByWorkingArea, %function
 299              	chRegFindThreadByWorkingArea:
 300              	.LFB250:
 301              		.loc 1 250 0
 302              		.cfi_startproc
 303              		@ args = 0, pretend = 0, frame = 0
 304              		@ frame_needed = 0, uses_anonymous_args = 0
 305              	.LVL27:
 306 0000 10B5     		push	{r4, lr}
 307              		.cfi_def_cfa_offset 8
 308              		.cfi_offset 4, -8
 309              		.cfi_offset 14, -4
 310              		.loc 1 250 0
 311 0002 0446     		mov	r4, r0
 312              		.loc 1 254 0
 313 0004 FFF7FEFF 		bl	chRegFirstThread
 314              	.LVL28:
 315              	.L23:
 316              		.loc 1 256 0
 317 0008 C369     		ldr	r3, [r0, #28]
 318 000a 9C42     		cmp	r4, r3
 319 000c 03D0     		beq	.L21
 320              		.loc 1 259 0
 321 000e FFF7FEFF 		bl	chRegNextThread
 322              	.LVL29:
 323              		.loc 1 260 0
 324 0012 0028     		cmp	r0, #0
 325 0014 F8D1     		bne	.L23
 326              	.L21:
 327              		.loc 1 263 0
 328 0016 10BD     		pop	{r4, pc}
 329              		.cfi_endproc
 330              	.LFE250:
 331              		.size	chRegFindThreadByWorkingArea, .-chRegFindThreadByWorkingArea
 332              		.global	ch_debug
 333              		.section	.rodata.ch_debug,"a",%progbits
 334              		.align	1
 335              		.type	ch_debug, %object
 336              		.size	ch_debug, 22
 337              	ch_debug:
 338 0000 6D       		.byte	109
 339 0001 61       		.byte	97
 340 0002 69       		.byte	105
 341 0003 6E       		.byte	110
 342 0004 00       		.byte	0
ARM GAS  C:\cygwin64\tmp\ccYfXsMJ.s 			page 7


 343 0005 16       		.byte	22
 344 0006 0020     		.short	8192
 345 0008 04       		.byte	4
 346 0009 04       		.byte	4
 347 000a 60       		.byte	96
 348 000b 08       		.byte	8
 349 000c 0C       		.byte	12
 350 000d 10       		.byte	16
 351 000e 14       		.byte	20
 352 000f 18       		.byte	24
 353 0010 1C       		.byte	28
 354 0011 20       		.byte	32
 355 0012 21       		.byte	33
 356 0013 22       		.byte	34
 357 0014 00       		.byte	0
 358 0015 00       		.byte	0
 359              		.text
 360              	.Letext0:
 361              		.file 4 "c:\\program files (x86)\\gnu tools arm embedded\\6 2017-q2-update\\lib\\gcc\\arm-none-eab
 362              		.file 5 "c:\\program files (x86)\\gnu tools arm embedded\\6 2017-q2-update\\arm-none-eabi\\include
 363              		.file 6 "c:\\program files (x86)\\gnu tools arm embedded\\6 2017-q2-update\\arm-none-eabi\\include
 364              		.file 7 "c:\\program files (x86)\\gnu tools arm embedded\\6 2017-q2-update\\arm-none-eabi\\include
 365              		.file 8 "c:\\program files (x86)\\gnu tools arm embedded\\6 2017-q2-update\\arm-none-eabi\\include
 366              		.file 9 "c:\\program files (x86)\\gnu tools arm embedded\\6 2017-q2-update\\arm-none-eabi\\include
 367              		.file 10 "../../modules/ChibiOS/os/common/ports/ARMCMx/compilers/GCC/chtypes.h"
 368              		.file 11 "../../modules/ChibiOS/os/rt/include/chsystypes.h"
 369              		.file 12 "../../modules/ChibiOS/os/rt/include/chschd.h"
 370              		.file 13 "../../modules/ChibiOS/os/common/ext/CMSIS/include/core_cm4.h"
 371              		.file 14 "../../modules/ChibiOS/os/common/ext/CMSIS/ST/STM32F4xx/system_stm32f4xx.h"
 372              		.file 15 "../../modules/ChibiOS/os/common/ports/ARMCMx/chcore.h"
 373              		.file 16 "../../modules/ChibiOS/os/common/ports/ARMCMx/chcore_v7m.h"
 374              		.file 17 "../../modules/ChibiOS/os/rt/include/chtm.h"
 375              		.file 18 "../../modules/ChibiOS/os/rt/include/chstats.h"
 376              		.file 19 "../../modules/ChibiOS/os/rt/include/chsem.h"
 377              		.file 20 "../../modules/ChibiOS/os/rt/include/chmtx.h"
 378              		.file 21 "../../modules/ChibiOS/os/rt/include/chregistry.h"
 379              		.file 22 "../../modules/ChibiOS/os/rt/include/chthreads.h"
 380              		.file 23 "c:\\program files (x86)\\gnu tools arm embedded\\6 2017-q2-update\\arm-none-eabi\\includ