ARM GAS  C:\cygwin64\tmp\ccYfXsMJ.s 			page 1


   1              		.cpu cortex-m4
   2              		.eabi_attribute 27, 1
   3              		.eabi_attribute 28, 1
   4              		.eabi_attribute 20, 1
   5              		.eabi_attribute 21, 1
   6              		.eabi_attribute 23, 3
   7              		.eabi_attribute 24, 1
   8              		.eabi_attribute 25, 1
   9              		.eabi_attribute 26, 1
  10              		.eabi_attribute 30, 4
  11              		.eabi_attribute 34, 1
  12              		.eabi_attribute 18, 4
  13              		.file	"chregistry.c"
  14              		.text
  15              	.Ltext0:
  16              		.cfi_sections	.debug_frame
  17              		.section	.text.chRegFirstThread,"ax",%progbits
  18              		.align	1
  19              		.global	chRegFirstThread
  20              		.syntax unified
  21              		.thumb
  22              		.thumb_func
  23              		.fpu fpv4-sp-d16
  24              		.type	chRegFirstThread, %function
  25              	chRegFirstThread:
  26              	.LFB246:
  27              		.file 1 "../../modules/ChibiOS/os/rt/src/chregistry.c"
  28              		.loc 1 134 0
  29              		.cfi_startproc
  30              		@ args = 0, pretend = 0, frame = 0
  31              		@ frame_needed = 0, uses_anonymous_args = 0
  32              	.LVL0:
  33 0000 10B5     		push	{r4, lr}
  34              		.cfi_def_cfa_offset 8
  35              		.cfi_offset 4, -8
  36              		.cfi_offset 14, -4
  37              	.LBB28:
  38              	.LBB29:
  39              	.LBB30:
  40              	.LBB31:
  41              	.LBB32:
  42              		.file 2 "../../modules/ChibiOS/os/common/ext/CMSIS/include/cmsis_gcc.h"
  43              		.loc 2 264 0
  44 0002 2023     		movs	r3, #32
  45              		.syntax unified
  46              	@ 264 "../../modules/ChibiOS/os/common/ext/CMSIS/include/cmsis_gcc.h" 1
  47 0004 83F31188 		MSR basepri, r3
  48              	@ 0 "" 2
  49              	.LVL1:
  50              		.thumb
  51              		.syntax unified
  52              	.LBE32:
  53              	.LBE31:
  54              	.LBE30:
  55              		.file 3 "../../modules/ChibiOS/os/rt/include/chsys.h"
  56              		.loc 3 377 0
  57 0008 FFF7FEFF 		bl	_stats_start_measure_crit_thd
ARM GAS  C:\cygwin64\tmp\ccYfXsMJ.s 			page 2


  58              	.LVL2:
  59              	.LBE29:
  60              	.LBE28:
  61              		.loc 1 138 0
  62 000c 064B     		ldr	r3, .L2
  63 000e 1C69     		ldr	r4, [r3, #16]
  64              	.LVL3:
  65              		.loc 1 140 0
  66 0010 94F82230 		ldrb	r3, [r4, #34]	@ zero_extendqisi2
  67 0014 0133     		adds	r3, r3, #1
  68 0016 84F82230 		strb	r3, [r4, #34]
  69              	.LBB33:
  70              	.LBB34:
  71              		.loc 3 389 0
  72 001a FFF7FEFF 		bl	_stats_stop_measure_crit_thd
  73              	.LVL4:
  74              	.LBB35:
  75              	.LBB36:
  76              	.LBB37:
  77              		.loc 2 264 0
  78 001e 0023     		movs	r3, #0
  79              		.syntax unified
  80              	@ 264 "../../modules/ChibiOS/os/common/ext/CMSIS/include/cmsis_gcc.h" 1
  81 0020 83F31188 		MSR basepri, r3
  82              	@ 0 "" 2
  83              	.LVL5:
  84              		.thumb
  85              		.syntax unified
  86              	.LBE37:
  87              	.LBE36:
  88              	.LBE35:
  89              	.LBE34:
  90              	.LBE33:
  91              		.loc 1 145 0
  92 0024 2046     		mov	r0, r4
  93 0026 10BD     		pop	{r4, pc}
  94              	.LVL6:
  95              	.L3:
  96              		.align	2
  97              	.L2:
  98 0028 00000000 		.word	ch
  99              		.cfi_endproc
 100              	.LFE246:
 101              		.size	chRegFirstThread, .-chRegFirstThread
 102              		.section	.text.chRegNextThread,"ax",%progbits
 103              		.align	1
 104              		.global	chRegNextThread
 105              		.syntax unified
 106              		.thumb
 107              		.thumb_func
 108              		.fpu fpv4-sp-d16
 109              		.type	chRegNextThread, %function
 110              	chRegNextThread:
 111              	.LFB247:
 112              		.loc 1 158 0
 113              		.cfi_startproc
 114              		@ args = 0, pretend = 0, frame = 0
ARM GAS  C:\cygwin64\tmp\ccYfXsMJ.s 			page 3


 115              		@ frame_needed = 0, uses_anonymous_args = 0
 116              	.LVL7:
 117 0000 38B5     		push	{r3, r4, r5, lr}
 118              		.cfi_def_cfa_offset 16
 119              		.cfi_offset 3, -16
 120              		.cfi_offset 4, -12
 121              		.cfi_offset 5, -8
 122              		.cfi_offset 14, -4
 123              		.loc 1 158 0
 124 0002 0546     		mov	r5, r0
 125              	.LBB48:
 126              	.LBB49:
 127              	.LBB50:
 128              	.LBB51:
 129              	.LBB52:
 130              		.loc 2 264 0
 131 0004 2023     		movs	r3, #32
 132              		.syntax unified
 133              	@ 264 "../../modules/ChibiOS/os/common/ext/CMSIS/include/cmsis_gcc.h" 1
 134 0006 83F31188 		MSR basepri, r3
 135              	@ 0 "" 2
 136              	.LVL8:
 137              		.thumb
 138              		.syntax unified
 139              	.LBE52:
 140              	.LBE51:
 141              	.LBE50:
 142              		.loc 3 377 0
 143 000a FFF7FEFF 		bl	_stats_start_measure_crit_thd
 144              	.LVL9:
 145              	.LBE49:
 146              	.LBE48:
 147              		.loc 1 162 0
 148 000e 2C69     		ldr	r4, [r5, #16]
 149              	.LVL10:
 150              		.loc 1 164 0
 151 0010 094B     		ldr	r3, .L7
 152 0012 9C42     		cmp	r4, r3
 153              		.loc 1 171 0
 154 0014 1DBF     		ittte	ne
 155 0016 94F82230 		ldrbne	r3, [r4, #34]	@ zero_extendqisi2
 156 001a 0133     		addne	r3, r3, #1
 157 001c 84F82230 		strbne	r3, [r4, #34]
 158              		.loc 1 166 0
 159 0020 0024     		moveq	r4, #0
 160              	.LVL11:
 161              	.LBB53:
 162              	.LBB54:
 163              		.loc 3 389 0
 164 0022 FFF7FEFF 		bl	_stats_stop_measure_crit_thd
 165              	.LVL12:
 166              	.LBB55:
 167              	.LBB56:
 168              	.LBB57:
 169              		.loc 2 264 0
 170 0026 0023     		movs	r3, #0
 171              		.syntax unified
ARM GAS  C:\cygwin64\tmp\ccYfXsMJ.s 			page 4


 172              	@ 264 "../../modules/ChibiOS/os/common/ext/CMSIS/include/cmsis_gcc.h" 1
 173 0028 83F31188 		MSR basepri, r3
 174              	@ 0 "" 2
 175              	.LVL13:
 176              		.thumb
 177              		.syntax unified
 178              	.LBE57:
 179              	.LBE56:
 180              	.LBE55:
 181              	.LBE54:
 182              	.LBE53:
 183              		.loc 1 176 0
 184 002c 2846     		mov	r0, r5
 185 002e FFF7FEFF 		bl	chThdRelease
 186              	.LVL14:
 187              		.loc 1 180 0
 188 0032 2046     		mov	r0, r4
 189 0034 38BD     		pop	{r3, r4, r5, pc}
 190              	.LVL15:
 191              	.L8:
 192 0036 00BF     		.align	2
 193              	.L7:
 194 0038 00000000 		.word	ch
 195              		.cfi_endproc
 196              	.LFE247:
 197              		.size	chRegNextThread, .-chRegNextThread
 198              		.section	.text.chRegFindThreadByName,"ax",%progbits
 199              		.align	1
 200              		.global	chRegFindThreadByName
 201              		.syntax unified
 202              		.thumb
 203              		.thumb_func
 204              		.fpu fpv4-sp-d16
 205              		.type	chRegFindThreadByName, %function
 206              	chRegFindThreadByName:
 207              	.LFB248:
 208              		.loc 1 194 0
 209              		.cfi_startproc
 210              		@ args = 0, pretend = 0, frame = 0
 211              		@ frame_needed = 0, uses_anonymous_args = 0
 212              	.LVL16:
 213 0000 38B5     		push	{r3, r4, r5, lr}
 214              		.cfi_def_cfa_offset 16
 215              		.cfi_offset 3, -16
 216              		.cfi_offset 4, -12
 217              		.cfi_offset 5, -8
 218              		.cfi_offset 14, -4
 219              		.loc 1 194 0
 220 0002 0546     		mov	r5, r0
 221              		.loc 1 198 0
 222 0004 FFF7FEFF 		bl	chRegFirstThread
 223              	.LVL17:
 224 0008 0446     		mov	r4, r0
 225              	.LVL18:
 226              	.L11:
 227              		.loc 1 200 0
 228 000a 2946     		mov	r1, r5
ARM GAS  C:\cygwin64\tmp\ccYfXsMJ.s 			page 5


 229 000c A069     		ldr	r0, [r4, #24]
 230              	.LVL19:
 231 000e FFF7FEFF 		bl	strcmp
 232              	.LVL20:
 233 0012 28B1     		cbz	r0, .L9
 234              		.loc 1 203 0
 235 0014 2046     		mov	r0, r4
 236 0016 FFF7FEFF 		bl	chRegNextThread
 237              	.LVL21:
 238              		.loc 1 204 0
 239 001a 0446     		mov	r4, r0
 240              	.LVL22:
 241 001c 0028     		cmp	r0, #0
 242 001e F4D1     		bne	.L11
 243              	.LVL23:
 244              	.L9:
 245              		.loc 1 207 0
 246 0020 2046     		mov	r0, r4
 247 0022 38BD     		pop	{r3, r4, r5, pc}
 248              		.cfi_endproc
 249              	.LFE248:
 250              		.size	chRegFindThreadByName, .-chRegFindThreadByName
 251              		.section	.text.chRegFindThreadByPointer,"ax",%progbits
 252              		.align	1
 253              		.global	chRegFindThreadByPointer
 254              		.syntax unified
 255              		.thumb
 256              		.thumb_func
 257              		.fpu fpv4-sp-d16
 258              		.type	chRegFindThreadByPointer, %function
 259              	chRegFindThreadByPointer:
 260              	.LFB249:
 261              		.loc 1 221 0
 262              		.cfi_startproc
 263              		@ args = 0, pretend = 0, frame = 0
 264              		@ frame_needed = 0, uses_anonymous_args = 0
 265              	.LVL24:
 266 0000 10B5     		push	{r4, lr}
 267              		.cfi_def_cfa_offset 8
 268              		.cfi_offset 4, -8
 269              		.cfi_offset 14, -4
 270              		.loc 1 221 0
 271 0002 0446     		mov	r4, r0
 272              		.loc 1 225 0
 273 0004 FFF7FEFF 		bl	chRegFirstThread
 274              	.LVL25:
 275              	.L18:
 276              		.loc 1 227 0
 277 0008 A042     		cmp	r0, r4
 278 000a 03D0     		beq	.L16
 279              		.loc 1 230 0
 280 000c FFF7FEFF 		bl	chRegNextThread
 281              	.LVL26:
 282              		.loc 1 231 0
 283 0010 0028     		cmp	r0, #0
 284 0012 F9D1     		bne	.L18
 285              	.L16:
ARM GAS  C:\cygwin64\tmp\ccYfXsMJ.s 			page 6


 286              		.loc 1 234 0
 287 0014 10BD     		pop	{r4, pc}
 288              		.cfi_endproc
 289              	.LFE249:
 290              		.size	chRegFindThreadByPointer, .-chRegFindThreadByPointer
 291              		.section	.text.chRegFindThreadByWorkingArea,"ax",%progbits
 292              		.align	1
 293              		.global	chRegFindThreadByWorkingArea
 294              		.syntax unified
 295              		.thumb
 296              		.thumb_func
 297              		.fpu fpv4-sp-d16
 298              		.type	chRegFindThreadByWorkingArea, %function
 299              	chRegFindThreadByWorkingArea:
 300              	.LFB250:
 301              		.loc 1 250 0
 302              		.cfi_startproc
 303              		@ args = 0, pretend = 0, frame = 0
 304              		@ frame_needed = 0, uses_anonymous_args = 0
 305              	.LVL27:
 306 0000 10B5     		push	{r4, lr}
 307              		.cfi_def_cfa_offset 8
 308              		.cfi_offset 4, -8
 309              		.cfi_offset 14, -4
 310              		.loc 1 250 0
 311 0002 0446     		mov	r4, r0
 312              		.loc 1 254 0
 313 0004 FFF7FEFF 		bl	chRegFirstThread
 314              	.LVL28:
 315              	.L23:
 316              		.loc 1 256 0
 317 0008 C369     		ldr	r3, [r0, #28]
 318 000a 9C42     		cmp	r4, r3
 319 000c 03D0     		beq	.L21
 320              		.loc 1 259 0
 321 000e FFF7FEFF 		bl	chRegNextThread
 322              	.LVL29:
 323              		.loc 1 260 0
 324 0012 0028     		cmp	r0, #0
 325 0014 F8D1     		bne	.L23
 326              	.L21:
 327              		.loc 1 263 0
 328 0016 10BD     		pop	{r4, pc}
 329              		.cfi_endproc
 330              	.LFE250:
 331              		.size	chRegFindThreadByWorkingArea, .-chRegFindThreadByWorkingArea
 332              		.global	ch_debug
 333              		.section	.rodata.ch_debug,"a",%progbits
 334              		.align	1
 335              		.type	ch_debug, %object
 336              		.size	ch_debug, 22
 337              	ch_debug:
 338 0000 6D       		.byte	109
 339 0001 61       		.byte	97
 340 0002 69       		.byte	105
 341 0003 6E       		.byte	110
 342 0004 00       		.byte	0
ARM GAS  C:\cygwin64\tmp\ccYfXsMJ.s 			page 7


 343 0005 16       		.byte	22
 344 0006 0020     		.short	8192
 345 0008 04       		.byte	4
 346 0009 04       		.byte	4
 347 000a 60       		.byte	96
 348 000b 08       		.byte	8
 349 000c 0C       		.byte	12
 350 000d 10       		.byte	16
 351 000e 14       		.byte	20
 352 000f 18       		.byte	24
 353 0010 1C       		.byte	28
 354 0011 20       		.byte	32
 355 0012 21       		.byte	33
 356 0013 22       		.byte	34
 357 0014 00       		.byte	0
 358 0015 00       		.byte	0
 359              		.text
 360              	.Letext0:
 361              		.file 4 "c:\\program files (x86)\\gnu tools arm embedded\\6 2017-q2-update\\lib\\gcc\\arm-none-eab
 362              		.file 5 "c:\\program files (x86)\\gnu tools arm embedded\\6 2017-q2-update\\arm-none-eabi\\include
 363              		.file 6 "c:\\program files (x86)\\gnu tools arm embedded\\6 2017-q2-update\\arm-none-eabi\\include
 364              		.file 7 "c:\\program files (x86)\\gnu tools arm embedded\\6 2017-q2-update\\arm-none-eabi\\include
 365              		.file 8 "c:\\program files (x86)\\gnu tools arm embedded\\6 2017-q2-update\\arm-none-eabi\\include
 366              		.file 9 "c:\\program files (x86)\\gnu tools arm embedded\\6 2017-q2-update\\arm-none-eabi\\include
 367              		.file 10 "../../modules/ChibiOS/os/common/ports/ARMCMx/compilers/GCC/chtypes.h"
 368              		.file 11 "../../modules/ChibiOS/os/rt/include/chsystypes.h"
 369              		.file 12 "../../modules/ChibiOS/os/rt/include/chschd.h"
 370              		.file 13 "../../modules/ChibiOS/os/common/ext/CMSIS/include/core_cm4.h"
 371              		.file 14 "../../modules/ChibiOS/os/common/ext/CMSIS/ST/STM32F4xx/system_stm32f4xx.h"
 372              		.file 15 "../../modules/ChibiOS/os/common/ports/ARMCMx/chcore.h"
 373              		.file 16 "../../modules/ChibiOS/os/common/ports/ARMCMx/chcore_v7m.h"
 374              		.file 17 "../../modules/ChibiOS/os/rt/include/chtm.h"
 375              		.file 18 "../../modules/ChibiOS/os/rt/include/chstats.h"
 376              		.file 19 "../../modules/ChibiOS/os/rt/include/chsem.h"
 377              		.file 20 "../../modules/ChibiOS/os/rt/include/chmtx.h"
 378              		.file 21 "../../modules/ChibiOS/os/rt/include/chregistry.h"
 379              		.file 22 "../../modules/ChibiOS/os/rt/include/chthreads.h"
 380              		.file 23 "c:\\program files (x86)\\gnu tools arm embedded\\6 2017-q2-update\\arm-none-eabi\\includ
 381              		.section	.debug_info,"",%progbits
 382              	.Ldebug_info0:
 383 0000 AF140000 		.4byte	0x14af
 384 0004 0400     		.2byte	0x4
 385 0006 00000000 		.4byte	.Ldebug_abbrev0
 386 000a 04       		.byte	0x4
 387 000b 01       		.uleb128 0x1
 388 000c 32030000 		.4byte	.LASF258
 389 0010 0C       		.byte	0xc
 390 0011 EC040000 		.4byte	.LASF259
 391 0015 60040000 		.4byte	.LASF260
 392 0019 00000000 		.4byte	.Ldebug_ranges0+0
 393 001d 00000000 		.4byte	0
 394 0021 00000000 		.4byte	.Ldebug_line0
 395 0025 02       		.uleb128 0x2
 396 0026 04       		.byte	0x4
 397 0027 05       		.byte	0x5
 398 0028 696E7400 		.ascii	"int\000"
 399 002c 03       		.uleb128 0x3
ARM GAS  C:\cygwin64\tmp\ccYfXsMJ.s 			page 8


 400 002d 08000000 		.4byte	.LASF4
 401 0031 04       		.byte	0x4
 402 0032 D8       		.byte	0xd8
 403 0033 37000000 		.4byte	0x37
 404 0037 04       		.uleb128 0x4
 405 0038 04       		.byte	0x4
 406 0039 07       		.byte	0x7
 407 003a 0B070000 		.4byte	.LASF0
 408 003e 04       		.uleb128 0x4
 409 003f 08       		.byte	0x8
 410 0040 05       		.byte	0x5
 411 0041 98060000 		.4byte	.LASF1
 412 0045 04       		.uleb128 0x4
 413 0046 08       		.byte	0x8
 414 0047 04       		.byte	0x4
 415 0048 D7070000 		.4byte	.LASF2
 416 004c 04       		.uleb128 0x4
 417 004d 01       		.byte	0x1
 418 004e 06       		.byte	0x6
 419 004f 4A020000 		.4byte	.LASF3
 420 0053 03       		.uleb128 0x3
 421 0054 67010000 		.4byte	.LASF5
 422 0058 05       		.byte	0x5
 423 0059 2B       		.byte	0x2b
 424 005a 5E000000 		.4byte	0x5e
 425 005e 04       		.uleb128 0x4
 426 005f 01       		.byte	0x1
 427 0060 08       		.byte	0x8
 428 0061 90020000 		.4byte	.LASF6
 429 0065 04       		.uleb128 0x4
 430 0066 02       		.byte	0x2
 431 0067 05       		.byte	0x5
 432 0068 A2090000 		.4byte	.LASF7
 433 006c 03       		.uleb128 0x3
 434 006d 10030000 		.4byte	.LASF8
 435 0071 05       		.byte	0x5
 436 0072 39       		.byte	0x39
 437 0073 77000000 		.4byte	0x77
 438 0077 04       		.uleb128 0x4
 439 0078 02       		.byte	0x2
 440 0079 07       		.byte	0x7
 441 007a BE0A0000 		.4byte	.LASF9
 442 007e 03       		.uleb128 0x3
 443 007f 250B0000 		.4byte	.LASF10
 444 0083 05       		.byte	0x5
 445 0084 4D       		.byte	0x4d
 446 0085 89000000 		.4byte	0x89
 447 0089 04       		.uleb128 0x4
 448 008a 04       		.byte	0x4
 449 008b 05       		.byte	0x5
 450 008c 93010000 		.4byte	.LASF11
 451 0090 03       		.uleb128 0x3
 452 0091 7A060000 		.4byte	.LASF12
 453 0095 05       		.byte	0x5
 454 0096 4F       		.byte	0x4f
 455 0097 9B000000 		.4byte	0x9b
 456 009b 04       		.uleb128 0x4
ARM GAS  C:\cygwin64\tmp\ccYfXsMJ.s 			page 9


 457 009c 04       		.byte	0x4
 458 009d 07       		.byte	0x7
 459 009e 5D050000 		.4byte	.LASF13
 460 00a2 03       		.uleb128 0x3
 461 00a3 37050000 		.4byte	.LASF14
 462 00a7 05       		.byte	0x5
 463 00a8 69       		.byte	0x69
 464 00a9 AD000000 		.4byte	0xad
 465 00ad 04       		.uleb128 0x4
 466 00ae 08       		.byte	0x8
 467 00af 07       		.byte	0x7
 468 00b0 4D080000 		.4byte	.LASF15
 469 00b4 03       		.uleb128 0x3
 470 00b5 360A0000 		.4byte	.LASF16
 471 00b9 06       		.byte	0x6
 472 00ba 22       		.byte	0x22
 473 00bb BF000000 		.4byte	0xbf
 474 00bf 05       		.uleb128 0x5
 475 00c0 04       		.byte	0x4
 476 00c1 C5000000 		.4byte	0xc5
 477 00c5 06       		.uleb128 0x6
 478 00c6 D3040000 		.4byte	.LASF124
 479 00ca 03       		.uleb128 0x3
 480 00cb AB0A0000 		.4byte	.LASF17
 481 00cf 07       		.byte	0x7
 482 00d0 2C       		.byte	0x2c
 483 00d1 89000000 		.4byte	0x89
 484 00d5 03       		.uleb128 0x3
 485 00d6 0D080000 		.4byte	.LASF18
 486 00da 07       		.byte	0x7
 487 00db 72       		.byte	0x72
 488 00dc 89000000 		.4byte	0x89
 489 00e0 07       		.uleb128 0x7
 490 00e1 54090000 		.4byte	.LASF19
 491 00e5 04       		.byte	0x4
 492 00e6 6501     		.2byte	0x165
 493 00e8 37000000 		.4byte	0x37
 494 00ec 08       		.uleb128 0x8
 495 00ed 04       		.byte	0x4
 496 00ee 07       		.byte	0x7
 497 00ef A6       		.byte	0xa6
 498 00f0 0B010000 		.4byte	0x10b
 499 00f4 09       		.uleb128 0x9
 500 00f5 58010000 		.4byte	.LASF20
 501 00f9 07       		.byte	0x7
 502 00fa A8       		.byte	0xa8
 503 00fb E0000000 		.4byte	0xe0
 504 00ff 09       		.uleb128 0x9
 505 0100 15080000 		.4byte	.LASF21
 506 0104 07       		.byte	0x7
 507 0105 A9       		.byte	0xa9
 508 0106 0B010000 		.4byte	0x10b
 509 010a 00       		.byte	0
 510 010b 0A       		.uleb128 0xa
 511 010c 5E000000 		.4byte	0x5e
 512 0110 1B010000 		.4byte	0x11b
 513 0114 0B       		.uleb128 0xb
ARM GAS  C:\cygwin64\tmp\ccYfXsMJ.s 			page 10


 514 0115 1B010000 		.4byte	0x11b
 515 0119 03       		.byte	0x3
 516 011a 00       		.byte	0
 517 011b 04       		.uleb128 0x4
 518 011c 04       		.byte	0x4
 519 011d 07       		.byte	0x7
 520 011e 18000000 		.4byte	.LASF22
 521 0122 0C       		.uleb128 0xc
 522 0123 08       		.byte	0x8
 523 0124 07       		.byte	0x7
 524 0125 A3       		.byte	0xa3
 525 0126 43010000 		.4byte	0x143
 526 012a 0D       		.uleb128 0xd
 527 012b BC070000 		.4byte	.LASF23
 528 012f 07       		.byte	0x7
 529 0130 A5       		.byte	0xa5
 530 0131 25000000 		.4byte	0x25
 531 0135 00       		.byte	0
 532 0136 0D       		.uleb128 0xd
 533 0137 2C000000 		.4byte	.LASF24
 534 013b 07       		.byte	0x7
 535 013c AA       		.byte	0xaa
 536 013d EC000000 		.4byte	0xec
 537 0141 04       		.byte	0x4
 538 0142 00       		.byte	0
 539 0143 03       		.uleb128 0x3
 540 0144 3D090000 		.4byte	.LASF25
 541 0148 07       		.byte	0x7
 542 0149 AB       		.byte	0xab
 543 014a 22010000 		.4byte	0x122
 544 014e 03       		.uleb128 0x3
 545 014f 12090000 		.4byte	.LASF26
 546 0153 07       		.byte	0x7
 547 0154 AF       		.byte	0xaf
 548 0155 B4000000 		.4byte	0xb4
 549 0159 0E       		.uleb128 0xe
 550 015a 04       		.byte	0x4
 551 015b 05       		.uleb128 0x5
 552 015c 04       		.byte	0x4
 553 015d 61010000 		.4byte	0x161
 554 0161 04       		.uleb128 0x4
 555 0162 01       		.byte	0x1
 556 0163 08       		.byte	0x8
 557 0164 FF020000 		.4byte	.LASF27
 558 0168 0F       		.uleb128 0xf
 559 0169 61010000 		.4byte	0x161
 560 016d 03       		.uleb128 0x3
 561 016e 830A0000 		.4byte	.LASF28
 562 0172 08       		.byte	0x8
 563 0173 16       		.byte	0x16
 564 0174 9B000000 		.4byte	0x9b
 565 0178 10       		.uleb128 0x10
 566 0179 41060000 		.4byte	.LASF33
 567 017d 18       		.byte	0x18
 568 017e 08       		.byte	0x8
 569 017f 2F       		.byte	0x2f
 570 0180 CB010000 		.4byte	0x1cb
ARM GAS  C:\cygwin64\tmp\ccYfXsMJ.s 			page 11


 571 0184 0D       		.uleb128 0xd
 572 0185 5B090000 		.4byte	.LASF29
 573 0189 08       		.byte	0x8
 574 018a 31       		.byte	0x31
 575 018b CB010000 		.4byte	0x1cb
 576 018f 00       		.byte	0
 577 0190 11       		.uleb128 0x11
 578 0191 5F6B00   		.ascii	"_k\000"
 579 0194 08       		.byte	0x8
 580 0195 32       		.byte	0x32
 581 0196 25000000 		.4byte	0x25
 582 019a 04       		.byte	0x4
 583 019b 0D       		.uleb128 0xd
 584 019c 59060000 		.4byte	.LASF30
 585 01a0 08       		.byte	0x8
 586 01a1 32       		.byte	0x32
 587 01a2 25000000 		.4byte	0x25
 588 01a6 08       		.byte	0x8
 589 01a7 0D       		.uleb128 0xd
 590 01a8 F0060000 		.4byte	.LASF31
 591 01ac 08       		.byte	0x8
 592 01ad 32       		.byte	0x32
 593 01ae 25000000 		.4byte	0x25
 594 01b2 0C       		.byte	0xc
 595 01b3 0D       		.uleb128 0xd
 596 01b4 C0040000 		.4byte	.LASF32
 597 01b8 08       		.byte	0x8
 598 01b9 32       		.byte	0x32
 599 01ba 25000000 		.4byte	0x25
 600 01be 10       		.byte	0x10
 601 01bf 11       		.uleb128 0x11
 602 01c0 5F7800   		.ascii	"_x\000"
 603 01c3 08       		.byte	0x8
 604 01c4 33       		.byte	0x33
 605 01c5 D1010000 		.4byte	0x1d1
 606 01c9 14       		.byte	0x14
 607 01ca 00       		.byte	0
 608 01cb 05       		.uleb128 0x5
 609 01cc 04       		.byte	0x4
 610 01cd 78010000 		.4byte	0x178
 611 01d1 0A       		.uleb128 0xa
 612 01d2 6D010000 		.4byte	0x16d
 613 01d6 E1010000 		.4byte	0x1e1
 614 01da 0B       		.uleb128 0xb
 615 01db 1B010000 		.4byte	0x11b
 616 01df 00       		.byte	0
 617 01e0 00       		.byte	0
 618 01e1 10       		.uleb128 0x10
 619 01e2 D1000000 		.4byte	.LASF34
 620 01e6 24       		.byte	0x24
 621 01e7 08       		.byte	0x8
 622 01e8 37       		.byte	0x37
 623 01e9 5A020000 		.4byte	0x25a
 624 01ed 0D       		.uleb128 0xd
 625 01ee ED000000 		.4byte	.LASF35
 626 01f2 08       		.byte	0x8
 627 01f3 39       		.byte	0x39
ARM GAS  C:\cygwin64\tmp\ccYfXsMJ.s 			page 12


 628 01f4 25000000 		.4byte	0x25
 629 01f8 00       		.byte	0
 630 01f9 0D       		.uleb128 0xd
 631 01fa 6E0B0000 		.4byte	.LASF36
 632 01fe 08       		.byte	0x8
 633 01ff 3A       		.byte	0x3a
 634 0200 25000000 		.4byte	0x25
 635 0204 04       		.byte	0x4
 636 0205 0D       		.uleb128 0xd
 637 0206 D10A0000 		.4byte	.LASF37
 638 020a 08       		.byte	0x8
 639 020b 3B       		.byte	0x3b
 640 020c 25000000 		.4byte	0x25
 641 0210 08       		.byte	0x8
 642 0211 0D       		.uleb128 0xd
 643 0212 3D070000 		.4byte	.LASF38
 644 0216 08       		.byte	0x8
 645 0217 3C       		.byte	0x3c
 646 0218 25000000 		.4byte	0x25
 647 021c 0C       		.byte	0xc
 648 021d 0D       		.uleb128 0xd
 649 021e 03020000 		.4byte	.LASF39
 650 0222 08       		.byte	0x8
 651 0223 3D       		.byte	0x3d
 652 0224 25000000 		.4byte	0x25
 653 0228 10       		.byte	0x10
 654 0229 0D       		.uleb128 0xd
 655 022a FB090000 		.4byte	.LASF40
 656 022e 08       		.byte	0x8
 657 022f 3E       		.byte	0x3e
 658 0230 25000000 		.4byte	0x25
 659 0234 14       		.byte	0x14
 660 0235 0D       		.uleb128 0xd
 661 0236 C4070000 		.4byte	.LASF41
 662 023a 08       		.byte	0x8
 663 023b 3F       		.byte	0x3f
 664 023c 25000000 		.4byte	0x25
 665 0240 18       		.byte	0x18
 666 0241 0D       		.uleb128 0xd
 667 0242 E3070000 		.4byte	.LASF42
 668 0246 08       		.byte	0x8
 669 0247 40       		.byte	0x40
 670 0248 25000000 		.4byte	0x25
 671 024c 1C       		.byte	0x1c
 672 024d 0D       		.uleb128 0xd
 673 024e 5E0B0000 		.4byte	.LASF43
 674 0252 08       		.byte	0x8
 675 0253 41       		.byte	0x41
 676 0254 25000000 		.4byte	0x25
 677 0258 20       		.byte	0x20
 678 0259 00       		.byte	0
 679 025a 12       		.uleb128 0x12
 680 025b 77010000 		.4byte	.LASF44
 681 025f 0801     		.2byte	0x108
 682 0261 08       		.byte	0x8
 683 0262 4A       		.byte	0x4a
 684 0263 9A020000 		.4byte	0x29a
ARM GAS  C:\cygwin64\tmp\ccYfXsMJ.s 			page 13


 685 0267 0D       		.uleb128 0xd
 686 0268 560B0000 		.4byte	.LASF45
 687 026c 08       		.byte	0x8
 688 026d 4B       		.byte	0x4b
 689 026e 9A020000 		.4byte	0x29a
 690 0272 00       		.byte	0
 691 0273 0D       		.uleb128 0xd
 692 0274 76080000 		.4byte	.LASF46
 693 0278 08       		.byte	0x8
 694 0279 4C       		.byte	0x4c
 695 027a 9A020000 		.4byte	0x29a
 696 027e 80       		.byte	0x80
 697 027f 13       		.uleb128 0x13
 698 0280 E2090000 		.4byte	.LASF47
 699 0284 08       		.byte	0x8
 700 0285 4E       		.byte	0x4e
 701 0286 6D010000 		.4byte	0x16d
 702 028a 0001     		.2byte	0x100
 703 028c 13       		.uleb128 0x13
 704 028d 2E0A0000 		.4byte	.LASF48
 705 0291 08       		.byte	0x8
 706 0292 51       		.byte	0x51
 707 0293 6D010000 		.4byte	0x16d
 708 0297 0401     		.2byte	0x104
 709 0299 00       		.byte	0
 710 029a 0A       		.uleb128 0xa
 711 029b 59010000 		.4byte	0x159
 712 029f AA020000 		.4byte	0x2aa
 713 02a3 0B       		.uleb128 0xb
 714 02a4 1B010000 		.4byte	0x11b
 715 02a8 1F       		.byte	0x1f
 716 02a9 00       		.byte	0
 717 02aa 12       		.uleb128 0x12
 718 02ab B4070000 		.4byte	.LASF49
 719 02af 9001     		.2byte	0x190
 720 02b1 08       		.byte	0x8
 721 02b2 5D       		.byte	0x5d
 722 02b3 E8020000 		.4byte	0x2e8
 723 02b7 0D       		.uleb128 0xd
 724 02b8 5B090000 		.4byte	.LASF29
 725 02bc 08       		.byte	0x8
 726 02bd 5E       		.byte	0x5e
 727 02be E8020000 		.4byte	0x2e8
 728 02c2 00       		.byte	0
 729 02c3 0D       		.uleb128 0xd
 730 02c4 1A0A0000 		.4byte	.LASF50
 731 02c8 08       		.byte	0x8
 732 02c9 5F       		.byte	0x5f
 733 02ca 25000000 		.4byte	0x25
 734 02ce 04       		.byte	0x4
 735 02cf 0D       		.uleb128 0xd
 736 02d0 04030000 		.4byte	.LASF51
 737 02d4 08       		.byte	0x8
 738 02d5 61       		.byte	0x61
 739 02d6 EE020000 		.4byte	0x2ee
 740 02da 08       		.byte	0x8
 741 02db 0D       		.uleb128 0xd
ARM GAS  C:\cygwin64\tmp\ccYfXsMJ.s 			page 14


 742 02dc 77010000 		.4byte	.LASF44
 743 02e0 08       		.byte	0x8
 744 02e1 62       		.byte	0x62
 745 02e2 5A020000 		.4byte	0x25a
 746 02e6 88       		.byte	0x88
 747 02e7 00       		.byte	0
 748 02e8 05       		.uleb128 0x5
 749 02e9 04       		.byte	0x4
 750 02ea AA020000 		.4byte	0x2aa
 751 02ee 0A       		.uleb128 0xa
 752 02ef FE020000 		.4byte	0x2fe
 753 02f3 FE020000 		.4byte	0x2fe
 754 02f7 0B       		.uleb128 0xb
 755 02f8 1B010000 		.4byte	0x11b
 756 02fc 1F       		.byte	0x1f
 757 02fd 00       		.byte	0
 758 02fe 05       		.uleb128 0x5
 759 02ff 04       		.byte	0x4
 760 0300 04030000 		.4byte	0x304
 761 0304 14       		.uleb128 0x14
 762 0305 10       		.uleb128 0x10
 763 0306 270A0000 		.4byte	.LASF52
 764 030a 08       		.byte	0x8
 765 030b 08       		.byte	0x8
 766 030c 75       		.byte	0x75
 767 030d 2A030000 		.4byte	0x32a
 768 0311 0D       		.uleb128 0xd
 769 0312 B8080000 		.4byte	.LASF53
 770 0316 08       		.byte	0x8
 771 0317 76       		.byte	0x76
 772 0318 2A030000 		.4byte	0x32a
 773 031c 00       		.byte	0
 774 031d 0D       		.uleb128 0xd
 775 031e BE010000 		.4byte	.LASF54
 776 0322 08       		.byte	0x8
 777 0323 77       		.byte	0x77
 778 0324 25000000 		.4byte	0x25
 779 0328 04       		.byte	0x4
 780 0329 00       		.byte	0
 781 032a 05       		.uleb128 0x5
 782 032b 04       		.byte	0x4
 783 032c 5E000000 		.4byte	0x5e
 784 0330 10       		.uleb128 0x10
 785 0331 84050000 		.4byte	.LASF55
 786 0335 68       		.byte	0x68
 787 0336 08       		.byte	0x8
 788 0337 B5       		.byte	0xb5
 789 0338 5A040000 		.4byte	0x45a
 790 033c 11       		.uleb128 0x11
 791 033d 5F7000   		.ascii	"_p\000"
 792 0340 08       		.byte	0x8
 793 0341 B6       		.byte	0xb6
 794 0342 2A030000 		.4byte	0x32a
 795 0346 00       		.byte	0
 796 0347 11       		.uleb128 0x11
 797 0348 5F7200   		.ascii	"_r\000"
 798 034b 08       		.byte	0x8
ARM GAS  C:\cygwin64\tmp\ccYfXsMJ.s 			page 15


 799 034c B7       		.byte	0xb7
 800 034d 25000000 		.4byte	0x25
 801 0351 04       		.byte	0x4
 802 0352 11       		.uleb128 0x11
 803 0353 5F7700   		.ascii	"_w\000"
 804 0356 08       		.byte	0x8
 805 0357 B8       		.byte	0xb8
 806 0358 25000000 		.4byte	0x25
 807 035c 08       		.byte	0x8
 808 035d 0D       		.uleb128 0xd
 809 035e 93070000 		.4byte	.LASF56
 810 0362 08       		.byte	0x8
 811 0363 B9       		.byte	0xb9
 812 0364 65000000 		.4byte	0x65
 813 0368 0C       		.byte	0xc
 814 0369 0D       		.uleb128 0xd
 815 036a 71010000 		.4byte	.LASF57
 816 036e 08       		.byte	0x8
 817 036f BA       		.byte	0xba
 818 0370 65000000 		.4byte	0x65
 819 0374 0E       		.byte	0xe
 820 0375 11       		.uleb128 0x11
 821 0376 5F626600 		.ascii	"_bf\000"
 822 037a 08       		.byte	0x8
 823 037b BB       		.byte	0xbb
 824 037c 05030000 		.4byte	0x305
 825 0380 10       		.byte	0x10
 826 0381 0D       		.uleb128 0xd
 827 0382 050A0000 		.4byte	.LASF58
 828 0386 08       		.byte	0x8
 829 0387 BC       		.byte	0xbc
 830 0388 25000000 		.4byte	0x25
 831 038c 18       		.byte	0x18
 832 038d 0D       		.uleb128 0xd
 833 038e B1040000 		.4byte	.LASF59
 834 0392 08       		.byte	0x8
 835 0393 C3       		.byte	0xc3
 836 0394 59010000 		.4byte	0x159
 837 0398 1C       		.byte	0x1c
 838 0399 0D       		.uleb128 0xd
 839 039a 65000000 		.4byte	.LASF60
 840 039e 08       		.byte	0x8
 841 039f C5       		.byte	0xc5
 842 03a0 B5050000 		.4byte	0x5b5
 843 03a4 20       		.byte	0x20
 844 03a5 0D       		.uleb128 0xd
 845 03a6 7C000000 		.4byte	.LASF61
 846 03aa 08       		.byte	0x8
 847 03ab C7       		.byte	0xc7
 848 03ac E4050000 		.4byte	0x5e4
 849 03b0 24       		.byte	0x24
 850 03b1 0D       		.uleb128 0xd
 851 03b2 07080000 		.4byte	.LASF62
 852 03b6 08       		.byte	0x8
 853 03b7 CA       		.byte	0xca
 854 03b8 08060000 		.4byte	0x608
 855 03bc 28       		.byte	0x28
ARM GAS  C:\cygwin64\tmp\ccYfXsMJ.s 			page 16


 856 03bd 0D       		.uleb128 0xd
 857 03be 09030000 		.4byte	.LASF63
 858 03c2 08       		.byte	0x8
 859 03c3 CB       		.byte	0xcb
 860 03c4 22060000 		.4byte	0x622
 861 03c8 2C       		.byte	0x2c
 862 03c9 11       		.uleb128 0x11
 863 03ca 5F756200 		.ascii	"_ub\000"
 864 03ce 08       		.byte	0x8
 865 03cf CE       		.byte	0xce
 866 03d0 05030000 		.4byte	0x305
 867 03d4 30       		.byte	0x30
 868 03d5 11       		.uleb128 0x11
 869 03d6 5F757000 		.ascii	"_up\000"
 870 03da 08       		.byte	0x8
 871 03db CF       		.byte	0xcf
 872 03dc 2A030000 		.4byte	0x32a
 873 03e0 38       		.byte	0x38
 874 03e1 11       		.uleb128 0x11
 875 03e2 5F757200 		.ascii	"_ur\000"
 876 03e6 08       		.byte	0x8
 877 03e7 D0       		.byte	0xd0
 878 03e8 25000000 		.4byte	0x25
 879 03ec 3C       		.byte	0x3c
 880 03ed 0D       		.uleb128 0xd
 881 03ee 5B070000 		.4byte	.LASF64
 882 03f2 08       		.byte	0x8
 883 03f3 D3       		.byte	0xd3
 884 03f4 28060000 		.4byte	0x628
 885 03f8 40       		.byte	0x40
 886 03f9 0D       		.uleb128 0xd
 887 03fa E7000000 		.4byte	.LASF65
 888 03fe 08       		.byte	0x8
 889 03ff D4       		.byte	0xd4
 890 0400 38060000 		.4byte	0x638
 891 0404 43       		.byte	0x43
 892 0405 11       		.uleb128 0x11
 893 0406 5F6C6200 		.ascii	"_lb\000"
 894 040a 08       		.byte	0x8
 895 040b D7       		.byte	0xd7
 896 040c 05030000 		.4byte	0x305
 897 0410 44       		.byte	0x44
 898 0411 0D       		.uleb128 0xd
 899 0412 AF080000 		.4byte	.LASF66
 900 0416 08       		.byte	0x8
 901 0417 DA       		.byte	0xda
 902 0418 25000000 		.4byte	0x25
 903 041c 4C       		.byte	0x4c
 904 041d 0D       		.uleb128 0xd
 905 041e E4040000 		.4byte	.LASF67
 906 0422 08       		.byte	0x8
 907 0423 DB       		.byte	0xdb
 908 0424 CA000000 		.4byte	0xca
 909 0428 50       		.byte	0x50
 910 0429 0D       		.uleb128 0xd
 911 042a 61090000 		.4byte	.LASF68
 912 042e 08       		.byte	0x8
ARM GAS  C:\cygwin64\tmp\ccYfXsMJ.s 			page 17


 913 042f DE       		.byte	0xde
 914 0430 78040000 		.4byte	0x478
 915 0434 54       		.byte	0x54
 916 0435 0D       		.uleb128 0xd
 917 0436 06010000 		.4byte	.LASF69
 918 043a 08       		.byte	0x8
 919 043b E2       		.byte	0xe2
 920 043c 4E010000 		.4byte	0x14e
 921 0440 58       		.byte	0x58
 922 0441 0D       		.uleb128 0xd
 923 0442 77070000 		.4byte	.LASF70
 924 0446 08       		.byte	0x8
 925 0447 E4       		.byte	0xe4
 926 0448 43010000 		.4byte	0x143
 927 044c 5C       		.byte	0x5c
 928 044d 0D       		.uleb128 0xd
 929 044e 97050000 		.4byte	.LASF71
 930 0452 08       		.byte	0x8
 931 0453 E5       		.byte	0xe5
 932 0454 25000000 		.4byte	0x25
 933 0458 64       		.byte	0x64
 934 0459 00       		.byte	0
 935 045a 15       		.uleb128 0x15
 936 045b 25000000 		.4byte	0x25
 937 045f 78040000 		.4byte	0x478
 938 0463 16       		.uleb128 0x16
 939 0464 78040000 		.4byte	0x478
 940 0468 16       		.uleb128 0x16
 941 0469 59010000 		.4byte	0x159
 942 046d 16       		.uleb128 0x16
 943 046e 5B010000 		.4byte	0x15b
 944 0472 16       		.uleb128 0x16
 945 0473 25000000 		.4byte	0x25
 946 0477 00       		.byte	0
 947 0478 05       		.uleb128 0x5
 948 0479 04       		.byte	0x4
 949 047a 83040000 		.4byte	0x483
 950 047e 0F       		.uleb128 0xf
 951 047f 78040000 		.4byte	0x478
 952 0483 17       		.uleb128 0x17
 953 0484 CA020000 		.4byte	.LASF72
 954 0488 2804     		.2byte	0x428
 955 048a 08       		.byte	0x8
 956 048b 3902     		.2byte	0x239
 957 048d B5050000 		.4byte	0x5b5
 958 0491 18       		.uleb128 0x18
 959 0492 EE050000 		.4byte	.LASF73
 960 0496 08       		.byte	0x8
 961 0497 3B02     		.2byte	0x23b
 962 0499 25000000 		.4byte	0x25
 963 049d 00       		.byte	0
 964 049e 18       		.uleb128 0x18
 965 049f 2B030000 		.4byte	.LASF74
 966 04a3 08       		.byte	0x8
 967 04a4 4002     		.2byte	0x240
 968 04a6 8F060000 		.4byte	0x68f
 969 04aa 04       		.byte	0x4
ARM GAS  C:\cygwin64\tmp\ccYfXsMJ.s 			page 18


 970 04ab 18       		.uleb128 0x18
 971 04ac A1080000 		.4byte	.LASF75
 972 04b0 08       		.byte	0x8
 973 04b1 4002     		.2byte	0x240
 974 04b3 8F060000 		.4byte	0x68f
 975 04b7 08       		.byte	0x8
 976 04b8 18       		.uleb128 0x18
 977 04b9 61070000 		.4byte	.LASF76
 978 04bd 08       		.byte	0x8
 979 04be 4002     		.2byte	0x240
 980 04c0 8F060000 		.4byte	0x68f
 981 04c4 0C       		.byte	0xc
 982 04c5 18       		.uleb128 0x18
 983 04c6 150A0000 		.4byte	.LASF77
 984 04ca 08       		.byte	0x8
 985 04cb 4202     		.2byte	0x242
 986 04cd 25000000 		.4byte	0x25
 987 04d1 10       		.byte	0x10
 988 04d2 18       		.uleb128 0x18
 989 04d3 85060000 		.4byte	.LASF78
 990 04d7 08       		.byte	0x8
 991 04d8 4302     		.2byte	0x243
 992 04da 71080000 		.4byte	0x871
 993 04de 14       		.byte	0x14
 994 04df 18       		.uleb128 0x18
 995 04e0 B1020000 		.4byte	.LASF79
 996 04e4 08       		.byte	0x8
 997 04e5 4602     		.2byte	0x246
 998 04e7 25000000 		.4byte	0x25
 999 04eb 30       		.byte	0x30
 1000 04ec 18       		.uleb128 0x18
 1001 04ed 7B0A0000 		.4byte	.LASF80
 1002 04f1 08       		.byte	0x8
 1003 04f2 4702     		.2byte	0x247
 1004 04f4 86080000 		.4byte	0x886
 1005 04f8 34       		.byte	0x34
 1006 04f9 18       		.uleb128 0x18
 1007 04fa 8C050000 		.4byte	.LASF81
 1008 04fe 08       		.byte	0x8
 1009 04ff 4902     		.2byte	0x249
 1010 0501 25000000 		.4byte	0x25
 1011 0505 38       		.byte	0x38
 1012 0506 18       		.uleb128 0x18
 1013 0507 67060000 		.4byte	.LASF82
 1014 050b 08       		.byte	0x8
 1015 050c 4B02     		.2byte	0x24b
 1016 050e 97080000 		.4byte	0x897
 1017 0512 3C       		.byte	0x3c
 1018 0513 18       		.uleb128 0x18
 1019 0514 9A0A0000 		.4byte	.LASF83
 1020 0518 08       		.byte	0x8
 1021 0519 4E02     		.2byte	0x24e
 1022 051b CB010000 		.4byte	0x1cb
 1023 051f 40       		.byte	0x40
 1024 0520 18       		.uleb128 0x18
 1025 0521 B4010000 		.4byte	.LASF84
 1026 0525 08       		.byte	0x8
ARM GAS  C:\cygwin64\tmp\ccYfXsMJ.s 			page 19


 1027 0526 4F02     		.2byte	0x24f
 1028 0528 25000000 		.4byte	0x25
 1029 052c 44       		.byte	0x44
 1030 052d 18       		.uleb128 0x18
 1031 052e 58050000 		.4byte	.LASF85
 1032 0532 08       		.byte	0x8
 1033 0533 5002     		.2byte	0x250
 1034 0535 CB010000 		.4byte	0x1cb
 1035 0539 48       		.byte	0x48
 1036 053a 18       		.uleb128 0x18
 1037 053b CD060000 		.4byte	.LASF86
 1038 053f 08       		.byte	0x8
 1039 0540 5102     		.2byte	0x251
 1040 0542 9D080000 		.4byte	0x89d
 1041 0546 4C       		.byte	0x4c
 1042 0547 18       		.uleb128 0x18
 1043 0548 98000000 		.4byte	.LASF87
 1044 054c 08       		.byte	0x8
 1045 054d 5402     		.2byte	0x254
 1046 054f 25000000 		.4byte	0x25
 1047 0553 50       		.byte	0x50
 1048 0554 18       		.uleb128 0x18
 1049 0555 19050000 		.4byte	.LASF88
 1050 0559 08       		.byte	0x8
 1051 055a 5502     		.2byte	0x255
 1052 055c 5B010000 		.4byte	0x15b
 1053 0560 54       		.byte	0x54
 1054 0561 18       		.uleb128 0x18
 1055 0562 56070000 		.4byte	.LASF89
 1056 0566 08       		.byte	0x8
 1057 0567 7802     		.2byte	0x278
 1058 0569 4F080000 		.4byte	0x84f
 1059 056d 58       		.byte	0x58
 1060 056e 19       		.uleb128 0x19
 1061 056f B4070000 		.4byte	.LASF49
 1062 0573 08       		.byte	0x8
 1063 0574 7C02     		.2byte	0x27c
 1064 0576 E8020000 		.4byte	0x2e8
 1065 057a 4801     		.2byte	0x148
 1066 057c 19       		.uleb128 0x19
 1067 057d 71060000 		.4byte	.LASF90
 1068 0581 08       		.byte	0x8
 1069 0582 7D02     		.2byte	0x27d
 1070 0584 AA020000 		.4byte	0x2aa
 1071 0588 4C01     		.2byte	0x14c
 1072 058a 19       		.uleb128 0x19
 1073 058b DA040000 		.4byte	.LASF91
 1074 058f 08       		.byte	0x8
 1075 0590 8102     		.2byte	0x281
 1076 0592 AE080000 		.4byte	0x8ae
 1077 0596 DC02     		.2byte	0x2dc
 1078 0598 19       		.uleb128 0x19
 1079 0599 AD060000 		.4byte	.LASF92
 1080 059d 08       		.byte	0x8
 1081 059e 8602     		.2byte	0x286
 1082 05a0 54060000 		.4byte	0x654
 1083 05a4 E002     		.2byte	0x2e0
ARM GAS  C:\cygwin64\tmp\ccYfXsMJ.s 			page 20


 1084 05a6 19       		.uleb128 0x19
 1085 05a7 4A000000 		.4byte	.LASF93
 1086 05ab 08       		.byte	0x8
 1087 05ac 8702     		.2byte	0x287
 1088 05ae BA080000 		.4byte	0x8ba
 1089 05b2 EC02     		.2byte	0x2ec
 1090 05b4 00       		.byte	0
 1091 05b5 05       		.uleb128 0x5
 1092 05b6 04       		.byte	0x4
 1093 05b7 5A040000 		.4byte	0x45a
 1094 05bb 15       		.uleb128 0x15
 1095 05bc 25000000 		.4byte	0x25
 1096 05c0 D9050000 		.4byte	0x5d9
 1097 05c4 16       		.uleb128 0x16
 1098 05c5 78040000 		.4byte	0x478
 1099 05c9 16       		.uleb128 0x16
 1100 05ca 59010000 		.4byte	0x159
 1101 05ce 16       		.uleb128 0x16
 1102 05cf D9050000 		.4byte	0x5d9
 1103 05d3 16       		.uleb128 0x16
 1104 05d4 25000000 		.4byte	0x25
 1105 05d8 00       		.byte	0
 1106 05d9 05       		.uleb128 0x5
 1107 05da 04       		.byte	0x4
 1108 05db 68010000 		.4byte	0x168
 1109 05df 1A       		.uleb128 0x1a
 1110 05e0 D9050000 		.4byte	0x5d9
 1111 05e4 05       		.uleb128 0x5
 1112 05e5 04       		.byte	0x4
 1113 05e6 BB050000 		.4byte	0x5bb
 1114 05ea 15       		.uleb128 0x15
 1115 05eb D5000000 		.4byte	0xd5
 1116 05ef 08060000 		.4byte	0x608
 1117 05f3 16       		.uleb128 0x16
 1118 05f4 78040000 		.4byte	0x478
 1119 05f8 16       		.uleb128 0x16
 1120 05f9 59010000 		.4byte	0x159
 1121 05fd 16       		.uleb128 0x16
 1122 05fe D5000000 		.4byte	0xd5
 1123 0602 16       		.uleb128 0x16
 1124 0603 25000000 		.4byte	0x25
 1125 0607 00       		.byte	0
 1126 0608 05       		.uleb128 0x5
 1127 0609 04       		.byte	0x4
 1128 060a EA050000 		.4byte	0x5ea
 1129 060e 15       		.uleb128 0x15
 1130 060f 25000000 		.4byte	0x25
 1131 0613 22060000 		.4byte	0x622
 1132 0617 16       		.uleb128 0x16
 1133 0618 78040000 		.4byte	0x478
 1134 061c 16       		.uleb128 0x16
 1135 061d 59010000 		.4byte	0x159
 1136 0621 00       		.byte	0
 1137 0622 05       		.uleb128 0x5
 1138 0623 04       		.byte	0x4
 1139 0624 0E060000 		.4byte	0x60e
 1140 0628 0A       		.uleb128 0xa
ARM GAS  C:\cygwin64\tmp\ccYfXsMJ.s 			page 21


 1141 0629 5E000000 		.4byte	0x5e
 1142 062d 38060000 		.4byte	0x638
 1143 0631 0B       		.uleb128 0xb
 1144 0632 1B010000 		.4byte	0x11b
 1145 0636 02       		.byte	0x2
 1146 0637 00       		.byte	0
 1147 0638 0A       		.uleb128 0xa
 1148 0639 5E000000 		.4byte	0x5e
 1149 063d 48060000 		.4byte	0x648
 1150 0641 0B       		.uleb128 0xb
 1151 0642 1B010000 		.4byte	0x11b
 1152 0646 00       		.byte	0
 1153 0647 00       		.byte	0
 1154 0648 07       		.uleb128 0x7
 1155 0649 23090000 		.4byte	.LASF94
 1156 064d 08       		.byte	0x8
 1157 064e 1F01     		.2byte	0x11f
 1158 0650 30030000 		.4byte	0x330
 1159 0654 1B       		.uleb128 0x1b
 1160 0655 DD060000 		.4byte	.LASF95
 1161 0659 0C       		.byte	0xc
 1162 065a 08       		.byte	0x8
 1163 065b 2301     		.2byte	0x123
 1164 065d 89060000 		.4byte	0x689
 1165 0661 18       		.uleb128 0x18
 1166 0662 5B090000 		.4byte	.LASF29
 1167 0666 08       		.byte	0x8
 1168 0667 2501     		.2byte	0x125
 1169 0669 89060000 		.4byte	0x689
 1170 066d 00       		.byte	0
 1171 066e 18       		.uleb128 0x18
 1172 066f A6060000 		.4byte	.LASF96
 1173 0673 08       		.byte	0x8
 1174 0674 2601     		.2byte	0x126
 1175 0676 25000000 		.4byte	0x25
 1176 067a 04       		.byte	0x4
 1177 067b 18       		.uleb128 0x18
 1178 067c D7060000 		.4byte	.LASF97
 1179 0680 08       		.byte	0x8
 1180 0681 2701     		.2byte	0x127
 1181 0683 8F060000 		.4byte	0x68f
 1182 0687 08       		.byte	0x8
 1183 0688 00       		.byte	0
 1184 0689 05       		.uleb128 0x5
 1185 068a 04       		.byte	0x4
 1186 068b 54060000 		.4byte	0x654
 1187 068f 05       		.uleb128 0x5
 1188 0690 04       		.byte	0x4
 1189 0691 48060000 		.4byte	0x648
 1190 0695 1B       		.uleb128 0x1b
 1191 0696 99080000 		.4byte	.LASF98
 1192 069a 0E       		.byte	0xe
 1193 069b 08       		.byte	0x8
 1194 069c 3F01     		.2byte	0x13f
 1195 069e CA060000 		.4byte	0x6ca
 1196 06a2 18       		.uleb128 0x18
 1197 06a3 01080000 		.4byte	.LASF99
ARM GAS  C:\cygwin64\tmp\ccYfXsMJ.s 			page 22


 1198 06a7 08       		.byte	0x8
 1199 06a8 4001     		.2byte	0x140
 1200 06aa CA060000 		.4byte	0x6ca
 1201 06ae 00       		.byte	0
 1202 06af 18       		.uleb128 0x18
 1203 06b0 12010000 		.4byte	.LASF100
 1204 06b4 08       		.byte	0x8
 1205 06b5 4101     		.2byte	0x141
 1206 06b7 CA060000 		.4byte	0x6ca
 1207 06bb 06       		.byte	0x6
 1208 06bc 18       		.uleb128 0x18
 1209 06bd B90A0000 		.4byte	.LASF101
 1210 06c1 08       		.byte	0x8
 1211 06c2 4201     		.2byte	0x142
 1212 06c4 77000000 		.4byte	0x77
 1213 06c8 0C       		.byte	0xc
 1214 06c9 00       		.byte	0
 1215 06ca 0A       		.uleb128 0xa
 1216 06cb 77000000 		.4byte	0x77
 1217 06cf DA060000 		.4byte	0x6da
 1218 06d3 0B       		.uleb128 0xb
 1219 06d4 1B010000 		.4byte	0x11b
 1220 06d8 02       		.byte	0x2
 1221 06d9 00       		.byte	0
 1222 06da 1C       		.uleb128 0x1c
 1223 06db D0       		.byte	0xd0
 1224 06dc 08       		.byte	0x8
 1225 06dd 5902     		.2byte	0x259
 1226 06df DB070000 		.4byte	0x7db
 1227 06e3 18       		.uleb128 0x18
 1228 06e4 3D020000 		.4byte	.LASF102
 1229 06e8 08       		.byte	0x8
 1230 06e9 5B02     		.2byte	0x25b
 1231 06eb 37000000 		.4byte	0x37
 1232 06ef 00       		.byte	0
 1233 06f0 18       		.uleb128 0x18
 1234 06f1 EB080000 		.4byte	.LASF103
 1235 06f5 08       		.byte	0x8
 1236 06f6 5C02     		.2byte	0x25c
 1237 06f8 5B010000 		.4byte	0x15b
 1238 06fc 04       		.byte	0x4
 1239 06fd 18       		.uleb128 0x18
 1240 06fe 8B000000 		.4byte	.LASF104
 1241 0702 08       		.byte	0x8
 1242 0703 5D02     		.2byte	0x25d
 1243 0705 DB070000 		.4byte	0x7db
 1244 0709 08       		.byte	0x8
 1245 070a 18       		.uleb128 0x18
 1246 070b C9010000 		.4byte	.LASF105
 1247 070f 08       		.byte	0x8
 1248 0710 5E02     		.2byte	0x25e
 1249 0712 E1010000 		.4byte	0x1e1
 1250 0716 24       		.byte	0x24
 1251 0717 18       		.uleb128 0x18
 1252 0718 BE060000 		.4byte	.LASF106
 1253 071c 08       		.byte	0x8
 1254 071d 5F02     		.2byte	0x25f
ARM GAS  C:\cygwin64\tmp\ccYfXsMJ.s 			page 23


 1255 071f 25000000 		.4byte	0x25
 1256 0723 48       		.byte	0x48
 1257 0724 18       		.uleb128 0x18
 1258 0725 88070000 		.4byte	.LASF107
 1259 0729 08       		.byte	0x8
 1260 072a 6002     		.2byte	0x260
 1261 072c AD000000 		.4byte	0xad
 1262 0730 50       		.byte	0x50
 1263 0731 18       		.uleb128 0x18
 1264 0732 48090000 		.4byte	.LASF108
 1265 0736 08       		.byte	0x8
 1266 0737 6102     		.2byte	0x261
 1267 0739 95060000 		.4byte	0x695
 1268 073d 58       		.byte	0x58
 1269 073e 18       		.uleb128 0x18
 1270 073f 95090000 		.4byte	.LASF109
 1271 0743 08       		.byte	0x8
 1272 0744 6202     		.2byte	0x262
 1273 0746 43010000 		.4byte	0x143
 1274 074a 68       		.byte	0x68
 1275 074b 18       		.uleb128 0x18
 1276 074c 2D080000 		.4byte	.LASF110
 1277 0750 08       		.byte	0x8
 1278 0751 6302     		.2byte	0x263
 1279 0753 43010000 		.4byte	0x143
 1280 0757 70       		.byte	0x70
 1281 0758 18       		.uleb128 0x18
 1282 0759 69070000 		.4byte	.LASF111
 1283 075d 08       		.byte	0x8
 1284 075e 6402     		.2byte	0x264
 1285 0760 43010000 		.4byte	0x143
 1286 0764 78       		.byte	0x78
 1287 0765 18       		.uleb128 0x18
 1288 0766 F6000000 		.4byte	.LASF112
 1289 076a 08       		.byte	0x8
 1290 076b 6502     		.2byte	0x265
 1291 076d EB070000 		.4byte	0x7eb
 1292 0771 80       		.byte	0x80
 1293 0772 18       		.uleb128 0x18
 1294 0773 18060000 		.4byte	.LASF113
 1295 0777 08       		.byte	0x8
 1296 0778 6602     		.2byte	0x266
 1297 077a FB070000 		.4byte	0x7fb
 1298 077e 88       		.byte	0x88
 1299 077f 18       		.uleb128 0x18
 1300 0780 820B0000 		.4byte	.LASF114
 1301 0784 08       		.byte	0x8
 1302 0785 6702     		.2byte	0x267
 1303 0787 25000000 		.4byte	0x25
 1304 078b A0       		.byte	0xa0
 1305 078c 18       		.uleb128 0x18
 1306 078d 85010000 		.4byte	.LASF115
 1307 0791 08       		.byte	0x8
 1308 0792 6802     		.2byte	0x268
 1309 0794 43010000 		.4byte	0x143
 1310 0798 A4       		.byte	0xa4
 1311 0799 18       		.uleb128 0x18
ARM GAS  C:\cygwin64\tmp\ccYfXsMJ.s 			page 24


 1312 079a F8080000 		.4byte	.LASF116
 1313 079e 08       		.byte	0x8
 1314 079f 6902     		.2byte	0x269
 1315 07a1 43010000 		.4byte	0x143
 1316 07a5 AC       		.byte	0xac
 1317 07a6 18       		.uleb128 0x18
 1318 07a7 060B0000 		.4byte	.LASF117
 1319 07ab 08       		.byte	0x8
 1320 07ac 6A02     		.2byte	0x26a
 1321 07ae 43010000 		.4byte	0x143
 1322 07b2 B4       		.byte	0xb4
 1323 07b3 18       		.uleb128 0x18
 1324 07b4 2E070000 		.4byte	.LASF118
 1325 07b8 08       		.byte	0x8
 1326 07b9 6B02     		.2byte	0x26b
 1327 07bb 43010000 		.4byte	0x143
 1328 07bf BC       		.byte	0xbc
 1329 07c0 18       		.uleb128 0x18
 1330 07c1 D6000000 		.4byte	.LASF119
 1331 07c5 08       		.byte	0x8
 1332 07c6 6C02     		.2byte	0x26c
 1333 07c8 43010000 		.4byte	0x143
 1334 07cc C4       		.byte	0xc4
 1335 07cd 18       		.uleb128 0x18
 1336 07ce 25070000 		.4byte	.LASF120
 1337 07d2 08       		.byte	0x8
 1338 07d3 6D02     		.2byte	0x26d
 1339 07d5 25000000 		.4byte	0x25
 1340 07d9 CC       		.byte	0xcc
 1341 07da 00       		.byte	0
 1342 07db 0A       		.uleb128 0xa
 1343 07dc 61010000 		.4byte	0x161
 1344 07e0 EB070000 		.4byte	0x7eb
 1345 07e4 0B       		.uleb128 0xb
 1346 07e5 1B010000 		.4byte	0x11b
 1347 07e9 19       		.byte	0x19
 1348 07ea 00       		.byte	0
 1349 07eb 0A       		.uleb128 0xa
 1350 07ec 61010000 		.4byte	0x161
 1351 07f0 FB070000 		.4byte	0x7fb
 1352 07f4 0B       		.uleb128 0xb
 1353 07f5 1B010000 		.4byte	0x11b
 1354 07f9 07       		.byte	0x7
 1355 07fa 00       		.byte	0
 1356 07fb 0A       		.uleb128 0xa
 1357 07fc 61010000 		.4byte	0x161
 1358 0800 0B080000 		.4byte	0x80b
 1359 0804 0B       		.uleb128 0xb
 1360 0805 1B010000 		.4byte	0x11b
 1361 0809 17       		.byte	0x17
 1362 080a 00       		.byte	0
 1363 080b 1C       		.uleb128 0x1c
 1364 080c F0       		.byte	0xf0
 1365 080d 08       		.byte	0x8
 1366 080e 7202     		.2byte	0x272
 1367 0810 2F080000 		.4byte	0x82f
 1368 0814 18       		.uleb128 0x18
ARM GAS  C:\cygwin64\tmp\ccYfXsMJ.s 			page 25


 1369 0815 4E0A0000 		.4byte	.LASF121
 1370 0819 08       		.byte	0x8
 1371 081a 7502     		.2byte	0x275
 1372 081c 2F080000 		.4byte	0x82f
 1373 0820 00       		.byte	0
 1374 0821 18       		.uleb128 0x18
 1375 0822 B5060000 		.4byte	.LASF122
 1376 0826 08       		.byte	0x8
 1377 0827 7602     		.2byte	0x276
 1378 0829 3F080000 		.4byte	0x83f
 1379 082d 78       		.byte	0x78
 1380 082e 00       		.byte	0
 1381 082f 0A       		.uleb128 0xa
 1382 0830 2A030000 		.4byte	0x32a
 1383 0834 3F080000 		.4byte	0x83f
 1384 0838 0B       		.uleb128 0xb
 1385 0839 1B010000 		.4byte	0x11b
 1386 083d 1D       		.byte	0x1d
 1387 083e 00       		.byte	0
 1388 083f 0A       		.uleb128 0xa
 1389 0840 37000000 		.4byte	0x37
 1390 0844 4F080000 		.4byte	0x84f
 1391 0848 0B       		.uleb128 0xb
 1392 0849 1B010000 		.4byte	0x11b
 1393 084d 1D       		.byte	0x1d
 1394 084e 00       		.byte	0
 1395 084f 1D       		.uleb128 0x1d
 1396 0850 F0       		.byte	0xf0
 1397 0851 08       		.byte	0x8
 1398 0852 5702     		.2byte	0x257
 1399 0854 71080000 		.4byte	0x871
 1400 0858 1E       		.uleb128 0x1e
 1401 0859 CA020000 		.4byte	.LASF72
 1402 085d 08       		.byte	0x8
 1403 085e 6E02     		.2byte	0x26e
 1404 0860 DA060000 		.4byte	0x6da
 1405 0864 1E       		.uleb128 0x1e
 1406 0865 C9000000 		.4byte	.LASF123
 1407 0869 08       		.byte	0x8
 1408 086a 7702     		.2byte	0x277
 1409 086c 0B080000 		.4byte	0x80b
 1410 0870 00       		.byte	0
 1411 0871 0A       		.uleb128 0xa
 1412 0872 61010000 		.4byte	0x161
 1413 0876 81080000 		.4byte	0x881
 1414 087a 0B       		.uleb128 0xb
 1415 087b 1B010000 		.4byte	0x11b
 1416 087f 18       		.byte	0x18
 1417 0880 00       		.byte	0
 1418 0881 06       		.uleb128 0x6
 1419 0882 21000000 		.4byte	.LASF125
 1420 0886 05       		.uleb128 0x5
 1421 0887 04       		.byte	0x4
 1422 0888 81080000 		.4byte	0x881
 1423 088c 1F       		.uleb128 0x1f
 1424 088d 97080000 		.4byte	0x897
 1425 0891 16       		.uleb128 0x16
ARM GAS  C:\cygwin64\tmp\ccYfXsMJ.s 			page 26


 1426 0892 78040000 		.4byte	0x478
 1427 0896 00       		.byte	0
 1428 0897 05       		.uleb128 0x5
 1429 0898 04       		.byte	0x4
 1430 0899 8C080000 		.4byte	0x88c
 1431 089d 05       		.uleb128 0x5
 1432 089e 04       		.byte	0x4
 1433 089f CB010000 		.4byte	0x1cb
 1434 08a3 1F       		.uleb128 0x1f
 1435 08a4 AE080000 		.4byte	0x8ae
 1436 08a8 16       		.uleb128 0x16
 1437 08a9 25000000 		.4byte	0x25
 1438 08ad 00       		.byte	0
 1439 08ae 05       		.uleb128 0x5
 1440 08af 04       		.byte	0x4
 1441 08b0 B4080000 		.4byte	0x8b4
 1442 08b4 05       		.uleb128 0x5
 1443 08b5 04       		.byte	0x4
 1444 08b6 A3080000 		.4byte	0x8a3
 1445 08ba 0A       		.uleb128 0xa
 1446 08bb 48060000 		.4byte	0x648
 1447 08bf CA080000 		.4byte	0x8ca
 1448 08c3 0B       		.uleb128 0xb
 1449 08c4 1B010000 		.4byte	0x11b
 1450 08c8 02       		.byte	0x2
 1451 08c9 00       		.byte	0
 1452 08ca 20       		.uleb128 0x20
 1453 08cb A8010000 		.4byte	.LASF126
 1454 08cf 08       		.byte	0x8
 1455 08d0 FE02     		.2byte	0x2fe
 1456 08d2 78040000 		.4byte	0x478
 1457 08d6 20       		.uleb128 0x20
 1458 08d7 D1020000 		.4byte	.LASF127
 1459 08db 08       		.byte	0x8
 1460 08dc FF02     		.2byte	0x2ff
 1461 08de 7E040000 		.4byte	0x47e
 1462 08e2 03       		.uleb128 0x3
 1463 08e3 5D020000 		.4byte	.LASF128
 1464 08e7 09       		.byte	0x9
 1465 08e8 18       		.byte	0x18
 1466 08e9 53000000 		.4byte	0x53
 1467 08ed 03       		.uleb128 0x3
 1468 08ee 64080000 		.4byte	.LASF129
 1469 08f2 09       		.byte	0x9
 1470 08f3 24       		.byte	0x24
 1471 08f4 6C000000 		.4byte	0x6c
 1472 08f8 03       		.uleb128 0x3
 1473 08f9 83000000 		.4byte	.LASF130
 1474 08fd 09       		.byte	0x9
 1475 08fe 2C       		.byte	0x2c
 1476 08ff 7E000000 		.4byte	0x7e
 1477 0903 1A       		.uleb128 0x1a
 1478 0904 F8080000 		.4byte	0x8f8
 1479 0908 03       		.uleb128 0x3
 1480 0909 910A0000 		.4byte	.LASF131
 1481 090d 09       		.byte	0x9
 1482 090e 30       		.byte	0x30
ARM GAS  C:\cygwin64\tmp\ccYfXsMJ.s 			page 27


 1483 090f 90000000 		.4byte	0x90
 1484 0913 03       		.uleb128 0x3
 1485 0914 AC090000 		.4byte	.LASF132
 1486 0918 09       		.byte	0x9
 1487 0919 3C       		.byte	0x3c
 1488 091a A2000000 		.4byte	0xa2
 1489 091e 03       		.uleb128 0x3
 1490 091f 18070000 		.4byte	.LASF133
 1491 0923 0A       		.byte	0xa
 1492 0924 39       		.byte	0x39
 1493 0925 08090000 		.4byte	0x908
 1494 0929 03       		.uleb128 0x3
 1495 092a E1010000 		.4byte	.LASF134
 1496 092e 0A       		.byte	0xa
 1497 092f 3A       		.byte	0x3a
 1498 0930 13090000 		.4byte	0x913
 1499 0934 03       		.uleb128 0x3
 1500 0935 6D090000 		.4byte	.LASF135
 1501 0939 0A       		.byte	0xa
 1502 093a 3C       		.byte	0x3c
 1503 093b E2080000 		.4byte	0x8e2
 1504 093f 03       		.uleb128 0x3
 1505 0940 D8010000 		.4byte	.LASF136
 1506 0944 0A       		.byte	0xa
 1507 0945 3D       		.byte	0x3d
 1508 0946 E2080000 		.4byte	0x8e2
 1509 094a 03       		.uleb128 0x3
 1510 094b 460A0000 		.4byte	.LASF137
 1511 094f 0A       		.byte	0xa
 1512 0950 3E       		.byte	0x3e
 1513 0951 E2080000 		.4byte	0x8e2
 1514 0955 03       		.uleb128 0x3
 1515 0956 6B000000 		.4byte	.LASF138
 1516 095a 0A       		.byte	0xa
 1517 095b 40       		.byte	0x40
 1518 095c 08090000 		.4byte	0x908
 1519 0960 03       		.uleb128 0x3
 1520 0961 82080000 		.4byte	.LASF139
 1521 0965 0A       		.byte	0xa
 1522 0966 41       		.byte	0x41
 1523 0967 F8080000 		.4byte	0x8f8
 1524 096b 03       		.uleb128 0x3
 1525 096c 65020000 		.4byte	.LASF140
 1526 0970 0A       		.byte	0xa
 1527 0971 43       		.byte	0x43
 1528 0972 08090000 		.4byte	0x908
 1529 0976 03       		.uleb128 0x3
 1530 0977 AB040000 		.4byte	.LASF141
 1531 097b 0A       		.byte	0xa
 1532 097c 45       		.byte	0x45
 1533 097d F8080000 		.4byte	0x8f8
 1534 0981 03       		.uleb128 0x3
 1535 0982 2D060000 		.4byte	.LASF142
 1536 0986 0A       		.byte	0xa
 1537 0987 46       		.byte	0x46
 1538 0988 08090000 		.4byte	0x908
 1539 098c 03       		.uleb128 0x3
ARM GAS  C:\cygwin64\tmp\ccYfXsMJ.s 			page 28


 1540 098d 34000000 		.4byte	.LASF143
 1541 0991 0B       		.byte	0xb
 1542 0992 33       		.byte	0x33
 1543 0993 08090000 		.4byte	0x908
 1544 0997 03       		.uleb128 0x3
 1545 0998 CE070000 		.4byte	.LASF144
 1546 099c 0B       		.byte	0xb
 1547 099d 3F       		.byte	0x3f
 1548 099e A2090000 		.4byte	0x9a2
 1549 09a2 10       		.uleb128 0x10
 1550 09a3 BC050000 		.4byte	.LASF145
 1551 09a7 60       		.byte	0x60
 1552 09a8 0C       		.byte	0xc
 1553 09a9 9A       		.byte	0x9a
 1554 09aa 8D0A0000 		.4byte	0xa8d
 1555 09ae 0D       		.uleb128 0xd
 1556 09af BE080000 		.4byte	.LASF146
 1557 09b3 0C       		.byte	0xc
 1558 09b4 9B       		.byte	0x9b
 1559 09b5 C20A0000 		.4byte	0xac2
 1560 09b9 00       		.byte	0
 1561 09ba 0D       		.uleb128 0xd
 1562 09bb 42010000 		.4byte	.LASF147
 1563 09bf 0C       		.byte	0xc
 1564 09c0 9C       		.byte	0x9c
 1565 09c1 55090000 		.4byte	0x955
 1566 09c5 08       		.byte	0x8
 1567 09c6 11       		.uleb128 0x11
 1568 09c7 63747800 		.ascii	"ctx\000"
 1569 09cb 0C       		.byte	0xc
 1570 09cc 9D       		.byte	0x9d
 1571 09cd D50C0000 		.4byte	0xcd5
 1572 09d1 0C       		.byte	0xc
 1573 09d2 0D       		.uleb128 0xd
 1574 09d3 8B0A0000 		.4byte	.LASF148
 1575 09d7 0C       		.byte	0xc
 1576 09d8 9F       		.byte	0x9f
 1577 09d9 980A0000 		.4byte	0xa98
 1578 09dd 10       		.byte	0x10
 1579 09de 0D       		.uleb128 0xd
 1580 09df 12060000 		.4byte	.LASF149
 1581 09e3 0C       		.byte	0xc
 1582 09e4 A0       		.byte	0xa0
 1583 09e5 980A0000 		.4byte	0xa98
 1584 09e9 14       		.byte	0x14
 1585 09ea 0D       		.uleb128 0xd
 1586 09eb 86090000 		.4byte	.LASF150
 1587 09ef 0C       		.byte	0xc
 1588 09f0 A7       		.byte	0xa7
 1589 09f1 D9050000 		.4byte	0x5d9
 1590 09f5 18       		.byte	0x18
 1591 09f6 0D       		.uleb128 0xd
 1592 09f7 4D090000 		.4byte	.LASF151
 1593 09fb 0C       		.byte	0xc
 1594 09fc B0       		.byte	0xb0
 1595 09fd BC0F0000 		.4byte	0xfbc
 1596 0a01 1C       		.byte	0x1c
ARM GAS  C:\cygwin64\tmp\ccYfXsMJ.s 			page 29


 1597 0a02 0D       		.uleb128 0xd
 1598 0a03 00010000 		.4byte	.LASF152
 1599 0a07 0C       		.byte	0xc
 1600 0a08 B5       		.byte	0xb5
 1601 0a09 3F090000 		.4byte	0x93f
 1602 0a0d 20       		.byte	0x20
 1603 0a0e 0D       		.uleb128 0xd
 1604 0a0f 48040000 		.4byte	.LASF153
 1605 0a13 0C       		.byte	0xc
 1606 0a14 B9       		.byte	0xb9
 1607 0a15 34090000 		.4byte	0x934
 1608 0a19 21       		.byte	0x21
 1609 0a1a 0D       		.uleb128 0xd
 1610 0a1b 20070000 		.4byte	.LASF154
 1611 0a1f 0C       		.byte	0xc
 1612 0a20 BE       		.byte	0xbe
 1613 0a21 4A090000 		.4byte	0x94a
 1614 0a25 22       		.byte	0x22
 1615 0a26 21       		.uleb128 0x21
 1616 0a27 7500     		.ascii	"u\000"
 1617 0a29 0C       		.byte	0xc
 1618 0a2a 0F01     		.2byte	0x10f
 1619 0a2c F10E0000 		.4byte	0xef1
 1620 0a30 24       		.byte	0x24
 1621 0a31 18       		.uleb128 0x18
 1622 0a32 1F0A0000 		.4byte	.LASF155
 1623 0a36 0C       		.byte	0xc
 1624 0a37 1401     		.2byte	0x114
 1625 0a39 9E0A0000 		.4byte	0xa9e
 1626 0a3d 28       		.byte	0x28
 1627 0a3e 18       		.uleb128 0x18
 1628 0a3f D9090000 		.4byte	.LASF156
 1629 0a43 0C       		.byte	0xc
 1630 0a44 1A01     		.2byte	0x11a
 1631 0a46 C20A0000 		.4byte	0xac2
 1632 0a4a 2C       		.byte	0x2c
 1633 0a4b 18       		.uleb128 0x18
 1634 0a4c C4080000 		.4byte	.LASF157
 1635 0a50 0C       		.byte	0xc
 1636 0a51 2001     		.2byte	0x120
 1637 0a53 6B090000 		.4byte	0x96b
 1638 0a57 34       		.byte	0x34
 1639 0a58 18       		.uleb128 0x18
 1640 0a59 90060000 		.4byte	.LASF158
 1641 0a5d 0C       		.byte	0xc
 1642 0a5e 2701     		.2byte	0x127
 1643 0a60 B60F0000 		.4byte	0xfb6
 1644 0a64 38       		.byte	0x38
 1645 0a65 18       		.uleb128 0x18
 1646 0a66 24060000 		.4byte	.LASF159
 1647 0a6a 0C       		.byte	0xc
 1648 0a6b 2B01     		.2byte	0x12b
 1649 0a6d 55090000 		.4byte	0x955
 1650 0a71 3C       		.byte	0x3c
 1651 0a72 18       		.uleb128 0x18
 1652 0a73 8E040000 		.4byte	.LASF160
 1653 0a77 0C       		.byte	0xc
ARM GAS  C:\cygwin64\tmp\ccYfXsMJ.s 			page 30


 1654 0a78 3201     		.2byte	0x132
 1655 0a7a 59010000 		.4byte	0x159
 1656 0a7e 40       		.byte	0x40
 1657 0a7f 18       		.uleb128 0x18
 1658 0a80 0C010000 		.4byte	.LASF161
 1659 0a84 0C       		.byte	0xc
 1660 0a85 3801     		.2byte	0x138
 1661 0a87 A20E0000 		.4byte	0xea2
 1662 0a8b 48       		.byte	0x48
 1663 0a8c 00       		.byte	0
 1664 0a8d 03       		.uleb128 0x3
 1665 0a8e A1070000 		.4byte	.LASF162
 1666 0a92 0B       		.byte	0xb
 1667 0a93 44       		.byte	0x44
 1668 0a94 980A0000 		.4byte	0xa98
 1669 0a98 05       		.uleb128 0x5
 1670 0a99 04       		.byte	0x4
 1671 0a9a 97090000 		.4byte	0x997
 1672 0a9e 03       		.uleb128 0x3
 1673 0a9f 620A0000 		.4byte	.LASF163
 1674 0aa3 0B       		.byte	0xb
 1675 0aa4 49       		.byte	0x49
 1676 0aa5 A90A0000 		.4byte	0xaa9
 1677 0aa9 10       		.uleb128 0x10
 1678 0aaa 49060000 		.4byte	.LASF164
 1679 0aae 04       		.byte	0x4
 1680 0aaf 0C       		.byte	0xc
 1681 0ab0 88       		.byte	0x88
 1682 0ab1 C20A0000 		.4byte	0xac2
 1683 0ab5 0D       		.uleb128 0xd
 1684 0ab6 690B0000 		.4byte	.LASF165
 1685 0aba 0C       		.byte	0xc
 1686 0abb 89       		.byte	0x89
 1687 0abc 980A0000 		.4byte	0xa98
 1688 0ac0 00       		.byte	0
 1689 0ac1 00       		.byte	0
 1690 0ac2 03       		.uleb128 0x3
 1691 0ac3 EA010000 		.4byte	.LASF166
 1692 0ac7 0B       		.byte	0xb
 1693 0ac8 50       		.byte	0x50
 1694 0ac9 CD0A0000 		.4byte	0xacd
 1695 0acd 10       		.uleb128 0x10
 1696 0ace 88080000 		.4byte	.LASF167
 1697 0ad2 08       		.byte	0x8
 1698 0ad3 0C       		.byte	0xc
 1699 0ad4 8F       		.byte	0x8f
 1700 0ad5 F20A0000 		.4byte	0xaf2
 1701 0ad9 0D       		.uleb128 0xd
 1702 0ada 690B0000 		.4byte	.LASF165
 1703 0ade 0C       		.byte	0xc
 1704 0adf 90       		.byte	0x90
 1705 0ae0 980A0000 		.4byte	0xa98
 1706 0ae4 00       		.byte	0
 1707 0ae5 0D       		.uleb128 0xd
 1708 0ae6 170B0000 		.4byte	.LASF168
 1709 0aea 0C       		.byte	0xc
 1710 0aeb 91       		.byte	0x91
ARM GAS  C:\cygwin64\tmp\ccYfXsMJ.s 			page 31


 1711 0aec 980A0000 		.4byte	0xa98
 1712 0af0 04       		.byte	0x4
 1713 0af1 00       		.byte	0
 1714 0af2 03       		.uleb128 0x3
 1715 0af3 05060000 		.4byte	.LASF169
 1716 0af7 0B       		.byte	0xb
 1717 0af8 57       		.byte	0x57
 1718 0af9 FD0A0000 		.4byte	0xafd
 1719 0afd 1B       		.uleb128 0x1b
 1720 0afe C5040000 		.4byte	.LASF170
 1721 0b02 1C       		.byte	0x1c
 1722 0b03 0C       		.byte	0xc
 1723 0b04 6A01     		.2byte	0x16a
 1724 0b06 590B0000 		.4byte	0xb59
 1725 0b0a 18       		.uleb128 0x18
 1726 0b0b BE080000 		.4byte	.LASF146
 1727 0b0f 0C       		.byte	0xc
 1728 0b10 6B01     		.2byte	0x16b
 1729 0b12 C20A0000 		.4byte	0xac2
 1730 0b16 00       		.byte	0
 1731 0b17 18       		.uleb128 0x18
 1732 0b18 42010000 		.4byte	.LASF147
 1733 0b1c 0C       		.byte	0xc
 1734 0b1d 6C01     		.2byte	0x16c
 1735 0b1f 55090000 		.4byte	0x955
 1736 0b23 08       		.byte	0x8
 1737 0b24 21       		.uleb128 0x21
 1738 0b25 63747800 		.ascii	"ctx\000"
 1739 0b29 0C       		.byte	0xc
 1740 0b2a 6E01     		.2byte	0x16e
 1741 0b2c D50C0000 		.4byte	0xcd5
 1742 0b30 0C       		.byte	0xc
 1743 0b31 18       		.uleb128 0x18
 1744 0b32 8B0A0000 		.4byte	.LASF148
 1745 0b36 0C       		.byte	0xc
 1746 0b37 7101     		.2byte	0x171
 1747 0b39 980A0000 		.4byte	0xa98
 1748 0b3d 10       		.byte	0x10
 1749 0b3e 18       		.uleb128 0x18
 1750 0b3f 12060000 		.4byte	.LASF149
 1751 0b43 0C       		.byte	0xc
 1752 0b44 7201     		.2byte	0x172
 1753 0b46 980A0000 		.4byte	0xa98
 1754 0b4a 14       		.byte	0x14
 1755 0b4b 18       		.uleb128 0x18
 1756 0b4c 80070000 		.4byte	.LASF171
 1757 0b50 0C       		.byte	0xc
 1758 0b51 7501     		.2byte	0x175
 1759 0b53 980A0000 		.4byte	0xa98
 1760 0b57 18       		.byte	0x18
 1761 0b58 00       		.byte	0
 1762 0b59 03       		.uleb128 0x3
 1763 0b5a A0000000 		.4byte	.LASF172
 1764 0b5e 0B       		.byte	0xb
 1765 0b5f 5C       		.byte	0x5c
 1766 0b60 640B0000 		.4byte	0xb64
 1767 0b64 05       		.uleb128 0x5
ARM GAS  C:\cygwin64\tmp\ccYfXsMJ.s 			page 32


 1768 0b65 04       		.byte	0x4
 1769 0b66 6A0B0000 		.4byte	0xb6a
 1770 0b6a 1F       		.uleb128 0x1f
 1771 0b6b 750B0000 		.4byte	0xb75
 1772 0b6f 16       		.uleb128 0x16
 1773 0b70 59010000 		.4byte	0x159
 1774 0b74 00       		.byte	0
 1775 0b75 03       		.uleb128 0x3
 1776 0b76 F5050000 		.4byte	.LASF173
 1777 0b7a 0B       		.byte	0xb
 1778 0b7b 61       		.byte	0x61
 1779 0b7c 800B0000 		.4byte	0xb80
 1780 0b80 1B       		.uleb128 0x1b
 1781 0b81 1C080000 		.4byte	.LASF174
 1782 0b85 14       		.byte	0x14
 1783 0b86 0C       		.byte	0xc
 1784 0b87 4501     		.2byte	0x145
 1785 0b89 CF0B0000 		.4byte	0xbcf
 1786 0b8d 18       		.uleb128 0x18
 1787 0b8e 690B0000 		.4byte	.LASF165
 1788 0b92 0C       		.byte	0xc
 1789 0b93 4601     		.2byte	0x146
 1790 0b95 C20F0000 		.4byte	0xfc2
 1791 0b99 00       		.byte	0
 1792 0b9a 18       		.uleb128 0x18
 1793 0b9b 170B0000 		.4byte	.LASF168
 1794 0b9f 0C       		.byte	0xc
 1795 0ba0 4701     		.2byte	0x147
 1796 0ba2 C20F0000 		.4byte	0xfc2
 1797 0ba6 04       		.byte	0x4
 1798 0ba7 18       		.uleb128 0x18
 1799 0ba8 A9080000 		.4byte	.LASF175
 1800 0bac 0C       		.byte	0xc
 1801 0bad 4801     		.2byte	0x148
 1802 0baf 8C090000 		.4byte	0x98c
 1803 0bb3 08       		.byte	0x8
 1804 0bb4 18       		.uleb128 0x18
 1805 0bb5 B5090000 		.4byte	.LASF176
 1806 0bb9 0C       		.byte	0xc
 1807 0bba 4901     		.2byte	0x149
 1808 0bbc 590B0000 		.4byte	0xb59
 1809 0bc0 0C       		.byte	0xc
 1810 0bc1 21       		.uleb128 0x21
 1811 0bc2 70617200 		.ascii	"par\000"
 1812 0bc6 0C       		.byte	0xc
 1813 0bc7 4B01     		.2byte	0x14b
 1814 0bc9 59010000 		.4byte	0x159
 1815 0bcd 10       		.byte	0x10
 1816 0bce 00       		.byte	0
 1817 0bcf 03       		.uleb128 0x3
 1818 0bd0 C6050000 		.4byte	.LASF177
 1819 0bd4 0B       		.byte	0xb
 1820 0bd5 66       		.byte	0x66
 1821 0bd6 DA0B0000 		.4byte	0xbda
 1822 0bda 1B       		.uleb128 0x1b
 1823 0bdb B2000000 		.4byte	.LASF178
 1824 0bdf 10       		.byte	0x10
ARM GAS  C:\cygwin64\tmp\ccYfXsMJ.s 			page 33


 1825 0be0 0C       		.byte	0xc
 1826 0be1 5501     		.2byte	0x155
 1827 0be3 1C0C0000 		.4byte	0xc1c
 1828 0be7 18       		.uleb128 0x18
 1829 0be8 690B0000 		.4byte	.LASF165
 1830 0bec 0C       		.byte	0xc
 1831 0bed 5601     		.2byte	0x156
 1832 0bef C20F0000 		.4byte	0xfc2
 1833 0bf3 00       		.byte	0
 1834 0bf4 18       		.uleb128 0x18
 1835 0bf5 170B0000 		.4byte	.LASF168
 1836 0bf9 0C       		.byte	0xc
 1837 0bfa 5801     		.2byte	0x158
 1838 0bfc C20F0000 		.4byte	0xfc2
 1839 0c00 04       		.byte	0x4
 1840 0c01 18       		.uleb128 0x18
 1841 0c02 A9080000 		.4byte	.LASF175
 1842 0c06 0C       		.byte	0xc
 1843 0c07 5A01     		.2byte	0x15a
 1844 0c09 8C090000 		.4byte	0x98c
 1845 0c0d 08       		.byte	0x8
 1846 0c0e 18       		.uleb128 0x18
 1847 0c0f 9E020000 		.4byte	.LASF179
 1848 0c13 0C       		.byte	0xc
 1849 0c14 6201     		.2byte	0x162
 1850 0c16 8C090000 		.4byte	0x98c
 1851 0c1a 0C       		.byte	0xc
 1852 0c1b 00       		.byte	0
 1853 0c1c 03       		.uleb128 0x3
 1854 0c1d E4020000 		.4byte	.LASF180
 1855 0c21 0B       		.byte	0xb
 1856 0c22 6B       		.byte	0x6b
 1857 0c23 270C0000 		.4byte	0xc27
 1858 0c27 1B       		.uleb128 0x1b
 1859 0c28 EB090000 		.4byte	.LASF181
 1860 0c2c 04       		.byte	0x4
 1861 0c2d 0C       		.byte	0xc
 1862 0c2e 7C01     		.2byte	0x17c
 1863 0c30 420C0000 		.4byte	0xc42
 1864 0c34 18       		.uleb128 0x18
 1865 0c35 A7020000 		.4byte	.LASF182
 1866 0c39 0C       		.byte	0xc
 1867 0c3a 8401     		.2byte	0x184
 1868 0c3c DF050000 		.4byte	0x5df
 1869 0c40 00       		.byte	0
 1870 0c41 00       		.byte	0
 1871 0c42 03       		.uleb128 0x3
 1872 0c43 DB0A0000 		.4byte	.LASF183
 1873 0c47 0B       		.byte	0xb
 1874 0c48 70       		.byte	0x70
 1875 0c49 4D0C0000 		.4byte	0xc4d
 1876 0c4d 1B       		.uleb128 0x1b
 1877 0c4e 710A0000 		.4byte	.LASF184
 1878 0c52 D0       		.byte	0xd0
 1879 0c53 0C       		.byte	0xc
 1880 0c54 9C01     		.2byte	0x19c
 1881 0c56 A80C0000 		.4byte	0xca8
ARM GAS  C:\cygwin64\tmp\ccYfXsMJ.s 			page 34


 1882 0c5a 18       		.uleb128 0x18
 1883 0c5b 67090000 		.4byte	.LASF185
 1884 0c5f 0C       		.byte	0xc
 1885 0c60 A001     		.2byte	0x1a0
 1886 0c62 F20A0000 		.4byte	0xaf2
 1887 0c66 00       		.byte	0
 1888 0c67 18       		.uleb128 0x18
 1889 0c68 0E0A0000 		.4byte	.LASF186
 1890 0c6c 0C       		.byte	0xc
 1891 0c6d A401     		.2byte	0x1a4
 1892 0c6f CF0B0000 		.4byte	0xbcf
 1893 0c73 1C       		.byte	0x1c
 1894 0c74 21       		.uleb128 0x21
 1895 0c75 64626700 		.ascii	"dbg\000"
 1896 0c79 0C       		.byte	0xc
 1897 0c7a A801     		.2byte	0x1a8
 1898 0c7c 1C0C0000 		.4byte	0xc1c
 1899 0c80 2C       		.byte	0x2c
 1900 0c81 18       		.uleb128 0x18
 1901 0c82 07090000 		.4byte	.LASF187
 1902 0c86 0C       		.byte	0xc
 1903 0c87 AC01     		.2byte	0x1ac
 1904 0c89 97090000 		.4byte	0x997
 1905 0c8d 30       		.byte	0x30
 1906 0c8e 21       		.uleb128 0x21
 1907 0c8f 746D00   		.ascii	"tm\000"
 1908 0c92 0C       		.byte	0xc
 1909 0c93 B101     		.2byte	0x1b1
 1910 0c95 540E0000 		.4byte	0xe54
 1911 0c99 90       		.byte	0x90
 1912 0c9a 18       		.uleb128 0x18
 1913 0c9b 3B080000 		.4byte	.LASF188
 1914 0c9f 0C       		.byte	0xc
 1915 0ca0 B701     		.2byte	0x1b7
 1916 0ca2 E60E0000 		.4byte	0xee6
 1917 0ca6 98       		.byte	0x98
 1918 0ca7 00       		.byte	0
 1919 0ca8 20       		.uleb128 0x20
 1920 0ca9 E3060000 		.4byte	.LASF189
 1921 0cad 0D       		.byte	0xd
 1922 0cae 4407     		.2byte	0x744
 1923 0cb0 03090000 		.4byte	0x903
 1924 0cb4 22       		.uleb128 0x22
 1925 0cb5 9F050000 		.4byte	.LASF190
 1926 0cb9 0E       		.byte	0xe
 1927 0cba 4C       		.byte	0x4c
 1928 0cbb 08090000 		.4byte	0x908
 1929 0cbf 03       		.uleb128 0x3
 1930 0cc0 FA010000 		.4byte	.LASF191
 1931 0cc4 0F       		.byte	0xf
 1932 0cc5 65       		.byte	0x65
 1933 0cc6 59010000 		.4byte	0x159
 1934 0cca 03       		.uleb128 0x3
 1935 0ccb 4E040000 		.4byte	.LASF192
 1936 0ccf 0F       		.byte	0xf
 1937 0cd0 6D       		.byte	0x6d
 1938 0cd1 13090000 		.4byte	0x913
ARM GAS  C:\cygwin64\tmp\ccYfXsMJ.s 			page 35


 1939 0cd5 10       		.uleb128 0x10
 1940 0cd6 550A0000 		.4byte	.LASF193
 1941 0cda 04       		.byte	0x4
 1942 0cdb 0F       		.byte	0xf
 1943 0cdc 89       		.byte	0x89
 1944 0cdd ED0C0000 		.4byte	0xced
 1945 0ce1 11       		.uleb128 0x11
 1946 0ce2 737000   		.ascii	"sp\000"
 1947 0ce5 0F       		.byte	0xf
 1948 0ce6 8A       		.byte	0x8a
 1949 0ce7 390E0000 		.4byte	0xe39
 1950 0ceb 00       		.byte	0
 1951 0cec 00       		.byte	0
 1952 0ced 1B       		.uleb128 0x1b
 1953 0cee F5070000 		.4byte	.LASF194
 1954 0cf2 64       		.byte	0x64
 1955 0cf3 10       		.byte	0x10
 1956 0cf4 5901     		.2byte	0x159
 1957 0cf6 390E0000 		.4byte	0xe39
 1958 0cfa 21       		.uleb128 0x21
 1959 0cfb 73313600 		.ascii	"s16\000"
 1960 0cff 10       		.byte	0x10
 1961 0d00 5B01     		.2byte	0x15b
 1962 0d02 BF0C0000 		.4byte	0xcbf
 1963 0d06 00       		.byte	0
 1964 0d07 21       		.uleb128 0x21
 1965 0d08 73313700 		.ascii	"s17\000"
 1966 0d0c 10       		.byte	0x10
 1967 0d0d 5C01     		.2byte	0x15c
 1968 0d0f BF0C0000 		.4byte	0xcbf
 1969 0d13 04       		.byte	0x4
 1970 0d14 21       		.uleb128 0x21
 1971 0d15 73313800 		.ascii	"s18\000"
 1972 0d19 10       		.byte	0x10
 1973 0d1a 5D01     		.2byte	0x15d
 1974 0d1c BF0C0000 		.4byte	0xcbf
 1975 0d20 08       		.byte	0x8
 1976 0d21 21       		.uleb128 0x21
 1977 0d22 73313900 		.ascii	"s19\000"
 1978 0d26 10       		.byte	0x10
 1979 0d27 5E01     		.2byte	0x15e
 1980 0d29 BF0C0000 		.4byte	0xcbf
 1981 0d2d 0C       		.byte	0xc
 1982 0d2e 21       		.uleb128 0x21
 1983 0d2f 73323000 		.ascii	"s20\000"
 1984 0d33 10       		.byte	0x10
 1985 0d34 5F01     		.2byte	0x15f
 1986 0d36 BF0C0000 		.4byte	0xcbf
 1987 0d3a 10       		.byte	0x10
 1988 0d3b 21       		.uleb128 0x21
 1989 0d3c 73323100 		.ascii	"s21\000"
 1990 0d40 10       		.byte	0x10
 1991 0d41 6001     		.2byte	0x160
 1992 0d43 BF0C0000 		.4byte	0xcbf
 1993 0d47 14       		.byte	0x14
 1994 0d48 21       		.uleb128 0x21
 1995 0d49 73323200 		.ascii	"s22\000"
ARM GAS  C:\cygwin64\tmp\ccYfXsMJ.s 			page 36


 1996 0d4d 10       		.byte	0x10
 1997 0d4e 6101     		.2byte	0x161
 1998 0d50 BF0C0000 		.4byte	0xcbf
 1999 0d54 18       		.byte	0x18
 2000 0d55 21       		.uleb128 0x21
 2001 0d56 73323300 		.ascii	"s23\000"
 2002 0d5a 10       		.byte	0x10
 2003 0d5b 6201     		.2byte	0x162
 2004 0d5d BF0C0000 		.4byte	0xcbf
 2005 0d61 1C       		.byte	0x1c
 2006 0d62 21       		.uleb128 0x21
 2007 0d63 73323400 		.ascii	"s24\000"
 2008 0d67 10       		.byte	0x10
 2009 0d68 6301     		.2byte	0x163
 2010 0d6a BF0C0000 		.4byte	0xcbf
 2011 0d6e 20       		.byte	0x20
 2012 0d6f 21       		.uleb128 0x21
 2013 0d70 73323500 		.ascii	"s25\000"
 2014 0d74 10       		.byte	0x10
 2015 0d75 6401     		.2byte	0x164
 2016 0d77 BF0C0000 		.4byte	0xcbf
 2017 0d7b 24       		.byte	0x24
 2018 0d7c 21       		.uleb128 0x21
 2019 0d7d 73323600 		.ascii	"s26\000"
 2020 0d81 10       		.byte	0x10
 2021 0d82 6501     		.2byte	0x165
 2022 0d84 BF0C0000 		.4byte	0xcbf
 2023 0d88 28       		.byte	0x28
 2024 0d89 21       		.uleb128 0x21
 2025 0d8a 73323700 		.ascii	"s27\000"
 2026 0d8e 10       		.byte	0x10
 2027 0d8f 6601     		.2byte	0x166
 2028 0d91 BF0C0000 		.4byte	0xcbf
 2029 0d95 2C       		.byte	0x2c
 2030 0d96 21       		.uleb128 0x21
 2031 0d97 73323800 		.ascii	"s28\000"
 2032 0d9b 10       		.byte	0x10
 2033 0d9c 6701     		.2byte	0x167
 2034 0d9e BF0C0000 		.4byte	0xcbf
 2035 0da2 30       		.byte	0x30
 2036 0da3 21       		.uleb128 0x21
 2037 0da4 73323900 		.ascii	"s29\000"
 2038 0da8 10       		.byte	0x10
 2039 0da9 6801     		.2byte	0x168
 2040 0dab BF0C0000 		.4byte	0xcbf
 2041 0daf 34       		.byte	0x34
 2042 0db0 21       		.uleb128 0x21
 2043 0db1 73333000 		.ascii	"s30\000"
 2044 0db5 10       		.byte	0x10
 2045 0db6 6901     		.2byte	0x169
 2046 0db8 BF0C0000 		.4byte	0xcbf
 2047 0dbc 38       		.byte	0x38
 2048 0dbd 21       		.uleb128 0x21
 2049 0dbe 73333100 		.ascii	"s31\000"
 2050 0dc2 10       		.byte	0x10
 2051 0dc3 6A01     		.2byte	0x16a
 2052 0dc5 BF0C0000 		.4byte	0xcbf
ARM GAS  C:\cygwin64\tmp\ccYfXsMJ.s 			page 37


 2053 0dc9 3C       		.byte	0x3c
 2054 0dca 21       		.uleb128 0x21
 2055 0dcb 723400   		.ascii	"r4\000"
 2056 0dce 10       		.byte	0x10
 2057 0dcf 6C01     		.2byte	0x16c
 2058 0dd1 BF0C0000 		.4byte	0xcbf
 2059 0dd5 40       		.byte	0x40
 2060 0dd6 21       		.uleb128 0x21
 2061 0dd7 723500   		.ascii	"r5\000"
 2062 0dda 10       		.byte	0x10
 2063 0ddb 6D01     		.2byte	0x16d
 2064 0ddd BF0C0000 		.4byte	0xcbf
 2065 0de1 44       		.byte	0x44
 2066 0de2 21       		.uleb128 0x21
 2067 0de3 723600   		.ascii	"r6\000"
 2068 0de6 10       		.byte	0x10
 2069 0de7 6E01     		.2byte	0x16e
 2070 0de9 BF0C0000 		.4byte	0xcbf
 2071 0ded 48       		.byte	0x48
 2072 0dee 21       		.uleb128 0x21
 2073 0def 723700   		.ascii	"r7\000"
 2074 0df2 10       		.byte	0x10
 2075 0df3 6F01     		.2byte	0x16f
 2076 0df5 BF0C0000 		.4byte	0xcbf
 2077 0df9 4C       		.byte	0x4c
 2078 0dfa 21       		.uleb128 0x21
 2079 0dfb 723800   		.ascii	"r8\000"
 2080 0dfe 10       		.byte	0x10
 2081 0dff 7001     		.2byte	0x170
 2082 0e01 BF0C0000 		.4byte	0xcbf
 2083 0e05 50       		.byte	0x50
 2084 0e06 21       		.uleb128 0x21
 2085 0e07 723900   		.ascii	"r9\000"
 2086 0e0a 10       		.byte	0x10
 2087 0e0b 7101     		.2byte	0x171
 2088 0e0d BF0C0000 		.4byte	0xcbf
 2089 0e11 54       		.byte	0x54
 2090 0e12 21       		.uleb128 0x21
 2091 0e13 72313000 		.ascii	"r10\000"
 2092 0e17 10       		.byte	0x10
 2093 0e18 7201     		.2byte	0x172
 2094 0e1a BF0C0000 		.4byte	0xcbf
 2095 0e1e 58       		.byte	0x58
 2096 0e1f 21       		.uleb128 0x21
 2097 0e20 72313100 		.ascii	"r11\000"
 2098 0e24 10       		.byte	0x10
 2099 0e25 7301     		.2byte	0x173
 2100 0e27 BF0C0000 		.4byte	0xcbf
 2101 0e2b 5C       		.byte	0x5c
 2102 0e2c 21       		.uleb128 0x21
 2103 0e2d 6C7200   		.ascii	"lr\000"
 2104 0e30 10       		.byte	0x10
 2105 0e31 7401     		.2byte	0x174
 2106 0e33 BF0C0000 		.4byte	0xcbf
 2107 0e37 60       		.byte	0x60
 2108 0e38 00       		.byte	0
 2109 0e39 05       		.uleb128 0x5
ARM GAS  C:\cygwin64\tmp\ccYfXsMJ.s 			page 38


 2110 0e3a 04       		.byte	0x4
 2111 0e3b ED0C0000 		.4byte	0xced
 2112 0e3f 0C       		.uleb128 0xc
 2113 0e40 04       		.byte	0x4
 2114 0e41 11       		.byte	0x11
 2115 0e42 38       		.byte	0x38
 2116 0e43 540E0000 		.4byte	0xe54
 2117 0e47 0D       		.uleb128 0xd
 2118 0e48 9A070000 		.4byte	.LASF195
 2119 0e4c 11       		.byte	0x11
 2120 0e4d 3C       		.byte	0x3c
 2121 0e4e 1E090000 		.4byte	0x91e
 2122 0e52 00       		.byte	0
 2123 0e53 00       		.byte	0
 2124 0e54 03       		.uleb128 0x3
 2125 0e55 75090000 		.4byte	.LASF196
 2126 0e59 11       		.byte	0x11
 2127 0e5a 3D       		.byte	0x3d
 2128 0e5b 3F0E0000 		.4byte	0xe3f
 2129 0e5f 0C       		.uleb128 0xc
 2130 0e60 18       		.byte	0x18
 2131 0e61 11       		.byte	0x11
 2132 0e62 48       		.byte	0x48
 2133 0e63 A20E0000 		.4byte	0xea2
 2134 0e67 0D       		.uleb128 0xd
 2135 0e68 38090000 		.4byte	.LASF197
 2136 0e6c 11       		.byte	0x11
 2137 0e6d 49       		.byte	0x49
 2138 0e6e 1E090000 		.4byte	0x91e
 2139 0e72 00       		.byte	0
 2140 0e73 0D       		.uleb128 0xd
 2141 0e74 94040000 		.4byte	.LASF198
 2142 0e78 11       		.byte	0x11
 2143 0e79 4A       		.byte	0x4a
 2144 0e7a 1E090000 		.4byte	0x91e
 2145 0e7e 04       		.byte	0x4
 2146 0e7f 0D       		.uleb128 0xd
 2147 0e80 960B0000 		.4byte	.LASF199
 2148 0e84 11       		.byte	0x11
 2149 0e85 4B       		.byte	0x4b
 2150 0e86 1E090000 		.4byte	0x91e
 2151 0e8a 08       		.byte	0x8
 2152 0e8b 11       		.uleb128 0x11
 2153 0e8c 6E00     		.ascii	"n\000"
 2154 0e8e 11       		.byte	0x11
 2155 0e8f 4C       		.byte	0x4c
 2156 0e90 81090000 		.4byte	0x981
 2157 0e94 0C       		.byte	0xc
 2158 0e95 0D       		.uleb128 0xd
 2159 0e96 21050000 		.4byte	.LASF200
 2160 0e9a 11       		.byte	0x11
 2161 0e9b 4D       		.byte	0x4d
 2162 0e9c 29090000 		.4byte	0x929
 2163 0ea0 10       		.byte	0x10
 2164 0ea1 00       		.byte	0
 2165 0ea2 03       		.uleb128 0x3
 2166 0ea3 25010000 		.4byte	.LASF201
ARM GAS  C:\cygwin64\tmp\ccYfXsMJ.s 			page 39


 2167 0ea7 11       		.byte	0x11
 2168 0ea8 4E       		.byte	0x4e
 2169 0ea9 5F0E0000 		.4byte	0xe5f
 2170 0ead 0C       		.uleb128 0xc
 2171 0eae 38       		.byte	0x38
 2172 0eaf 12       		.byte	0x12
 2173 0eb0 38       		.byte	0x38
 2174 0eb1 E60E0000 		.4byte	0xee6
 2175 0eb5 0D       		.uleb128 0xd
 2176 0eb6 61060000 		.4byte	.LASF202
 2177 0eba 12       		.byte	0x12
 2178 0ebb 39       		.byte	0x39
 2179 0ebc 81090000 		.4byte	0x981
 2180 0ec0 00       		.byte	0
 2181 0ec1 0D       		.uleb128 0xd
 2182 0ec2 22030000 		.4byte	.LASF203
 2183 0ec6 12       		.byte	0x12
 2184 0ec7 3A       		.byte	0x3a
 2185 0ec8 81090000 		.4byte	0x981
 2186 0ecc 04       		.byte	0x4
 2187 0ecd 0D       		.uleb128 0xd
 2188 0ece 2C050000 		.4byte	.LASF204
 2189 0ed2 12       		.byte	0x12
 2190 0ed3 3B       		.byte	0x3b
 2191 0ed4 A20E0000 		.4byte	0xea2
 2192 0ed8 08       		.byte	0x8
 2193 0ed9 0D       		.uleb128 0xd
 2194 0eda 00070000 		.4byte	.LASF205
 2195 0ede 12       		.byte	0x12
 2196 0edf 3D       		.byte	0x3d
 2197 0ee0 A20E0000 		.4byte	0xea2
 2198 0ee4 20       		.byte	0x20
 2199 0ee5 00       		.byte	0
 2200 0ee6 03       		.uleb128 0x3
 2201 0ee7 47070000 		.4byte	.LASF206
 2202 0eeb 12       		.byte	0x12
 2203 0eec 3F       		.byte	0x3f
 2204 0eed AD0E0000 		.4byte	0xead
 2205 0ef1 08       		.uleb128 0x8
 2206 0ef2 04       		.byte	0x4
 2207 0ef3 0C       		.byte	0xc
 2208 0ef4 D2       		.byte	0xd2
 2209 0ef5 540F0000 		.4byte	0xf54
 2210 0ef9 09       		.uleb128 0x9
 2211 0efa B20A0000 		.4byte	.LASF207
 2212 0efe 0C       		.byte	0xc
 2213 0eff D9       		.byte	0xd9
 2214 0f00 60090000 		.4byte	0x960
 2215 0f04 09       		.uleb128 0x9
 2216 0f05 5E010000 		.4byte	.LASF208
 2217 0f09 0C       		.byte	0xc
 2218 0f0a E0       		.byte	0xe0
 2219 0f0b 60090000 		.4byte	0x960
 2220 0f0f 09       		.uleb128 0x9
 2221 0f10 1B030000 		.4byte	.LASF209
 2222 0f14 0C       		.byte	0xc
 2223 0f15 E7       		.byte	0xe7
ARM GAS  C:\cygwin64\tmp\ccYfXsMJ.s 			page 40


 2224 0f16 59010000 		.4byte	0x159
 2225 0f1a 09       		.uleb128 0x9
 2226 0f1b 71020000 		.4byte	.LASF210
 2227 0f1f 0C       		.byte	0xc
 2228 0f20 EE       		.byte	0xee
 2229 0f21 540F0000 		.4byte	0xf54
 2230 0f25 09       		.uleb128 0x9
 2231 0f26 ED070000 		.4byte	.LASF211
 2232 0f2a 0C       		.byte	0xc
 2233 0f2b F3       		.byte	0xf3
 2234 0f2c 60090000 		.4byte	0x960
 2235 0f30 09       		.uleb128 0x9
 2236 0f31 8F0B0000 		.4byte	.LASF212
 2237 0f35 0C       		.byte	0xc
 2238 0f36 FC       		.byte	0xfc
 2239 0f37 7F0F0000 		.4byte	0xf7f
 2240 0f3b 1E       		.uleb128 0x1e
 2241 0f3c B9040000 		.4byte	.LASF213
 2242 0f40 0C       		.byte	0xc
 2243 0f41 0501     		.2byte	0x105
 2244 0f43 B60F0000 		.4byte	0xfb6
 2245 0f47 1E       		.uleb128 0x1e
 2246 0f48 56020000 		.4byte	.LASF214
 2247 0f4c 0C       		.byte	0xc
 2248 0f4d 0D01     		.2byte	0x10d
 2249 0f4f 6B090000 		.4byte	0x96b
 2250 0f53 00       		.byte	0
 2251 0f54 05       		.uleb128 0x5
 2252 0f55 04       		.byte	0x4
 2253 0f56 8D0A0000 		.4byte	0xa8d
 2254 0f5a 10       		.uleb128 0x10
 2255 0f5b AF050000 		.4byte	.LASF215
 2256 0f5f 0C       		.byte	0xc
 2257 0f60 13       		.byte	0x13
 2258 0f61 34       		.byte	0x34
 2259 0f62 7F0F0000 		.4byte	0xf7f
 2260 0f66 0D       		.uleb128 0xd
 2261 0f67 BE080000 		.4byte	.LASF146
 2262 0f6b 13       		.byte	0x13
 2263 0f6c 35       		.byte	0x35
 2264 0f6d C20A0000 		.4byte	0xac2
 2265 0f71 00       		.byte	0
 2266 0f72 11       		.uleb128 0x11
 2267 0f73 636E7400 		.ascii	"cnt\000"
 2268 0f77 13       		.byte	0x13
 2269 0f78 37       		.byte	0x37
 2270 0f79 76090000 		.4byte	0x976
 2271 0f7d 08       		.byte	0x8
 2272 0f7e 00       		.byte	0
 2273 0f7f 05       		.uleb128 0x5
 2274 0f80 04       		.byte	0x4
 2275 0f81 5A0F0000 		.4byte	0xf5a
 2276 0f85 10       		.uleb128 0x10
 2277 0f86 D0090000 		.4byte	.LASF216
 2278 0f8a 10       		.byte	0x10
 2279 0f8b 14       		.byte	0x14
 2280 0f8c 39       		.byte	0x39
ARM GAS  C:\cygwin64\tmp\ccYfXsMJ.s 			page 41


 2281 0f8d B60F0000 		.4byte	0xfb6
 2282 0f91 0D       		.uleb128 0xd
 2283 0f92 BE080000 		.4byte	.LASF146
 2284 0f96 14       		.byte	0x14
 2285 0f97 3A       		.byte	0x3a
 2286 0f98 C20A0000 		.4byte	0xac2
 2287 0f9c 00       		.byte	0
 2288 0f9d 0D       		.uleb128 0xd
 2289 0f9e 5F000000 		.4byte	.LASF217
 2290 0fa2 14       		.byte	0x14
 2291 0fa3 3C       		.byte	0x3c
 2292 0fa4 980A0000 		.4byte	0xa98
 2293 0fa8 08       		.byte	0x8
 2294 0fa9 0D       		.uleb128 0xd
 2295 0faa 690B0000 		.4byte	.LASF165
 2296 0fae 14       		.byte	0x14
 2297 0faf 3E       		.byte	0x3e
 2298 0fb0 01110000 		.4byte	0x1101
 2299 0fb4 0C       		.byte	0xc
 2300 0fb5 00       		.byte	0
 2301 0fb6 05       		.uleb128 0x5
 2302 0fb7 04       		.byte	0x4
 2303 0fb8 850F0000 		.4byte	0xf85
 2304 0fbc 05       		.uleb128 0x5
 2305 0fbd 04       		.byte	0x4
 2306 0fbe CA0C0000 		.4byte	0xcca
 2307 0fc2 05       		.uleb128 0x5
 2308 0fc3 04       		.byte	0x4
 2309 0fc4 750B0000 		.4byte	0xb75
 2310 0fc8 23       		.uleb128 0x23
 2311 0fc9 636800   		.ascii	"ch\000"
 2312 0fcc 0C       		.byte	0xc
 2313 0fcd D201     		.2byte	0x1d2
 2314 0fcf 420C0000 		.4byte	0xc42
 2315 0fd3 0A       		.uleb128 0xa
 2316 0fd4 CA0C0000 		.4byte	0xcca
 2317 0fd8 DE0F0000 		.4byte	0xfde
 2318 0fdc 24       		.uleb128 0x24
 2319 0fdd 00       		.byte	0
 2320 0fde 20       		.uleb128 0x20
 2321 0fdf DC050000 		.4byte	.LASF218
 2322 0fe3 03       		.byte	0x3
 2323 0fe4 2B01     		.2byte	0x12b
 2324 0fe6 D30F0000 		.4byte	0xfd3
 2325 0fea 0C       		.uleb128 0xc
 2326 0feb 16       		.byte	0x16
 2327 0fec 15       		.byte	0x15
 2328 0fed 34       		.byte	0x34
 2329 0fee CB100000 		.4byte	0x10cb
 2330 0ff2 0D       		.uleb128 0xd
 2331 0ff3 770B0000 		.4byte	.LASF219
 2332 0ff7 15       		.byte	0x15
 2333 0ff8 35       		.byte	0x35
 2334 0ff9 CB100000 		.4byte	0x10cb
 2335 0ffd 00       		.byte	0
 2336 0ffe 0D       		.uleb128 0xd
 2337 0fff C4010000 		.4byte	.LASF220
ARM GAS  C:\cygwin64\tmp\ccYfXsMJ.s 			page 42


 2338 1003 15       		.byte	0x15
 2339 1004 36       		.byte	0x36
 2340 1005 E2080000 		.4byte	0x8e2
 2341 1009 04       		.byte	0x4
 2342 100a 0D       		.uleb128 0xd
 2343 100b 48080000 		.4byte	.LASF221
 2344 100f 15       		.byte	0x15
 2345 1010 37       		.byte	0x37
 2346 1011 E2080000 		.4byte	0x8e2
 2347 1015 05       		.byte	0x5
 2348 1016 0D       		.uleb128 0xd
 2349 1017 1B090000 		.4byte	.LASF222
 2350 101b 15       		.byte	0x15
 2351 101c 38       		.byte	0x38
 2352 101d ED080000 		.4byte	0x8ed
 2353 1021 06       		.byte	0x6
 2354 1022 0D       		.uleb128 0xd
 2355 1023 9A040000 		.4byte	.LASF223
 2356 1027 15       		.byte	0x15
 2357 1028 39       		.byte	0x39
 2358 1029 E2080000 		.4byte	0x8e2
 2359 102d 08       		.byte	0x8
 2360 102e 0D       		.uleb128 0xd
 2361 102f 1C0B0000 		.4byte	.LASF224
 2362 1033 15       		.byte	0x15
 2363 1034 3A       		.byte	0x3a
 2364 1035 E2080000 		.4byte	0x8e2
 2365 1039 09       		.byte	0x9
 2366 103a 0D       		.uleb128 0xd
 2367 103b 6F050000 		.4byte	.LASF225
 2368 103f 15       		.byte	0x15
 2369 1040 3B       		.byte	0x3b
 2370 1041 E2080000 		.4byte	0x8e2
 2371 1045 0A       		.byte	0xa
 2372 1046 0D       		.uleb128 0xd
 2373 1047 0F000000 		.4byte	.LASF226
 2374 104b 15       		.byte	0x15
 2375 104c 3C       		.byte	0x3c
 2376 104d E2080000 		.4byte	0x8e2
 2377 1051 0B       		.byte	0xb
 2378 1052 0D       		.uleb128 0xd
 2379 1053 00000000 		.4byte	.LASF227
 2380 1057 15       		.byte	0x15
 2381 1058 3D       		.byte	0x3d
 2382 1059 E2080000 		.4byte	0x8e2
 2383 105d 0C       		.byte	0xc
 2384 105e 0D       		.uleb128 0xd
 2385 105f F6060000 		.4byte	.LASF228
 2386 1063 15       		.byte	0x15
 2387 1064 3E       		.byte	0x3e
 2388 1065 E2080000 		.4byte	0x8e2
 2389 1069 0D       		.byte	0xd
 2390 106a 0D       		.uleb128 0xd
 2391 106b 38010000 		.4byte	.LASF229
 2392 106f 15       		.byte	0x15
 2393 1070 3F       		.byte	0x3f
 2394 1071 E2080000 		.4byte	0x8e2
ARM GAS  C:\cygwin64\tmp\ccYfXsMJ.s 			page 43


 2395 1075 0E       		.byte	0xe
 2396 1076 0D       		.uleb128 0xd
 2397 1077 6D080000 		.4byte	.LASF230
 2398 107b 15       		.byte	0x15
 2399 107c 40       		.byte	0x40
 2400 107d E2080000 		.4byte	0x8e2
 2401 1081 0F       		.byte	0xf
 2402 1082 0D       		.uleb128 0xd
 2403 1083 34060000 		.4byte	.LASF231
 2404 1087 15       		.byte	0x15
 2405 1088 41       		.byte	0x41
 2406 1089 E2080000 		.4byte	0x8e2
 2407 108d 10       		.byte	0x10
 2408 108e 0D       		.uleb128 0xd
 2409 108f 42050000 		.4byte	.LASF232
 2410 1093 15       		.byte	0x15
 2411 1094 42       		.byte	0x42
 2412 1095 E2080000 		.4byte	0x8e2
 2413 1099 11       		.byte	0x11
 2414 109a 0D       		.uleb128 0xd
 2415 109b 4C0B0000 		.4byte	.LASF233
 2416 109f 15       		.byte	0x15
 2417 10a0 43       		.byte	0x43
 2418 10a1 E2080000 		.4byte	0x8e2
 2419 10a5 12       		.byte	0x12
 2420 10a6 0D       		.uleb128 0xd
 2421 10a7 A20A0000 		.4byte	.LASF234
 2422 10ab 15       		.byte	0x15
 2423 10ac 44       		.byte	0x44
 2424 10ad E2080000 		.4byte	0x8e2
 2425 10b1 13       		.byte	0x13
 2426 10b2 0D       		.uleb128 0xd
 2427 10b3 3E000000 		.4byte	.LASF235
 2428 10b7 15       		.byte	0x15
 2429 10b8 45       		.byte	0x45
 2430 10b9 E2080000 		.4byte	0x8e2
 2431 10bd 14       		.byte	0x14
 2432 10be 0D       		.uleb128 0xd
 2433 10bf A2040000 		.4byte	.LASF236
 2434 10c3 15       		.byte	0x15
 2435 10c4 46       		.byte	0x46
 2436 10c5 E2080000 		.4byte	0x8e2
 2437 10c9 15       		.byte	0x15
 2438 10ca 00       		.byte	0
 2439 10cb 0A       		.uleb128 0xa
 2440 10cc 61010000 		.4byte	0x161
 2441 10d0 DB100000 		.4byte	0x10db
 2442 10d4 0B       		.uleb128 0xb
 2443 10d5 1B010000 		.4byte	0x11b
 2444 10d9 03       		.byte	0x3
 2445 10da 00       		.byte	0
 2446 10db 03       		.uleb128 0x3
 2447 10dc E70A0000 		.4byte	.LASF237
 2448 10e0 15       		.byte	0x15
 2449 10e1 47       		.byte	0x47
 2450 10e2 EA0F0000 		.4byte	0xfea
 2451 10e6 0F       		.uleb128 0xf
ARM GAS  C:\cygwin64\tmp\ccYfXsMJ.s 			page 44


 2452 10e7 DB100000 		.4byte	0x10db
 2453 10eb 22       		.uleb128 0x22
 2454 10ec 73000000 		.4byte	.LASF238
 2455 10f0 15       		.byte	0x15
 2456 10f1 6C       		.byte	0x6c
 2457 10f2 E6100000 		.4byte	0x10e6
 2458 10f6 03       		.uleb128 0x3
 2459 10f7 3E0A0000 		.4byte	.LASF239
 2460 10fb 14       		.byte	0x14
 2461 10fc 34       		.byte	0x34
 2462 10fd 850F0000 		.4byte	0xf85
 2463 1101 05       		.uleb128 0x5
 2464 1102 04       		.byte	0x4
 2465 1103 F6100000 		.4byte	0x10f6
 2466 1107 04       		.uleb128 0x4
 2467 1108 01       		.byte	0x1
 2468 1109 02       		.byte	0x2
 2469 110a F3020000 		.4byte	.LASF240
 2470 110e 25       		.uleb128 0x25
 2471 110f EB100000 		.4byte	0x10eb
 2472 1113 01       		.byte	0x1
 2473 1114 53       		.byte	0x53
 2474 1115 05       		.uleb128 0x5
 2475 1116 03       		.byte	0x3
 2476 1117 00000000 		.4byte	ch_debug
 2477 111b 26       		.uleb128 0x26
 2478 111c 2F0B0000 		.4byte	.LASF241
 2479 1120 01       		.byte	0x1
 2480 1121 FA       		.byte	0xfa
 2481 1122 980A0000 		.4byte	0xa98
 2482 1126 00000000 		.4byte	.LFB250
 2483 112a 18000000 		.4byte	.LFE250-.LFB250
 2484 112e 01       		.uleb128 0x1
 2485 112f 9C       		.byte	0x9c
 2486 1130 64110000 		.4byte	0x1164
 2487 1134 27       		.uleb128 0x27
 2488 1135 776100   		.ascii	"wa\000"
 2489 1138 01       		.byte	0x1
 2490 1139 FA       		.byte	0xfa
 2491 113a BC0F0000 		.4byte	0xfbc
 2492 113e 00000000 		.4byte	.LLST11
 2493 1142 28       		.uleb128 0x28
 2494 1143 63747000 		.ascii	"ctp\000"
 2495 1147 01       		.byte	0x1
 2496 1148 FB       		.byte	0xfb
 2497 1149 980A0000 		.4byte	0xa98
 2498 114d 1E000000 		.4byte	.LLST12
 2499 1151 29       		.uleb128 0x29
 2500 1152 08000000 		.4byte	.LVL28
 2501 1156 1E130000 		.4byte	0x131e
 2502 115a 29       		.uleb128 0x29
 2503 115b 12000000 		.4byte	.LVL29
 2504 115f 12120000 		.4byte	0x1212
 2505 1163 00       		.byte	0
 2506 1164 26       		.uleb128 0x26
 2507 1165 77020000 		.4byte	.LASF242
 2508 1169 01       		.byte	0x1
ARM GAS  C:\cygwin64\tmp\ccYfXsMJ.s 			page 45


 2509 116a DD       		.byte	0xdd
 2510 116b 980A0000 		.4byte	0xa98
 2511 116f 00000000 		.4byte	.LFB249
 2512 1173 16000000 		.4byte	.LFE249-.LFB249
 2513 1177 01       		.uleb128 0x1
 2514 1178 9C       		.byte	0x9c
 2515 1179 AD110000 		.4byte	0x11ad
 2516 117d 27       		.uleb128 0x27
 2517 117e 747000   		.ascii	"tp\000"
 2518 1181 01       		.byte	0x1
 2519 1182 DD       		.byte	0xdd
 2520 1183 980A0000 		.4byte	0xa98
 2521 1187 3C000000 		.4byte	.LLST9
 2522 118b 28       		.uleb128 0x28
 2523 118c 63747000 		.ascii	"ctp\000"
 2524 1190 01       		.byte	0x1
 2525 1191 DE       		.byte	0xde
 2526 1192 980A0000 		.4byte	0xa98
 2527 1196 5A000000 		.4byte	.LLST10
 2528 119a 29       		.uleb128 0x29
 2529 119b 08000000 		.4byte	.LVL25
 2530 119f 1E130000 		.4byte	0x131e
 2531 11a3 29       		.uleb128 0x29
 2532 11a4 10000000 		.4byte	.LVL26
 2533 11a8 12120000 		.4byte	0x1212
 2534 11ac 00       		.byte	0
 2535 11ad 26       		.uleb128 0x26
 2536 11ae BA090000 		.4byte	.LASF243
 2537 11b2 01       		.byte	0x1
 2538 11b3 C2       		.byte	0xc2
 2539 11b4 980A0000 		.4byte	0xa98
 2540 11b8 00000000 		.4byte	.LFB248
 2541 11bc 24000000 		.4byte	.LFE248-.LFB248
 2542 11c0 01       		.uleb128 0x1
 2543 11c1 9C       		.byte	0x9c
 2544 11c2 12120000 		.4byte	0x1212
 2545 11c6 2A       		.uleb128 0x2a
 2546 11c7 86090000 		.4byte	.LASF150
 2547 11cb 01       		.byte	0x1
 2548 11cc C2       		.byte	0xc2
 2549 11cd D9050000 		.4byte	0x5d9
 2550 11d1 78000000 		.4byte	.LLST7
 2551 11d5 28       		.uleb128 0x28
 2552 11d6 63747000 		.ascii	"ctp\000"
 2553 11da 01       		.byte	0x1
 2554 11db C3       		.byte	0xc3
 2555 11dc 980A0000 		.4byte	0xa98
 2556 11e0 96000000 		.4byte	.LLST8
 2557 11e4 29       		.uleb128 0x29
 2558 11e5 08000000 		.4byte	.LVL17
 2559 11e9 1E130000 		.4byte	0x131e
 2560 11ed 2B       		.uleb128 0x2b
 2561 11ee 12000000 		.4byte	.LVL20
 2562 11f2 86140000 		.4byte	0x1486
 2563 11f6 01120000 		.4byte	0x1201
 2564 11fa 2C       		.uleb128 0x2c
 2565 11fb 01       		.uleb128 0x1
ARM GAS  C:\cygwin64\tmp\ccYfXsMJ.s 			page 46


 2566 11fc 51       		.byte	0x51
 2567 11fd 02       		.uleb128 0x2
 2568 11fe 75       		.byte	0x75
 2569 11ff 00       		.sleb128 0
 2570 1200 00       		.byte	0
 2571 1201 2D       		.uleb128 0x2d
 2572 1202 1A000000 		.4byte	.LVL21
 2573 1206 12120000 		.4byte	0x1212
 2574 120a 2C       		.uleb128 0x2c
 2575 120b 01       		.uleb128 0x1
 2576 120c 50       		.byte	0x50
 2577 120d 02       		.uleb128 0x2
 2578 120e 74       		.byte	0x74
 2579 120f 00       		.sleb128 0
 2580 1210 00       		.byte	0
 2581 1211 00       		.byte	0
 2582 1212 26       		.uleb128 0x26
 2583 1213 4F000000 		.4byte	.LASF244
 2584 1217 01       		.byte	0x1
 2585 1218 9E       		.byte	0x9e
 2586 1219 980A0000 		.4byte	0xa98
 2587 121d 00000000 		.4byte	.LFB247
 2588 1221 3C000000 		.4byte	.LFE247-.LFB247
 2589 1225 01       		.uleb128 0x1
 2590 1226 9C       		.byte	0x9c
 2591 1227 09130000 		.4byte	0x1309
 2592 122b 27       		.uleb128 0x27
 2593 122c 747000   		.ascii	"tp\000"
 2594 122f 01       		.byte	0x1
 2595 1230 9E       		.byte	0x9e
 2596 1231 980A0000 		.4byte	0xa98
 2597 1235 CA000000 		.4byte	.LLST3
 2598 1239 28       		.uleb128 0x28
 2599 123a 6E747000 		.ascii	"ntp\000"
 2600 123e 01       		.byte	0x1
 2601 123f 9F       		.byte	0x9f
 2602 1240 980A0000 		.4byte	0xa98
 2603 1244 F6000000 		.4byte	.LLST4
 2604 1248 2E       		.uleb128 0x2e
 2605 1249 A9000000 		.4byte	.LASF261
 2606 124d 19130000 		.4byte	0x1319
 2607 1251 2F       		.uleb128 0x2f
 2608 1252 51140000 		.4byte	0x1451
 2609 1256 04000000 		.4byte	.LBB48
 2610 125a 0A000000 		.4byte	.LBE48-.LBB48
 2611 125e 01       		.byte	0x1
 2612 125f A1       		.byte	0xa1
 2613 1260 9D120000 		.4byte	0x129d
 2614 1264 30       		.uleb128 0x30
 2615 1265 63140000 		.4byte	0x1463
 2616 1269 04000000 		.4byte	.LBB50
 2617 126d 06000000 		.4byte	.LBE50-.LBB50
 2618 1271 03       		.byte	0x3
 2619 1272 7801     		.2byte	0x178
 2620 1274 93120000 		.4byte	0x1293
 2621 1278 31       		.uleb128 0x31
 2622 1279 6C140000 		.4byte	0x146c
ARM GAS  C:\cygwin64\tmp\ccYfXsMJ.s 			page 47


 2623 127d 04000000 		.4byte	.LBB51
 2624 1281 06000000 		.4byte	.LBE51-.LBB51
 2625 1285 10       		.byte	0x10
 2626 1286 5A02     		.2byte	0x25a
 2627 1288 32       		.uleb128 0x32
 2628 1289 79140000 		.4byte	0x1479
 2629 128d 14010000 		.4byte	.LLST5
 2630 1291 00       		.byte	0
 2631 1292 00       		.byte	0
 2632 1293 29       		.uleb128 0x29
 2633 1294 0E000000 		.4byte	.LVL9
 2634 1298 91140000 		.4byte	0x1491
 2635 129c 00       		.byte	0
 2636 129d 2F       		.uleb128 0x2f
 2637 129e 21140000 		.4byte	0x1421
 2638 12a2 22000000 		.4byte	.LBB53
 2639 12a6 0A000000 		.4byte	.LBE53-.LBB53
 2640 12aa 01       		.byte	0x1
 2641 12ab AE       		.byte	0xae
 2642 12ac F8120000 		.4byte	0x12f8
 2643 12b0 33       		.uleb128 0x33
 2644 12b1 22000000 		.4byte	.LBB54
 2645 12b5 0A000000 		.4byte	.LBE54-.LBB54
 2646 12b9 34       		.uleb128 0x34
 2647 12ba 2E140000 		.4byte	0x142e
 2648 12be 30       		.uleb128 0x30
 2649 12bf 5A140000 		.4byte	0x145a
 2650 12c3 26000000 		.4byte	.LBB55
 2651 12c7 06000000 		.4byte	.LBE55-.LBB55
 2652 12cb 03       		.byte	0x3
 2653 12cc 8F01     		.2byte	0x18f
 2654 12ce ED120000 		.4byte	0x12ed
 2655 12d2 31       		.uleb128 0x31
 2656 12d3 6C140000 		.4byte	0x146c
 2657 12d7 26000000 		.4byte	.LBB56
 2658 12db 06000000 		.4byte	.LBE56-.LBB56
 2659 12df 10       		.byte	0x10
 2660 12e0 6D02     		.2byte	0x26d
 2661 12e2 32       		.uleb128 0x32
 2662 12e3 79140000 		.4byte	0x1479
 2663 12e7 29010000 		.4byte	.LLST6
 2664 12eb 00       		.byte	0
 2665 12ec 00       		.byte	0
 2666 12ed 29       		.uleb128 0x29
 2667 12ee 26000000 		.4byte	.LVL12
 2668 12f2 9C140000 		.4byte	0x149c
 2669 12f6 00       		.byte	0
 2670 12f7 00       		.byte	0
 2671 12f8 2D       		.uleb128 0x2d
 2672 12f9 32000000 		.4byte	.LVL14
 2673 12fd A7140000 		.4byte	0x14a7
 2674 1301 2C       		.uleb128 0x2c
 2675 1302 01       		.uleb128 0x1
 2676 1303 50       		.byte	0x50
 2677 1304 02       		.uleb128 0x2
 2678 1305 75       		.byte	0x75
 2679 1306 00       		.sleb128 0
ARM GAS  C:\cygwin64\tmp\ccYfXsMJ.s 			page 48


 2680 1307 00       		.byte	0
 2681 1308 00       		.byte	0
 2682 1309 0A       		.uleb128 0xa
 2683 130a 68010000 		.4byte	0x168
 2684 130e 19130000 		.4byte	0x1319
 2685 1312 0B       		.uleb128 0xb
 2686 1313 1B010000 		.4byte	0x11b
 2687 1317 0F       		.byte	0xf
 2688 1318 00       		.byte	0
 2689 1319 0F       		.uleb128 0xf
 2690 131a 09130000 		.4byte	0x1309
 2691 131e 26       		.uleb128 0x26
 2692 131f 47010000 		.4byte	.LASF245
 2693 1323 01       		.byte	0x1
 2694 1324 86       		.byte	0x86
 2695 1325 980A0000 		.4byte	0xa98
 2696 1329 00000000 		.4byte	.LFB246
 2697 132d 2C000000 		.4byte	.LFE246-.LFB246
 2698 1331 01       		.uleb128 0x1
 2699 1332 9C       		.byte	0x9c
 2700 1333 E9130000 		.4byte	0x13e9
 2701 1337 28       		.uleb128 0x28
 2702 1338 747000   		.ascii	"tp\000"
 2703 133b 01       		.byte	0x1
 2704 133c 87       		.byte	0x87
 2705 133d 980A0000 		.4byte	0xa98
 2706 1341 3D010000 		.4byte	.LLST0
 2707 1345 2F       		.uleb128 0x2f
 2708 1346 51140000 		.4byte	0x1451
 2709 134a 02000000 		.4byte	.LBB28
 2710 134e 0A000000 		.4byte	.LBE28-.LBB28
 2711 1352 01       		.byte	0x1
 2712 1353 89       		.byte	0x89
 2713 1354 91130000 		.4byte	0x1391
 2714 1358 30       		.uleb128 0x30
 2715 1359 63140000 		.4byte	0x1463
 2716 135d 02000000 		.4byte	.LBB30
 2717 1361 06000000 		.4byte	.LBE30-.LBB30
 2718 1365 03       		.byte	0x3
 2719 1366 7801     		.2byte	0x178
 2720 1368 87130000 		.4byte	0x1387
 2721 136c 31       		.uleb128 0x31
 2722 136d 6C140000 		.4byte	0x146c
 2723 1371 02000000 		.4byte	.LBB31
 2724 1375 06000000 		.4byte	.LBE31-.LBB31
 2725 1379 10       		.byte	0x10
 2726 137a 5A02     		.2byte	0x25a
 2727 137c 32       		.uleb128 0x32
 2728 137d 79140000 		.4byte	0x1479
 2729 1381 5B010000 		.4byte	.LLST1
 2730 1385 00       		.byte	0
 2731 1386 00       		.byte	0
 2732 1387 29       		.uleb128 0x29
 2733 1388 0C000000 		.4byte	.LVL2
 2734 138c 91140000 		.4byte	0x1491
 2735 1390 00       		.byte	0
 2736 1391 35       		.uleb128 0x35
ARM GAS  C:\cygwin64\tmp\ccYfXsMJ.s 			page 49


 2737 1392 21140000 		.4byte	0x1421
 2738 1396 1A000000 		.4byte	.LBB33
 2739 139a 0A000000 		.4byte	.LBE33-.LBB33
 2740 139e 01       		.byte	0x1
 2741 139f 8E       		.byte	0x8e
 2742 13a0 33       		.uleb128 0x33
 2743 13a1 1A000000 		.4byte	.LBB34
 2744 13a5 0A000000 		.4byte	.LBE34-.LBB34
 2745 13a9 34       		.uleb128 0x34
 2746 13aa 2E140000 		.4byte	0x142e
 2747 13ae 30       		.uleb128 0x30
 2748 13af 5A140000 		.4byte	0x145a
 2749 13b3 1E000000 		.4byte	.LBB35
 2750 13b7 06000000 		.4byte	.LBE35-.LBB35
 2751 13bb 03       		.byte	0x3
 2752 13bc 8F01     		.2byte	0x18f
 2753 13be DD130000 		.4byte	0x13dd
 2754 13c2 31       		.uleb128 0x31
 2755 13c3 6C140000 		.4byte	0x146c
 2756 13c7 1E000000 		.4byte	.LBB36
 2757 13cb 06000000 		.4byte	.LBE36-.LBB36
 2758 13cf 10       		.byte	0x10
 2759 13d0 6D02     		.2byte	0x26d
 2760 13d2 32       		.uleb128 0x32
 2761 13d3 79140000 		.4byte	0x1479
 2762 13d7 70010000 		.4byte	.LLST2
 2763 13db 00       		.byte	0
 2764 13dc 00       		.byte	0
 2765 13dd 29       		.uleb128 0x29
 2766 13de 1E000000 		.4byte	.LVL4
 2767 13e2 9C140000 		.4byte	0x149c
 2768 13e6 00       		.byte	0
 2769 13e7 00       		.byte	0
 2770 13e8 00       		.byte	0
 2771 13e9 36       		.uleb128 0x36
 2772 13ea 0C020000 		.4byte	.LASF246
 2773 13ee 15       		.byte	0x15
 2774 13ef 99       		.byte	0x99
 2775 13f0 D9050000 		.4byte	0x5d9
 2776 13f4 03       		.byte	0x3
 2777 13f5 04140000 		.4byte	0x1404
 2778 13f9 37       		.uleb128 0x37
 2779 13fa 747000   		.ascii	"tp\000"
 2780 13fd 15       		.byte	0x15
 2781 13fe 99       		.byte	0x99
 2782 13ff 980A0000 		.4byte	0xa98
 2783 1403 00       		.byte	0
 2784 1404 38       		.uleb128 0x38
 2785 1405 F10A0000 		.4byte	.LASF247
 2786 1409 16       		.byte	0x16
 2787 140a 4901     		.2byte	0x149
 2788 140c BC0F0000 		.4byte	0xfbc
 2789 1410 03       		.byte	0x3
 2790 1411 21140000 		.4byte	0x1421
 2791 1415 39       		.uleb128 0x39
 2792 1416 747000   		.ascii	"tp\000"
 2793 1419 16       		.byte	0x16
ARM GAS  C:\cygwin64\tmp\ccYfXsMJ.s 			page 50


 2794 141a 4901     		.2byte	0x149
 2795 141c 980A0000 		.4byte	0xa98
 2796 1420 00       		.byte	0
 2797 1421 3A       		.uleb128 0x3a
 2798 1422 4C050000 		.4byte	.LASF251
 2799 1426 03       		.byte	0x3
 2800 1427 8201     		.2byte	0x182
 2801 1429 03       		.byte	0x3
 2802 142a 3C140000 		.4byte	0x143c
 2803 142e 3B       		.uleb128 0x3b
 2804 142f A9000000 		.4byte	.LASF261
 2805 1433 4C140000 		.4byte	0x144c
 2806 1437 4C050000 		.4byte	.LASF251
 2807 143b 00       		.byte	0
 2808 143c 0A       		.uleb128 0xa
 2809 143d 68010000 		.4byte	0x168
 2810 1441 4C140000 		.4byte	0x144c
 2811 1445 0B       		.uleb128 0xb
 2812 1446 1B010000 		.4byte	0x11b
 2813 144a 0B       		.byte	0xb
 2814 144b 00       		.byte	0
 2815 144c 0F       		.uleb128 0xf
 2816 144d 3C140000 		.4byte	0x143c
 2817 1451 3C       		.uleb128 0x3c
 2818 1452 7A050000 		.4byte	.LASF248
 2819 1456 03       		.byte	0x3
 2820 1457 7601     		.2byte	0x176
 2821 1459 03       		.byte	0x3
 2822 145a 3C       		.uleb128 0x3c
 2823 145b 9C010000 		.4byte	.LASF249
 2824 145f 10       		.byte	0x10
 2825 1460 6A02     		.2byte	0x26a
 2826 1462 03       		.byte	0x3
 2827 1463 3C       		.uleb128 0x3c
 2828 1464 8B090000 		.4byte	.LASF250
 2829 1468 10       		.byte	0x10
 2830 1469 5202     		.2byte	0x252
 2831 146b 03       		.byte	0x3
 2832 146c 3A       		.uleb128 0x3a
 2833 146d 2A090000 		.4byte	.LASF252
 2834 1471 02       		.byte	0x2
 2835 1472 0601     		.2byte	0x106
 2836 1474 03       		.byte	0x3
 2837 1475 86140000 		.4byte	0x1486
 2838 1479 3D       		.uleb128 0x3d
 2839 147a F9020000 		.4byte	.LASF253
 2840 147e 02       		.byte	0x2
 2841 147f 0601     		.2byte	0x106
 2842 1481 08090000 		.4byte	0x908
 2843 1485 00       		.byte	0
 2844 1486 3E       		.uleb128 0x3e
 2845 1487 59040000 		.4byte	.LASF254
 2846 148b 59040000 		.4byte	.LASF254
 2847 148f 17       		.byte	0x17
 2848 1490 20       		.byte	0x20
 2849 1491 3E       		.uleb128 0x3e
 2850 1492 CD080000 		.4byte	.LASF255
ARM GAS  C:\cygwin64\tmp\ccYfXsMJ.s 			page 51


 2851 1496 CD080000 		.4byte	.LASF255
 2852 149a 12       		.byte	0x12
 2853 149b 4F       		.byte	0x4f
 2854 149c 3E       		.uleb128 0x3e
 2855 149d 20020000 		.4byte	.LASF256
 2856 14a1 20020000 		.4byte	.LASF256
 2857 14a5 12       		.byte	0x12
 2858 14a6 50       		.byte	0x50
 2859 14a7 3E       		.uleb128 0x3e
 2860 14a8 18010000 		.4byte	.LASF257
 2861 14ac 18010000 		.4byte	.LASF257
 2862 14b0 16       		.byte	0x16
 2863 14b1 F8       		.byte	0xf8
 2864 14b2 00       		.byte	0
 2865              		.section	.debug_abbrev,"",%progbits
 2866              	.Ldebug_abbrev0:
 2867 0000 01       		.uleb128 0x1
 2868 0001 11       		.uleb128 0x11
 2869 0002 01       		.byte	0x1
 2870 0003 25       		.uleb128 0x25
 2871 0004 0E       		.uleb128 0xe
 2872 0005 13       		.uleb128 0x13
 2873 0006 0B       		.uleb128 0xb
 2874 0007 03       		.uleb128 0x3
 2875 0008 0E       		.uleb128 0xe
 2876 0009 1B       		.uleb128 0x1b
 2877 000a 0E       		.uleb128 0xe
 2878 000b 55       		.uleb128 0x55
 2879 000c 17       		.uleb128 0x17
 2880 000d 11       		.uleb128 0x11
 2881 000e 01       		.uleb128 0x1
 2882 000f 10       		.uleb128 0x10
 2883 0010 17       		.uleb128 0x17
 2884 0011 00       		.byte	0
 2885 0012 00       		.byte	0
 2886 0013 02       		.uleb128 0x2
 2887 0014 24       		.uleb128 0x24
 2888 0015 00       		.byte	0
 2889 0016 0B       		.uleb128 0xb
 2890 0017 0B       		.uleb128 0xb
 2891 0018 3E       		.uleb128 0x3e
 2892 0019 0B       		.uleb128 0xb
 2893 001a 03       		.uleb128 0x3
 2894 001b 08       		.uleb128 0x8
 2895 001c 00       		.byte	0
 2896 001d 00       		.byte	0
 2897 001e 03       		.uleb128 0x3
 2898 001f 16       		.uleb128 0x16
 2899 0020 00       		.byte	0
 2900 0021 03       		.uleb128 0x3
 2901 0022 0E       		.uleb128 0xe
 2902 0023 3A       		.uleb128 0x3a
 2903 0024 0B       		.uleb128 0xb
 2904 0025 3B       		.uleb128 0x3b
 2905 0026 0B       		.uleb128 0xb
 2906 0027 49       		.uleb128 0x49
 2907 0028 13       		.uleb128 0x13
ARM GAS  C:\cygwin64\tmp\ccYfXsMJ.s 			page 52


 2908 0029 00       		.byte	0
 2909 002a 00       		.byte	0
 2910 002b 04       		.uleb128 0x4
 2911 002c 24       		.uleb128 0x24
 2912 002d 00       		.byte	0
 2913 002e 0B       		.uleb128 0xb
 2914 002f 0B       		.uleb128 0xb
 2915 0030 3E       		.uleb128 0x3e
 2916 0031 0B       		.uleb128 0xb
 2917 0032 03       		.uleb128 0x3
 2918 0033 0E       		.uleb128 0xe
 2919 0034 00       		.byte	0
 2920 0035 00       		.byte	0
 2921 0036 05       		.uleb128 0x5
 2922 0037 0F       		.uleb128 0xf
 2923 0038 00       		.byte	0
 2924 0039 0B       		.uleb128 0xb
 2925 003a 0B       		.uleb128 0xb
 2926 003b 49       		.uleb128 0x49
 2927 003c 13       		.uleb128 0x13
 2928 003d 00       		.byte	0
 2929 003e 00       		.byte	0
 2930 003f 06       		.uleb128 0x6
 2931 0040 13       		.uleb128 0x13
 2932 0041 00       		.byte	0
 2933 0042 03       		.uleb128 0x3
 2934 0043 0E       		.uleb128 0xe
 2935 0044 3C       		.uleb128 0x3c
 2936 0045 19       		.uleb128 0x19
 2937 0046 00       		.byte	0
 2938 0047 00       		.byte	0
 2939 0048 07       		.uleb128 0x7
 2940 0049 16       		.uleb128 0x16
 2941 004a 00       		.byte	0
 2942 004b 03       		.uleb128 0x3
 2943 004c 0E       		.uleb128 0xe
 2944 004d 3A       		.uleb128 0x3a
 2945 004e 0B       		.uleb128 0xb
 2946 004f 3B       		.uleb128 0x3b
 2947 0050 05       		.uleb128 0x5
 2948 0051 49       		.uleb128 0x49
 2949 0052 13       		.uleb128 0x13
 2950 0053 00       		.byte	0
 2951 0054 00       		.byte	0
 2952 0055 08       		.uleb128 0x8
 2953 0056 17       		.uleb128 0x17
 2954 0057 01       		.byte	0x1
 2955 0058 0B       		.uleb128 0xb
 2956 0059 0B       		.uleb128 0xb
 2957 005a 3A       		.uleb128 0x3a
 2958 005b 0B       		.uleb128 0xb
 2959 005c 3B       		.uleb128 0x3b
 2960 005d 0B       		.uleb128 0xb
 2961 005e 01       		.uleb128 0x1
 2962 005f 13       		.uleb128 0x13
 2963 0060 00       		.byte	0
 2964 0061 00       		.byte	0
ARM GAS  C:\cygwin64\tmp\ccYfXsMJ.s 			page 53


 2965 0062 09       		.uleb128 0x9
 2966 0063 0D       		.uleb128 0xd
 2967 0064 00       		.byte	0
 2968 0065 03       		.uleb128 0x3
 2969 0066 0E       		.uleb128 0xe
 2970 0067 3A       		.uleb128 0x3a
 2971 0068 0B       		.uleb128 0xb
 2972 0069 3B       		.uleb128 0x3b
 2973 006a 0B       		.uleb128 0xb
 2974 006b 49       		.uleb128 0x49
 2975 006c 13       		.uleb128 0x13
 2976 006d 00       		.byte	0
 2977 006e 00       		.byte	0
 2978 006f 0A       		.uleb128 0xa
 2979 0070 01       		.uleb128 0x1
 2980 0071 01       		.byte	0x1
 2981 0072 49       		.uleb128 0x49
 2982 0073 13       		.uleb128 0x13
 2983 0074 01       		.uleb128 0x1
 2984 0075 13       		.uleb128 0x13
 2985 0076 00       		.byte	0
 2986 0077 00       		.byte	0
 2987 0078 0B       		.uleb128 0xb
 2988 0079 21       		.uleb128 0x21
 2989 007a 00       		.byte	0
 2990 007b 49       		.uleb128 0x49
 2991 007c 13       		.uleb128 0x13
 2992 007d 2F       		.uleb128 0x2f
 2993 007e 0B       		.uleb128 0xb
 2994 007f 00       		.byte	0
 2995 0080 00       		.byte	0
 2996 0081 0C       		.uleb128 0xc
 2997 0082 13       		.uleb128 0x13
 2998 0083 01       		.byte	0x1
 2999 0084 0B       		.uleb128 0xb
 3000 0085 0B       		.uleb128 0xb
 3001 0086 3A       		.uleb128 0x3a
 3002 0087 0B       		.uleb128 0xb
 3003 0088 3B       		.uleb128 0x3b
 3004 0089 0B       		.uleb128 0xb
 3005 008a 01       		.uleb128 0x1
 3006 008b 13       		.uleb128 0x13
 3007 008c 00       		.byte	0
 3008 008d 00       		.byte	0
 3009 008e 0D       		.uleb128 0xd
 3010 008f 0D       		.uleb128 0xd
 3011 0090 00       		.byte	0
 3012 0091 03       		.uleb128 0x3
 3013 0092 0E       		.uleb128 0xe
 3014 0093 3A       		.uleb128 0x3a
 3015 0094 0B       		.uleb128 0xb
 3016 0095 3B       		.uleb128 0x3b
 3017 0096 0B       		.uleb128 0xb
 3018 0097 49       		.uleb128 0x49
 3019 0098 13       		.uleb128 0x13
 3020 0099 38       		.uleb128 0x38
 3021 009a 0B       		.uleb128 0xb
ARM GAS  C:\cygwin64\tmp\ccYfXsMJ.s 			page 54


 3022 009b 00       		.byte	0
 3023 009c 00       		.byte	0
 3024 009d 0E       		.uleb128 0xe
 3025 009e 0F       		.uleb128 0xf
 3026 009f 00       		.byte	0
 3027 00a0 0B       		.uleb128 0xb
 3028 00a1 0B       		.uleb128 0xb
 3029 00a2 00       		.byte	0
 3030 00a3 00       		.byte	0
 3031 00a4 0F       		.uleb128 0xf
 3032 00a5 26       		.uleb128 0x26
 3033 00a6 00       		.byte	0
 3034 00a7 49       		.uleb128 0x49
 3035 00a8 13       		.uleb128 0x13
 3036 00a9 00       		.byte	0
 3037 00aa 00       		.byte	0
 3038 00ab 10       		.uleb128 0x10
 3039 00ac 13       		.uleb128 0x13
 3040 00ad 01       		.byte	0x1
 3041 00ae 03       		.uleb128 0x3
 3042 00af 0E       		.uleb128 0xe
 3043 00b0 0B       		.uleb128 0xb
 3044 00b1 0B       		.uleb128 0xb
 3045 00b2 3A       		.uleb128 0x3a
 3046 00b3 0B       		.uleb128 0xb
 3047 00b4 3B       		.uleb128 0x3b
 3048 00b5 0B       		.uleb128 0xb
 3049 00b6 01       		.uleb128 0x1
 3050 00b7 13       		.uleb128 0x13
 3051 00b8 00       		.byte	0
 3052 00b9 00       		.byte	0
 3053 00ba 11       		.uleb128 0x11
 3054 00bb 0D       		.uleb128 0xd
 3055 00bc 00       		.byte	0
 3056 00bd 03       		.uleb128 0x3
 3057 00be 08       		.uleb128 0x8
 3058 00bf 3A       		.uleb128 0x3a
 3059 00c0 0B       		.uleb128 0xb
 3060 00c1 3B       		.uleb128 0x3b
 3061 00c2 0B       		.uleb128 0xb
 3062 00c3 49       		.uleb128 0x49
 3063 00c4 13       		.uleb128 0x13
 3064 00c5 38       		.uleb128 0x38
 3065 00c6 0B       		.uleb128 0xb
 3066 00c7 00       		.byte	0
 3067 00c8 00       		.byte	0
 3068 00c9 12       		.uleb128 0x12
 3069 00ca 13       		.uleb128 0x13
 3070 00cb 01       		.byte	0x1
 3071 00cc 03       		.uleb128 0x3
 3072 00cd 0E       		.uleb128 0xe
 3073 00ce 0B       		.uleb128 0xb
 3074 00cf 05       		.uleb128 0x5
 3075 00d0 3A       		.uleb128 0x3a
 3076 00d1 0B       		.uleb128 0xb
 3077 00d2 3B       		.uleb128 0x3b
 3078 00d3 0B       		.uleb128 0xb
ARM GAS  C:\cygwin64\tmp\ccYfXsMJ.s 			page 55


 3079 00d4 01       		.uleb128 0x1
 3080 00d5 13       		.uleb128 0x13
 3081 00d6 00       		.byte	0
 3082 00d7 00       		.byte	0
 3083 00d8 13       		.uleb128 0x13
 3084 00d9 0D       		.uleb128 0xd
 3085 00da 00       		.byte	0
 3086 00db 03       		.uleb128 0x3
 3087 00dc 0E       		.uleb128 0xe
 3088 00dd 3A       		.uleb128 0x3a
 3089 00de 0B       		.uleb128 0xb
 3090 00df 3B       		.uleb128 0x3b
 3091 00e0 0B       		.uleb128 0xb
 3092 00e1 49       		.uleb128 0x49
 3093 00e2 13       		.uleb128 0x13
 3094 00e3 38       		.uleb128 0x38
 3095 00e4 05       		.uleb128 0x5
 3096 00e5 00       		.byte	0
 3097 00e6 00       		.byte	0
 3098 00e7 14       		.uleb128 0x14
 3099 00e8 15       		.uleb128 0x15
 3100 00e9 00       		.byte	0
 3101 00ea 27       		.uleb128 0x27
 3102 00eb 19       		.uleb128 0x19
 3103 00ec 00       		.byte	0
 3104 00ed 00       		.byte	0
 3105 00ee 15       		.uleb128 0x15
 3106 00ef 15       		.uleb128 0x15
 3107 00f0 01       		.byte	0x1
 3108 00f1 27       		.uleb128 0x27
 3109 00f2 19       		.uleb128 0x19
 3110 00f3 49       		.uleb128 0x49
 3111 00f4 13       		.uleb128 0x13
 3112 00f5 01       		.uleb128 0x1
 3113 00f6 13       		.uleb128 0x13
 3114 00f7 00       		.byte	0
 3115 00f8 00       		.byte	0
 3116 00f9 16       		.uleb128 0x16
 3117 00fa 05       		.uleb128 0x5
 3118 00fb 00       		.byte	0
 3119 00fc 49       		.uleb128 0x49
 3120 00fd 13       		.uleb128 0x13
 3121 00fe 00       		.byte	0
 3122 00ff 00       		.byte	0
 3123 0100 17       		.uleb128 0x17
 3124 0101 13       		.uleb128 0x13
 3125 0102 01       		.byte	0x1
 3126 0103 03       		.uleb128 0x3
 3127 0104 0E       		.uleb128 0xe
 3128 0105 0B       		.uleb128 0xb
 3129 0106 05       		.uleb128 0x5
 3130 0107 3A       		.uleb128 0x3a
 3131 0108 0B       		.uleb128 0xb
 3132 0109 3B       		.uleb128 0x3b
 3133 010a 05       		.uleb128 0x5
 3134 010b 01       		.uleb128 0x1
 3135 010c 13       		.uleb128 0x13
ARM GAS  C:\cygwin64\tmp\ccYfXsMJ.s 			page 56


 3136 010d 00       		.byte	0
 3137 010e 00       		.byte	0
 3138 010f 18       		.uleb128 0x18
 3139 0110 0D       		.uleb128 0xd
 3140 0111 00       		.byte	0
 3141 0112 03       		.uleb128 0x3
 3142 0113 0E       		.uleb128 0xe
 3143 0114 3A       		.uleb128 0x3a
 3144 0115 0B       		.uleb128 0xb
 3145 0116 3B       		.uleb128 0x3b
 3146 0117 05       		.uleb128 0x5
 3147 0118 49       		.uleb128 0x49
 3148 0119 13       		.uleb128 0x13
 3149 011a 38       		.uleb128 0x38
 3150 011b 0B       		.uleb128 0xb
 3151 011c 00       		.byte	0
 3152 011d 00       		.byte	0
 3153 011e 19       		.uleb128 0x19
 3154 011f 0D       		.uleb128 0xd
 3155 0120 00       		.byte	0
 3156 0121 03       		.uleb128 0x3
 3157 0122 0E       		.uleb128 0xe
 3158 0123 3A       		.uleb128 0x3a
 3159 0124 0B       		.uleb128 0xb
 3160 0125 3B       		.uleb128 0x3b
 3161 0126 05       		.uleb128 0x5
 3162 0127 49       		.uleb128 0x49
 3163 0128 13       		.uleb128 0x13
 3164 0129 38       		.uleb128 0x38
 3165 012a 05       		.uleb128 0x5
 3166 012b 00       		.byte	0
 3167 012c 00       		.byte	0
 3168 012d 1A       		.uleb128 0x1a
 3169 012e 35       		.uleb128 0x35
 3170 012f 00       		.byte	0
 3171 0130 49       		.uleb128 0x49
 3172 0131 13       		.uleb128 0x13
 3173 0132 00       		.byte	0
 3174 0133 00       		.byte	0
 3175 0134 1B       		.uleb128 0x1b
 3176 0135 13       		.uleb128 0x13
 3177 0136 01       		.byte	0x1
 3178 0137 03       		.uleb128 0x3
 3179 0138 0E       		.uleb128 0xe
 3180 0139 0B       		.uleb128 0xb
 3181 013a 0B       		.uleb128 0xb
 3182 013b 3A       		.uleb128 0x3a
 3183 013c 0B       		.uleb128 0xb
 3184 013d 3B       		.uleb128 0x3b
 3185 013e 05       		.uleb128 0x5
 3186 013f 01       		.uleb128 0x1
 3187 0140 13       		.uleb128 0x13
 3188 0141 00       		.byte	0
 3189 0142 00       		.byte	0
 3190 0143 1C       		.uleb128 0x1c
 3191 0144 13       		.uleb128 0x13
 3192 0145 01       		.byte	0x1
ARM GAS  C:\cygwin64\tmp\ccYfXsMJ.s 			page 57


 3193 0146 0B       		.uleb128 0xb
 3194 0147 0B       		.uleb128 0xb
 3195 0148 3A       		.uleb128 0x3a
 3196 0149 0B       		.uleb128 0xb
 3197 014a 3B       		.uleb128 0x3b
 3198 014b 05       		.uleb128 0x5
 3199 014c 01       		.uleb128 0x1
 3200 014d 13       		.uleb128 0x13
 3201 014e 00       		.byte	0
 3202 014f 00       		.byte	0
 3203 0150 1D       		.uleb128 0x1d
 3204 0151 17       		.uleb128 0x17
 3205 0152 01       		.byte	0x1
 3206 0153 0B       		.uleb128 0xb
 3207 0154 0B       		.uleb128 0xb
 3208 0155 3A       		.uleb128 0x3a
 3209 0156 0B       		.uleb128 0xb
 3210 0157 3B       		.uleb128 0x3b
 3211 0158 05       		.uleb128 0x5
 3212 0159 01       		.uleb128 0x1
 3213 015a 13       		.uleb128 0x13
 3214 015b 00       		.byte	0
 3215 015c 00       		.byte	0
 3216 015d 1E       		.uleb128 0x1e
 3217 015e 0D       		.uleb128 0xd
 3218 015f 00       		.byte	0
 3219 0160 03       		.uleb128 0x3
 3220 0161 0E       		.uleb128 0xe
 3221 0162 3A       		.uleb128 0x3a
 3222 0163 0B       		.uleb128 0xb
 3223 0164 3B       		.uleb128 0x3b
 3224 0165 05       		.uleb128 0x5
 3225 0166 49       		.uleb128 0x49
 3226 0167 13       		.uleb128 0x13
 3227 0168 00       		.byte	0
 3228 0169 00       		.byte	0
 3229 016a 1F       		.uleb128 0x1f
 3230 016b 15       		.uleb128 0x15
 3231 016c 01       		.byte	0x1
 3232 016d 27       		.uleb128 0x27
 3233 016e 19       		.uleb128 0x19
 3234 016f 01       		.uleb128 0x1
 3235 0170 13       		.uleb128 0x13
 3236 0171 00       		.byte	0
 3237 0172 00       		.byte	0
 3238 0173 20       		.uleb128 0x20
 3239 0174 34       		.uleb128 0x34
 3240 0175 00       		.byte	0
 3241 0176 03       		.uleb128 0x3
 3242 0177 0E       		.uleb128 0xe
 3243 0178 3A       		.uleb128 0x3a
 3244 0179 0B       		.uleb128 0xb
 3245 017a 3B       		.uleb128 0x3b
 3246 017b 05       		.uleb128 0x5
 3247 017c 49       		.uleb128 0x49
 3248 017d 13       		.uleb128 0x13
 3249 017e 3F       		.uleb128 0x3f
ARM GAS  C:\cygwin64\tmp\ccYfXsMJ.s 			page 58


 3250 017f 19       		.uleb128 0x19
 3251 0180 3C       		.uleb128 0x3c
 3252 0181 19       		.uleb128 0x19
 3253 0182 00       		.byte	0
 3254 0183 00       		.byte	0
 3255 0184 21       		.uleb128 0x21
 3256 0185 0D       		.uleb128 0xd
 3257 0186 00       		.byte	0
 3258 0187 03       		.uleb128 0x3
 3259 0188 08       		.uleb128 0x8
 3260 0189 3A       		.uleb128 0x3a
 3261 018a 0B       		.uleb128 0xb
 3262 018b 3B       		.uleb128 0x3b
 3263 018c 05       		.uleb128 0x5
 3264 018d 49       		.uleb128 0x49
 3265 018e 13       		.uleb128 0x13
 3266 018f 38       		.uleb128 0x38
 3267 0190 0B       		.uleb128 0xb
 3268 0191 00       		.byte	0
 3269 0192 00       		.byte	0
 3270 0193 22       		.uleb128 0x22
 3271 0194 34       		.uleb128 0x34
 3272 0195 00       		.byte	0
 3273 0196 03       		.uleb128 0x3
 3274 0197 0E       		.uleb128 0xe
 3275 0198 3A       		.uleb128 0x3a
 3276 0199 0B       		.uleb128 0xb
 3277 019a 3B       		.uleb128 0x3b
 3278 019b 0B       		.uleb128 0xb
 3279 019c 49       		.uleb128 0x49
 3280 019d 13       		.uleb128 0x13
 3281 019e 3F       		.uleb128 0x3f
 3282 019f 19       		.uleb128 0x19
 3283 01a0 3C       		.uleb128 0x3c
 3284 01a1 19       		.uleb128 0x19
 3285 01a2 00       		.byte	0
 3286 01a3 00       		.byte	0
 3287 01a4 23       		.uleb128 0x23
 3288 01a5 34       		.uleb128 0x34
 3289 01a6 00       		.byte	0
 3290 01a7 03       		.uleb128 0x3
 3291 01a8 08       		.uleb128 0x8
 3292 01a9 3A       		.uleb128 0x3a
 3293 01aa 0B       		.uleb128 0xb
 3294 01ab 3B       		.uleb128 0x3b
 3295 01ac 05       		.uleb128 0x5
 3296 01ad 49       		.uleb128 0x49
 3297 01ae 13       		.uleb128 0x13
 3298 01af 3F       		.uleb128 0x3f
 3299 01b0 19       		.uleb128 0x19
 3300 01b1 3C       		.uleb128 0x3c
 3301 01b2 19       		.uleb128 0x19
 3302 01b3 00       		.byte	0
 3303 01b4 00       		.byte	0
 3304 01b5 24       		.uleb128 0x24
 3305 01b6 21       		.uleb128 0x21
 3306 01b7 00       		.byte	0
ARM GAS  C:\cygwin64\tmp\ccYfXsMJ.s 			page 59


 3307 01b8 00       		.byte	0
 3308 01b9 00       		.byte	0
 3309 01ba 25       		.uleb128 0x25
 3310 01bb 34       		.uleb128 0x34
 3311 01bc 00       		.byte	0
 3312 01bd 47       		.uleb128 0x47
 3313 01be 13       		.uleb128 0x13
 3314 01bf 3A       		.uleb128 0x3a
 3315 01c0 0B       		.uleb128 0xb
 3316 01c1 3B       		.uleb128 0x3b
 3317 01c2 0B       		.uleb128 0xb
 3318 01c3 02       		.uleb128 0x2
 3319 01c4 18       		.uleb128 0x18
 3320 01c5 00       		.byte	0
 3321 01c6 00       		.byte	0
 3322 01c7 26       		.uleb128 0x26
 3323 01c8 2E       		.uleb128 0x2e
 3324 01c9 01       		.byte	0x1
 3325 01ca 3F       		.uleb128 0x3f
 3326 01cb 19       		.uleb128 0x19
 3327 01cc 03       		.uleb128 0x3
 3328 01cd 0E       		.uleb128 0xe
 3329 01ce 3A       		.uleb128 0x3a
 3330 01cf 0B       		.uleb128 0xb
 3331 01d0 3B       		.uleb128 0x3b
 3332 01d1 0B       		.uleb128 0xb
 3333 01d2 27       		.uleb128 0x27
 3334 01d3 19       		.uleb128 0x19
 3335 01d4 49       		.uleb128 0x49
 3336 01d5 13       		.uleb128 0x13
 3337 01d6 11       		.uleb128 0x11
 3338 01d7 01       		.uleb128 0x1
 3339 01d8 12       		.uleb128 0x12
 3340 01d9 06       		.uleb128 0x6
 3341 01da 40       		.uleb128 0x40
 3342 01db 18       		.uleb128 0x18
 3343 01dc 9742     		.uleb128 0x2117
 3344 01de 19       		.uleb128 0x19
 3345 01df 01       		.uleb128 0x1
 3346 01e0 13       		.uleb128 0x13
 3347 01e1 00       		.byte	0
 3348 01e2 00       		.byte	0
 3349 01e3 27       		.uleb128 0x27
 3350 01e4 05       		.uleb128 0x5
 3351 01e5 00       		.byte	0
 3352 01e6 03       		.uleb128 0x3
 3353 01e7 08       		.uleb128 0x8
 3354 01e8 3A       		.uleb128 0x3a
 3355 01e9 0B       		.uleb128 0xb
 3356 01ea 3B       		.uleb128 0x3b
 3357 01eb 0B       		.uleb128 0xb
 3358 01ec 49       		.uleb128 0x49
 3359 01ed 13       		.uleb128 0x13
 3360 01ee 02       		.uleb128 0x2
 3361 01ef 17       		.uleb128 0x17
 3362 01f0 00       		.byte	0
 3363 01f1 00       		.byte	0
ARM GAS  C:\cygwin64\tmp\ccYfXsMJ.s 			page 60


 3364 01f2 28       		.uleb128 0x28
 3365 01f3 34       		.uleb128 0x34
 3366 01f4 00       		.byte	0
 3367 01f5 03       		.uleb128 0x3
 3368 01f6 08       		.uleb128 0x8
 3369 01f7 3A       		.uleb128 0x3a
 3370 01f8 0B       		.uleb128 0xb
 3371 01f9 3B       		.uleb128 0x3b
 3372 01fa 0B       		.uleb128 0xb
 3373 01fb 49       		.uleb128 0x49
 3374 01fc 13       		.uleb128 0x13
 3375 01fd 02       		.uleb128 0x2
 3376 01fe 17       		.uleb128 0x17
 3377 01ff 00       		.byte	0
 3378 0200 00       		.byte	0
 3379 0201 29       		.uleb128 0x29
 3380 0202 898201   		.uleb128 0x4109
 3381 0205 00       		.byte	0
 3382 0206 11       		.uleb128 0x11
 3383 0207 01       		.uleb128 0x1
 3384 0208 31       		.uleb128 0x31
 3385 0209 13       		.uleb128 0x13
 3386 020a 00       		.byte	0
 3387 020b 00       		.byte	0
 3388 020c 2A       		.uleb128 0x2a
 3389 020d 05       		.uleb128 0x5
 3390 020e 00       		.byte	0
 3391 020f 03       		.uleb128 0x3
 3392 0210 0E       		.uleb128 0xe
 3393 0211 3A       		.uleb128 0x3a
 3394 0212 0B       		.uleb128 0xb
 3395 0213 3B       		.uleb128 0x3b
 3396 0214 0B       		.uleb128 0xb
 3397 0215 49       		.uleb128 0x49
 3398 0216 13       		.uleb128 0x13
 3399 0217 02       		.uleb128 0x2
 3400 0218 17       		.uleb128 0x17
 3401 0219 00       		.byte	0
 3402 021a 00       		.byte	0
 3403 021b 2B       		.uleb128 0x2b
 3404 021c 898201   		.uleb128 0x4109
 3405 021f 01       		.byte	0x1
 3406 0220 11       		.uleb128 0x11
 3407 0221 01       		.uleb128 0x1
 3408 0222 31       		.uleb128 0x31
 3409 0223 13       		.uleb128 0x13
 3410 0224 01       		.uleb128 0x1
 3411 0225 13       		.uleb128 0x13
 3412 0226 00       		.byte	0
 3413 0227 00       		.byte	0
 3414 0228 2C       		.uleb128 0x2c
 3415 0229 8A8201   		.uleb128 0x410a
 3416 022c 00       		.byte	0
 3417 022d 02       		.uleb128 0x2
 3418 022e 18       		.uleb128 0x18
 3419 022f 9142     		.uleb128 0x2111
 3420 0231 18       		.uleb128 0x18
ARM GAS  C:\cygwin64\tmp\ccYfXsMJ.s 			page 61


 3421 0232 00       		.byte	0
 3422 0233 00       		.byte	0
 3423 0234 2D       		.uleb128 0x2d
 3424 0235 898201   		.uleb128 0x4109
 3425 0238 01       		.byte	0x1
 3426 0239 11       		.uleb128 0x11
 3427 023a 01       		.uleb128 0x1
 3428 023b 31       		.uleb128 0x31
 3429 023c 13       		.uleb128 0x13
 3430 023d 00       		.byte	0
 3431 023e 00       		.byte	0
 3432 023f 2E       		.uleb128 0x2e
 3433 0240 34       		.uleb128 0x34
 3434 0241 00       		.byte	0
 3435 0242 03       		.uleb128 0x3
 3436 0243 0E       		.uleb128 0xe
 3437 0244 49       		.uleb128 0x49
 3438 0245 13       		.uleb128 0x13
 3439 0246 34       		.uleb128 0x34
 3440 0247 19       		.uleb128 0x19
 3441 0248 00       		.byte	0
 3442 0249 00       		.byte	0
 3443 024a 2F       		.uleb128 0x2f
 3444 024b 1D       		.uleb128 0x1d
 3445 024c 01       		.byte	0x1
 3446 024d 31       		.uleb128 0x31
 3447 024e 13       		.uleb128 0x13
 3448 024f 11       		.uleb128 0x11
 3449 0250 01       		.uleb128 0x1
 3450 0251 12       		.uleb128 0x12
 3451 0252 06       		.uleb128 0x6
 3452 0253 58       		.uleb128 0x58
 3453 0254 0B       		.uleb128 0xb
 3454 0255 59       		.uleb128 0x59
 3455 0256 0B       		.uleb128 0xb
 3456 0257 01       		.uleb128 0x1
 3457 0258 13       		.uleb128 0x13
 3458 0259 00       		.byte	0
 3459 025a 00       		.byte	0
 3460 025b 30       		.uleb128 0x30
 3461 025c 1D       		.uleb128 0x1d
 3462 025d 01       		.byte	0x1
 3463 025e 31       		.uleb128 0x31
 3464 025f 13       		.uleb128 0x13
 3465 0260 11       		.uleb128 0x11
 3466 0261 01       		.uleb128 0x1
 3467 0262 12       		.uleb128 0x12
 3468 0263 06       		.uleb128 0x6
 3469 0264 58       		.uleb128 0x58
 3470 0265 0B       		.uleb128 0xb
 3471 0266 59       		.uleb128 0x59
 3472 0267 05       		.uleb128 0x5
 3473 0268 01       		.uleb128 0x1
 3474 0269 13       		.uleb128 0x13
 3475 026a 00       		.byte	0
 3476 026b 00       		.byte	0
 3477 026c 31       		.uleb128 0x31
ARM GAS  C:\cygwin64\tmp\ccYfXsMJ.s 			page 62


 3478 026d 1D       		.uleb128 0x1d
 3479 026e 01       		.byte	0x1
 3480 026f 31       		.uleb128 0x31
 3481 0270 13       		.uleb128 0x13
 3482 0271 11       		.uleb128 0x11
 3483 0272 01       		.uleb128 0x1
 3484 0273 12       		.uleb128 0x12
 3485 0274 06       		.uleb128 0x6
 3486 0275 58       		.uleb128 0x58
 3487 0276 0B       		.uleb128 0xb
 3488 0277 59       		.uleb128 0x59
 3489 0278 05       		.uleb128 0x5
 3490 0279 00       		.byte	0
 3491 027a 00       		.byte	0
 3492 027b 32       		.uleb128 0x32
 3493 027c 05       		.uleb128 0x5
 3494 027d 00       		.byte	0
 3495 027e 31       		.uleb128 0x31
 3496 027f 13       		.uleb128 0x13
 3497 0280 02       		.uleb128 0x2
 3498 0281 17       		.uleb128 0x17
 3499 0282 00       		.byte	0
 3500 0283 00       		.byte	0
 3501 0284 33       		.uleb128 0x33
 3502 0285 0B       		.uleb128 0xb
 3503 0286 01       		.byte	0x1
 3504 0287 11       		.uleb128 0x11
 3505 0288 01       		.uleb128 0x1
 3506 0289 12       		.uleb128 0x12
 3507 028a 06       		.uleb128 0x6
 3508 028b 00       		.byte	0
 3509 028c 00       		.byte	0
 3510 028d 34       		.uleb128 0x34
 3511 028e 34       		.uleb128 0x34
 3512 028f 00       		.byte	0
 3513 0290 31       		.uleb128 0x31
 3514 0291 13       		.uleb128 0x13
 3515 0292 00       		.byte	0
 3516 0293 00       		.byte	0
 3517 0294 35       		.uleb128 0x35
 3518 0295 1D       		.uleb128 0x1d
 3519 0296 01       		.byte	0x1
 3520 0297 31       		.uleb128 0x31
 3521 0298 13       		.uleb128 0x13
 3522 0299 11       		.uleb128 0x11
 3523 029a 01       		.uleb128 0x1
 3524 029b 12       		.uleb128 0x12
 3525 029c 06       		.uleb128 0x6
 3526 029d 58       		.uleb128 0x58
 3527 029e 0B       		.uleb128 0xb
 3528 029f 59       		.uleb128 0x59
 3529 02a0 0B       		.uleb128 0xb
 3530 02a1 00       		.byte	0
 3531 02a2 00       		.byte	0
 3532 02a3 36       		.uleb128 0x36
 3533 02a4 2E       		.uleb128 0x2e
 3534 02a5 01       		.byte	0x1
ARM GAS  C:\cygwin64\tmp\ccYfXsMJ.s 			page 63


 3535 02a6 03       		.uleb128 0x3
 3536 02a7 0E       		.uleb128 0xe
 3537 02a8 3A       		.uleb128 0x3a
 3538 02a9 0B       		.uleb128 0xb
 3539 02aa 3B       		.uleb128 0x3b
 3540 02ab 0B       		.uleb128 0xb
 3541 02ac 27       		.uleb128 0x27
 3542 02ad 19       		.uleb128 0x19
 3543 02ae 49       		.uleb128 0x49
 3544 02af 13       		.uleb128 0x13
 3545 02b0 20       		.uleb128 0x20
 3546 02b1 0B       		.uleb128 0xb
 3547 02b2 01       		.uleb128 0x1
 3548 02b3 13       		.uleb128 0x13
 3549 02b4 00       		.byte	0
 3550 02b5 00       		.byte	0
 3551 02b6 37       		.uleb128 0x37
 3552 02b7 05       		.uleb128 0x5
 3553 02b8 00       		.byte	0
 3554 02b9 03       		.uleb128 0x3
 3555 02ba 08       		.uleb128 0x8
 3556 02bb 3A       		.uleb128 0x3a
 3557 02bc 0B       		.uleb128 0xb
 3558 02bd 3B       		.uleb128 0x3b
 3559 02be 0B       		.uleb128 0xb
 3560 02bf 49       		.uleb128 0x49
 3561 02c0 13       		.uleb128 0x13
 3562 02c1 00       		.byte	0
 3563 02c2 00       		.byte	0
 3564 02c3 38       		.uleb128 0x38
 3565 02c4 2E       		.uleb128 0x2e
 3566 02c5 01       		.byte	0x1
 3567 02c6 03       		.uleb128 0x3
 3568 02c7 0E       		.uleb128 0xe
 3569 02c8 3A       		.uleb128 0x3a
 3570 02c9 0B       		.uleb128 0xb
 3571 02ca 3B       		.uleb128 0x3b
 3572 02cb 05       		.uleb128 0x5
 3573 02cc 27       		.uleb128 0x27
 3574 02cd 19       		.uleb128 0x19
 3575 02ce 49       		.uleb128 0x49
 3576 02cf 13       		.uleb128 0x13
 3577 02d0 20       		.uleb128 0x20
 3578 02d1 0B       		.uleb128 0xb
 3579 02d2 01       		.uleb128 0x1
 3580 02d3 13       		.uleb128 0x13
 3581 02d4 00       		.byte	0
 3582 02d5 00       		.byte	0
 3583 02d6 39       		.uleb128 0x39
 3584 02d7 05       		.uleb128 0x5
 3585 02d8 00       		.byte	0
 3586 02d9 03       		.uleb128 0x3
 3587 02da 08       		.uleb128 0x8
 3588 02db 3A       		.uleb128 0x3a
 3589 02dc 0B       		.uleb128 0xb
 3590 02dd 3B       		.uleb128 0x3b
 3591 02de 05       		.uleb128 0x5
ARM GAS  C:\cygwin64\tmp\ccYfXsMJ.s 			page 64


 3592 02df 49       		.uleb128 0x49
 3593 02e0 13       		.uleb128 0x13
 3594 02e1 00       		.byte	0
 3595 02e2 00       		.byte	0
 3596 02e3 3A       		.uleb128 0x3a
 3597 02e4 2E       		.uleb128 0x2e
 3598 02e5 01       		.byte	0x1
 3599 02e6 03       		.uleb128 0x3
 3600 02e7 0E       		.uleb128 0xe
 3601 02e8 3A       		.uleb128 0x3a
 3602 02e9 0B       		.uleb128 0xb
 3603 02ea 3B       		.uleb128 0x3b
 3604 02eb 05       		.uleb128 0x5
 3605 02ec 27       		.uleb128 0x27
 3606 02ed 19       		.uleb128 0x19
 3607 02ee 20       		.uleb128 0x20
 3608 02ef 0B       		.uleb128 0xb
 3609 02f0 01       		.uleb128 0x1
 3610 02f1 13       		.uleb128 0x13
 3611 02f2 00       		.byte	0
 3612 02f3 00       		.byte	0
 3613 02f4 3B       		.uleb128 0x3b
 3614 02f5 34       		.uleb128 0x34
 3615 02f6 00       		.byte	0
 3616 02f7 03       		.uleb128 0x3
 3617 02f8 0E       		.uleb128 0xe
 3618 02f9 49       		.uleb128 0x49
 3619 02fa 13       		.uleb128 0x13
 3620 02fb 34       		.uleb128 0x34
 3621 02fc 19       		.uleb128 0x19
 3622 02fd 1C       		.uleb128 0x1c
 3623 02fe 0E       		.uleb128 0xe
 3624 02ff 00       		.byte	0
 3625 0300 00       		.byte	0
 3626 0301 3C       		.uleb128 0x3c
 3627 0302 2E       		.uleb128 0x2e
 3628 0303 00       		.byte	0
 3629 0304 03       		.uleb128 0x3
 3630 0305 0E       		.uleb128 0xe
 3631 0306 3A       		.uleb128 0x3a
 3632 0307 0B       		.uleb128 0xb
 3633 0308 3B       		.uleb128 0x3b
 3634 0309 05       		.uleb128 0x5
 3635 030a 27       		.uleb128 0x27
 3636 030b 19       		.uleb128 0x19
 3637 030c 20       		.uleb128 0x20
 3638 030d 0B       		.uleb128 0xb
 3639 030e 00       		.byte	0
 3640 030f 00       		.byte	0
 3641 0310 3D       		.uleb128 0x3d
 3642 0311 05       		.uleb128 0x5
 3643 0312 00       		.byte	0
 3644 0313 03       		.uleb128 0x3
 3645 0314 0E       		.uleb128 0xe
 3646 0315 3A       		.uleb128 0x3a
 3647 0316 0B       		.uleb128 0xb
 3648 0317 3B       		.uleb128 0x3b
ARM GAS  C:\cygwin64\tmp\ccYfXsMJ.s 			page 65


 3649 0318 05       		.uleb128 0x5
 3650 0319 49       		.uleb128 0x49
 3651 031a 13       		.uleb128 0x13
 3652 031b 00       		.byte	0
 3653 031c 00       		.byte	0
 3654 031d 3E       		.uleb128 0x3e
 3655 031e 2E       		.uleb128 0x2e
 3656 031f 00       		.byte	0
 3657 0320 3F       		.uleb128 0x3f
 3658 0321 19       		.uleb128 0x19
 3659 0322 3C       		.uleb128 0x3c
 3660 0323 19       		.uleb128 0x19
 3661 0324 6E       		.uleb128 0x6e
 3662 0325 0E       		.uleb128 0xe
 3663 0326 03       		.uleb128 0x3
 3664 0327 0E       		.uleb128 0xe
 3665 0328 3A       		.uleb128 0x3a
 3666 0329 0B       		.uleb128 0xb
 3667 032a 3B       		.uleb128 0x3b
 3668 032b 0B       		.uleb128 0xb
 3669 032c 00       		.byte	0
 3670 032d 00       		.byte	0
 3671 032e 00       		.byte	0
 3672              		.section	.debug_loc,"",%progbits
 3673              	.Ldebug_loc0:
 3674              	.LLST11:
 3675 0000 00000000 		.4byte	.LVL27
 3676 0004 07000000 		.4byte	.LVL28-1
 3677 0008 0100     		.2byte	0x1
 3678 000a 50       		.byte	0x50
 3679 000b 07000000 		.4byte	.LVL28-1
 3680 000f 18000000 		.4byte	.LFE250
 3681 0013 0100     		.2byte	0x1
 3682 0015 54       		.byte	0x54
 3683 0016 00000000 		.4byte	0
 3684 001a 00000000 		.4byte	0
 3685              	.LLST12:
 3686 001e 08000000 		.4byte	.LVL28
 3687 0022 11000000 		.4byte	.LVL29-1
 3688 0026 0100     		.2byte	0x1
 3689 0028 50       		.byte	0x50
 3690 0029 12000000 		.4byte	.LVL29
 3691 002d 18000000 		.4byte	.LFE250
 3692 0031 0100     		.2byte	0x1
 3693 0033 50       		.byte	0x50
 3694 0034 00000000 		.4byte	0
 3695 0038 00000000 		.4byte	0
 3696              	.LLST9:
 3697 003c 00000000 		.4byte	.LVL24
 3698 0040 07000000 		.4byte	.LVL25-1
 3699 0044 0100     		.2byte	0x1
 3700 0046 50       		.byte	0x50
 3701 0047 07000000 		.4byte	.LVL25-1
 3702 004b 16000000 		.4byte	.LFE249
 3703 004f 0100     		.2byte	0x1
 3704 0051 54       		.byte	0x54
 3705 0052 00000000 		.4byte	0
ARM GAS  C:\cygwin64\tmp\ccYfXsMJ.s 			page 66


 3706 0056 00000000 		.4byte	0
 3707              	.LLST10:
 3708 005a 08000000 		.4byte	.LVL25
 3709 005e 0F000000 		.4byte	.LVL26-1
 3710 0062 0100     		.2byte	0x1
 3711 0064 50       		.byte	0x50
 3712 0065 10000000 		.4byte	.LVL26
 3713 0069 16000000 		.4byte	.LFE249
 3714 006d 0100     		.2byte	0x1
 3715 006f 50       		.byte	0x50
 3716 0070 00000000 		.4byte	0
 3717 0074 00000000 		.4byte	0
 3718              	.LLST7:
 3719 0078 00000000 		.4byte	.LVL16
 3720 007c 07000000 		.4byte	.LVL17-1
 3721 0080 0100     		.2byte	0x1
 3722 0082 50       		.byte	0x50
 3723 0083 07000000 		.4byte	.LVL17-1
 3724 0087 24000000 		.4byte	.LFE248
 3725 008b 0100     		.2byte	0x1
 3726 008d 55       		.byte	0x55
 3727 008e 00000000 		.4byte	0
 3728 0092 00000000 		.4byte	0
 3729              	.LLST8:
 3730 0096 0A000000 		.4byte	.LVL18
 3731 009a 0E000000 		.4byte	.LVL19
 3732 009e 0100     		.2byte	0x1
 3733 00a0 50       		.byte	0x50
 3734 00a1 0E000000 		.4byte	.LVL19
 3735 00a5 1A000000 		.4byte	.LVL21
 3736 00a9 0100     		.2byte	0x1
 3737 00ab 54       		.byte	0x54
 3738 00ac 1A000000 		.4byte	.LVL21
 3739 00b0 20000000 		.4byte	.LVL23
 3740 00b4 0100     		.2byte	0x1
 3741 00b6 50       		.byte	0x50
 3742 00b7 20000000 		.4byte	.LVL23
 3743 00bb 24000000 		.4byte	.LFE248
 3744 00bf 0100     		.2byte	0x1
 3745 00c1 54       		.byte	0x54
 3746 00c2 00000000 		.4byte	0
 3747 00c6 00000000 		.4byte	0
 3748              	.LLST3:
 3749 00ca 00000000 		.4byte	.LVL7
 3750 00ce 0D000000 		.4byte	.LVL9-1
 3751 00d2 0100     		.2byte	0x1
 3752 00d4 50       		.byte	0x50
 3753 00d5 0D000000 		.4byte	.LVL9-1
 3754 00d9 36000000 		.4byte	.LVL15
 3755 00dd 0100     		.2byte	0x1
 3756 00df 55       		.byte	0x55
 3757 00e0 36000000 		.4byte	.LVL15
 3758 00e4 3C000000 		.4byte	.LFE247
 3759 00e8 0400     		.2byte	0x4
 3760 00ea F3       		.byte	0xf3
 3761 00eb 01       		.uleb128 0x1
 3762 00ec 50       		.byte	0x50
ARM GAS  C:\cygwin64\tmp\ccYfXsMJ.s 			page 67


 3763 00ed 9F       		.byte	0x9f
 3764 00ee 00000000 		.4byte	0
 3765 00f2 00000000 		.4byte	0
 3766              	.LLST4:
 3767 00f6 10000000 		.4byte	.LVL10
 3768 00fa 36000000 		.4byte	.LVL15
 3769 00fe 0100     		.2byte	0x1
 3770 0100 54       		.byte	0x54
 3771 0101 36000000 		.4byte	.LVL15
 3772 0105 3C000000 		.4byte	.LFE247
 3773 0109 0100     		.2byte	0x1
 3774 010b 50       		.byte	0x50
 3775 010c 00000000 		.4byte	0
 3776 0110 00000000 		.4byte	0
 3777              	.LLST5:
 3778 0114 00000000 		.4byte	.LVL7
 3779 0118 0A000000 		.4byte	.LVL8
 3780 011c 0300     		.2byte	0x3
 3781 011e 08       		.byte	0x8
 3782 011f 20       		.byte	0x20
 3783 0120 9F       		.byte	0x9f
 3784 0121 00000000 		.4byte	0
 3785 0125 00000000 		.4byte	0
 3786              	.LLST6:
 3787 0129 26000000 		.4byte	.LVL12
 3788 012d 2C000000 		.4byte	.LVL13
 3789 0131 0200     		.2byte	0x2
 3790 0133 30       		.byte	0x30
 3791 0134 9F       		.byte	0x9f
 3792 0135 00000000 		.4byte	0
 3793 0139 00000000 		.4byte	0
 3794              	.LLST0:
 3795 013d 10000000 		.4byte	.LVL3
 3796 0141 28000000 		.4byte	.LVL6
 3797 0145 0100     		.2byte	0x1
 3798 0147 54       		.byte	0x54
 3799 0148 28000000 		.4byte	.LVL6
 3800 014c 2C000000 		.4byte	.LFE246
 3801 0150 0100     		.2byte	0x1
 3802 0152 50       		.byte	0x50
 3803 0153 00000000 		.4byte	0
 3804 0157 00000000 		.4byte	0
 3805              	.LLST1:
 3806 015b 00000000 		.4byte	.LVL0
 3807 015f 08000000 		.4byte	.LVL1
 3808 0163 0300     		.2byte	0x3
 3809 0165 08       		.byte	0x8
 3810 0166 20       		.byte	0x20
 3811 0167 9F       		.byte	0x9f
 3812 0168 00000000 		.4byte	0
 3813 016c 00000000 		.4byte	0
 3814              	.LLST2:
 3815 0170 1E000000 		.4byte	.LVL4
 3816 0174 24000000 		.4byte	.LVL5
 3817 0178 0200     		.2byte	0x2
 3818 017a 30       		.byte	0x30
 3819 017b 9F       		.byte	0x9f
ARM GAS  C:\cygwin64\tmp\ccYfXsMJ.s 			page 68


 3820 017c 00000000 		.4byte	0
 3821 0180 00000000 		.4byte	0
 3822              		.section	.debug_aranges,"",%progbits
 3823 0000 3C000000 		.4byte	0x3c
 3824 0004 0200     		.2byte	0x2
 3825 0006 00000000 		.4byte	.Ldebug_info0
 3826 000a 04       		.byte	0x4
 3827 000b 00       		.byte	0
 3828 000c 0000     		.2byte	0
 3829 000e 0000     		.2byte	0
 3830 0010 00000000 		.4byte	.LFB246
 3831 0014 2C000000 		.4byte	.LFE246-.LFB246
 3832 0018 00000000 		.4byte	.LFB247
 3833 001c 3C000000 		.4byte	.LFE247-.LFB247
 3834 0020 00000000 		.4byte	.LFB248
 3835 0024 24000000 		.4byte	.LFE248-.LFB248
 3836 0028 00000000 		.4byte	.LFB249
 3837 002c 16000000 		.4byte	.LFE249-.LFB249
 3838 0030 00000000 		.4byte	.LFB250
 3839 0034 18000000 		.4byte	.LFE250-.LFB250
 3840 0038 00000000 		.4byte	0
 3841 003c 00000000 		.4byte	0
 3842              		.section	.debug_ranges,"",%progbits
 3843              	.Ldebug_ranges0:
 3844 0000 00000000 		.4byte	.LFB246
 3845 0004 2C000000 		.4byte	.LFE246
 3846 0008 00000000 		.4byte	.LFB247
 3847 000c 3C000000 		.4byte	.LFE247
 3848 0010 00000000 		.4byte	.LFB248
 3849 0014 24000000 		.4byte	.LFE248
 3850 0018 00000000 		.4byte	.LFB249
 3851 001c 16000000 		.4byte	.LFE249
 3852 0020 00000000 		.4byte	.LFB250
 3853 0024 18000000 		.4byte	.LFE250
 3854 0028 00000000 		.4byte	0
 3855 002c 00000000 		.4byte	0
 3856              		.section	.debug_line,"",%progbits
 3857              	.Ldebug_line0:
 3858 0000 85040000 		.section	.debug_str,"MS",%progbits,1
 3858      0200CF03 
 3858      00000201 
 3858      FB0E0D00 
 3858      01010101 
 3859              	.LASF227:
 3860 0000 6F66665F 		.ascii	"off_ctx\000"
 3860      63747800 
 3861              	.LASF4:
 3862 0008 73697A65 		.ascii	"size_t\000"
 3862      5F7400
 3863              	.LASF226:
 3864 000f 6F66665F 		.ascii	"off_prio\000"
 3864      7072696F 
 3864      00
 3865              	.LASF22:
 3866 0018 73697A65 		.ascii	"sizetype\000"
 3866      74797065 
 3866      00
ARM GAS  C:\cygwin64\tmp\ccYfXsMJ.s 			page 69


 3867              	.LASF125:
 3868 0021 5F5F6C6F 		.ascii	"__locale_t\000"
 3868      63616C65 
 3868      5F7400
 3869              	.LASF24:
 3870 002c 5F5F7661 		.ascii	"__value\000"
 3870      6C756500 
 3871              	.LASF143:
 3872 0034 73797374 		.ascii	"systime_t\000"
 3872      696D655F 
 3872      7400
 3873              	.LASF235:
 3874 003e 6F66665F 		.ascii	"off_preempt\000"
 3874      70726565 
 3874      6D707400 
 3875              	.LASF93:
 3876 004a 5F5F7366 		.ascii	"__sf\000"
 3876      00
 3877              	.LASF244:
 3878 004f 63685265 		.ascii	"chRegNextThread\000"
 3878      674E6578 
 3878      74546872 
 3878      65616400 
 3879              	.LASF217:
 3880 005f 6F776E65 		.ascii	"owner\000"
 3880      7200
 3881              	.LASF60:
 3882 0065 5F726561 		.ascii	"_read\000"
 3882      6400
 3883              	.LASF138:
 3884 006b 74707269 		.ascii	"tprio_t\000"
 3884      6F5F7400 
 3885              	.LASF238:
 3886 0073 63685F64 		.ascii	"ch_debug\000"
 3886      65627567 
 3886      00
 3887              	.LASF61:
 3888 007c 5F777269 		.ascii	"_write\000"
 3888      746500
 3889              	.LASF130:
 3890 0083 696E7433 		.ascii	"int32_t\000"
 3890      325F7400 
 3891              	.LASF104:
 3892 008b 5F617363 		.ascii	"_asctime_buf\000"
 3892      74696D65 
 3892      5F627566 
 3892      00
 3893              	.LASF87:
 3894 0098 5F637674 		.ascii	"_cvtlen\000"
 3894      6C656E00 
 3895              	.LASF172:
 3896 00a0 76746675 		.ascii	"vtfunc_t\000"
 3896      6E635F74 
 3896      00
 3897              	.LASF261:
 3898 00a9 5F5F6675 		.ascii	"__func__\000"
 3898      6E635F5F 
ARM GAS  C:\cygwin64\tmp\ccYfXsMJ.s 			page 70


 3898      00
 3899              	.LASF178:
 3900 00b2 63685F76 		.ascii	"ch_virtual_timers_list\000"
 3900      69727475 
 3900      616C5F74 
 3900      696D6572 
 3900      735F6C69 
 3901              	.LASF123:
 3902 00c9 5F756E75 		.ascii	"_unused\000"
 3902      73656400 
 3903              	.LASF34:
 3904 00d1 5F5F746D 		.ascii	"__tm\000"
 3904      00
 3905              	.LASF119:
 3906 00d6 5F776373 		.ascii	"_wcsrtombs_state\000"
 3906      72746F6D 
 3906      62735F73 
 3906      74617465 
 3906      00
 3907              	.LASF65:
 3908 00e7 5F6E6275 		.ascii	"_nbuf\000"
 3908      6600
 3909              	.LASF35:
 3910 00ed 5F5F746D 		.ascii	"__tm_sec\000"
 3910      5F736563 
 3910      00
 3911              	.LASF112:
 3912 00f6 5F6C3634 		.ascii	"_l64a_buf\000"
 3912      615F6275 
 3912      6600
 3913              	.LASF152:
 3914 0100 73746174 		.ascii	"state\000"
 3914      6500
 3915              	.LASF69:
 3916 0106 5F6C6F63 		.ascii	"_lock\000"
 3916      6B00
 3917              	.LASF161:
 3918 010c 73746174 		.ascii	"stats\000"
 3918      7300
 3919              	.LASF100:
 3920 0112 5F6D756C 		.ascii	"_mult\000"
 3920      7400
 3921              	.LASF257:
 3922 0118 63685468 		.ascii	"chThdRelease\000"
 3922      6452656C 
 3922      65617365 
 3922      00
 3923              	.LASF201:
 3924 0125 74696D65 		.ascii	"time_measurement_t\000"
 3924      5F6D6561 
 3924      73757265 
 3924      6D656E74 
 3924      5F7400
 3925              	.LASF229:
 3926 0138 6F66665F 		.ascii	"off_older\000"
 3926      6F6C6465 
 3926      7200
ARM GAS  C:\cygwin64\tmp\ccYfXsMJ.s 			page 71


 3927              	.LASF147:
 3928 0142 7072696F 		.ascii	"prio\000"
 3928      00
 3929              	.LASF245:
 3930 0147 63685265 		.ascii	"chRegFirstThread\000"
 3930      67466972 
 3930      73745468 
 3930      72656164 
 3930      00
 3931              	.LASF20:
 3932 0158 5F5F7763 		.ascii	"__wch\000"
 3932      6800
 3933              	.LASF208:
 3934 015e 65786974 		.ascii	"exitcode\000"
 3934      636F6465 
 3934      00
 3935              	.LASF5:
 3936 0167 5F5F7569 		.ascii	"__uint8_t\000"
 3936      6E74385F 
 3936      7400
 3937              	.LASF57:
 3938 0171 5F66696C 		.ascii	"_file\000"
 3938      6500
 3939              	.LASF44:
 3940 0177 5F6F6E5F 		.ascii	"_on_exit_args\000"
 3940      65786974 
 3940      5F617267 
 3940      7300
 3941              	.LASF115:
 3942 0185 5F6D6272 		.ascii	"_mbrlen_state\000"
 3942      6C656E5F 
 3942      73746174 
 3942      6500
 3943              	.LASF11:
 3944 0193 6C6F6E67 		.ascii	"long int\000"
 3944      20696E74 
 3944      00
 3945              	.LASF249:
 3946 019c 706F7274 		.ascii	"port_unlock\000"
 3946      5F756E6C 
 3946      6F636B00 
 3947              	.LASF126:
 3948 01a8 5F696D70 		.ascii	"_impure_ptr\000"
 3948      7572655F 
 3948      70747200 
 3949              	.LASF84:
 3950 01b4 5F726573 		.ascii	"_result_k\000"
 3950      756C745F 
 3950      6B00
 3951              	.LASF54:
 3952 01be 5F73697A 		.ascii	"_size\000"
 3952      6500
 3953              	.LASF220:
 3954 01c4 7A65726F 		.ascii	"zero\000"
 3954      00
 3955              	.LASF105:
 3956 01c9 5F6C6F63 		.ascii	"_localtime_buf\000"
ARM GAS  C:\cygwin64\tmp\ccYfXsMJ.s 			page 72


 3956      616C7469 
 3956      6D655F62 
 3956      756600
 3957              	.LASF136:
 3958 01d8 74737461 		.ascii	"tstate_t\000"
 3958      74655F74 
 3958      00
 3959              	.LASF134:
 3960 01e1 72747469 		.ascii	"rttime_t\000"
 3960      6D655F74 
 3960      00
 3961              	.LASF166:
 3962 01ea 74687265 		.ascii	"threads_queue_t\000"
 3962      6164735F 
 3962      71756575 
 3962      655F7400 
 3963              	.LASF191:
 3964 01fa 72656761 		.ascii	"regarm_t\000"
 3964      726D5F74 
 3964      00
 3965              	.LASF39:
 3966 0203 5F5F746D 		.ascii	"__tm_mon\000"
 3966      5F6D6F6E 
 3966      00
 3967              	.LASF246:
 3968 020c 63685265 		.ascii	"chRegGetThreadNameX\000"
 3968      67476574 
 3968      54687265 
 3968      61644E61 
 3968      6D655800 
 3969              	.LASF256:
 3970 0220 5F737461 		.ascii	"_stats_stop_measure_crit_thd\000"
 3970      74735F73 
 3970      746F705F 
 3970      6D656173 
 3970      7572655F 
 3971              	.LASF102:
 3972 023d 5F756E75 		.ascii	"_unused_rand\000"
 3972      7365645F 
 3972      72616E64 
 3972      00
 3973              	.LASF3:
 3974 024a 7369676E 		.ascii	"signed char\000"
 3974      65642063 
 3974      68617200 
 3975              	.LASF214:
 3976 0256 65776D61 		.ascii	"ewmask\000"
 3976      736B00
 3977              	.LASF128:
 3978 025d 75696E74 		.ascii	"uint8_t\000"
 3978      385F7400 
 3979              	.LASF140:
 3980 0265 6576656E 		.ascii	"eventmask_t\000"
 3980      746D6173 
 3980      6B5F7400 
 3981              	.LASF210:
 3982 0271 77747472 		.ascii	"wttrp\000"
ARM GAS  C:\cygwin64\tmp\ccYfXsMJ.s 			page 73


 3982      7000
 3983              	.LASF242:
 3984 0277 63685265 		.ascii	"chRegFindThreadByPointer\000"
 3984      6746696E 
 3984      64546872 
 3984      65616442 
 3984      79506F69 
 3985              	.LASF6:
 3986 0290 756E7369 		.ascii	"unsigned char\000"
 3986      676E6564 
 3986      20636861 
 3986      7200
 3987              	.LASF179:
 3988 029e 6C617374 		.ascii	"lasttime\000"
 3988      74696D65 
 3988      00
 3989              	.LASF182:
 3990 02a7 70616E69 		.ascii	"panic_msg\000"
 3990      635F6D73 
 3990      6700
 3991              	.LASF79:
 3992 02b1 5F756E73 		.ascii	"_unspecified_locale_info\000"
 3992      70656369 
 3992      66696564 
 3992      5F6C6F63 
 3992      616C655F 
 3993              	.LASF72:
 3994 02ca 5F726565 		.ascii	"_reent\000"
 3994      6E7400
 3995              	.LASF127:
 3996 02d1 5F676C6F 		.ascii	"_global_impure_ptr\000"
 3996      62616C5F 
 3996      696D7075 
 3996      72655F70 
 3996      747200
 3997              	.LASF180:
 3998 02e4 73797374 		.ascii	"system_debug_t\000"
 3998      656D5F64 
 3998      65627567 
 3998      5F7400
 3999              	.LASF240:
 4000 02f3 5F426F6F 		.ascii	"_Bool\000"
 4000      6C00
 4001              	.LASF253:
 4002 02f9 76616C75 		.ascii	"value\000"
 4002      6500
 4003              	.LASF27:
 4004 02ff 63686172 		.ascii	"char\000"
 4004      00
 4005              	.LASF51:
 4006 0304 5F666E73 		.ascii	"_fns\000"
 4006      00
 4007              	.LASF63:
 4008 0309 5F636C6F 		.ascii	"_close\000"
 4008      736500
 4009              	.LASF8:
 4010 0310 5F5F7569 		.ascii	"__uint16_t\000"
ARM GAS  C:\cygwin64\tmp\ccYfXsMJ.s 			page 74


 4010      6E743136 
 4010      5F7400
 4011              	.LASF209:
 4012 031b 77746F62 		.ascii	"wtobjp\000"
 4012      6A7000
 4013              	.LASF203:
 4014 0322 6E5F6374 		.ascii	"n_ctxswc\000"
 4014      78737763 
 4014      00
 4015              	.LASF74:
 4016 032b 5F737464 		.ascii	"_stdin\000"
 4016      696E00
 4017              	.LASF258:
 4018 0332 474E5520 		.ascii	"GNU C11 6.3.1 20170620 (release) [ARM/embedded-6-br"
 4018      43313120 
 4018      362E332E 
 4018      31203230 
 4018      31373036 
 4019 0365 616E6368 		.ascii	"anch revision 249437] -mcpu=cortex-m4 -mfloat-abi=h"
 4019      20726576 
 4019      6973696F 
 4019      6E203234 
 4019      39343337 
 4020 0398 61726420 		.ascii	"ard -mfpu=fpv4-sp-d16 -mno-thumb-interwork -mthumb "
 4020      2D6D6670 
 4020      753D6670 
 4020      76342D73 
 4020      702D6431 
 4021 03cb 2D67202D 		.ascii	"-g -Os -fomit-frame-pointer -falign-functions=16 -f"
 4021      4F73202D 
 4021      666F6D69 
 4021      742D6672 
 4021      616D652D 
 4022 03fe 66756E63 		.ascii	"function-sections -fdata-sections -fno-common -fsin"
 4022      74696F6E 
 4022      2D736563 
 4022      74696F6E 
 4022      73202D66 
 4023 0431 676C652D 		.ascii	"gle-precision-constant\000"
 4023      70726563 
 4023      6973696F 
 4023      6E2D636F 
 4023      6E737461 
 4024              	.LASF153:
 4025 0448 666C6167 		.ascii	"flags\000"
 4025      7300
 4026              	.LASF192:
 4027 044e 73746B61 		.ascii	"stkalign_t\000"
 4027      6C69676E 
 4027      5F7400
 4028              	.LASF254:
 4029 0459 73747263 		.ascii	"strcmp\000"
 4029      6D7000
 4030              	.LASF260:
 4031 0460 433A5C63 		.ascii	"C:\\cygwin64\\home\\calfan\\ardupilot\\build\\fmuv3"
 4031      79677769 
 4031      6E36345C 
ARM GAS  C:\cygwin64\tmp\ccYfXsMJ.s 			page 75


 4031      686F6D65 
 4031      5C63616C 
 4032 048d 00       		.ascii	"\000"
 4033              	.LASF160:
 4034 048e 6D706F6F 		.ascii	"mpool\000"
 4034      6C00
 4035              	.LASF198:
 4036 0494 776F7273 		.ascii	"worst\000"
 4036      7400
 4037              	.LASF223:
 4038 049a 70747273 		.ascii	"ptrsize\000"
 4038      697A6500 
 4039              	.LASF236:
 4040 04a2 6F66665F 		.ascii	"off_time\000"
 4040      74696D65 
 4040      00
 4041              	.LASF141:
 4042 04ab 636E745F 		.ascii	"cnt_t\000"
 4042      7400
 4043              	.LASF59:
 4044 04b1 5F636F6F 		.ascii	"_cookie\000"
 4044      6B696500 
 4045              	.LASF213:
 4046 04b9 77746D74 		.ascii	"wtmtxp\000"
 4046      787000
 4047              	.LASF32:
 4048 04c0 5F776473 		.ascii	"_wds\000"
 4048      00
 4049              	.LASF170:
 4050 04c5 63685F72 		.ascii	"ch_ready_list\000"
 4050      65616479 
 4050      5F6C6973 
 4050      7400
 4051              	.LASF124:
 4052 04d3 5F5F6C6F 		.ascii	"__lock\000"
 4052      636B00
 4053              	.LASF91:
 4054 04da 5F736967 		.ascii	"_sig_func\000"
 4054      5F66756E 
 4054      6300
 4055              	.LASF67:
 4056 04e4 5F6F6666 		.ascii	"_offset\000"
 4056      73657400 
 4057              	.LASF259:
 4058 04ec 2E2E2F2E 		.ascii	"../../modules/ChibiOS/os/rt/src/chregistry.c\000"
 4058      2E2F6D6F 
 4058      64756C65 
 4058      732F4368 
 4058      6962694F 
 4059              	.LASF88:
 4060 0519 5F637674 		.ascii	"_cvtbuf\000"
 4060      62756600 
 4061              	.LASF200:
 4062 0521 63756D75 		.ascii	"cumulative\000"
 4062      6C617469 
 4062      766500
 4063              	.LASF204:
ARM GAS  C:\cygwin64\tmp\ccYfXsMJ.s 			page 76


 4064 052c 6D5F6372 		.ascii	"m_crit_thd\000"
 4064      69745F74 
 4064      686400
 4065              	.LASF14:
 4066 0537 5F5F7569 		.ascii	"__uint64_t\000"
 4066      6E743634 
 4066      5F7400
 4067              	.LASF232:
 4068 0542 6F66665F 		.ascii	"off_state\000"
 4068      73746174 
 4068      6500
 4069              	.LASF251:
 4070 054c 63685379 		.ascii	"chSysUnlock\000"
 4070      73556E6C 
 4070      6F636B00 
 4071              	.LASF85:
 4072 0558 5F703573 		.ascii	"_p5s\000"
 4072      00
 4073              	.LASF13:
 4074 055d 6C6F6E67 		.ascii	"long unsigned int\000"
 4074      20756E73 
 4074      69676E65 
 4074      6420696E 
 4074      7400
 4075              	.LASF225:
 4076 056f 74687265 		.ascii	"threadsize\000"
 4076      61647369 
 4076      7A6500
 4077              	.LASF248:
 4078 057a 63685379 		.ascii	"chSysLock\000"
 4078      734C6F63 
 4078      6B00
 4079              	.LASF55:
 4080 0584 5F5F7346 		.ascii	"__sFILE\000"
 4080      494C4500 
 4081              	.LASF81:
 4082 058c 5F5F7364 		.ascii	"__sdidinit\000"
 4082      6964696E 
 4082      697400
 4083              	.LASF71:
 4084 0597 5F666C61 		.ascii	"_flags2\000"
 4084      67733200 
 4085              	.LASF190:
 4086 059f 53797374 		.ascii	"SystemCoreClock\000"
 4086      656D436F 
 4086      7265436C 
 4086      6F636B00 
 4087              	.LASF215:
 4088 05af 63685F73 		.ascii	"ch_semaphore\000"
 4088      656D6170 
 4088      686F7265 
 4088      00
 4089              	.LASF145:
 4090 05bc 63685F74 		.ascii	"ch_thread\000"
 4090      68726561 
 4090      6400
 4091              	.LASF177:
ARM GAS  C:\cygwin64\tmp\ccYfXsMJ.s 			page 77


 4092 05c6 76697274 		.ascii	"virtual_timers_list_t\000"
 4092      75616C5F 
 4092      74696D65 
 4092      72735F6C 
 4092      6973745F 
 4093              	.LASF218:
 4094 05dc 63685F69 		.ascii	"ch_idle_thread_wa\000"
 4094      646C655F 
 4094      74687265 
 4094      61645F77 
 4094      6100
 4095              	.LASF73:
 4096 05ee 5F657272 		.ascii	"_errno\000"
 4096      6E6F00
 4097              	.LASF173:
 4098 05f5 76697274 		.ascii	"virtual_timer_t\000"
 4098      75616C5F 
 4098      74696D65 
 4098      725F7400 
 4099              	.LASF169:
 4100 0605 72656164 		.ascii	"ready_list_t\000"
 4100      795F6C69 
 4100      73745F74 
 4100      00
 4101              	.LASF149:
 4102 0612 6F6C6465 		.ascii	"older\000"
 4102      7200
 4103              	.LASF113:
 4104 0618 5F736967 		.ascii	"_signal_buf\000"
 4104      6E616C5F 
 4104      62756600 
 4105              	.LASF159:
 4106 0624 7265616C 		.ascii	"realprio\000"
 4106      7072696F 
 4106      00
 4107              	.LASF142:
 4108 062d 75636E74 		.ascii	"ucnt_t\000"
 4108      5F7400
 4109              	.LASF231:
 4110 0634 6F66665F 		.ascii	"off_stklimit\000"
 4110      73746B6C 
 4110      696D6974 
 4110      00
 4111              	.LASF33:
 4112 0641 5F426967 		.ascii	"_Bigint\000"
 4112      696E7400 
 4113              	.LASF164:
 4114 0649 63685F74 		.ascii	"ch_threads_list\000"
 4114      68726561 
 4114      64735F6C 
 4114      69737400 
 4115              	.LASF30:
 4116 0659 5F6D6178 		.ascii	"_maxwds\000"
 4116      77647300 
 4117              	.LASF202:
 4118 0661 6E5F6972 		.ascii	"n_irq\000"
 4118      7100
ARM GAS  C:\cygwin64\tmp\ccYfXsMJ.s 			page 78


 4119              	.LASF82:
 4120 0667 5F5F636C 		.ascii	"__cleanup\000"
 4120      65616E75 
 4120      7000
 4121              	.LASF90:
 4122 0671 5F617465 		.ascii	"_atexit0\000"
 4122      78697430 
 4122      00
 4123              	.LASF12:
 4124 067a 5F5F7569 		.ascii	"__uint32_t\000"
 4124      6E743332 
 4124      5F7400
 4125              	.LASF78:
 4126 0685 5F656D65 		.ascii	"_emergency\000"
 4126      7267656E 
 4126      637900
 4127              	.LASF158:
 4128 0690 6D74786C 		.ascii	"mtxlist\000"
 4128      69737400 
 4129              	.LASF1:
 4130 0698 6C6F6E67 		.ascii	"long long int\000"
 4130      206C6F6E 
 4130      6720696E 
 4130      7400
 4131              	.LASF96:
 4132 06a6 5F6E696F 		.ascii	"_niobs\000"
 4132      627300
 4133              	.LASF92:
 4134 06ad 5F5F7367 		.ascii	"__sglue\000"
 4134      6C756500 
 4135              	.LASF122:
 4136 06b5 5F6E6D61 		.ascii	"_nmalloc\000"
 4136      6C6C6F63 
 4136      00
 4137              	.LASF106:
 4138 06be 5F67616D 		.ascii	"_gamma_signgam\000"
 4138      6D615F73 
 4138      69676E67 
 4138      616D00
 4139              	.LASF86:
 4140 06cd 5F667265 		.ascii	"_freelist\000"
 4140      656C6973 
 4140      7400
 4141              	.LASF97:
 4142 06d7 5F696F62 		.ascii	"_iobs\000"
 4142      7300
 4143              	.LASF95:
 4144 06dd 5F676C75 		.ascii	"_glue\000"
 4144      6500
 4145              	.LASF189:
 4146 06e3 49544D5F 		.ascii	"ITM_RxBuffer\000"
 4146      52784275 
 4146      66666572 
 4146      00
 4147              	.LASF31:
 4148 06f0 5F736967 		.ascii	"_sign\000"
 4148      6E00
ARM GAS  C:\cygwin64\tmp\ccYfXsMJ.s 			page 79


 4149              	.LASF228:
 4150 06f6 6F66665F 		.ascii	"off_newer\000"
 4150      6E657765 
 4150      7200
 4151              	.LASF205:
 4152 0700 6D5F6372 		.ascii	"m_crit_isr\000"
 4152      69745F69 
 4152      737200
 4153              	.LASF0:
 4154 070b 756E7369 		.ascii	"unsigned int\000"
 4154      676E6564 
 4154      20696E74 
 4154      00
 4155              	.LASF133:
 4156 0718 7274636E 		.ascii	"rtcnt_t\000"
 4156      745F7400 
 4157              	.LASF154:
 4158 0720 72656673 		.ascii	"refs\000"
 4158      00
 4159              	.LASF120:
 4160 0725 5F685F65 		.ascii	"_h_errno\000"
 4160      72726E6F 
 4160      00
 4161              	.LASF118:
 4162 072e 5F776372 		.ascii	"_wcrtomb_state\000"
 4162      746F6D62 
 4162      5F737461 
 4162      746500
 4163              	.LASF38:
 4164 073d 5F5F746D 		.ascii	"__tm_mday\000"
 4164      5F6D6461 
 4164      7900
 4165              	.LASF206:
 4166 0747 6B65726E 		.ascii	"kernel_stats_t\000"
 4166      656C5F73 
 4166      74617473 
 4166      5F7400
 4167              	.LASF89:
 4168 0756 5F6E6577 		.ascii	"_new\000"
 4168      00
 4169              	.LASF64:
 4170 075b 5F756275 		.ascii	"_ubuf\000"
 4170      6600
 4171              	.LASF76:
 4172 0761 5F737464 		.ascii	"_stderr\000"
 4172      65727200 
 4173              	.LASF111:
 4174 0769 5F776374 		.ascii	"_wctomb_state\000"
 4174      6F6D625F 
 4174      73746174 
 4174      6500
 4175              	.LASF70:
 4176 0777 5F6D6273 		.ascii	"_mbstate\000"
 4176      74617465 
 4176      00
 4177              	.LASF171:
 4178 0780 63757272 		.ascii	"current\000"
ARM GAS  C:\cygwin64\tmp\ccYfXsMJ.s 			page 80


 4178      656E7400 
 4179              	.LASF107:
 4180 0788 5F72616E 		.ascii	"_rand_next\000"
 4180      645F6E65 
 4180      787400
 4181              	.LASF56:
 4182 0793 5F666C61 		.ascii	"_flags\000"
 4182      677300
 4183              	.LASF195:
 4184 079a 6F666673 		.ascii	"offset\000"
 4184      657400
 4185              	.LASF162:
 4186 07a1 74687265 		.ascii	"thread_reference_t\000"
 4186      61645F72 
 4186      65666572 
 4186      656E6365 
 4186      5F7400
 4187              	.LASF49:
 4188 07b4 5F617465 		.ascii	"_atexit\000"
 4188      78697400 
 4189              	.LASF23:
 4190 07bc 5F5F636F 		.ascii	"__count\000"
 4190      756E7400 
 4191              	.LASF41:
 4192 07c4 5F5F746D 		.ascii	"__tm_wday\000"
 4192      5F776461 
 4192      7900
 4193              	.LASF144:
 4194 07ce 74687265 		.ascii	"thread_t\000"
 4194      61645F74 
 4194      00
 4195              	.LASF2:
 4196 07d7 6C6F6E67 		.ascii	"long double\000"
 4196      20646F75 
 4196      626C6500 
 4197              	.LASF42:
 4198 07e3 5F5F746D 		.ascii	"__tm_yday\000"
 4198      5F796461 
 4198      7900
 4199              	.LASF211:
 4200 07ed 73656E74 		.ascii	"sentmsg\000"
 4200      6D736700 
 4201              	.LASF194:
 4202 07f5 706F7274 		.ascii	"port_intctx\000"
 4202      5F696E74 
 4202      63747800 
 4203              	.LASF99:
 4204 0801 5F736565 		.ascii	"_seed\000"
 4204      6400
 4205              	.LASF62:
 4206 0807 5F736565 		.ascii	"_seek\000"
 4206      6B00
 4207              	.LASF18:
 4208 080d 5F66706F 		.ascii	"_fpos_t\000"
 4208      735F7400 
 4209              	.LASF21:
 4210 0815 5F5F7763 		.ascii	"__wchb\000"
ARM GAS  C:\cygwin64\tmp\ccYfXsMJ.s 			page 81


 4210      686200
 4211              	.LASF174:
 4212 081c 63685F76 		.ascii	"ch_virtual_timer\000"
 4212      69727475 
 4212      616C5F74 
 4212      696D6572 
 4212      00
 4213              	.LASF110:
 4214 082d 5F6D6274 		.ascii	"_mbtowc_state\000"
 4214      6F77635F 
 4214      73746174 
 4214      6500
 4215              	.LASF188:
 4216 083b 6B65726E 		.ascii	"kernel_stats\000"
 4216      656C5F73 
 4216      74617473 
 4216      00
 4217              	.LASF221:
 4218 0848 73697A65 		.ascii	"size\000"
 4218      00
 4219              	.LASF15:
 4220 084d 6C6F6E67 		.ascii	"long long unsigned int\000"
 4220      206C6F6E 
 4220      6720756E 
 4220      7369676E 
 4220      65642069 
 4221              	.LASF129:
 4222 0864 75696E74 		.ascii	"uint16_t\000"
 4222      31365F74 
 4222      00
 4223              	.LASF230:
 4224 086d 6F66665F 		.ascii	"off_name\000"
 4224      6E616D65 
 4224      00
 4225              	.LASF46:
 4226 0876 5F64736F 		.ascii	"_dso_handle\000"
 4226      5F68616E 
 4226      646C6500 
 4227              	.LASF139:
 4228 0882 6D73675F 		.ascii	"msg_t\000"
 4228      7400
 4229              	.LASF167:
 4230 0888 63685F74 		.ascii	"ch_threads_queue\000"
 4230      68726561 
 4230      64735F71 
 4230      75657565 
 4230      00
 4231              	.LASF98:
 4232 0899 5F72616E 		.ascii	"_rand48\000"
 4232      64343800 
 4233              	.LASF75:
 4234 08a1 5F737464 		.ascii	"_stdout\000"
 4234      6F757400 
 4235              	.LASF175:
 4236 08a9 64656C74 		.ascii	"delta\000"
 4236      6100
 4237              	.LASF66:
ARM GAS  C:\cygwin64\tmp\ccYfXsMJ.s 			page 82


 4238 08af 5F626C6B 		.ascii	"_blksize\000"
 4238      73697A65 
 4238      00
 4239              	.LASF53:
 4240 08b8 5F626173 		.ascii	"_base\000"
 4240      6500
 4241              	.LASF146:
 4242 08be 71756575 		.ascii	"queue\000"
 4242      6500
 4243              	.LASF157:
 4244 08c4 6570656E 		.ascii	"epending\000"
 4244      64696E67 
 4244      00
 4245              	.LASF255:
 4246 08cd 5F737461 		.ascii	"_stats_start_measure_crit_thd\000"
 4246      74735F73 
 4246      74617274 
 4246      5F6D6561 
 4246      73757265 
 4247              	.LASF103:
 4248 08eb 5F737472 		.ascii	"_strtok_last\000"
 4248      746F6B5F 
 4248      6C617374 
 4248      00
 4249              	.LASF116:
 4250 08f8 5F6D6272 		.ascii	"_mbrtowc_state\000"
 4250      746F7763 
 4250      5F737461 
 4250      746500
 4251              	.LASF187:
 4252 0907 6D61696E 		.ascii	"mainthread\000"
 4252      74687265 
 4252      616400
 4253              	.LASF26:
 4254 0912 5F666C6F 		.ascii	"_flock_t\000"
 4254      636B5F74 
 4254      00
 4255              	.LASF222:
 4256 091b 76657273 		.ascii	"version\000"
 4256      696F6E00 
 4257              	.LASF94:
 4258 0923 5F5F4649 		.ascii	"__FILE\000"
 4258      4C4500
 4259              	.LASF252:
 4260 092a 5F5F7365 		.ascii	"__set_BASEPRI\000"
 4260      745F4241 
 4260      53455052 
 4260      4900
 4261              	.LASF197:
 4262 0938 62657374 		.ascii	"best\000"
 4262      00
 4263              	.LASF25:
 4264 093d 5F6D6273 		.ascii	"_mbstate_t\000"
 4264      74617465 
 4264      5F7400
 4265              	.LASF108:
 4266 0948 5F723438 		.ascii	"_r48\000"
ARM GAS  C:\cygwin64\tmp\ccYfXsMJ.s 			page 83


 4266      00
 4267              	.LASF151:
 4268 094d 77616261 		.ascii	"wabase\000"
 4268      736500
 4269              	.LASF19:
 4270 0954 77696E74 		.ascii	"wint_t\000"
 4270      5F7400
 4271              	.LASF29:
 4272 095b 5F6E6578 		.ascii	"_next\000"
 4272      7400
 4273              	.LASF68:
 4274 0961 5F646174 		.ascii	"_data\000"
 4274      6100
 4275              	.LASF185:
 4276 0967 726C6973 		.ascii	"rlist\000"
 4276      7400
 4277              	.LASF135:
 4278 096d 746D6F64 		.ascii	"tmode_t\000"
 4278      655F7400 
 4279              	.LASF196:
 4280 0975 746D5F63 		.ascii	"tm_calibration_t\000"
 4280      616C6962 
 4280      72617469 
 4280      6F6E5F74 
 4280      00
 4281              	.LASF150:
 4282 0986 6E616D65 		.ascii	"name\000"
 4282      00
 4283              	.LASF250:
 4284 098b 706F7274 		.ascii	"port_lock\000"
 4284      5F6C6F63 
 4284      6B00
 4285              	.LASF109:
 4286 0995 5F6D626C 		.ascii	"_mblen_state\000"
 4286      656E5F73 
 4286      74617465 
 4286      00
 4287              	.LASF7:
 4288 09a2 73686F72 		.ascii	"short int\000"
 4288      7420696E 
 4288      7400
 4289              	.LASF132:
 4290 09ac 75696E74 		.ascii	"uint64_t\000"
 4290      36345F74 
 4290      00
 4291              	.LASF176:
 4292 09b5 66756E63 		.ascii	"func\000"
 4292      00
 4293              	.LASF243:
 4294 09ba 63685265 		.ascii	"chRegFindThreadByName\000"
 4294      6746696E 
 4294      64546872 
 4294      65616442 
 4294      794E616D 
 4295              	.LASF216:
 4296 09d0 63685F6D 		.ascii	"ch_mutex\000"
 4296      75746578 
ARM GAS  C:\cygwin64\tmp\ccYfXsMJ.s 			page 84


 4296      00
 4297              	.LASF156:
 4298 09d9 6D736771 		.ascii	"msgqueue\000"
 4298      75657565 
 4298      00
 4299              	.LASF47:
 4300 09e2 5F666E74 		.ascii	"_fntypes\000"
 4300      79706573 
 4300      00
 4301              	.LASF181:
 4302 09eb 63685F73 		.ascii	"ch_system_debug\000"
 4302      79737465 
 4302      6D5F6465 
 4302      62756700 
 4303              	.LASF40:
 4304 09fb 5F5F746D 		.ascii	"__tm_year\000"
 4304      5F796561 
 4304      7200
 4305              	.LASF58:
 4306 0a05 5F6C6266 		.ascii	"_lbfsize\000"
 4306      73697A65 
 4306      00
 4307              	.LASF186:
 4308 0a0e 76746C69 		.ascii	"vtlist\000"
 4308      737400
 4309              	.LASF77:
 4310 0a15 5F696E63 		.ascii	"_inc\000"
 4310      00
 4311              	.LASF50:
 4312 0a1a 5F696E64 		.ascii	"_ind\000"
 4312      00
 4313              	.LASF155:
 4314 0a1f 77616974 		.ascii	"waiting\000"
 4314      696E6700 
 4315              	.LASF52:
 4316 0a27 5F5F7362 		.ascii	"__sbuf\000"
 4316      756600
 4317              	.LASF48:
 4318 0a2e 5F69735F 		.ascii	"_is_cxa\000"
 4318      63786100 
 4319              	.LASF16:
 4320 0a36 5F4C4F43 		.ascii	"_LOCK_T\000"
 4320      4B5F5400 
 4321              	.LASF239:
 4322 0a3e 6D757465 		.ascii	"mutex_t\000"
 4322      785F7400 
 4323              	.LASF137:
 4324 0a46 74726566 		.ascii	"trefs_t\000"
 4324      735F7400 
 4325              	.LASF121:
 4326 0a4e 5F6E6578 		.ascii	"_nextf\000"
 4326      746600
 4327              	.LASF193:
 4328 0a55 706F7274 		.ascii	"port_context\000"
 4328      5F636F6E 
 4328      74657874 
 4328      00
ARM GAS  C:\cygwin64\tmp\ccYfXsMJ.s 			page 85


 4329              	.LASF163:
 4330 0a62 74687265 		.ascii	"threads_list_t\000"
 4330      6164735F 
 4330      6C697374 
 4330      5F7400
 4331              	.LASF184:
 4332 0a71 63685F73 		.ascii	"ch_system\000"
 4332      79737465 
 4332      6D00
 4333              	.LASF80:
 4334 0a7b 5F6C6F63 		.ascii	"_locale\000"
 4334      616C6500 
 4335              	.LASF28:
 4336 0a83 5F5F554C 		.ascii	"__ULong\000"
 4336      6F6E6700 
 4337              	.LASF148:
 4338 0a8b 6E657765 		.ascii	"newer\000"
 4338      7200
 4339              	.LASF131:
 4340 0a91 75696E74 		.ascii	"uint32_t\000"
 4340      33325F74 
 4340      00
 4341              	.LASF83:
 4342 0a9a 5F726573 		.ascii	"_result\000"
 4342      756C7400 
 4343              	.LASF234:
 4344 0aa2 6F66665F 		.ascii	"off_refs\000"
 4344      72656673 
 4344      00
 4345              	.LASF17:
 4346 0aab 5F6F6666 		.ascii	"_off_t\000"
 4346      5F7400
 4347              	.LASF207:
 4348 0ab2 7264796D 		.ascii	"rdymsg\000"
 4348      736700
 4349              	.LASF101:
 4350 0ab9 5F616464 		.ascii	"_add\000"
 4350      00
 4351              	.LASF9:
 4352 0abe 73686F72 		.ascii	"short unsigned int\000"
 4352      7420756E 
 4352      7369676E 
 4352      65642069 
 4352      6E7400
 4353              	.LASF37:
 4354 0ad1 5F5F746D 		.ascii	"__tm_hour\000"
 4354      5F686F75 
 4354      7200
 4355              	.LASF183:
 4356 0adb 63685F73 		.ascii	"ch_system_t\000"
 4356      79737465 
 4356      6D5F7400 
 4357              	.LASF237:
 4358 0ae7 63686465 		.ascii	"chdebug_t\000"
 4358      6275675F 
 4358      7400
 4359              	.LASF247:
ARM GAS  C:\cygwin64\tmp\ccYfXsMJ.s 			page 86


 4360 0af1 63685468 		.ascii	"chThdGetWorkingAreaX\000"
 4360      64476574 
 4360      576F726B 
 4360      696E6741 
 4360      72656158 
 4361              	.LASF117:
 4362 0b06 5F6D6273 		.ascii	"_mbsrtowcs_state\000"
 4362      72746F77 
 4362      63735F73 
 4362      74617465 
 4362      00
 4363              	.LASF168:
 4364 0b17 70726576 		.ascii	"prev\000"
 4364      00
 4365              	.LASF224:
 4366 0b1c 74696D65 		.ascii	"timesize\000"
 4366      73697A65 
 4366      00
 4367              	.LASF10:
 4368 0b25 5F5F696E 		.ascii	"__int32_t\000"
 4368      7433325F 
 4368      7400
 4369              	.LASF241:
 4370 0b2f 63685265 		.ascii	"chRegFindThreadByWorkingArea\000"
 4370      6746696E 
 4370      64546872 
 4370      65616442 
 4370      79576F72 
 4371              	.LASF233:
 4372 0b4c 6F66665F 		.ascii	"off_flags\000"
 4372      666C6167 
 4372      7300
 4373              	.LASF45:
 4374 0b56 5F666E61 		.ascii	"_fnargs\000"
 4374      72677300 
 4375              	.LASF43:
 4376 0b5e 5F5F746D 		.ascii	"__tm_isdst\000"
 4376      5F697364 
 4376      737400
 4377              	.LASF165:
 4378 0b69 6E657874 		.ascii	"next\000"
 4378      00
 4379              	.LASF36:
 4380 0b6e 5F5F746D 		.ascii	"__tm_min\000"
 4380      5F6D696E 
 4380      00
 4381              	.LASF219:
 4382 0b77 6964656E 		.ascii	"identifier\000"
 4382      74696669 
 4382      657200
 4383              	.LASF114:
 4384 0b82 5F676574 		.ascii	"_getdate_err\000"
 4384      64617465 
 4384      5F657272 
 4384      00
 4385              	.LASF212:
 4386 0b8f 77747365 		.ascii	"wtsemp\000"
ARM GAS  C:\cygwin64\tmp\ccYfXsMJ.s 			page 87


 4386      6D7000
 4387              	.LASF199:
 4388 0b96 6C617374 		.ascii	"last\000"
 4388      00
 4389              		.ident	"GCC: (GNU Tools for ARM Embedded Processors 6-2017-q2-update) 6.3.1 20170620 (release) [AR
ARM GAS  C:\cygwin64\tmp\ccYfXsMJ.s 			page 88


DEFINED SYMBOLS
                            *ABS*:00000000 chregistry.c
C:\cygwin64\tmp\ccYfXsMJ.s:18     .text.chRegFirstThread:00000000 $t
C:\cygwin64\tmp\ccYfXsMJ.s:25     .text.chRegFirstThread:00000000 chRegFirstThread
C:\cygwin64\tmp\ccYfXsMJ.s:98     .text.chRegFirstThread:00000028 $d
C:\cygwin64\tmp\ccYfXsMJ.s:103    .text.chRegNextThread:00000000 $t
C:\cygwin64\tmp\ccYfXsMJ.s:110    .text.chRegNextThread:00000000 chRegNextThread
C:\cygwin64\tmp\ccYfXsMJ.s:194    .text.chRegNextThread:00000038 $d
C:\cygwin64\tmp\ccYfXsMJ.s:199    .text.chRegFindThreadByName:00000000 $t
C:\cygwin64\tmp\ccYfXsMJ.s:206    .text.chRegFindThreadByName:00000000 chRegFindThreadByName
C:\cygwin64\tmp\ccYfXsMJ.s:252    .text.chRegFindThreadByPointer:00000000 $t
C:\cygwin64\tmp\ccYfXsMJ.s:259    .text.chRegFindThreadByPointer:00000000 chRegFindThreadByPointer
C:\cygwin64\tmp\ccYfXsMJ.s:292    .text.chRegFindThreadByWorkingArea:00000000 $t
C:\cygwin64\tmp\ccYfXsMJ.s:299    .text.chRegFindThreadByWorkingArea:00000000 chRegFindThreadByWorkingArea
C:\cygwin64\tmp\ccYfXsMJ.s:337    .rodata.ch_debug:00000000 ch_debug
C:\cygwin64\tmp\ccYfXsMJ.s:334    .rodata.ch_debug:00000000 $d
                     .debug_frame:00000010 $d

UNDEFINED SYMBOLS
_stats_start_measure_crit_thd
_stats_stop_measure_crit_thd
ch
chThdRelease
strcmp
