ARM GAS  C:\cygwin64\tmp\ccZhbzBc.s 			page 1


   1              		.cpu cortex-m4
   2              		.eabi_attribute 27, 1
   3              		.eabi_attribute 28, 1
   4              		.eabi_attribute 20, 1
   5              		.eabi_attribute 21, 1
   6              		.eabi_attribute 23, 3
   7              		.eabi_attribute 24, 1
   8              		.eabi_attribute 25, 1
   9              		.eabi_attribute 26, 1
  10              		.eabi_attribute 30, 4
  11              		.eabi_attribute 34, 1
  12              		.eabi_attribute 18, 4
  13              		.file	"chsem.c"
  14              		.text
  15              	.Ltext0:
  16              		.cfi_sections	.debug_frame
  17              		.section	.text.chSemObjectInit,"ax",%progbits
  18              		.align	1
  19              		.global	chSemObjectInit
  20              		.syntax unified
  21              		.thumb
  22              		.thumb_func
  23              		.fpu fpv4-sp-d16
  24              		.type	chSemObjectInit, %function
  25              	chSemObjectInit:
  26              	.LFB246:
  27              		.file 1 "../../modules/ChibiOS/os/rt/src/chsem.c"
  28              		.loc 1 97 0
  29              		.cfi_startproc
  30              		@ args = 0, pretend = 0, frame = 0
  31              		@ frame_needed = 0, uses_anonymous_args = 0
  32              		@ link register save eliminated.
  33              	.LVL0:
  34              	.LBB38:
  35              	.LBB39:
  36              		.file 2 "../../modules/ChibiOS/os/rt/include/chschd.h"
  37              		.loc 2 550 0
  38 0000 0060     		str	r0, [r0]
  39              		.loc 2 551 0
  40 0002 4060     		str	r0, [r0, #4]
  41              	.LVL1:
  42              	.LBE39:
  43              	.LBE38:
  44              		.loc 1 102 0
  45 0004 8160     		str	r1, [r0, #8]
  46 0006 7047     		bx	lr
  47              		.cfi_endproc
  48              	.LFE246:
  49              		.size	chSemObjectInit, .-chSemObjectInit
  50              		.section	.text.chSemResetI,"ax",%progbits
  51              		.align	1
  52              		.global	chSemResetI
  53              		.syntax unified
  54              		.thumb
  55              		.thumb_func
  56              		.fpu fpv4-sp-d16
  57              		.type	chSemResetI, %function
ARM GAS  C:\cygwin64\tmp\ccZhbzBc.s 			page 2


  58              	chSemResetI:
  59              	.LFB248:
  60              		.loc 1 147 0
  61              		.cfi_startproc
  62              		@ args = 0, pretend = 0, frame = 0
  63              		@ frame_needed = 0, uses_anonymous_args = 0
  64              	.LVL2:
  65 0000 70B5     		push	{r4, r5, r6, lr}
  66              		.cfi_def_cfa_offset 16
  67              		.cfi_offset 4, -16
  68              		.cfi_offset 5, -12
  69              		.cfi_offset 6, -8
  70              		.cfi_offset 14, -4
  71              		.loc 1 156 0
  72 0002 8568     		ldr	r5, [r0, #8]
  73              	.LVL3:
  74              		.loc 1 157 0
  75 0004 8160     		str	r1, [r0, #8]
  76              		.loc 1 147 0
  77 0006 0446     		mov	r4, r0
  78              		.loc 1 159 0
  79 0008 6FF00106 		mvn	r6, #1
  80              	.LVL4:
  81              	.L3:
  82              		.loc 1 158 0
  83 000c 0135     		adds	r5, r5, #1
  84              	.LVL5:
  85 000e 002D     		cmp	r5, #0
  86 0010 00DD     		ble	.L4
  87              		.loc 1 161 0
  88 0012 70BD     		pop	{r4, r5, r6, pc}
  89              	.LVL6:
  90              	.L4:
  91              	.LBB40:
  92              	.LBB41:
  93              		.loc 2 627 0
  94 0014 6068     		ldr	r0, [r4, #4]
  95              	.LVL7:
  96              		.loc 2 629 0
  97 0016 4368     		ldr	r3, [r0, #4]
  98 0018 6360     		str	r3, [r4, #4]
  99              		.loc 2 630 0
 100 001a 1C60     		str	r4, [r3]
 101              	.LVL8:
 102              	.LBE41:
 103              	.LBE40:
 104              		.loc 1 159 0
 105 001c FFF7FEFF 		bl	chSchReadyI
 106              	.LVL9:
 107 0020 4662     		str	r6, [r0, #36]
 108 0022 F3E7     		b	.L3
 109              		.cfi_endproc
 110              	.LFE248:
 111              		.size	chSemResetI, .-chSemResetI
 112              		.section	.text.chSemReset,"ax",%progbits
 113              		.align	1
 114              		.global	chSemReset
ARM GAS  C:\cygwin64\tmp\ccZhbzBc.s 			page 3


 115              		.syntax unified
 116              		.thumb
 117              		.thumb_func
 118              		.fpu fpv4-sp-d16
 119              		.type	chSemReset, %function
 120              	chSemReset:
 121              	.LFB247:
 122              		.loc 1 120 0
 123              		.cfi_startproc
 124              		@ args = 0, pretend = 0, frame = 0
 125              		@ frame_needed = 0, uses_anonymous_args = 0
 126              	.LVL10:
 127 0000 38B5     		push	{r3, r4, r5, lr}
 128              		.cfi_def_cfa_offset 16
 129              		.cfi_offset 3, -16
 130              		.cfi_offset 4, -12
 131              		.cfi_offset 5, -8
 132              		.cfi_offset 14, -4
 133              		.loc 1 120 0
 134 0002 0446     		mov	r4, r0
 135 0004 0D46     		mov	r5, r1
 136              	.LBB52:
 137              	.LBB53:
 138              	.LBB54:
 139              	.LBB55:
 140              	.LBB56:
 141              		.file 3 "../../modules/ChibiOS/os/common/ext/CMSIS/include/cmsis_gcc.h"
 142              		.loc 3 264 0
 143 0006 2023     		movs	r3, #32
 144              		.syntax unified
 145              	@ 264 "../../modules/ChibiOS/os/common/ext/CMSIS/include/cmsis_gcc.h" 1
 146 0008 83F31188 		MSR basepri, r3
 147              	@ 0 "" 2
 148              	.LVL11:
 149              		.thumb
 150              		.syntax unified
 151              	.LBE56:
 152              	.LBE55:
 153              	.LBE54:
 154              		.file 4 "../../modules/ChibiOS/os/rt/include/chsys.h"
 155              		.loc 4 377 0
 156 000c FFF7FEFF 		bl	_stats_start_measure_crit_thd
 157              	.LVL12:
 158              	.LBE53:
 159              	.LBE52:
 160              		.loc 1 123 0
 161 0010 2946     		mov	r1, r5
 162 0012 2046     		mov	r0, r4
 163 0014 FFF7FEFF 		bl	chSemResetI
 164              	.LVL13:
 165              		.loc 1 124 0
 166 0018 FFF7FEFF 		bl	chSchRescheduleS
 167              	.LVL14:
 168              	.LBB57:
 169              	.LBB58:
 170              		.loc 4 389 0
 171 001c FFF7FEFF 		bl	_stats_stop_measure_crit_thd
ARM GAS  C:\cygwin64\tmp\ccZhbzBc.s 			page 4


 172              	.LVL15:
 173              	.LBB59:
 174              	.LBB60:
 175              	.LBB61:
 176              		.loc 3 264 0
 177 0020 0023     		movs	r3, #0
 178              		.syntax unified
 179              	@ 264 "../../modules/ChibiOS/os/common/ext/CMSIS/include/cmsis_gcc.h" 1
 180 0022 83F31188 		MSR basepri, r3
 181              	@ 0 "" 2
 182              	.LVL16:
 183              		.thumb
 184              		.syntax unified
 185 0026 38BD     		pop	{r3, r4, r5, pc}
 186              	.LBE61:
 187              	.LBE60:
 188              	.LBE59:
 189              	.LBE58:
 190              	.LBE57:
 191              		.cfi_endproc
 192              	.LFE247:
 193              		.size	chSemReset, .-chSemReset
 194              		.section	.text.chSemWaitS,"ax",%progbits
 195              		.align	1
 196              		.global	chSemWaitS
 197              		.syntax unified
 198              		.thumb
 199              		.thumb_func
 200              		.fpu fpv4-sp-d16
 201              		.type	chSemWaitS, %function
 202              	chSemWaitS:
 203              	.LFB250:
 204              		.loc 1 197 0
 205              		.cfi_startproc
 206              		@ args = 0, pretend = 0, frame = 0
 207              		@ frame_needed = 0, uses_anonymous_args = 0
 208              	.LVL17:
 209              		.loc 1 205 0
 210 0000 8368     		ldr	r3, [r0, #8]
 211 0002 013B     		subs	r3, r3, #1
 212 0004 002B     		cmp	r3, #0
 213              		.loc 1 197 0
 214 0006 10B5     		push	{r4, lr}
 215              		.cfi_def_cfa_offset 8
 216              		.cfi_offset 4, -8
 217              		.cfi_offset 14, -4
 218              		.loc 1 205 0
 219 0008 8360     		str	r3, [r0, #8]
 220 000a 0DDA     		bge	.L8
 221              	.LVL18:
 222              	.LBB66:
 223              	.LBB67:
 224              		.loc 1 206 0
 225 000c 074C     		ldr	r4, .L9
 226 000e A369     		ldr	r3, [r4, #24]
 227 0010 5862     		str	r0, [r3, #36]
 228              	.LVL19:
ARM GAS  C:\cygwin64\tmp\ccZhbzBc.s 			page 5


 229              	.LBB68:
 230              	.LBB69:
 231              		.loc 2 612 0
 232 0012 4268     		ldr	r2, [r0, #4]
 233              		.loc 2 611 0
 234 0014 1860     		str	r0, [r3]
 235              		.loc 2 612 0
 236 0016 5A60     		str	r2, [r3, #4]
 237              		.loc 2 613 0
 238 0018 1360     		str	r3, [r2]
 239              		.loc 2 614 0
 240 001a 4360     		str	r3, [r0, #4]
 241              	.LVL20:
 242              	.LBE69:
 243              	.LBE68:
 244              		.loc 1 208 0
 245 001c 0520     		movs	r0, #5
 246              	.LVL21:
 247 001e FFF7FEFF 		bl	chSchGoSleepS
 248              	.LVL22:
 249              		.loc 1 210 0
 250 0022 A369     		ldr	r3, [r4, #24]
 251 0024 586A     		ldr	r0, [r3, #36]
 252              	.LVL23:
 253 0026 10BD     		pop	{r4, pc}
 254              	.LVL24:
 255              	.L8:
 256              	.LBE67:
 257              	.LBE66:
 258              		.loc 1 213 0
 259 0028 0020     		movs	r0, #0
 260              	.LVL25:
 261              		.loc 1 214 0
 262 002a 10BD     		pop	{r4, pc}
 263              	.L10:
 264              		.align	2
 265              	.L9:
 266 002c 00000000 		.word	ch
 267              		.cfi_endproc
 268              	.LFE250:
 269              		.size	chSemWaitS, .-chSemWaitS
 270              		.section	.text.chSemWait,"ax",%progbits
 271              		.align	1
 272              		.global	chSemWait
 273              		.syntax unified
 274              		.thumb
 275              		.thumb_func
 276              		.fpu fpv4-sp-d16
 277              		.type	chSemWait, %function
 278              	chSemWait:
 279              	.LFB249:
 280              		.loc 1 175 0
 281              		.cfi_startproc
 282              		@ args = 0, pretend = 0, frame = 0
 283              		@ frame_needed = 0, uses_anonymous_args = 0
 284              	.LVL26:
 285 0000 10B5     		push	{r4, lr}
ARM GAS  C:\cygwin64\tmp\ccZhbzBc.s 			page 6


 286              		.cfi_def_cfa_offset 8
 287              		.cfi_offset 4, -8
 288              		.cfi_offset 14, -4
 289              	.LBB80:
 290              	.LBB81:
 291              	.LBB82:
 292              	.LBB83:
 293              	.LBB84:
 294              		.loc 3 264 0
 295 0002 2023     		movs	r3, #32
 296              	.LBE84:
 297              	.LBE83:
 298              	.LBE82:
 299              	.LBE81:
 300              	.LBE80:
 301              		.loc 1 175 0
 302 0004 0446     		mov	r4, r0
 303              	.LBB89:
 304              	.LBB88:
 305              	.LBB87:
 306              	.LBB86:
 307              	.LBB85:
 308              		.loc 3 264 0
 309              		.syntax unified
 310              	@ 264 "../../modules/ChibiOS/os/common/ext/CMSIS/include/cmsis_gcc.h" 1
 311 0006 83F31188 		MSR basepri, r3
 312              	@ 0 "" 2
 313              	.LVL27:
 314              		.thumb
 315              		.syntax unified
 316              	.LBE85:
 317              	.LBE86:
 318              	.LBE87:
 319              		.loc 4 377 0
 320 000a FFF7FEFF 		bl	_stats_start_measure_crit_thd
 321              	.LVL28:
 322              	.LBE88:
 323              	.LBE89:
 324              		.loc 1 179 0
 325 000e 2046     		mov	r0, r4
 326 0010 FFF7FEFF 		bl	chSemWaitS
 327              	.LVL29:
 328 0014 0446     		mov	r4, r0
 329              	.LVL30:
 330              	.LBB90:
 331              	.LBB91:
 332              		.loc 4 389 0
 333 0016 FFF7FEFF 		bl	_stats_stop_measure_crit_thd
 334              	.LVL31:
 335              	.LBB92:
 336              	.LBB93:
 337              	.LBB94:
 338              		.loc 3 264 0
 339 001a 0023     		movs	r3, #0
 340              		.syntax unified
 341              	@ 264 "../../modules/ChibiOS/os/common/ext/CMSIS/include/cmsis_gcc.h" 1
 342 001c 83F31188 		MSR basepri, r3
ARM GAS  C:\cygwin64\tmp\ccZhbzBc.s 			page 7


 343              	@ 0 "" 2
 344              	.LVL32:
 345              		.thumb
 346              		.syntax unified
 347              	.LBE94:
 348              	.LBE93:
 349              	.LBE92:
 350              	.LBE91:
 351              	.LBE90:
 352              		.loc 1 183 0
 353 0020 2046     		mov	r0, r4
 354 0022 10BD     		pop	{r4, pc}
 355              		.cfi_endproc
 356              	.LFE249:
 357              		.size	chSemWait, .-chSemWait
 358              		.section	.text.chSemWaitTimeoutS,"ax",%progbits
 359              		.align	1
 360              		.global	chSemWaitTimeoutS
 361              		.syntax unified
 362              		.thumb
 363              		.thumb_func
 364              		.fpu fpv4-sp-d16
 365              		.type	chSemWaitTimeoutS, %function
 366              	chSemWaitTimeoutS:
 367              	.LFB252:
 368              		.loc 1 264 0
 369              		.cfi_startproc
 370              		@ args = 0, pretend = 0, frame = 0
 371              		@ frame_needed = 0, uses_anonymous_args = 0
 372              		@ link register save eliminated.
 373              	.LVL33:
 374              		.loc 1 272 0
 375 0000 8368     		ldr	r3, [r0, #8]
 376 0002 5A1E     		subs	r2, r3, #1
 377 0004 002A     		cmp	r2, #0
 378              		.loc 1 264 0
 379 0006 10B4     		push	{r4}
 380              		.cfi_def_cfa_offset 4
 381              		.cfi_offset 4, -4
 382              		.loc 1 272 0
 383 0008 8260     		str	r2, [r0, #8]
 384 000a 13DA     		bge	.L15
 385              		.loc 1 273 0
 386 000c 29B9     		cbnz	r1, .L14
 387              		.loc 1 274 0
 388 000e 8360     		str	r3, [r0, #8]
 389              		.loc 1 276 0
 390 0010 4FF0FF30 		mov	r0, #-1
 391              	.LVL34:
 392              	.L12:
 393              		.loc 1 285 0
 394 0014 5DF8044B 		ldr	r4, [sp], #4
 395              		.cfi_remember_state
 396              		.cfi_restore 4
 397              		.cfi_def_cfa_offset 0
 398 0018 7047     		bx	lr
 399              	.LVL35:
ARM GAS  C:\cygwin64\tmp\ccZhbzBc.s 			page 8


 400              	.L14:
 401              		.cfi_restore_state
 402              	.LBB99:
 403              	.LBB100:
 404              		.loc 1 278 0
 405 001a 074B     		ldr	r3, .L16
 406 001c 9B69     		ldr	r3, [r3, #24]
 407 001e 5862     		str	r0, [r3, #36]
 408              	.LVL36:
 409              	.LBB101:
 410              	.LBB102:
 411              		.loc 2 612 0
 412 0020 4268     		ldr	r2, [r0, #4]
 413              		.loc 2 611 0
 414 0022 1860     		str	r0, [r3]
 415              		.loc 2 612 0
 416 0024 5A60     		str	r2, [r3, #4]
 417              	.LBE102:
 418              	.LBE101:
 419              	.LBE100:
 420              	.LBE99:
 421              		.loc 1 285 0
 422 0026 5DF8044B 		ldr	r4, [sp], #4
 423              		.cfi_remember_state
 424              		.cfi_restore 4
 425              		.cfi_def_cfa_offset 0
 426              	.LBB106:
 427              	.LBB105:
 428              	.LBB104:
 429              	.LBB103:
 430              		.loc 2 613 0
 431 002a 1360     		str	r3, [r2]
 432              		.loc 2 614 0
 433 002c 4360     		str	r3, [r0, #4]
 434              	.LVL37:
 435              	.LBE103:
 436              	.LBE104:
 437              		.loc 1 281 0
 438 002e 0520     		movs	r0, #5
 439              	.LVL38:
 440 0030 FFF7FEBF 		b	chSchGoSleepTimeoutS
 441              	.LVL39:
 442              	.L15:
 443              		.cfi_restore_state
 444              	.LBE105:
 445              	.LBE106:
 446              		.loc 1 284 0
 447 0034 0020     		movs	r0, #0
 448              	.LVL40:
 449 0036 EDE7     		b	.L12
 450              	.L17:
 451              		.align	2
 452              	.L16:
 453 0038 00000000 		.word	ch
 454              		.cfi_endproc
 455              	.LFE252:
 456              		.size	chSemWaitTimeoutS, .-chSemWaitTimeoutS
ARM GAS  C:\cygwin64\tmp\ccZhbzBc.s 			page 9


 457              		.section	.text.chSemWaitTimeout,"ax",%progbits
 458              		.align	1
 459              		.global	chSemWaitTimeout
 460              		.syntax unified
 461              		.thumb
 462              		.thumb_func
 463              		.fpu fpv4-sp-d16
 464              		.type	chSemWaitTimeout, %function
 465              	chSemWaitTimeout:
 466              	.LFB251:
 467              		.loc 1 235 0
 468              		.cfi_startproc
 469              		@ args = 0, pretend = 0, frame = 0
 470              		@ frame_needed = 0, uses_anonymous_args = 0
 471              	.LVL41:
 472 0000 38B5     		push	{r3, r4, r5, lr}
 473              		.cfi_def_cfa_offset 16
 474              		.cfi_offset 3, -16
 475              		.cfi_offset 4, -12
 476              		.cfi_offset 5, -8
 477              		.cfi_offset 14, -4
 478              		.loc 1 235 0
 479 0002 0446     		mov	r4, r0
 480 0004 0D46     		mov	r5, r1
 481              	.LBB117:
 482              	.LBB118:
 483              	.LBB119:
 484              	.LBB120:
 485              	.LBB121:
 486              		.loc 3 264 0
 487 0006 2023     		movs	r3, #32
 488              		.syntax unified
 489              	@ 264 "../../modules/ChibiOS/os/common/ext/CMSIS/include/cmsis_gcc.h" 1
 490 0008 83F31188 		MSR basepri, r3
 491              	@ 0 "" 2
 492              	.LVL42:
 493              		.thumb
 494              		.syntax unified
 495              	.LBE121:
 496              	.LBE120:
 497              	.LBE119:
 498              		.loc 4 377 0
 499 000c FFF7FEFF 		bl	_stats_start_measure_crit_thd
 500              	.LVL43:
 501              	.LBE118:
 502              	.LBE117:
 503              		.loc 1 239 0
 504 0010 2946     		mov	r1, r5
 505 0012 2046     		mov	r0, r4
 506 0014 FFF7FEFF 		bl	chSemWaitTimeoutS
 507              	.LVL44:
 508 0018 0446     		mov	r4, r0
 509              	.LVL45:
 510              	.LBB122:
 511              	.LBB123:
 512              		.loc 4 389 0
 513 001a FFF7FEFF 		bl	_stats_stop_measure_crit_thd
ARM GAS  C:\cygwin64\tmp\ccZhbzBc.s 			page 10


 514              	.LVL46:
 515              	.LBB124:
 516              	.LBB125:
 517              	.LBB126:
 518              		.loc 3 264 0
 519 001e 0023     		movs	r3, #0
 520              		.syntax unified
 521              	@ 264 "../../modules/ChibiOS/os/common/ext/CMSIS/include/cmsis_gcc.h" 1
 522 0020 83F31188 		MSR basepri, r3
 523              	@ 0 "" 2
 524              	.LVL47:
 525              		.thumb
 526              		.syntax unified
 527              	.LBE126:
 528              	.LBE125:
 529              	.LBE124:
 530              	.LBE123:
 531              	.LBE122:
 532              		.loc 1 243 0
 533 0024 2046     		mov	r0, r4
 534 0026 38BD     		pop	{r3, r4, r5, pc}
 535              		.cfi_endproc
 536              	.LFE251:
 537              		.size	chSemWaitTimeout, .-chSemWaitTimeout
 538              		.section	.text.chSemSignal,"ax",%progbits
 539              		.align	1
 540              		.global	chSemSignal
 541              		.syntax unified
 542              		.thumb
 543              		.thumb_func
 544              		.fpu fpv4-sp-d16
 545              		.type	chSemSignal, %function
 546              	chSemSignal:
 547              	.LFB253:
 548              		.loc 1 294 0
 549              		.cfi_startproc
 550              		@ args = 0, pretend = 0, frame = 0
 551              		@ frame_needed = 0, uses_anonymous_args = 0
 552              	.LVL48:
 553 0000 10B5     		push	{r4, lr}
 554              		.cfi_def_cfa_offset 8
 555              		.cfi_offset 4, -8
 556              		.cfi_offset 14, -4
 557              	.LBB139:
 558              	.LBB140:
 559              	.LBB141:
 560              	.LBB142:
 561              	.LBB143:
 562              		.loc 3 264 0
 563 0002 2023     		movs	r3, #32
 564              	.LBE143:
 565              	.LBE142:
 566              	.LBE141:
 567              	.LBE140:
 568              	.LBE139:
 569              		.loc 1 294 0
 570 0004 0446     		mov	r4, r0
ARM GAS  C:\cygwin64\tmp\ccZhbzBc.s 			page 11


 571              	.LBB148:
 572              	.LBB147:
 573              	.LBB146:
 574              	.LBB145:
 575              	.LBB144:
 576              		.loc 3 264 0
 577              		.syntax unified
 578              	@ 264 "../../modules/ChibiOS/os/common/ext/CMSIS/include/cmsis_gcc.h" 1
 579 0006 83F31188 		MSR basepri, r3
 580              	@ 0 "" 2
 581              	.LVL49:
 582              		.thumb
 583              		.syntax unified
 584              	.LBE144:
 585              	.LBE145:
 586              	.LBE146:
 587              		.loc 4 377 0
 588 000a FFF7FEFF 		bl	_stats_start_measure_crit_thd
 589              	.LVL50:
 590              	.LBE147:
 591              	.LBE148:
 592              		.loc 1 302 0
 593 000e A368     		ldr	r3, [r4, #8]
 594 0010 0133     		adds	r3, r3, #1
 595 0012 002B     		cmp	r3, #0
 596 0014 A360     		str	r3, [r4, #8]
 597 0016 06DC     		bgt	.L20
 598              	.LVL51:
 599              	.LBB149:
 600              	.LBB150:
 601              		.loc 2 618 0
 602 0018 2068     		ldr	r0, [r4]
 603              	.LVL52:
 604              		.loc 2 620 0
 605 001a 0368     		ldr	r3, [r0]
 606 001c 2360     		str	r3, [r4]
 607              	.LBE150:
 608              	.LBE149:
 609              		.loc 1 303 0
 610 001e 0021     		movs	r1, #0
 611              	.LBB152:
 612              	.LBB151:
 613              		.loc 2 621 0
 614 0020 5C60     		str	r4, [r3, #4]
 615              	.LVL53:
 616              	.LBE151:
 617              	.LBE152:
 618              		.loc 1 303 0
 619 0022 FFF7FEFF 		bl	chSchWakeupS
 620              	.LVL54:
 621              	.L20:
 622              	.LBB153:
 623              	.LBB154:
 624              		.loc 4 389 0
 625 0026 FFF7FEFF 		bl	_stats_stop_measure_crit_thd
 626              	.LVL55:
 627              	.LBB155:
ARM GAS  C:\cygwin64\tmp\ccZhbzBc.s 			page 12


 628              	.LBB156:
 629              	.LBB157:
 630              		.loc 3 264 0
 631 002a 0023     		movs	r3, #0
 632              		.syntax unified
 633              	@ 264 "../../modules/ChibiOS/os/common/ext/CMSIS/include/cmsis_gcc.h" 1
 634 002c 83F31188 		MSR basepri, r3
 635              	@ 0 "" 2
 636              	.LVL56:
 637              		.thumb
 638              		.syntax unified
 639 0030 10BD     		pop	{r4, pc}
 640              	.LBE157:
 641              	.LBE156:
 642              	.LBE155:
 643              	.LBE154:
 644              	.LBE153:
 645              		.cfi_endproc
 646              	.LFE253:
 647              		.size	chSemSignal, .-chSemSignal
 648              		.section	.text.chSemSignalI,"ax",%progbits
 649              		.align	1
 650              		.global	chSemSignalI
 651              		.syntax unified
 652              		.thumb
 653              		.thumb_func
 654              		.fpu fpv4-sp-d16
 655              		.type	chSemSignalI, %function
 656              	chSemSignalI:
 657              	.LFB254:
 658              		.loc 1 319 0
 659              		.cfi_startproc
 660              		@ args = 0, pretend = 0, frame = 0
 661              		@ frame_needed = 0, uses_anonymous_args = 0
 662              		@ link register save eliminated.
 663              	.LVL57:
 664              		.loc 1 327 0
 665 0000 8268     		ldr	r2, [r0, #8]
 666 0002 0132     		adds	r2, r2, #1
 667 0004 002A     		cmp	r2, #0
 668              		.loc 1 319 0
 669 0006 0346     		mov	r3, r0
 670              		.loc 1 327 0
 671 0008 8260     		str	r2, [r0, #8]
 672 000a 07DC     		bgt	.L21
 673              	.LVL58:
 674              	.LBB158:
 675              	.LBB159:
 676              	.LBB160:
 677              		.loc 2 618 0
 678 000c 0068     		ldr	r0, [r0]
 679              	.LVL59:
 680              		.loc 2 620 0
 681 000e 0268     		ldr	r2, [r0]
 682 0010 1A60     		str	r2, [r3]
 683              		.loc 2 621 0
 684 0012 5360     		str	r3, [r2, #4]
ARM GAS  C:\cygwin64\tmp\ccZhbzBc.s 			page 13


 685              	.LVL60:
 686              	.LBE160:
 687              	.LBE159:
 688              		.loc 1 331 0
 689 0014 0023     		movs	r3, #0
 690              	.LVL61:
 691 0016 4362     		str	r3, [r0, #36]
 692              	.LVL62:
 693              		.loc 1 332 0
 694 0018 FFF7FEBF 		b	chSchReadyI
 695              	.LVL63:
 696              	.L21:
 697 001c 7047     		bx	lr
 698              	.LBE158:
 699              		.cfi_endproc
 700              	.LFE254:
 701              		.size	chSemSignalI, .-chSemSignalI
 702              		.section	.text.chSemAddCounterI,"ax",%progbits
 703              		.align	1
 704              		.global	chSemAddCounterI
 705              		.syntax unified
 706              		.thumb
 707              		.thumb_func
 708              		.fpu fpv4-sp-d16
 709              		.type	chSemAddCounterI, %function
 710              	chSemAddCounterI:
 711              	.LFB255:
 712              		.loc 1 349 0
 713              		.cfi_startproc
 714              		@ args = 0, pretend = 0, frame = 0
 715              		@ frame_needed = 0, uses_anonymous_args = 0
 716              	.LVL64:
 717 0000 70B5     		push	{r4, r5, r6, lr}
 718              		.cfi_def_cfa_offset 16
 719              		.cfi_offset 4, -16
 720              		.cfi_offset 5, -12
 721              		.cfi_offset 6, -8
 722              		.cfi_offset 14, -4
 723              		.loc 1 349 0
 724 0002 0446     		mov	r4, r0
 725 0004 0D46     		mov	r5, r1
 726              		.loc 1 359 0
 727 0006 0026     		movs	r6, #0
 728              	.LVL65:
 729              	.L24:
 730              		.loc 1 357 0
 731 0008 002D     		cmp	r5, #0
 732 000a 00DC     		bgt	.L26
 733              		.loc 1 363 0
 734 000c 70BD     		pop	{r4, r5, r6, pc}
 735              	.LVL66:
 736              	.L26:
 737              		.loc 1 358 0
 738 000e A368     		ldr	r3, [r4, #8]
 739 0010 0133     		adds	r3, r3, #1
 740 0012 002B     		cmp	r3, #0
 741 0014 A360     		str	r3, [r4, #8]
ARM GAS  C:\cygwin64\tmp\ccZhbzBc.s 			page 14


 742 0016 06DC     		bgt	.L25
 743              	.LVL67:
 744              	.LBB161:
 745              	.LBB162:
 746              		.loc 2 618 0
 747 0018 2068     		ldr	r0, [r4]
 748              	.LVL68:
 749              		.loc 2 620 0
 750 001a 0368     		ldr	r3, [r0]
 751 001c 2360     		str	r3, [r4]
 752              		.loc 2 621 0
 753 001e 5C60     		str	r4, [r3, #4]
 754              	.LVL69:
 755              	.LBE162:
 756              	.LBE161:
 757              		.loc 1 359 0
 758 0020 FFF7FEFF 		bl	chSchReadyI
 759              	.LVL70:
 760 0024 4662     		str	r6, [r0, #36]
 761              	.L25:
 762              		.loc 1 361 0
 763 0026 013D     		subs	r5, r5, #1
 764              	.LVL71:
 765 0028 EEE7     		b	.L24
 766              		.cfi_endproc
 767              	.LFE255:
 768              		.size	chSemAddCounterI, .-chSemAddCounterI
 769              		.section	.text.chSemSignalWait,"ax",%progbits
 770              		.align	1
 771              		.global	chSemSignalWait
 772              		.syntax unified
 773              		.thumb
 774              		.thumb_func
 775              		.fpu fpv4-sp-d16
 776              		.type	chSemSignalWait, %function
 777              	chSemSignalWait:
 778              	.LFB256:
 779              		.loc 1 378 0
 780              		.cfi_startproc
 781              		@ args = 0, pretend = 0, frame = 0
 782              		@ frame_needed = 0, uses_anonymous_args = 0
 783              	.LVL72:
 784 0000 38B5     		push	{r3, r4, r5, lr}
 785              		.cfi_def_cfa_offset 16
 786              		.cfi_offset 3, -16
 787              		.cfi_offset 4, -12
 788              		.cfi_offset 5, -8
 789              		.cfi_offset 14, -4
 790              		.loc 1 378 0
 791 0002 0446     		mov	r4, r0
 792 0004 0D46     		mov	r5, r1
 793              	.LBB178:
 794              	.LBB179:
 795              	.LBB180:
 796              	.LBB181:
 797              	.LBB182:
 798              		.loc 3 264 0
ARM GAS  C:\cygwin64\tmp\ccZhbzBc.s 			page 15


 799 0006 2023     		movs	r3, #32
 800              		.syntax unified
 801              	@ 264 "../../modules/ChibiOS/os/common/ext/CMSIS/include/cmsis_gcc.h" 1
 802 0008 83F31188 		MSR basepri, r3
 803              	@ 0 "" 2
 804              	.LVL73:
 805              		.thumb
 806              		.syntax unified
 807              	.LBE182:
 808              	.LBE181:
 809              	.LBE180:
 810              		.loc 4 377 0
 811 000c FFF7FEFF 		bl	_stats_start_measure_crit_thd
 812              	.LVL74:
 813              	.LBE179:
 814              	.LBE178:
 815              		.loc 1 390 0
 816 0010 A368     		ldr	r3, [r4, #8]
 817 0012 0133     		adds	r3, r3, #1
 818 0014 002B     		cmp	r3, #0
 819 0016 A360     		str	r3, [r4, #8]
 820 0018 07DC     		bgt	.L28
 821              	.LVL75:
 822              	.LBB183:
 823              	.LBB184:
 824              		.loc 2 618 0
 825 001a 2068     		ldr	r0, [r4]
 826              	.LVL76:
 827              		.loc 2 620 0
 828 001c 0368     		ldr	r3, [r0]
 829 001e 2360     		str	r3, [r4]
 830              		.loc 2 621 0
 831 0020 5C60     		str	r4, [r3, #4]
 832              	.LVL77:
 833              	.LBE184:
 834              	.LBE183:
 835              		.loc 1 391 0
 836 0022 FFF7FEFF 		bl	chSchReadyI
 837              	.LVL78:
 838 0026 0023     		movs	r3, #0
 839 0028 4362     		str	r3, [r0, #36]
 840              	.L28:
 841              		.loc 1 393 0
 842 002a AB68     		ldr	r3, [r5, #8]
 843 002c 013B     		subs	r3, r3, #1
 844 002e 002B     		cmp	r3, #0
 845 0030 AB60     		str	r3, [r5, #8]
 846 0032 12DA     		bge	.L29
 847              	.LBB185:
 848              		.loc 1 394 0
 849 0034 0B4B     		ldr	r3, .L31
 850 0036 9C69     		ldr	r4, [r3, #24]
 851              	.LVL79:
 852              	.LBB186:
 853              	.LBB187:
 854              		.loc 2 612 0
 855 0038 6B68     		ldr	r3, [r5, #4]
ARM GAS  C:\cygwin64\tmp\ccZhbzBc.s 			page 16


 856              		.loc 2 611 0
 857 003a 2560     		str	r5, [r4]
 858              		.loc 2 612 0
 859 003c 6360     		str	r3, [r4, #4]
 860              	.LBE187:
 861              	.LBE186:
 862              		.loc 1 397 0
 863 003e 0520     		movs	r0, #5
 864              	.LBB189:
 865              	.LBB188:
 866              		.loc 2 613 0
 867 0040 1C60     		str	r4, [r3]
 868              		.loc 2 614 0
 869 0042 6C60     		str	r4, [r5, #4]
 870              	.LVL80:
 871              	.LBE188:
 872              	.LBE189:
 873              		.loc 1 396 0
 874 0044 6562     		str	r5, [r4, #36]
 875              		.loc 1 397 0
 876 0046 FFF7FEFF 		bl	chSchGoSleepS
 877              	.LVL81:
 878              		.loc 1 398 0
 879 004a 646A     		ldr	r4, [r4, #36]
 880              	.LVL82:
 881              	.L30:
 882              	.LBE185:
 883              	.LBB190:
 884              	.LBB191:
 885              		.loc 4 389 0
 886 004c FFF7FEFF 		bl	_stats_stop_measure_crit_thd
 887              	.LVL83:
 888              	.LBB192:
 889              	.LBB193:
 890              	.LBB194:
 891              		.loc 3 264 0
 892 0050 0023     		movs	r3, #0
 893              		.syntax unified
 894              	@ 264 "../../modules/ChibiOS/os/common/ext/CMSIS/include/cmsis_gcc.h" 1
 895 0052 83F31188 		MSR basepri, r3
 896              	@ 0 "" 2
 897              	.LVL84:
 898              		.thumb
 899              		.syntax unified
 900              	.LBE194:
 901              	.LBE193:
 902              	.LBE192:
 903              	.LBE191:
 904              	.LBE190:
 905              		.loc 1 407 0
 906 0056 2046     		mov	r0, r4
 907 0058 38BD     		pop	{r3, r4, r5, pc}
 908              	.LVL85:
 909              	.L29:
 910              		.loc 1 401 0
 911 005a FFF7FEFF 		bl	chSchRescheduleS
 912              	.LVL86:
ARM GAS  C:\cygwin64\tmp\ccZhbzBc.s 			page 17


 913              		.loc 1 402 0
 914 005e 0024     		movs	r4, #0
 915              	.LVL87:
 916 0060 F4E7     		b	.L30
 917              	.L32:
 918 0062 00BF     		.align	2
 919              	.L31:
 920 0064 00000000 		.word	ch
 921              		.cfi_endproc
 922              	.LFE256:
 923              		.size	chSemSignalWait, .-chSemSignalWait
 924              		.text
 925              	.Letext0:
 926              		.file 5 "c:\\program files (x86)\\gnu tools arm embedded\\6 2017-q2-update\\arm-none-eabi\\include
 927              		.file 6 "c:\\program files (x86)\\gnu tools arm embedded\\6 2017-q2-update\\arm-none-eabi\\include
 928              		.file 7 "../../modules/ChibiOS/os/common/ports/ARMCMx/compilers/GCC/chtypes.h"
 929              		.file 8 "../../modules/ChibiOS/os/rt/include/chsystypes.h"
 930              		.file 9 "../../modules/ChibiOS/os/common/ext/CMSIS/include/core_cm4.h"
 931              		.file 10 "../../modules/ChibiOS/os/common/ext/CMSIS/ST/STM32F4xx/system_stm32f4xx.h"
 932              		.file 11 "../../modules/ChibiOS/os/common/ports/ARMCMx/chcore.h"
 933              		.file 12 "../../modules/ChibiOS/os/common/ports/ARMCMx/chcore_v7m.h"
 934              		.file 13 "../../modules/ChibiOS/os/rt/include/chtm.h"
 935              		.file 14 "../../modules/ChibiOS/os/rt/include/chstats.h"
 936              		.file 15 "../../modules/ChibiOS/os/rt/include/chsem.h"
 937              		.file 16 "../../modules/ChibiOS/os/rt/include/chmtx.h"
 938              		.file 17 "../../modules/ChibiOS/os/rt/include/chregistry.h"