ARM GAS  C:\cygwin64\tmp\ccslDetg.s 			page 1


   1              		.cpu cortex-m4
   2              		.eabi_attribute 27, 1
   3              		.eabi_attribute 28, 1
   4              		.eabi_attribute 20, 1
   5              		.eabi_attribute 21, 1
   6              		.eabi_attribute 23, 3
   7              		.eabi_attribute 24, 1
   8              		.eabi_attribute 25, 1
   9              		.eabi_attribute 26, 1
  10              		.eabi_attribute 30, 4
  11              		.eabi_attribute 34, 1
  12              		.eabi_attribute 18, 4
  13              		.file	"chstats.c"
  14              		.text
  15              	.Ltext0:
  16              		.cfi_sections	.debug_frame
  17              		.section	.text._stats_init,"ax",%progbits
  18              		.align	1
  19              		.global	_stats_init
  20              		.syntax unified
  21              		.thumb
  22              		.thumb_func
  23              		.fpu fpv4-sp-d16
  24              		.type	_stats_init, %function
  25              	_stats_init:
  26              	.LFB246:
  27              		.file 1 "../../modules/ChibiOS/os/rt/src/chstats.c"
  28              		.loc 1 62 0
  29              		.cfi_startproc
  30              		@ args = 0, pretend = 0, frame = 0
  31              		@ frame_needed = 0, uses_anonymous_args = 0
  32 0000 10B5     		push	{r4, lr}
  33              		.cfi_def_cfa_offset 8
  34              		.cfi_offset 4, -8
  35              		.cfi_offset 14, -4
  36              		.loc 1 64 0
  37 0002 084C     		ldr	r4, .L2
  38 0004 0023     		movs	r3, #0
  39              		.loc 1 66 0
  40 0006 04F1A000 		add	r0, r4, #160
  41              		.loc 1 64 0
  42 000a C4F89830 		str	r3, [r4, #152]
  43              		.loc 1 65 0
  44 000e C4F89C30 		str	r3, [r4, #156]
  45              		.loc 1 66 0
  46 0012 FFF7FEFF 		bl	chTMObjectInit
  47              	.LVL0:
  48              		.loc 1 67 0
  49 0016 04F1B800 		add	r0, r4, #184
  50              		.loc 1 68 0
  51 001a BDE81040 		pop	{r4, lr}
  52              		.cfi_restore 14
  53              		.cfi_restore 4
  54              		.cfi_def_cfa_offset 0
  55              		.loc 1 67 0
  56 001e FFF7FEBF 		b	chTMObjectInit
  57              	.LVL1:
ARM GAS  C:\cygwin64\tmp\ccslDetg.s 			page 2


  58              	.L3:
  59 0022 00BF     		.align	2
  60              	.L2:
  61 0024 00000000 		.word	ch
  62              		.cfi_endproc
  63              	.LFE246:
  64              		.size	_stats_init, .-_stats_init
  65              		.section	.text._stats_increase_irq,"ax",%progbits
  66              		.align	1
  67              		.global	_stats_increase_irq
  68              		.syntax unified
  69              		.thumb
  70              		.thumb_func
  71              		.fpu fpv4-sp-d16
  72              		.type	_stats_increase_irq, %function
  73              	_stats_increase_irq:
  74              	.LFB247:
  75              		.loc 1 73 0
  76              		.cfi_startproc
  77              		@ args = 0, pretend = 0, frame = 0
  78              		@ frame_needed = 0, uses_anonymous_args = 0
  79              		@ link register save eliminated.
  80              	.LVL2:
  81              	.LBB24:
  82              	.LBB25:
  83              	.LBB26:
  84              	.LBB27:
  85              		.file 2 "../../modules/ChibiOS/os/common/ext/CMSIS/include/cmsis_gcc.h"
  86              		.loc 2 264 0
  87 0000 2023     		movs	r3, #32
  88              		.syntax unified
  89              	@ 264 "../../modules/ChibiOS/os/common/ext/CMSIS/include/cmsis_gcc.h" 1
  90 0002 83F31188 		MSR basepri, r3
  91              	@ 0 "" 2
  92              	.LVL3:
  93              		.thumb
  94              		.syntax unified
  95              	.LBE27:
  96              	.LBE26:
  97              	.LBE25:
  98              	.LBE24:
  99              		.loc 1 76 0
 100 0006 054A     		ldr	r2, .L5
 101 0008 D2F89830 		ldr	r3, [r2, #152]
 102 000c 0133     		adds	r3, r3, #1
 103 000e C2F89830 		str	r3, [r2, #152]
 104              	.LVL4:
 105              	.LBB28:
 106              	.LBB29:
 107              	.LBB30:
 108              	.LBB31:
 109              		.loc 2 264 0
 110 0012 0023     		movs	r3, #0
 111              		.syntax unified
 112              	@ 264 "../../modules/ChibiOS/os/common/ext/CMSIS/include/cmsis_gcc.h" 1
 113 0014 83F31188 		MSR basepri, r3
 114              	@ 0 "" 2
ARM GAS  C:\cygwin64\tmp\ccslDetg.s 			page 3


 115              	.LVL5:
 116              		.thumb
 117              		.syntax unified
 118 0018 7047     		bx	lr
 119              	.L6:
 120 001a 00BF     		.align	2
 121              	.L5:
 122 001c 00000000 		.word	ch
 123              	.LBE31:
 124              	.LBE30:
 125              	.LBE29:
 126              	.LBE28:
 127              		.cfi_endproc
 128              	.LFE247:
 129              		.size	_stats_increase_irq, .-_stats_increase_irq
 130              		.section	.text._stats_ctxswc,"ax",%progbits
 131              		.align	1
 132              		.global	_stats_ctxswc
 133              		.syntax unified
 134              		.thumb
 135              		.thumb_func
 136              		.fpu fpv4-sp-d16
 137              		.type	_stats_ctxswc, %function
 138              	_stats_ctxswc:
 139              	.LFB248:
 140              		.loc 1 86 0
 141              		.cfi_startproc
 142              		@ args = 0, pretend = 0, frame = 0
 143              		@ frame_needed = 0, uses_anonymous_args = 0
 144              		@ link register save eliminated.
 145              	.LVL6:
 146              		.loc 1 88 0
 147 0000 064A     		ldr	r2, .L8
 148 0002 D2F89C30 		ldr	r3, [r2, #156]
 149 0006 0133     		adds	r3, r3, #1
 150 0008 C2F89C30 		str	r3, [r2, #156]
 151              		.loc 1 89 0
 152 000c 01F14803 		add	r3, r1, #72
 153 0010 00F14801 		add	r1, r0, #72
 154              	.LVL7:
 155 0014 1846     		mov	r0, r3
 156              	.LVL8:
 157 0016 FFF7FEBF 		b	chTMChainMeasurementToX
 158              	.LVL9:
 159              	.L9:
 160 001a 00BF     		.align	2
 161              	.L8:
 162 001c 00000000 		.word	ch
 163              		.cfi_endproc
 164              	.LFE248:
 165              		.size	_stats_ctxswc, .-_stats_ctxswc
 166              		.section	.text._stats_start_measure_crit_thd,"ax",%progbits
 167              		.align	1
 168              		.global	_stats_start_measure_crit_thd
 169              		.syntax unified
 170              		.thumb
 171              		.thumb_func
ARM GAS  C:\cygwin64\tmp\ccslDetg.s 			page 4


 172              		.fpu fpv4-sp-d16
 173              		.type	_stats_start_measure_crit_thd, %function
 174              	_stats_start_measure_crit_thd:
 175              	.LFB249:
 176              		.loc 1 95 0
 177              		.cfi_startproc
 178              		@ args = 0, pretend = 0, frame = 0
 179              		@ frame_needed = 0, uses_anonymous_args = 0
 180              		@ link register save eliminated.
 181              		.loc 1 97 0
 182 0000 0148     		ldr	r0, .L11
 183 0002 FFF7FEBF 		b	chTMStartMeasurementX
 184              	.LVL10:
 185              	.L12:
 186 0006 00BF     		.align	2
 187              	.L11:
 188 0008 A0000000 		.word	ch+160
 189              		.cfi_endproc
 190              	.LFE249:
 191              		.size	_stats_start_measure_crit_thd, .-_stats_start_measure_crit_thd
 192              		.section	.text._stats_stop_measure_crit_thd,"ax",%progbits
 193              		.align	1
 194              		.global	_stats_stop_measure_crit_thd
 195              		.syntax unified
 196              		.thumb
 197              		.thumb_func
 198              		.fpu fpv4-sp-d16
 199              		.type	_stats_stop_measure_crit_thd, %function
 200              	_stats_stop_measure_crit_thd:
 201              	.LFB250:
 202              		.loc 1 103 0
 203              		.cfi_startproc
 204              		@ args = 0, pretend = 0, frame = 0
 205              		@ frame_needed = 0, uses_anonymous_args = 0
 206              		@ link register save eliminated.
 207              		.loc 1 105 0
 208 0000 0148     		ldr	r0, .L14
 209 0002 FFF7FEBF 		b	chTMStopMeasurementX
 210              	.LVL11:
 211              	.L15:
 212 0006 00BF     		.align	2
 213              	.L14:
 214 0008 A0000000 		.word	ch+160
 215              		.cfi_endproc
 216              	.LFE250:
 217              		.size	_stats_stop_measure_crit_thd, .-_stats_stop_measure_crit_thd
 218              		.section	.text._stats_start_measure_crit_isr,"ax",%progbits
 219              		.align	1
 220              		.global	_stats_start_measure_crit_isr
 221              		.syntax unified
 222              		.thumb
 223              		.thumb_func
 224              		.fpu fpv4-sp-d16
 225              		.type	_stats_start_measure_crit_isr, %function
 226              	_stats_start_measure_crit_isr:
 227              	.LFB251:
 228              		.loc 1 111 0
ARM GAS  C:\cygwin64\tmp\ccslDetg.s 			page 5


 229              		.cfi_startproc
 230              		@ args = 0, pretend = 0, frame = 0
 231              		@ frame_needed = 0, uses_anonymous_args = 0
 232              		@ link register save eliminated.
 233              		.loc 1 113 0
 234 0000 0148     		ldr	r0, .L17
 235 0002 FFF7FEBF 		b	chTMStartMeasurementX
 236              	.LVL12:
 237              	.L18:
 238 0006 00BF     		.align	2
 239              	.L17:
 240 0008 B8000000 		.word	ch+184
 241              		.cfi_endproc
 242              	.LFE251:
 243              		.size	_stats_start_measure_crit_isr, .-_stats_start_measure_crit_isr
 244              		.section	.text._stats_stop_measure_crit_isr,"ax",%progbits
 245              		.align	1
 246              		.global	_stats_stop_measure_crit_isr
 247              		.syntax unified
 248              		.thumb
 249              		.thumb_func
 250              		.fpu fpv4-sp-d16
 251              		.type	_stats_stop_measure_crit_isr, %function
 252              	_stats_stop_measure_crit_isr:
 253              	.LFB252:
 254              		.loc 1 119 0
 255              		.cfi_startproc
 256              		@ args = 0, pretend = 0, frame = 0
 257              		@ frame_needed = 0, uses_anonymous_args = 0
 258              		@ link register save eliminated.
 259              		.loc 1 121 0
 260 0000 0148     		ldr	r0, .L20
 261 0002 FFF7FEBF 		b	chTMStopMeasurementX
 262              	.LVL13:
 263              	.L21:
 264 0006 00BF     		.align	2
 265              	.L20:
 266 0008 B8000000 		.word	ch+184
 267              		.cfi_endproc
 268              	.LFE252:
 269              		.size	_stats_stop_measure_crit_isr, .-_stats_stop_measure_crit_isr
 270              		.text
 271              	.Letext0:
 272              		.file 3 "c:\\program files (x86)\\gnu tools arm embedded\\6 2017-q2-update\\arm-none-eabi\\include
 273              		.file 4 "c:\\program files (x86)\\gnu tools arm embedded\\6 2017-q2-update\\arm-none-eabi\\include
 274              		.file 5 "../../modules/ChibiOS/os/common/ports/ARMCMx/compilers/GCC/chtypes.h"
 275              		.file 6 "../../modules/ChibiOS/os/rt/include/chsystypes.h"
 276              		.file 7 "../../modules/ChibiOS/os/rt/include/chschd.h"
 277              		.file 8 "../../modules/ChibiOS/os/common/ext/CMSIS/include/core_cm4.h"
 278              		.file 9 "../../modules/ChibiOS/os/common/ext/CMSIS/ST/STM32F4xx/system_stm32f4xx.h"
 279              		.file 10 "../../modules/ChibiOS/os/common/ports/ARMCMx/chcore.h"
 280              		.file 11 "../../modules/ChibiOS/os/common/ports/ARMCMx/chcore_v7m.h"
 281              		.file 12 "../../modules/ChibiOS/os/rt/include/chtm.h"
 282              		.file 13 "../../modules/ChibiOS/os/rt/include/chstats.h"
 283              		.file 14 "../../modules/ChibiOS/os/rt/include/chsem.h"
 284              		.file 15 "../../modules/ChibiOS/os/rt/include/chmtx.h"
 285              		.file 16 "../../modules/ChibiOS/os/rt/include/chsys.h"
ARM GAS  C:\cygwin64\tmp\ccslDetg.s 			page 6


 286              		.file 17 "../../modules/ChibiOS/os/rt/include/chregistry.h"
 287              		.section	.debug_info,"",%progbits
 288              	.Ldebug_info0:
 289 0000 EC0A0000 		.4byte	0xaec
 290 0004 0400     		.2byte	0x4
 291 0006 00000000 		.4byte	.Ldebug_abbrev0
 292 000a 04       		.byte	0x4
 293 000b 01       		.uleb128 0x1
 294 000c 47010000 		.4byte	.LASF145
 295 0010 0C       		.byte	0xc
 296 0011 92070000 		.4byte	.LASF146
 297 0015 00000000 		.4byte	.LASF147
 298 0019 00000000 		.4byte	.Ldebug_ranges0+0
 299 001d 00000000 		.4byte	0
 300 0021 00000000 		.4byte	.Ldebug_line0
 301 0025 02       		.uleb128 0x2
 302 0026 04       		.byte	0x4
 303 0027 05       		.byte	0x5
 304 0028 696E7400 		.ascii	"int\000"
 305 002c 03       		.uleb128 0x3
 306 002d 04       		.byte	0x4
 307 002e 07       		.byte	0x7
 308 002f 22030000 		.4byte	.LASF0
 309 0033 03       		.uleb128 0x3
 310 0034 08       		.byte	0x8
 311 0035 05       		.byte	0x5
 312 0036 28010000 		.4byte	.LASF1
 313 003a 03       		.uleb128 0x3
 314 003b 08       		.byte	0x8
 315 003c 04       		.byte	0x4
 316 003d 80040000 		.4byte	.LASF2
 317 0041 03       		.uleb128 0x3
 318 0042 01       		.byte	0x1
 319 0043 06       		.byte	0x6
 320 0044 36010000 		.4byte	.LASF3
 321 0048 04       		.uleb128 0x4
 322 0049 64000000 		.4byte	.LASF6
 323 004d 03       		.byte	0x3
 324 004e 2B       		.byte	0x2b
 325 004f 53000000 		.4byte	0x53
 326 0053 03       		.uleb128 0x3
 327 0054 01       		.byte	0x1
 328 0055 08       		.byte	0x8
 329 0056 3C050000 		.4byte	.LASF4
 330 005a 03       		.uleb128 0x3
 331 005b 02       		.byte	0x2
 332 005c 05       		.byte	0x5
 333 005d 6D050000 		.4byte	.LASF5
 334 0061 04       		.uleb128 0x4
 335 0062 3B060000 		.4byte	.LASF7
 336 0066 03       		.byte	0x3
 337 0067 39       		.byte	0x39
 338 0068 6C000000 		.4byte	0x6c
 339 006c 03       		.uleb128 0x3
 340 006d 02       		.byte	0x2
 341 006e 07       		.byte	0x7
 342 006f AF060000 		.4byte	.LASF8
ARM GAS  C:\cygwin64\tmp\ccslDetg.s 			page 7


 343 0073 04       		.uleb128 0x4
 344 0074 2A060000 		.4byte	.LASF9
 345 0078 03       		.byte	0x3
 346 0079 4D       		.byte	0x4d
 347 007a 7E000000 		.4byte	0x7e
 348 007e 03       		.uleb128 0x3
 349 007f 04       		.byte	0x4
 350 0080 05       		.byte	0x5
 351 0081 A1020000 		.4byte	.LASF10
 352 0085 04       		.uleb128 0x4
 353 0086 D4020000 		.4byte	.LASF11
 354 008a 03       		.byte	0x3
 355 008b 4F       		.byte	0x4f
 356 008c 90000000 		.4byte	0x90
 357 0090 03       		.uleb128 0x3
 358 0091 04       		.byte	0x4
 359 0092 07       		.byte	0x7
 360 0093 06060000 		.4byte	.LASF12
 361 0097 04       		.uleb128 0x4
 362 0098 DF040000 		.4byte	.LASF13
 363 009c 03       		.byte	0x3
 364 009d 69       		.byte	0x69
 365 009e A2000000 		.4byte	0xa2
 366 00a2 03       		.uleb128 0x3
 367 00a3 08       		.byte	0x8
 368 00a4 07       		.byte	0x7
 369 00a5 C2000000 		.4byte	.LASF14
 370 00a9 04       		.uleb128 0x4
 371 00aa 0F070000 		.4byte	.LASF15
 372 00ae 04       		.byte	0x4
 373 00af 18       		.byte	0x18
 374 00b0 48000000 		.4byte	0x48
 375 00b4 04       		.uleb128 0x4
 376 00b5 2F030000 		.4byte	.LASF16
 377 00b9 04       		.byte	0x4
 378 00ba 24       		.byte	0x24
 379 00bb 61000000 		.4byte	0x61
 380 00bf 04       		.uleb128 0x4
 381 00c0 34050000 		.4byte	.LASF17
 382 00c4 04       		.byte	0x4
 383 00c5 2C       		.byte	0x2c
 384 00c6 73000000 		.4byte	0x73
 385 00ca 05       		.uleb128 0x5
 386 00cb BF000000 		.4byte	0xbf
 387 00cf 04       		.uleb128 0x4
 388 00d0 D3050000 		.4byte	.LASF18
 389 00d4 04       		.byte	0x4
 390 00d5 30       		.byte	0x30
 391 00d6 85000000 		.4byte	0x85
 392 00da 04       		.uleb128 0x4
 393 00db 4E000000 		.4byte	.LASF19
 394 00df 04       		.byte	0x4
 395 00e0 3C       		.byte	0x3c
 396 00e1 97000000 		.4byte	0x97
 397 00e5 04       		.uleb128 0x4
 398 00e6 CD060000 		.4byte	.LASF20
 399 00ea 05       		.byte	0x5
ARM GAS  C:\cygwin64\tmp\ccslDetg.s 			page 8


 400 00eb 39       		.byte	0x39
 401 00ec CF000000 		.4byte	0xcf
 402 00f0 04       		.uleb128 0x4
 403 00f1 1F010000 		.4byte	.LASF21
 404 00f5 05       		.byte	0x5
 405 00f6 3A       		.byte	0x3a
 406 00f7 DA000000 		.4byte	0xda
 407 00fb 04       		.uleb128 0x4
 408 00fc C0030000 		.4byte	.LASF22
 409 0100 05       		.byte	0x5
 410 0101 3C       		.byte	0x3c
 411 0102 A9000000 		.4byte	0xa9
 412 0106 04       		.uleb128 0x4
 413 0107 AA020000 		.4byte	.LASF23
 414 010b 05       		.byte	0x5
 415 010c 3D       		.byte	0x3d
 416 010d A9000000 		.4byte	0xa9
 417 0111 04       		.uleb128 0x4
 418 0112 F5040000 		.4byte	.LASF24
 419 0116 05       		.byte	0x5
 420 0117 3E       		.byte	0x3e
 421 0118 A9000000 		.4byte	0xa9
 422 011c 04       		.uleb128 0x4
 423 011d 1D050000 		.4byte	.LASF25
 424 0121 05       		.byte	0x5
 425 0122 40       		.byte	0x40
 426 0123 CF000000 		.4byte	0xcf
 427 0127 04       		.uleb128 0x4
 428 0128 91030000 		.4byte	.LASF26
 429 012c 05       		.byte	0x5
 430 012d 41       		.byte	0x41
 431 012e BF000000 		.4byte	0xbf
 432 0132 04       		.uleb128 0x4
 433 0133 E1030000 		.4byte	.LASF27
 434 0137 05       		.byte	0x5
 435 0138 43       		.byte	0x43
 436 0139 CF000000 		.4byte	0xcf
 437 013d 04       		.uleb128 0x4
 438 013e 13030000 		.4byte	.LASF28
 439 0142 05       		.byte	0x5
 440 0143 45       		.byte	0x45
 441 0144 BF000000 		.4byte	0xbf
 442 0148 04       		.uleb128 0x4
 443 0149 9C030000 		.4byte	.LASF29
 444 014d 05       		.byte	0x5
 445 014e 46       		.byte	0x46
 446 014f CF000000 		.4byte	0xcf
 447 0153 04       		.uleb128 0x4
 448 0154 69060000 		.4byte	.LASF30
 449 0158 06       		.byte	0x6
 450 0159 33       		.byte	0x33
 451 015a CF000000 		.4byte	0xcf
 452 015e 04       		.uleb128 0x4
 453 015f 5B060000 		.4byte	.LASF31
 454 0163 06       		.byte	0x6
 455 0164 3F       		.byte	0x3f
 456 0165 69010000 		.4byte	0x169
ARM GAS  C:\cygwin64\tmp\ccslDetg.s 			page 9


 457 0169 06       		.uleb128 0x6
 458 016a 87030000 		.4byte	.LASF50
 459 016e 60       		.byte	0x60
 460 016f 07       		.byte	0x7
 461 0170 9A       		.byte	0x9a
 462 0171 54020000 		.4byte	0x254
 463 0175 07       		.uleb128 0x7
 464 0176 5E030000 		.4byte	.LASF32
 465 017a 07       		.byte	0x7
 466 017b 9B       		.byte	0x9b
 467 017c 89020000 		.4byte	0x289
 468 0180 00       		.byte	0
 469 0181 07       		.uleb128 0x7
 470 0182 B4040000 		.4byte	.LASF33
 471 0186 07       		.byte	0x7
 472 0187 9C       		.byte	0x9c
 473 0188 1C010000 		.4byte	0x11c
 474 018c 08       		.byte	0x8
 475 018d 08       		.uleb128 0x8
 476 018e 63747800 		.ascii	"ctx\000"
 477 0192 07       		.byte	0x7
 478 0193 9D       		.byte	0x9d
 479 0194 A5040000 		.4byte	0x4a5
 480 0198 0C       		.byte	0xc
 481 0199 07       		.uleb128 0x7
 482 019a 19040000 		.4byte	.LASF34
 483 019e 07       		.byte	0x7
 484 019f 9F       		.byte	0x9f
 485 01a0 5F020000 		.4byte	0x25f
 486 01a4 10       		.byte	0x10
 487 01a5 07       		.uleb128 0x7
 488 01a6 24060000 		.4byte	.LASF35
 489 01aa 07       		.byte	0x7
 490 01ab A0       		.byte	0xa0
 491 01ac 5F020000 		.4byte	0x25f
 492 01b0 14       		.byte	0x14
 493 01b1 07       		.uleb128 0x7
 494 01b2 82030000 		.4byte	.LASF36
 495 01b6 07       		.byte	0x7
 496 01b7 A7       		.byte	0xa7
 497 01b8 8C070000 		.4byte	0x78c
 498 01bc 18       		.byte	0x18
 499 01bd 07       		.uleb128 0x7
 500 01be 18060000 		.4byte	.LASF37
 501 01c2 07       		.byte	0x7
 502 01c3 B0       		.byte	0xb0
 503 01c4 A3070000 		.4byte	0x7a3
 504 01c8 1C       		.byte	0x1c
 505 01c9 07       		.uleb128 0x7
 506 01ca 86020000 		.4byte	.LASF38
 507 01ce 07       		.byte	0x7
 508 01cf B5       		.byte	0xb5
 509 01d0 06010000 		.4byte	0x106
 510 01d4 20       		.byte	0x20
 511 01d5 07       		.uleb128 0x7
 512 01d6 17070000 		.4byte	.LASF39
 513 01da 07       		.byte	0x7
ARM GAS  C:\cygwin64\tmp\ccslDetg.s 			page 10


 514 01db B9       		.byte	0xb9
 515 01dc FB000000 		.4byte	0xfb
 516 01e0 21       		.byte	0x21
 517 01e1 07       		.uleb128 0x7
 518 01e2 08050000 		.4byte	.LASF40
 519 01e6 07       		.byte	0x7
 520 01e7 BE       		.byte	0xbe
 521 01e8 11010000 		.4byte	0x111
 522 01ec 22       		.byte	0x22
 523 01ed 09       		.uleb128 0x9
 524 01ee 7500     		.ascii	"u\000"
 525 01f0 07       		.byte	0x7
 526 01f1 0F01     		.2byte	0x10f
 527 01f3 C1060000 		.4byte	0x6c1
 528 01f7 24       		.byte	0x24
 529 01f8 0A       		.uleb128 0xa
 530 01f9 F8020000 		.4byte	.LASF41
 531 01fd 07       		.byte	0x7
 532 01fe 1401     		.2byte	0x114
 533 0200 65020000 		.4byte	0x265
 534 0204 28       		.byte	0x28
 535 0205 0A       		.uleb128 0xa
 536 0206 19030000 		.4byte	.LASF42
 537 020a 07       		.byte	0x7
 538 020b 1A01     		.2byte	0x11a
 539 020d 89020000 		.4byte	0x289
 540 0211 2C       		.byte	0x2c
 541 0212 0A       		.uleb128 0xa
 542 0213 A3030000 		.4byte	.LASF43
 543 0217 07       		.byte	0x7
 544 0218 2001     		.2byte	0x120
 545 021a 32010000 		.4byte	0x132
 546 021e 34       		.byte	0x34
 547 021f 0A       		.uleb128 0xa
 548 0220 BC070000 		.4byte	.LASF44
 549 0224 07       		.byte	0x7
 550 0225 2701     		.2byte	0x127
 551 0227 86070000 		.4byte	0x786
 552 022b 38       		.byte	0x38
 553 022c 0A       		.uleb128 0xa
 554 022d 1F040000 		.4byte	.LASF45
 555 0231 07       		.byte	0x7
 556 0232 2B01     		.2byte	0x12b
 557 0234 1C010000 		.4byte	0x11c
 558 0238 3C       		.byte	0x3c
 559 0239 0A       		.uleb128 0xa
 560 023a 64030000 		.4byte	.LASF46
 561 023e 07       		.byte	0x7
 562 023f 3201     		.2byte	0x132
 563 0241 3C030000 		.4byte	0x33c
 564 0245 40       		.byte	0x40
 565 0246 0A       		.uleb128 0xa
 566 0247 B8020000 		.4byte	.LASF47
 567 024b 07       		.byte	0x7
 568 024c 3801     		.2byte	0x138
 569 024e 72060000 		.4byte	0x672
 570 0252 48       		.byte	0x48
ARM GAS  C:\cygwin64\tmp\ccslDetg.s 			page 11


 571 0253 00       		.byte	0
 572 0254 04       		.uleb128 0x4
 573 0255 56040000 		.4byte	.LASF48
 574 0259 06       		.byte	0x6
 575 025a 44       		.byte	0x44
 576 025b 5F020000 		.4byte	0x25f
 577 025f 0B       		.uleb128 0xb
 578 0260 04       		.byte	0x4
 579 0261 5E010000 		.4byte	0x15e
 580 0265 04       		.uleb128 0x4
 581 0266 50070000 		.4byte	.LASF49
 582 026a 06       		.byte	0x6
 583 026b 49       		.byte	0x49
 584 026c 70020000 		.4byte	0x270
 585 0270 06       		.uleb128 0x6
 586 0271 F0050000 		.4byte	.LASF51
 587 0275 04       		.byte	0x4
 588 0276 07       		.byte	0x7
 589 0277 88       		.byte	0x88
 590 0278 89020000 		.4byte	0x289
 591 027c 07       		.uleb128 0x7
 592 027d 1A010000 		.4byte	.LASF52
 593 0281 07       		.byte	0x7
 594 0282 89       		.byte	0x89
 595 0283 5F020000 		.4byte	0x25f
 596 0287 00       		.byte	0
 597 0288 00       		.byte	0
 598 0289 04       		.uleb128 0x4
 599 028a F0060000 		.4byte	.LASF53
 600 028e 06       		.byte	0x6
 601 028f 50       		.byte	0x50
 602 0290 94020000 		.4byte	0x294
 603 0294 06       		.uleb128 0x6
 604 0295 7F000000 		.4byte	.LASF54
 605 0299 08       		.byte	0x8
 606 029a 07       		.byte	0x7
 607 029b 8F       		.byte	0x8f
 608 029c B9020000 		.4byte	0x2b9
 609 02a0 07       		.uleb128 0x7
 610 02a1 1A010000 		.4byte	.LASF52
 611 02a5 07       		.byte	0x7
 612 02a6 90       		.byte	0x90
 613 02a7 5F020000 		.4byte	0x25f
 614 02ab 00       		.byte	0
 615 02ac 07       		.uleb128 0x7
 616 02ad 6E000000 		.4byte	.LASF55
 617 02b1 07       		.byte	0x7
 618 02b2 91       		.byte	0x91
 619 02b3 5F020000 		.4byte	0x25f
 620 02b7 04       		.byte	0x4
 621 02b8 00       		.byte	0
 622 02b9 04       		.uleb128 0x4
 623 02ba 2E000000 		.4byte	.LASF56
 624 02be 06       		.byte	0x6
 625 02bf 57       		.byte	0x57
 626 02c0 C4020000 		.4byte	0x2c4
 627 02c4 0C       		.uleb128 0xc
ARM GAS  C:\cygwin64\tmp\ccslDetg.s 			page 12


 628 02c5 D3030000 		.4byte	.LASF57
 629 02c9 1C       		.byte	0x1c
 630 02ca 07       		.byte	0x7
 631 02cb 6A01     		.2byte	0x16a
 632 02cd 20030000 		.4byte	0x320
 633 02d1 0A       		.uleb128 0xa
 634 02d2 5E030000 		.4byte	.LASF32
 635 02d6 07       		.byte	0x7
 636 02d7 6B01     		.2byte	0x16b
 637 02d9 89020000 		.4byte	0x289
 638 02dd 00       		.byte	0
 639 02de 0A       		.uleb128 0xa
 640 02df B4040000 		.4byte	.LASF33
 641 02e3 07       		.byte	0x7
 642 02e4 6C01     		.2byte	0x16c
 643 02e6 1C010000 		.4byte	0x11c
 644 02ea 08       		.byte	0x8
 645 02eb 09       		.uleb128 0x9
 646 02ec 63747800 		.ascii	"ctx\000"
 647 02f0 07       		.byte	0x7
 648 02f1 6E01     		.2byte	0x16e
 649 02f3 A5040000 		.4byte	0x4a5
 650 02f7 0C       		.byte	0xc
 651 02f8 0A       		.uleb128 0xa
 652 02f9 19040000 		.4byte	.LASF34
 653 02fd 07       		.byte	0x7
 654 02fe 7101     		.2byte	0x171
 655 0300 5F020000 		.4byte	0x25f
 656 0304 10       		.byte	0x10
 657 0305 0A       		.uleb128 0xa
 658 0306 24060000 		.4byte	.LASF35
 659 030a 07       		.byte	0x7
 660 030b 7201     		.2byte	0x172
 661 030d 5F020000 		.4byte	0x25f
 662 0311 14       		.byte	0x14
 663 0312 0A       		.uleb128 0xa
 664 0313 D7040000 		.4byte	.LASF58
 665 0317 07       		.byte	0x7
 666 0318 7501     		.2byte	0x175
 667 031a 5F020000 		.4byte	0x25f
 668 031e 18       		.byte	0x18
 669 031f 00       		.byte	0
 670 0320 04       		.uleb128 0x4
 671 0321 73060000 		.4byte	.LASF59
 672 0325 06       		.byte	0x6
 673 0326 5C       		.byte	0x5c
 674 0327 2B030000 		.4byte	0x32b
 675 032b 0B       		.uleb128 0xb
 676 032c 04       		.byte	0x4
 677 032d 31030000 		.4byte	0x331
 678 0331 0D       		.uleb128 0xd
 679 0332 3C030000 		.4byte	0x33c
 680 0336 0E       		.uleb128 0xe
 681 0337 3C030000 		.4byte	0x33c
 682 033b 00       		.byte	0
 683 033c 0F       		.uleb128 0xf
 684 033d 04       		.byte	0x4
ARM GAS  C:\cygwin64\tmp\ccslDetg.s 			page 13


 685 033e 04       		.uleb128 0x4
 686 033f 0D050000 		.4byte	.LASF60
 687 0343 06       		.byte	0x6
 688 0344 61       		.byte	0x61
 689 0345 49030000 		.4byte	0x349
 690 0349 0C       		.uleb128 0xc
 691 034a 91050000 		.4byte	.LASF61
 692 034e 14       		.byte	0x14
 693 034f 07       		.byte	0x7
 694 0350 4501     		.2byte	0x145
 695 0352 98030000 		.4byte	0x398
 696 0356 0A       		.uleb128 0xa
 697 0357 1A010000 		.4byte	.LASF52
 698 035b 07       		.byte	0x7
 699 035c 4601     		.2byte	0x146
 700 035e A9070000 		.4byte	0x7a9
 701 0362 00       		.byte	0
 702 0363 0A       		.uleb128 0xa
 703 0364 6E000000 		.4byte	.LASF55
 704 0368 07       		.byte	0x7
 705 0369 4701     		.2byte	0x147
 706 036b A9070000 		.4byte	0x7a9
 707 036f 04       		.byte	0x4
 708 0370 0A       		.uleb128 0xa
 709 0371 41000000 		.4byte	.LASF62
 710 0375 07       		.byte	0x7
 711 0376 4801     		.2byte	0x148
 712 0378 53010000 		.4byte	0x153
 713 037c 08       		.byte	0x8
 714 037d 0A       		.uleb128 0xa
 715 037e B3020000 		.4byte	.LASF63
 716 0382 07       		.byte	0x7
 717 0383 4901     		.2byte	0x149
 718 0385 20030000 		.4byte	0x320
 719 0389 0C       		.byte	0xc
 720 038a 09       		.uleb128 0x9
 721 038b 70617200 		.ascii	"par\000"
 722 038f 07       		.byte	0x7
 723 0390 4B01     		.2byte	0x14b
 724 0392 3C030000 		.4byte	0x33c
 725 0396 10       		.byte	0x10
 726 0397 00       		.byte	0
 727 0398 04       		.uleb128 0x4
 728 0399 F5000000 		.4byte	.LASF64
 729 039d 06       		.byte	0x6
 730 039e 66       		.byte	0x66
 731 039f A3030000 		.4byte	0x3a3
 732 03a3 0C       		.uleb128 0xc
 733 03a4 69040000 		.4byte	.LASF65
 734 03a8 10       		.byte	0x10
 735 03a9 07       		.byte	0x7
 736 03aa 5501     		.2byte	0x155
 737 03ac E5030000 		.4byte	0x3e5
 738 03b0 0A       		.uleb128 0xa
 739 03b1 1A010000 		.4byte	.LASF52
 740 03b5 07       		.byte	0x7
 741 03b6 5601     		.2byte	0x156
ARM GAS  C:\cygwin64\tmp\ccslDetg.s 			page 14


 742 03b8 A9070000 		.4byte	0x7a9
 743 03bc 00       		.byte	0
 744 03bd 0A       		.uleb128 0xa
 745 03be 6E000000 		.4byte	.LASF55
 746 03c2 07       		.byte	0x7
 747 03c3 5801     		.2byte	0x158
 748 03c5 A9070000 		.4byte	0x7a9
 749 03c9 04       		.byte	0x4
 750 03ca 0A       		.uleb128 0xa
 751 03cb 41000000 		.4byte	.LASF62
 752 03cf 07       		.byte	0x7
 753 03d0 5A01     		.2byte	0x15a
 754 03d2 53010000 		.4byte	0x153
 755 03d6 08       		.byte	0x8
 756 03d7 0A       		.uleb128 0xa
 757 03d8 77050000 		.4byte	.LASF66
 758 03dc 07       		.byte	0x7
 759 03dd 6201     		.2byte	0x162
 760 03df 53010000 		.4byte	0x153
 761 03e3 0C       		.byte	0xc
 762 03e4 00       		.byte	0
 763 03e5 04       		.uleb128 0x4
 764 03e6 90000000 		.4byte	.LASF67
 765 03ea 06       		.byte	0x6
 766 03eb 6B       		.byte	0x6b
 767 03ec F0030000 		.4byte	0x3f0
 768 03f0 0C       		.uleb128 0xc
 769 03f1 E8020000 		.4byte	.LASF68
 770 03f5 04       		.byte	0x4
 771 03f6 07       		.byte	0x7
 772 03f7 7C01     		.2byte	0x17c
 773 03f9 0B040000 		.4byte	0x40b
 774 03fd 0A       		.uleb128 0xa
 775 03fe 8A060000 		.4byte	.LASF69
 776 0402 07       		.byte	0x7
 777 0403 8401     		.2byte	0x184
 778 0405 92070000 		.4byte	0x792
 779 0409 00       		.byte	0
 780 040a 00       		.byte	0
 781 040b 04       		.uleb128 0x4
 782 040c AC030000 		.4byte	.LASF70
 783 0410 06       		.byte	0x6
 784 0411 70       		.byte	0x70
 785 0412 16040000 		.4byte	0x416
 786 0416 0C       		.uleb128 0xc
 787 0417 87050000 		.4byte	.LASF71
 788 041b D0       		.byte	0xd0
 789 041c 07       		.byte	0x7
 790 041d 9C01     		.2byte	0x19c
 791 041f 71040000 		.4byte	0x471
 792 0423 0A       		.uleb128 0xa
 793 0424 09070000 		.4byte	.LASF72
 794 0428 07       		.byte	0x7
 795 0429 A001     		.2byte	0x1a0
 796 042b B9020000 		.4byte	0x2b9
 797 042f 00       		.byte	0
 798 0430 0A       		.uleb128 0xa
ARM GAS  C:\cygwin64\tmp\ccslDetg.s 			page 15


 799 0431 5D020000 		.4byte	.LASF73
 800 0435 07       		.byte	0x7
 801 0436 A401     		.2byte	0x1a4
 802 0438 98030000 		.4byte	0x398
 803 043c 1C       		.byte	0x1c
 804 043d 09       		.uleb128 0x9
 805 043e 64626700 		.ascii	"dbg\000"
 806 0442 07       		.byte	0x7
 807 0443 A801     		.2byte	0x1a8
 808 0445 E5030000 		.4byte	0x3e5
 809 0449 2C       		.byte	0x2c
 810 044a 0A       		.uleb128 0xa
 811 044b E2000000 		.4byte	.LASF74
 812 044f 07       		.byte	0x7
 813 0450 AC01     		.2byte	0x1ac
 814 0452 5E010000 		.4byte	0x15e
 815 0456 30       		.byte	0x30
 816 0457 09       		.uleb128 0x9
 817 0458 746D00   		.ascii	"tm\000"
 818 045b 07       		.byte	0x7
 819 045c B101     		.2byte	0x1b1
 820 045e 24060000 		.4byte	0x624
 821 0462 90       		.byte	0x90
 822 0463 0A       		.uleb128 0xa
 823 0464 57000000 		.4byte	.LASF75
 824 0468 07       		.byte	0x7
 825 0469 B701     		.2byte	0x1b7
 826 046b B6060000 		.4byte	0x6b6
 827 046f 98       		.byte	0x98
 828 0470 00       		.byte	0
 829 0471 03       		.uleb128 0x3
 830 0472 04       		.byte	0x4
 831 0473 07       		.byte	0x7
 832 0474 4D040000 		.4byte	.LASF76
 833 0478 10       		.uleb128 0x10
 834 0479 60050000 		.4byte	.LASF77
 835 047d 08       		.byte	0x8
 836 047e 4407     		.2byte	0x744
 837 0480 CA000000 		.4byte	0xca
 838 0484 11       		.uleb128 0x11
 839 0485 38030000 		.4byte	.LASF78
 840 0489 09       		.byte	0x9
 841 048a 4C       		.byte	0x4c
 842 048b CF000000 		.4byte	0xcf
 843 048f 04       		.uleb128 0x4
 844 0490 DF020000 		.4byte	.LASF79
 845 0494 0A       		.byte	0xa
 846 0495 65       		.byte	0x65
 847 0496 3C030000 		.4byte	0x33c
 848 049a 04       		.uleb128 0x4
 849 049b 0E040000 		.4byte	.LASF80
 850 049f 0A       		.byte	0xa
 851 04a0 6D       		.byte	0x6d
 852 04a1 DA000000 		.4byte	0xda
 853 04a5 06       		.uleb128 0x6
 854 04a6 96040000 		.4byte	.LASF81
 855 04aa 04       		.byte	0x4
ARM GAS  C:\cygwin64\tmp\ccslDetg.s 			page 16


 856 04ab 0A       		.byte	0xa
 857 04ac 89       		.byte	0x89
 858 04ad BD040000 		.4byte	0x4bd
 859 04b1 08       		.uleb128 0x8
 860 04b2 737000   		.ascii	"sp\000"
 861 04b5 0A       		.byte	0xa
 862 04b6 8A       		.byte	0x8a
 863 04b7 09060000 		.4byte	0x609
 864 04bb 00       		.byte	0
 865 04bc 00       		.byte	0
 866 04bd 0C       		.uleb128 0xc
 867 04be 73000000 		.4byte	.LASF82
 868 04c2 64       		.byte	0x64
 869 04c3 0B       		.byte	0xb
 870 04c4 5901     		.2byte	0x159
 871 04c6 09060000 		.4byte	0x609
 872 04ca 09       		.uleb128 0x9
 873 04cb 73313600 		.ascii	"s16\000"
 874 04cf 0B       		.byte	0xb
 875 04d0 5B01     		.2byte	0x15b
 876 04d2 8F040000 		.4byte	0x48f
 877 04d6 00       		.byte	0
 878 04d7 09       		.uleb128 0x9
 879 04d8 73313700 		.ascii	"s17\000"
 880 04dc 0B       		.byte	0xb
 881 04dd 5C01     		.2byte	0x15c
 882 04df 8F040000 		.4byte	0x48f
 883 04e3 04       		.byte	0x4
 884 04e4 09       		.uleb128 0x9
 885 04e5 73313800 		.ascii	"s18\000"
 886 04e9 0B       		.byte	0xb
 887 04ea 5D01     		.2byte	0x15d
 888 04ec 8F040000 		.4byte	0x48f
 889 04f0 08       		.byte	0x8
 890 04f1 09       		.uleb128 0x9
 891 04f2 73313900 		.ascii	"s19\000"
 892 04f6 0B       		.byte	0xb
 893 04f7 5E01     		.2byte	0x15e
 894 04f9 8F040000 		.4byte	0x48f
 895 04fd 0C       		.byte	0xc
 896 04fe 09       		.uleb128 0x9
 897 04ff 73323000 		.ascii	"s20\000"
 898 0503 0B       		.byte	0xb
 899 0504 5F01     		.2byte	0x15f
 900 0506 8F040000 		.4byte	0x48f
 901 050a 10       		.byte	0x10
 902 050b 09       		.uleb128 0x9
 903 050c 73323100 		.ascii	"s21\000"
 904 0510 0B       		.byte	0xb
 905 0511 6001     		.2byte	0x160
 906 0513 8F040000 		.4byte	0x48f
 907 0517 14       		.byte	0x14
 908 0518 09       		.uleb128 0x9
 909 0519 73323200 		.ascii	"s22\000"
 910 051d 0B       		.byte	0xb
 911 051e 6101     		.2byte	0x161
 912 0520 8F040000 		.4byte	0x48f
ARM GAS  C:\cygwin64\tmp\ccslDetg.s 			page 17


 913 0524 18       		.byte	0x18
 914 0525 09       		.uleb128 0x9
 915 0526 73323300 		.ascii	"s23\000"
 916 052a 0B       		.byte	0xb
 917 052b 6201     		.2byte	0x162
 918 052d 8F040000 		.4byte	0x48f
 919 0531 1C       		.byte	0x1c
 920 0532 09       		.uleb128 0x9
 921 0533 73323400 		.ascii	"s24\000"
 922 0537 0B       		.byte	0xb
 923 0538 6301     		.2byte	0x163
 924 053a 8F040000 		.4byte	0x48f
 925 053e 20       		.byte	0x20
 926 053f 09       		.uleb128 0x9
 927 0540 73323500 		.ascii	"s25\000"
 928 0544 0B       		.byte	0xb
 929 0545 6401     		.2byte	0x164
 930 0547 8F040000 		.4byte	0x48f
 931 054b 24       		.byte	0x24
 932 054c 09       		.uleb128 0x9
 933 054d 73323600 		.ascii	"s26\000"
 934 0551 0B       		.byte	0xb
 935 0552 6501     		.2byte	0x165
 936 0554 8F040000 		.4byte	0x48f
 937 0558 28       		.byte	0x28
 938 0559 09       		.uleb128 0x9
 939 055a 73323700 		.ascii	"s27\000"
 940 055e 0B       		.byte	0xb
 941 055f 6601     		.2byte	0x166
 942 0561 8F040000 		.4byte	0x48f
 943 0565 2C       		.byte	0x2c
 944 0566 09       		.uleb128 0x9
 945 0567 73323800 		.ascii	"s28\000"
 946 056b 0B       		.byte	0xb
 947 056c 6701     		.2byte	0x167
 948 056e 8F040000 		.4byte	0x48f
 949 0572 30       		.byte	0x30
 950 0573 09       		.uleb128 0x9
 951 0574 73323900 		.ascii	"s29\000"
 952 0578 0B       		.byte	0xb
 953 0579 6801     		.2byte	0x168
 954 057b 8F040000 		.4byte	0x48f
 955 057f 34       		.byte	0x34
 956 0580 09       		.uleb128 0x9
 957 0581 73333000 		.ascii	"s30\000"
 958 0585 0B       		.byte	0xb
 959 0586 6901     		.2byte	0x169
 960 0588 8F040000 		.4byte	0x48f
 961 058c 38       		.byte	0x38
 962 058d 09       		.uleb128 0x9
 963 058e 73333100 		.ascii	"s31\000"
 964 0592 0B       		.byte	0xb
 965 0593 6A01     		.2byte	0x16a
 966 0595 8F040000 		.4byte	0x48f
 967 0599 3C       		.byte	0x3c
 968 059a 09       		.uleb128 0x9
 969 059b 723400   		.ascii	"r4\000"
ARM GAS  C:\cygwin64\tmp\ccslDetg.s 			page 18


 970 059e 0B       		.byte	0xb
 971 059f 6C01     		.2byte	0x16c
 972 05a1 8F040000 		.4byte	0x48f
 973 05a5 40       		.byte	0x40
 974 05a6 09       		.uleb128 0x9
 975 05a7 723500   		.ascii	"r5\000"
 976 05aa 0B       		.byte	0xb
 977 05ab 6D01     		.2byte	0x16d
 978 05ad 8F040000 		.4byte	0x48f
 979 05b1 44       		.byte	0x44
 980 05b2 09       		.uleb128 0x9
 981 05b3 723600   		.ascii	"r6\000"
 982 05b6 0B       		.byte	0xb
 983 05b7 6E01     		.2byte	0x16e
 984 05b9 8F040000 		.4byte	0x48f
 985 05bd 48       		.byte	0x48
 986 05be 09       		.uleb128 0x9
 987 05bf 723700   		.ascii	"r7\000"
 988 05c2 0B       		.byte	0xb
 989 05c3 6F01     		.2byte	0x16f
 990 05c5 8F040000 		.4byte	0x48f
 991 05c9 4C       		.byte	0x4c
 992 05ca 09       		.uleb128 0x9
 993 05cb 723800   		.ascii	"r8\000"
 994 05ce 0B       		.byte	0xb
 995 05cf 7001     		.2byte	0x170
 996 05d1 8F040000 		.4byte	0x48f
 997 05d5 50       		.byte	0x50
 998 05d6 09       		.uleb128 0x9
 999 05d7 723900   		.ascii	"r9\000"
 1000 05da 0B       		.byte	0xb
 1001 05db 7101     		.2byte	0x171
 1002 05dd 8F040000 		.4byte	0x48f
 1003 05e1 54       		.byte	0x54
 1004 05e2 09       		.uleb128 0x9
 1005 05e3 72313000 		.ascii	"r10\000"
 1006 05e7 0B       		.byte	0xb
 1007 05e8 7201     		.2byte	0x172
 1008 05ea 8F040000 		.4byte	0x48f
 1009 05ee 58       		.byte	0x58
 1010 05ef 09       		.uleb128 0x9
 1011 05f0 72313100 		.ascii	"r11\000"
 1012 05f4 0B       		.byte	0xb
 1013 05f5 7301     		.2byte	0x173
 1014 05f7 8F040000 		.4byte	0x48f
 1015 05fb 5C       		.byte	0x5c
 1016 05fc 09       		.uleb128 0x9
 1017 05fd 6C7200   		.ascii	"lr\000"
 1018 0600 0B       		.byte	0xb
 1019 0601 7401     		.2byte	0x174
 1020 0603 8F040000 		.4byte	0x48f
 1021 0607 60       		.byte	0x60
 1022 0608 00       		.byte	0
 1023 0609 0B       		.uleb128 0xb
 1024 060a 04       		.byte	0x4
 1025 060b BD040000 		.4byte	0x4bd
 1026 060f 12       		.uleb128 0x12
ARM GAS  C:\cygwin64\tmp\ccslDetg.s 			page 19


 1027 0610 04       		.byte	0x4
 1028 0611 0C       		.byte	0xc
 1029 0612 38       		.byte	0x38
 1030 0613 24060000 		.4byte	0x624
 1031 0617 07       		.uleb128 0x7
 1032 0618 94060000 		.4byte	.LASF83
 1033 061c 0C       		.byte	0xc
 1034 061d 3C       		.byte	0x3c
 1035 061e E5000000 		.4byte	0xe5
 1036 0622 00       		.byte	0
 1037 0623 00       		.byte	0
 1038 0624 04       		.uleb128 0x4
 1039 0625 A3040000 		.4byte	.LASF84
 1040 0629 0C       		.byte	0xc
 1041 062a 3D       		.byte	0x3d
 1042 062b 0F060000 		.4byte	0x60f
 1043 062f 12       		.uleb128 0x12
 1044 0630 18       		.byte	0x18
 1045 0631 0C       		.byte	0xc
 1046 0632 48       		.byte	0x48
 1047 0633 72060000 		.4byte	0x672
 1048 0637 07       		.uleb128 0x7
 1049 0638 64060000 		.4byte	.LASF85
 1050 063c 0C       		.byte	0xc
 1051 063d 49       		.byte	0x49
 1052 063e E5000000 		.4byte	0xe5
 1053 0642 00       		.byte	0
 1054 0643 07       		.uleb128 0x7
 1055 0644 A9000000 		.4byte	.LASF86
 1056 0648 0C       		.byte	0xc
 1057 0649 4A       		.byte	0x4a
 1058 064a E5000000 		.4byte	0xe5
 1059 064e 04       		.byte	0x4
 1060 064f 07       		.uleb128 0x7
 1061 0650 97030000 		.4byte	.LASF87
 1062 0654 0C       		.byte	0xc
 1063 0655 4B       		.byte	0x4b
 1064 0656 E5000000 		.4byte	0xe5
 1065 065a 08       		.byte	0x8
 1066 065b 08       		.uleb128 0x8
 1067 065c 6E00     		.ascii	"n\000"
 1068 065e 0C       		.byte	0xc
 1069 065f 4C       		.byte	0x4c
 1070 0660 48010000 		.4byte	0x148
 1071 0664 0C       		.byte	0xc
 1072 0665 07       		.uleb128 0x7
 1073 0666 EA040000 		.4byte	.LASF88
 1074 066a 0C       		.byte	0xc
 1075 066b 4D       		.byte	0x4d
 1076 066c F0000000 		.4byte	0xf0
 1077 0670 10       		.byte	0x10
 1078 0671 00       		.byte	0
 1079 0672 04       		.uleb128 0x4
 1080 0673 AF000000 		.4byte	.LASF89
 1081 0677 0C       		.byte	0xc
 1082 0678 4E       		.byte	0x4e
 1083 0679 2F060000 		.4byte	0x62f
ARM GAS  C:\cygwin64\tmp\ccslDetg.s 			page 20


 1084 067d 12       		.uleb128 0x12
 1085 067e 38       		.byte	0x38
 1086 067f 0D       		.byte	0xd
 1087 0680 38       		.byte	0x38
 1088 0681 B6060000 		.4byte	0x6b6
 1089 0685 07       		.uleb128 0x7
 1090 0686 58030000 		.4byte	.LASF90
 1091 068a 0D       		.byte	0xd
 1092 068b 39       		.byte	0x39
 1093 068c 48010000 		.4byte	0x148
 1094 0690 00       		.byte	0
 1095 0691 07       		.uleb128 0x7
 1096 0692 25050000 		.4byte	.LASF91
 1097 0696 0D       		.byte	0xd
 1098 0697 3A       		.byte	0x3a
 1099 0698 48010000 		.4byte	0x148
 1100 069c 04       		.byte	0x4
 1101 069d 07       		.uleb128 0x7
 1102 069e C4070000 		.4byte	.LASF92
 1103 06a2 0D       		.byte	0xd
 1104 06a3 3B       		.byte	0x3b
 1105 06a4 72060000 		.4byte	0x672
 1106 06a8 08       		.byte	0x8
 1107 06a9 07       		.uleb128 0x7
 1108 06aa C8030000 		.4byte	.LASF93
 1109 06ae 0D       		.byte	0xd
 1110 06af 3D       		.byte	0x3d
 1111 06b0 72060000 		.4byte	0x672
 1112 06b4 20       		.byte	0x20
 1113 06b5 00       		.byte	0
 1114 06b6 04       		.uleb128 0x4
 1115 06b7 73030000 		.4byte	.LASF94
 1116 06bb 0D       		.byte	0xd
 1117 06bc 3F       		.byte	0x3f
 1118 06bd 7D060000 		.4byte	0x67d
 1119 06c1 13       		.uleb128 0x13
 1120 06c2 04       		.byte	0x4
 1121 06c3 07       		.byte	0x7
 1122 06c4 D2       		.byte	0xd2
 1123 06c5 24070000 		.4byte	0x724
 1124 06c9 14       		.uleb128 0x14
 1125 06ca 47000000 		.4byte	.LASF95
 1126 06ce 07       		.byte	0x7
 1127 06cf D9       		.byte	0xd9
 1128 06d0 27010000 		.4byte	0x127
 1129 06d4 14       		.uleb128 0x14
 1130 06d5 D9000000 		.4byte	.LASF96
 1131 06d9 07       		.byte	0x7
 1132 06da E0       		.byte	0xe0
 1133 06db 27010000 		.4byte	0x127
 1134 06df 14       		.uleb128 0x14
 1135 06e0 49070000 		.4byte	.LASF97
 1136 06e4 07       		.byte	0x7
 1137 06e5 E7       		.byte	0xe7
 1138 06e6 3C030000 		.4byte	0x33c
 1139 06ea 14       		.uleb128 0x14
 1140 06eb 3B000000 		.4byte	.LASF98
ARM GAS  C:\cygwin64\tmp\ccslDetg.s 			page 21


 1141 06ef 07       		.byte	0x7
 1142 06f0 EE       		.byte	0xee
 1143 06f1 24070000 		.4byte	0x724
 1144 06f5 14       		.uleb128 0x14
 1145 06f6 ED000000 		.4byte	.LASF99
 1146 06fa 07       		.byte	0x7
 1147 06fb F3       		.byte	0xf3
 1148 06fc 27010000 		.4byte	0x127
 1149 0700 14       		.uleb128 0x14
 1150 0701 48030000 		.4byte	.LASF100
 1151 0705 07       		.byte	0x7
 1152 0706 FC       		.byte	0xfc
 1153 0707 4F070000 		.4byte	0x74f
 1154 070b 15       		.uleb128 0x15
 1155 070c 34060000 		.4byte	.LASF101
 1156 0710 07       		.byte	0x7
 1157 0711 0501     		.2byte	0x105
 1158 0713 86070000 		.4byte	0x786
 1159 0717 15       		.uleb128 0x15
 1160 0718 80050000 		.4byte	.LASF102
 1161 071c 07       		.byte	0x7
 1162 071d 0D01     		.2byte	0x10d
 1163 071f 32010000 		.4byte	0x132
 1164 0723 00       		.byte	0
 1165 0724 0B       		.uleb128 0xb
 1166 0725 04       		.byte	0x4
 1167 0726 54020000 		.4byte	0x254
 1168 072a 06       		.uleb128 0x6
 1169 072b A2050000 		.4byte	.LASF103
 1170 072f 0C       		.byte	0xc
 1171 0730 0E       		.byte	0xe
 1172 0731 34       		.byte	0x34
 1173 0732 4F070000 		.4byte	0x74f
 1174 0736 07       		.uleb128 0x7
 1175 0737 5E030000 		.4byte	.LASF32
 1176 073b 0E       		.byte	0xe
 1177 073c 35       		.byte	0x35
 1178 073d 89020000 		.4byte	0x289
 1179 0741 00       		.byte	0
 1180 0742 08       		.uleb128 0x8
 1181 0743 636E7400 		.ascii	"cnt\000"
 1182 0747 0E       		.byte	0xe
 1183 0748 37       		.byte	0x37
 1184 0749 3D010000 		.4byte	0x13d
 1185 074d 08       		.byte	0x8
 1186 074e 00       		.byte	0
 1187 074f 0B       		.uleb128 0xb
 1188 0750 04       		.byte	0x4
 1189 0751 2A070000 		.4byte	0x72a
 1190 0755 06       		.uleb128 0x6
 1191 0756 00070000 		.4byte	.LASF104
 1192 075a 10       		.byte	0x10
 1193 075b 0F       		.byte	0xf
 1194 075c 39       		.byte	0x39
 1195 075d 86070000 		.4byte	0x786
 1196 0761 07       		.uleb128 0x7
 1197 0762 5E030000 		.4byte	.LASF32
ARM GAS  C:\cygwin64\tmp\ccslDetg.s 			page 22


 1198 0766 0F       		.byte	0xf
 1199 0767 3A       		.byte	0x3a
 1200 0768 89020000 		.4byte	0x289
 1201 076c 00       		.byte	0
 1202 076d 07       		.uleb128 0x7
 1203 076e 00060000 		.4byte	.LASF105
 1204 0772 0F       		.byte	0xf
 1205 0773 3C       		.byte	0x3c
 1206 0774 5F020000 		.4byte	0x25f
 1207 0778 08       		.byte	0x8
 1208 0779 07       		.uleb128 0x7
 1209 077a 1A010000 		.4byte	.LASF52
 1210 077e 0F       		.byte	0xf
 1211 077f 3E       		.byte	0x3e
 1212 0780 E8080000 		.4byte	0x8e8
 1213 0784 0C       		.byte	0xc
 1214 0785 00       		.byte	0
 1215 0786 0B       		.uleb128 0xb
 1216 0787 04       		.byte	0x4
 1217 0788 55070000 		.4byte	0x755
 1218 078c 0B       		.uleb128 0xb
 1219 078d 04       		.byte	0x4
 1220 078e 9E070000 		.4byte	0x79e
 1221 0792 05       		.uleb128 0x5
 1222 0793 8C070000 		.4byte	0x78c
 1223 0797 03       		.uleb128 0x3
 1224 0798 01       		.byte	0x1
 1225 0799 08       		.byte	0x8
 1226 079a 1F060000 		.4byte	.LASF106
 1227 079e 16       		.uleb128 0x16
 1228 079f 97070000 		.4byte	0x797
 1229 07a3 0B       		.uleb128 0xb
 1230 07a4 04       		.byte	0x4
 1231 07a5 9A040000 		.4byte	0x49a
 1232 07a9 0B       		.uleb128 0xb
 1233 07aa 04       		.byte	0x4
 1234 07ab 3E030000 		.4byte	0x33e
 1235 07af 17       		.uleb128 0x17
 1236 07b0 636800   		.ascii	"ch\000"
 1237 07b3 07       		.byte	0x7
 1238 07b4 D201     		.2byte	0x1d2
 1239 07b6 0B040000 		.4byte	0x40b
 1240 07ba 18       		.uleb128 0x18
 1241 07bb 9A040000 		.4byte	0x49a
 1242 07bf C5070000 		.4byte	0x7c5
 1243 07c3 19       		.uleb128 0x19
 1244 07c4 00       		.byte	0
 1245 07c5 10       		.uleb128 0x10
 1246 07c6 B8050000 		.4byte	.LASF107
 1247 07ca 10       		.byte	0x10
 1248 07cb 2B01     		.2byte	0x12b
 1249 07cd BA070000 		.4byte	0x7ba
 1250 07d1 12       		.uleb128 0x12
 1251 07d2 16       		.byte	0x16
 1252 07d3 11       		.byte	0x11
 1253 07d4 34       		.byte	0x34
 1254 07d5 B2080000 		.4byte	0x8b2
ARM GAS  C:\cygwin64\tmp\ccslDetg.s 			page 23


 1255 07d9 07       		.uleb128 0x7
 1256 07da C2060000 		.4byte	.LASF108
 1257 07de 11       		.byte	0x11
 1258 07df 35       		.byte	0x35
 1259 07e0 B2080000 		.4byte	0x8b2
 1260 07e4 00       		.byte	0
 1261 07e5 07       		.uleb128 0x7
 1262 07e6 00030000 		.4byte	.LASF109
 1263 07ea 11       		.byte	0x11
 1264 07eb 36       		.byte	0x36
 1265 07ec A9000000 		.4byte	0xa9
 1266 07f0 04       		.byte	0x4
 1267 07f1 07       		.uleb128 0x7
 1268 07f2 42010000 		.4byte	.LASF110
 1269 07f6 11       		.byte	0x11
 1270 07f7 37       		.byte	0x37
 1271 07f8 A9000000 		.4byte	0xa9
 1272 07fc 05       		.byte	0x5
 1273 07fd 07       		.uleb128 0x7
 1274 07fe 28040000 		.4byte	.LASF111
 1275 0802 11       		.byte	0x11
 1276 0803 38       		.byte	0x38
 1277 0804 B4000000 		.4byte	0xb4
 1278 0808 06       		.byte	0x6
 1279 0809 07       		.uleb128 0x7
 1280 080a E8060000 		.4byte	.LASF112
 1281 080e 11       		.byte	0x11
 1282 080f 39       		.byte	0x39
 1283 0810 A9000000 		.4byte	0xa9
 1284 0814 08       		.byte	0x8
 1285 0815 07       		.uleb128 0x7
 1286 0816 CA050000 		.4byte	.LASF113
 1287 081a 11       		.byte	0x11
 1288 081b 3A       		.byte	0x3a
 1289 081c A9000000 		.4byte	0xa9
 1290 0820 09       		.byte	0x9
 1291 0821 07       		.uleb128 0x7
 1292 0822 FD040000 		.4byte	.LASF114
 1293 0826 11       		.byte	0x11
 1294 0827 3B       		.byte	0x3b
 1295 0828 A9000000 		.4byte	0xa9
 1296 082c 0A       		.byte	0xa
 1297 082d 07       		.uleb128 0x7
 1298 082e 4A050000 		.4byte	.LASF115
 1299 0832 11       		.byte	0x11
 1300 0833 3C       		.byte	0x3c
 1301 0834 A9000000 		.4byte	0xa9
 1302 0838 0B       		.byte	0xb
 1303 0839 07       		.uleb128 0x7
 1304 083a B8030000 		.4byte	.LASF116
 1305 083e 11       		.byte	0x11
 1306 083f 3D       		.byte	0x3d
 1307 0840 A9000000 		.4byte	0xa9
 1308 0844 0C       		.byte	0xc
 1309 0845 07       		.uleb128 0x7
 1310 0846 8C040000 		.4byte	.LASF117
 1311 084a 11       		.byte	0x11
ARM GAS  C:\cygwin64\tmp\ccslDetg.s 			page 24


 1312 084b 3E       		.byte	0x3e
 1313 084c A9000000 		.4byte	0xa9
 1314 0850 0D       		.byte	0xd
 1315 0851 07       		.uleb128 0x7
 1316 0852 9B060000 		.4byte	.LASF118
 1317 0856 11       		.byte	0x11
 1318 0857 3F       		.byte	0x3f
 1319 0858 A9000000 		.4byte	0xa9
 1320 085c 0E       		.byte	0xe
 1321 085d 07       		.uleb128 0x7
 1322 085e ED030000 		.4byte	.LASF119
 1323 0862 11       		.byte	0x11
 1324 0863 40       		.byte	0x40
 1325 0864 A9000000 		.4byte	0xa9
 1326 0868 0F       		.byte	0xf
 1327 0869 07       		.uleb128 0x7
 1328 086a 53050000 		.4byte	.LASF120
 1329 086e 11       		.byte	0x11
 1330 086f 41       		.byte	0x41
 1331 0870 A9000000 		.4byte	0xa9
 1332 0874 10       		.byte	0x10
 1333 0875 07       		.uleb128 0x7
 1334 0876 5F070000 		.4byte	.LASF121
 1335 087a 11       		.byte	0x11
 1336 087b 42       		.byte	0x42
 1337 087c A9000000 		.4byte	0xa9
 1338 0880 11       		.byte	0x11
 1339 0881 07       		.uleb128 0x7
 1340 0882 A5060000 		.4byte	.LASF122
 1341 0886 11       		.byte	0x11
 1342 0887 43       		.byte	0x43
 1343 0888 A9000000 		.4byte	0xa9
 1344 088c 12       		.byte	0x12
 1345 088d 07       		.uleb128 0x7
 1346 088e 6A030000 		.4byte	.LASF123
 1347 0892 11       		.byte	0x11
 1348 0893 44       		.byte	0x44
 1349 0894 A9000000 		.4byte	0xa9
 1350 0898 13       		.byte	0x13
 1351 0899 07       		.uleb128 0x7
 1352 089a C8020000 		.4byte	.LASF124
 1353 089e 11       		.byte	0x11
 1354 089f 45       		.byte	0x45
 1355 08a0 A9000000 		.4byte	0xa9
 1356 08a4 14       		.byte	0x14
 1357 08a5 07       		.uleb128 0x7
 1358 08a6 AF050000 		.4byte	.LASF125
 1359 08aa 11       		.byte	0x11
 1360 08ab 46       		.byte	0x46
 1361 08ac A9000000 		.4byte	0xa9
 1362 08b0 15       		.byte	0x15
 1363 08b1 00       		.byte	0
 1364 08b2 18       		.uleb128 0x18
 1365 08b3 97070000 		.4byte	0x797
 1366 08b7 C2080000 		.4byte	0x8c2
 1367 08bb 1A       		.uleb128 0x1a
 1368 08bc 71040000 		.4byte	0x471
ARM GAS  C:\cygwin64\tmp\ccslDetg.s 			page 25


 1369 08c0 03       		.byte	0x3
 1370 08c1 00       		.byte	0
 1371 08c2 04       		.uleb128 0x4
 1372 08c3 BE020000 		.4byte	.LASF126
 1373 08c7 11       		.byte	0x11
 1374 08c8 47       		.byte	0x47
 1375 08c9 D1070000 		.4byte	0x7d1
 1376 08cd 16       		.uleb128 0x16
 1377 08ce C2080000 		.4byte	0x8c2
 1378 08d2 11       		.uleb128 0x11
 1379 08d3 4F030000 		.4byte	.LASF127
 1380 08d7 11       		.byte	0x11
 1381 08d8 6C       		.byte	0x6c
 1382 08d9 CD080000 		.4byte	0x8cd
 1383 08dd 04       		.uleb128 0x4
 1384 08de 05030000 		.4byte	.LASF128
 1385 08e2 0F       		.byte	0xf
 1386 08e3 34       		.byte	0x34
 1387 08e4 55070000 		.4byte	0x755
 1388 08e8 0B       		.uleb128 0xb
 1389 08e9 04       		.byte	0x4
 1390 08ea DD080000 		.4byte	0x8dd
 1391 08ee 03       		.uleb128 0x3
 1392 08ef 01       		.byte	0x1
 1393 08f0 02       		.byte	0x2
 1394 08f1 2E050000 		.4byte	.LASF129
 1395 08f5 1B       		.uleb128 0x1b
 1396 08f6 75070000 		.4byte	.LASF130
 1397 08fa 01       		.byte	0x1
 1398 08fb 77       		.byte	0x77
 1399 08fc 00000000 		.4byte	.LFB252
 1400 0900 0C000000 		.4byte	.LFE252-.LFB252
 1401 0904 01       		.uleb128 0x1
 1402 0905 9C       		.byte	0x9c
 1403 0906 14090000 		.4byte	0x914
 1404 090a 1C       		.uleb128 0x1c
 1405 090b 06000000 		.4byte	.LVL13
 1406 090f C30A0000 		.4byte	0xac3
 1407 0913 00       		.byte	0
 1408 0914 1B       		.uleb128 0x1b
 1409 0915 B9040000 		.4byte	.LASF131
 1410 0919 01       		.byte	0x1
 1411 091a 6F       		.byte	0x6f
 1412 091b 00000000 		.4byte	.LFB251
 1413 091f 0C000000 		.4byte	.LFE251-.LFB251
 1414 0923 01       		.uleb128 0x1
 1415 0924 9C       		.byte	0x9c
 1416 0925 33090000 		.4byte	0x933
 1417 0929 1C       		.uleb128 0x1c
 1418 092a 06000000 		.4byte	.LVL12
 1419 092e CE0A0000 		.4byte	0xace
 1420 0932 00       		.byte	0
 1421 0933 1B       		.uleb128 0x1b
 1422 0934 30040000 		.4byte	.LASF132
 1423 0938 01       		.byte	0x1
 1424 0939 67       		.byte	0x67
 1425 093a 00000000 		.4byte	.LFB250
ARM GAS  C:\cygwin64\tmp\ccslDetg.s 			page 26


 1426 093e 0C000000 		.4byte	.LFE250-.LFB250
 1427 0942 01       		.uleb128 0x1
 1428 0943 9C       		.byte	0x9c
 1429 0944 52090000 		.4byte	0x952
 1430 0948 1C       		.uleb128 0x1c
 1431 0949 06000000 		.4byte	.LVL11
 1432 094d C30A0000 		.4byte	0xac3
 1433 0951 00       		.byte	0
 1434 0952 1B       		.uleb128 0x1b
 1435 0953 1D070000 		.4byte	.LASF133
 1436 0957 01       		.byte	0x1
 1437 0958 5F       		.byte	0x5f
 1438 0959 00000000 		.4byte	.LFB249
 1439 095d 0C000000 		.4byte	.LFE249-.LFB249
 1440 0961 01       		.uleb128 0x1
 1441 0962 9C       		.byte	0x9c
 1442 0963 71090000 		.4byte	0x971
 1443 0967 1C       		.uleb128 0x1c
 1444 0968 06000000 		.4byte	.LVL10
 1445 096c CE0A0000 		.4byte	0xace
 1446 0970 00       		.byte	0
 1447 0971 1B       		.uleb128 0x1b
 1448 0972 3B070000 		.4byte	.LASF134
 1449 0976 01       		.byte	0x1
 1450 0977 56       		.byte	0x56
 1451 0978 00000000 		.4byte	.LFB248
 1452 097c 20000000 		.4byte	.LFE248-.LFB248
 1453 0980 01       		.uleb128 0x1
 1454 0981 9C       		.byte	0x9c
 1455 0982 C1090000 		.4byte	0x9c1
 1456 0986 1D       		.uleb128 0x1d
 1457 0987 6E747000 		.ascii	"ntp\000"
 1458 098b 01       		.byte	0x1
 1459 098c 56       		.byte	0x56
 1460 098d 5F020000 		.4byte	0x25f
 1461 0991 00000000 		.4byte	.LLST2
 1462 0995 1D       		.uleb128 0x1d
 1463 0996 6F747000 		.ascii	"otp\000"
 1464 099a 01       		.byte	0x1
 1465 099b 56       		.byte	0x56
 1466 099c 5F020000 		.4byte	0x25f
 1467 09a0 2F000000 		.4byte	.LLST3
 1468 09a4 1E       		.uleb128 0x1e
 1469 09a5 1A000000 		.4byte	.LVL9
 1470 09a9 D90A0000 		.4byte	0xad9
 1471 09ad 1F       		.uleb128 0x1f
 1472 09ae 01       		.uleb128 0x1
 1473 09af 50       		.byte	0x50
 1474 09b0 05       		.uleb128 0x5
 1475 09b1 F3       		.byte	0xf3
 1476 09b2 01       		.uleb128 0x1
 1477 09b3 51       		.byte	0x51
 1478 09b4 23       		.byte	0x23
 1479 09b5 48       		.uleb128 0x48
 1480 09b6 1F       		.uleb128 0x1f
 1481 09b7 01       		.uleb128 0x1
 1482 09b8 51       		.byte	0x51
ARM GAS  C:\cygwin64\tmp\ccslDetg.s 			page 27


 1483 09b9 05       		.uleb128 0x5
 1484 09ba F3       		.byte	0xf3
 1485 09bb 01       		.uleb128 0x1
 1486 09bc 50       		.byte	0x50
 1487 09bd 23       		.byte	0x23
 1488 09be 48       		.uleb128 0x48
 1489 09bf 00       		.byte	0
 1490 09c0 00       		.byte	0
 1491 09c1 1B       		.uleb128 0x1b
 1492 09c2 DC050000 		.4byte	.LASF135
 1493 09c6 01       		.byte	0x1
 1494 09c7 49       		.byte	0x49
 1495 09c8 00000000 		.4byte	.LFB247
 1496 09cc 20000000 		.4byte	.LFE247-.LFB247
 1497 09d0 01       		.uleb128 0x1
 1498 09d1 9C       		.byte	0x9c
 1499 09d2 510A0000 		.4byte	0xa51
 1500 09d6 20       		.uleb128 0x20
 1501 09d7 8E0A0000 		.4byte	0xa8e
 1502 09db 00000000 		.4byte	.LBB24
 1503 09df 06000000 		.4byte	.LBE24-.LBB24
 1504 09e3 01       		.byte	0x1
 1505 09e4 4B       		.byte	0x4b
 1506 09e5 150A0000 		.4byte	0xa15
 1507 09e9 21       		.uleb128 0x21
 1508 09ea A00A0000 		.4byte	0xaa0
 1509 09ee 00000000 		.4byte	.LBB25
 1510 09f2 06000000 		.4byte	.LBE25-.LBB25
 1511 09f6 0B       		.byte	0xb
 1512 09f7 7B02     		.2byte	0x27b
 1513 09f9 21       		.uleb128 0x21
 1514 09fa A90A0000 		.4byte	0xaa9
 1515 09fe 00000000 		.4byte	.LBB26
 1516 0a02 06000000 		.4byte	.LBE26-.LBB26
 1517 0a06 0B       		.byte	0xb
 1518 0a07 5A02     		.2byte	0x25a
 1519 0a09 22       		.uleb128 0x22
 1520 0a0a B60A0000 		.4byte	0xab6
 1521 0a0e 5E000000 		.4byte	.LLST0
 1522 0a12 00       		.byte	0
 1523 0a13 00       		.byte	0
 1524 0a14 00       		.byte	0
 1525 0a15 23       		.uleb128 0x23
 1526 0a16 850A0000 		.4byte	0xa85
 1527 0a1a 12000000 		.4byte	.LBB28
 1528 0a1e 0E000000 		.4byte	.LBE28-.LBB28
 1529 0a22 01       		.byte	0x1
 1530 0a23 4D       		.byte	0x4d
 1531 0a24 21       		.uleb128 0x21
 1532 0a25 970A0000 		.4byte	0xa97
 1533 0a29 12000000 		.4byte	.LBB29
 1534 0a2d 0E000000 		.4byte	.LBE29-.LBB29
 1535 0a31 0B       		.byte	0xb
 1536 0a32 8602     		.2byte	0x286
 1537 0a34 21       		.uleb128 0x21
 1538 0a35 A90A0000 		.4byte	0xaa9
 1539 0a39 12000000 		.4byte	.LBB30
ARM GAS  C:\cygwin64\tmp\ccslDetg.s 			page 28


 1540 0a3d 0E000000 		.4byte	.LBE30-.LBB30
 1541 0a41 0B       		.byte	0xb
 1542 0a42 6D02     		.2byte	0x26d
 1543 0a44 22       		.uleb128 0x22
 1544 0a45 B60A0000 		.4byte	0xab6
 1545 0a49 73000000 		.4byte	.LLST1
 1546 0a4d 00       		.byte	0
 1547 0a4e 00       		.byte	0
 1548 0a4f 00       		.byte	0
 1549 0a50 00       		.byte	0
 1550 0a51 1B       		.uleb128 0x1b
 1551 0a52 69070000 		.4byte	.LASF136
 1552 0a56 01       		.byte	0x1
 1553 0a57 3E       		.byte	0x3e
 1554 0a58 00000000 		.4byte	.LFB246
 1555 0a5c 28000000 		.4byte	.LFE246-.LFB246
 1556 0a60 01       		.uleb128 0x1
 1557 0a61 9C       		.byte	0x9c
 1558 0a62 850A0000 		.4byte	0xa85
 1559 0a66 24       		.uleb128 0x24
 1560 0a67 16000000 		.4byte	.LVL0
 1561 0a6b E40A0000 		.4byte	0xae4
 1562 0a6f 7B0A0000 		.4byte	0xa7b
 1563 0a73 1F       		.uleb128 0x1f
 1564 0a74 01       		.uleb128 0x1
 1565 0a75 50       		.byte	0x50
 1566 0a76 03       		.uleb128 0x3
 1567 0a77 74       		.byte	0x74
 1568 0a78 A001     		.sleb128 160
 1569 0a7a 00       		.byte	0
 1570 0a7b 1C       		.uleb128 0x1c
 1571 0a7c 22000000 		.4byte	.LVL1
 1572 0a80 E40A0000 		.4byte	0xae4
 1573 0a84 00       		.byte	0
 1574 0a85 25       		.uleb128 0x25
 1575 0a86 46060000 		.4byte	.LASF137
 1576 0a8a 0B       		.byte	0xb
 1577 0a8b 8402     		.2byte	0x284
 1578 0a8d 03       		.byte	0x3
 1579 0a8e 25       		.uleb128 0x25
 1580 0a8f D5060000 		.4byte	.LASF138
 1581 0a93 0B       		.byte	0xb
 1582 0a94 7902     		.2byte	0x279
 1583 0a96 03       		.byte	0x3
 1584 0a97 25       		.uleb128 0x25
 1585 0a98 64020000 		.4byte	.LASF139
 1586 0a9c 0B       		.byte	0xb
 1587 0a9d 6A02     		.2byte	0x26a
 1588 0a9f 03       		.byte	0x3
 1589 0aa0 25       		.uleb128 0x25
 1590 0aa1 9F000000 		.4byte	.LASF140
 1591 0aa5 0B       		.byte	0xb
 1592 0aa6 5202     		.2byte	0x252
 1593 0aa8 03       		.byte	0x3
 1594 0aa9 26       		.uleb128 0x26
 1595 0aaa 7C060000 		.4byte	.LASF148
 1596 0aae 02       		.byte	0x2
ARM GAS  C:\cygwin64\tmp\ccslDetg.s 			page 29


 1597 0aaf 0601     		.2byte	0x106
 1598 0ab1 03       		.byte	0x3
 1599 0ab2 C30A0000 		.4byte	0xac3
 1600 0ab6 27       		.uleb128 0x27
 1601 0ab7 0D030000 		.4byte	.LASF149
 1602 0abb 02       		.byte	0x2
 1603 0abc 0601     		.2byte	0x106
 1604 0abe CF000000 		.4byte	0xcf
 1605 0ac2 00       		.byte	0
 1606 0ac3 28       		.uleb128 0x28
 1607 0ac4 8C020000 		.4byte	.LASF141
 1608 0ac8 8C020000 		.4byte	.LASF141
 1609 0acc 0C       		.byte	0xc
 1610 0acd 5E       		.byte	0x5e
 1611 0ace 28       		.uleb128 0x28
 1612 0acf 70020000 		.4byte	.LASF142
 1613 0ad3 70020000 		.4byte	.LASF142
 1614 0ad7 0C       		.byte	0xc
 1615 0ad8 5D       		.byte	0x5d
 1616 0ad9 28       		.uleb128 0x28
 1617 0ada F6030000 		.4byte	.LASF143
 1618 0ade F6030000 		.4byte	.LASF143
 1619 0ae2 0C       		.byte	0xc
 1620 0ae3 5F       		.byte	0x5f
 1621 0ae4 28       		.uleb128 0x28
 1622 0ae5 0B010000 		.4byte	.LASF144
 1623 0ae9 0B010000 		.4byte	.LASF144
 1624 0aed 0C       		.byte	0xc
 1625 0aee 5C       		.byte	0x5c
 1626 0aef 00       		.byte	0
 1627              		.section	.debug_abbrev,"",%progbits
 1628              	.Ldebug_abbrev0:
 1629 0000 01       		.uleb128 0x1
 1630 0001 11       		.uleb128 0x11
 1631 0002 01       		.byte	0x1
 1632 0003 25       		.uleb128 0x25
 1633 0004 0E       		.uleb128 0xe
 1634 0005 13       		.uleb128 0x13
 1635 0006 0B       		.uleb128 0xb
 1636 0007 03       		.uleb128 0x3
 1637 0008 0E       		.uleb128 0xe
 1638 0009 1B       		.uleb128 0x1b
 1639 000a 0E       		.uleb128 0xe
 1640 000b 55       		.uleb128 0x55
 1641 000c 17       		.uleb128 0x17
 1642 000d 11       		.uleb128 0x11
 1643 000e 01       		.uleb128 0x1
 1644 000f 10       		.uleb128 0x10
 1645 0010 17       		.uleb128 0x17
 1646 0011 00       		.byte	0
 1647 0012 00       		.byte	0
 1648 0013 02       		.uleb128 0x2
 1649 0014 24       		.uleb128 0x24
 1650 0015 00       		.byte	0
 1651 0016 0B       		.uleb128 0xb
 1652 0017 0B       		.uleb128 0xb
 1653 0018 3E       		.uleb128 0x3e
ARM GAS  C:\cygwin64\tmp\ccslDetg.s 			page 30


 1654 0019 0B       		.uleb128 0xb
 1655 001a 03       		.uleb128 0x3
 1656 001b 08       		.uleb128 0x8
 1657 001c 00       		.byte	0
 1658 001d 00       		.byte	0
 1659 001e 03       		.uleb128 0x3
 1660 001f 24       		.uleb128 0x24
 1661 0020 00       		.byte	0
 1662 0021 0B       		.uleb128 0xb
 1663 0022 0B       		.uleb128 0xb
 1664 0023 3E       		.uleb128 0x3e
 1665 0024 0B       		.uleb128 0xb
 1666 0025 03       		.uleb128 0x3
 1667 0026 0E       		.uleb128 0xe
 1668 0027 00       		.byte	0
 1669 0028 00       		.byte	0
 1670 0029 04       		.uleb128 0x4
 1671 002a 16       		.uleb128 0x16
 1672 002b 00       		.byte	0
 1673 002c 03       		.uleb128 0x3
 1674 002d 0E       		.uleb128 0xe
 1675 002e 3A       		.uleb128 0x3a
 1676 002f 0B       		.uleb128 0xb
 1677 0030 3B       		.uleb128 0x3b
 1678 0031 0B       		.uleb128 0xb
 1679 0032 49       		.uleb128 0x49
 1680 0033 13       		.uleb128 0x13
 1681 0034 00       		.byte	0
 1682 0035 00       		.byte	0
 1683 0036 05       		.uleb128 0x5
 1684 0037 35       		.uleb128 0x35
 1685 0038 00       		.byte	0
 1686 0039 49       		.uleb128 0x49
 1687 003a 13       		.uleb128 0x13
 1688 003b 00       		.byte	0
 1689 003c 00       		.byte	0
 1690 003d 06       		.uleb128 0x6
 1691 003e 13       		.uleb128 0x13
 1692 003f 01       		.byte	0x1
 1693 0040 03       		.uleb128 0x3
 1694 0041 0E       		.uleb128 0xe
 1695 0042 0B       		.uleb128 0xb
 1696 0043 0B       		.uleb128 0xb
 1697 0044 3A       		.uleb128 0x3a
 1698 0045 0B       		.uleb128 0xb
 1699 0046 3B       		.uleb128 0x3b
 1700 0047 0B       		.uleb128 0xb
 1701 0048 01       		.uleb128 0x1
 1702 0049 13       		.uleb128 0x13
 1703 004a 00       		.byte	0
 1704 004b 00       		.byte	0
 1705 004c 07       		.uleb128 0x7
 1706 004d 0D       		.uleb128 0xd
 1707 004e 00       		.byte	0
 1708 004f 03       		.uleb128 0x3
 1709 0050 0E       		.uleb128 0xe
 1710 0051 3A       		.uleb128 0x3a
ARM GAS  C:\cygwin64\tmp\ccslDetg.s 			page 31


 1711 0052 0B       		.uleb128 0xb
 1712 0053 3B       		.uleb128 0x3b
 1713 0054 0B       		.uleb128 0xb
 1714 0055 49       		.uleb128 0x49
 1715 0056 13       		.uleb128 0x13
 1716 0057 38       		.uleb128 0x38
 1717 0058 0B       		.uleb128 0xb
 1718 0059 00       		.byte	0
 1719 005a 00       		.byte	0
 1720 005b 08       		.uleb128 0x8
 1721 005c 0D       		.uleb128 0xd
 1722 005d 00       		.byte	0
 1723 005e 03       		.uleb128 0x3
 1724 005f 08       		.uleb128 0x8
 1725 0060 3A       		.uleb128 0x3a
 1726 0061 0B       		.uleb128 0xb
 1727 0062 3B       		.uleb128 0x3b
 1728 0063 0B       		.uleb128 0xb
 1729 0064 49       		.uleb128 0x49
 1730 0065 13       		.uleb128 0x13
 1731 0066 38       		.uleb128 0x38
 1732 0067 0B       		.uleb128 0xb
 1733 0068 00       		.byte	0
 1734 0069 00       		.byte	0
 1735 006a 09       		.uleb128 0x9
 1736 006b 0D       		.uleb128 0xd
 1737 006c 00       		.byte	0
 1738 006d 03       		.uleb128 0x3
 1739 006e 08       		.uleb128 0x8
 1740 006f 3A       		.uleb128 0x3a
 1741 0070 0B       		.uleb128 0xb
 1742 0071 3B       		.uleb128 0x3b
 1743 0072 05       		.uleb128 0x5
 1744 0073 49       		.uleb128 0x49
 1745 0074 13       		.uleb128 0x13
 1746 0075 38       		.uleb128 0x38
 1747 0076 0B       		.uleb128 0xb
 1748 0077 00       		.byte	0
 1749 0078 00       		.byte	0
 1750 0079 0A       		.uleb128 0xa
 1751 007a 0D       		.uleb128 0xd
 1752 007b 00       		.byte	0
 1753 007c 03       		.uleb128 0x3
 1754 007d 0E       		.uleb128 0xe
 1755 007e 3A       		.uleb128 0x3a
 1756 007f 0B       		.uleb128 0xb
 1757 0080 3B       		.uleb128 0x3b
 1758 0081 05       		.uleb128 0x5
 1759 0082 49       		.uleb128 0x49
 1760 0083 13       		.uleb128 0x13
 1761 0084 38       		.uleb128 0x38
 1762 0085 0B       		.uleb128 0xb
 1763 0086 00       		.byte	0
 1764 0087 00       		.byte	0
 1765 0088 0B       		.uleb128 0xb
 1766 0089 0F       		.uleb128 0xf
 1767 008a 00       		.byte	0
ARM GAS  C:\cygwin64\tmp\ccslDetg.s 			page 32


 1768 008b 0B       		.uleb128 0xb
 1769 008c 0B       		.uleb128 0xb
 1770 008d 49       		.uleb128 0x49
 1771 008e 13       		.uleb128 0x13
 1772 008f 00       		.byte	0
 1773 0090 00       		.byte	0
 1774 0091 0C       		.uleb128 0xc
 1775 0092 13       		.uleb128 0x13
 1776 0093 01       		.byte	0x1
 1777 0094 03       		.uleb128 0x3
 1778 0095 0E       		.uleb128 0xe
 1779 0096 0B       		.uleb128 0xb
 1780 0097 0B       		.uleb128 0xb
 1781 0098 3A       		.uleb128 0x3a
 1782 0099 0B       		.uleb128 0xb
 1783 009a 3B       		.uleb128 0x3b
 1784 009b 05       		.uleb128 0x5
 1785 009c 01       		.uleb128 0x1
 1786 009d 13       		.uleb128 0x13
 1787 009e 00       		.byte	0
 1788 009f 00       		.byte	0
 1789 00a0 0D       		.uleb128 0xd
 1790 00a1 15       		.uleb128 0x15
 1791 00a2 01       		.byte	0x1
 1792 00a3 27       		.uleb128 0x27
 1793 00a4 19       		.uleb128 0x19
 1794 00a5 01       		.uleb128 0x1
 1795 00a6 13       		.uleb128 0x13
 1796 00a7 00       		.byte	0
 1797 00a8 00       		.byte	0
 1798 00a9 0E       		.uleb128 0xe
 1799 00aa 05       		.uleb128 0x5
 1800 00ab 00       		.byte	0
 1801 00ac 49       		.uleb128 0x49
 1802 00ad 13       		.uleb128 0x13
 1803 00ae 00       		.byte	0
 1804 00af 00       		.byte	0
 1805 00b0 0F       		.uleb128 0xf
 1806 00b1 0F       		.uleb128 0xf
 1807 00b2 00       		.byte	0
 1808 00b3 0B       		.uleb128 0xb
 1809 00b4 0B       		.uleb128 0xb
 1810 00b5 00       		.byte	0
 1811 00b6 00       		.byte	0
 1812 00b7 10       		.uleb128 0x10
 1813 00b8 34       		.uleb128 0x34
 1814 00b9 00       		.byte	0
 1815 00ba 03       		.uleb128 0x3
 1816 00bb 0E       		.uleb128 0xe
 1817 00bc 3A       		.uleb128 0x3a
 1818 00bd 0B       		.uleb128 0xb
 1819 00be 3B       		.uleb128 0x3b
 1820 00bf 05       		.uleb128 0x5
 1821 00c0 49       		.uleb128 0x49
 1822 00c1 13       		.uleb128 0x13
 1823 00c2 3F       		.uleb128 0x3f
 1824 00c3 19       		.uleb128 0x19
ARM GAS  C:\cygwin64\tmp\ccslDetg.s 			page 33


 1825 00c4 3C       		.uleb128 0x3c
 1826 00c5 19       		.uleb128 0x19
 1827 00c6 00       		.byte	0
 1828 00c7 00       		.byte	0
 1829 00c8 11       		.uleb128 0x11
 1830 00c9 34       		.uleb128 0x34
 1831 00ca 00       		.byte	0
 1832 00cb 03       		.uleb128 0x3
 1833 00cc 0E       		.uleb128 0xe
 1834 00cd 3A       		.uleb128 0x3a
 1835 00ce 0B       		.uleb128 0xb
 1836 00cf 3B       		.uleb128 0x3b
 1837 00d0 0B       		.uleb128 0xb
 1838 00d1 49       		.uleb128 0x49
 1839 00d2 13       		.uleb128 0x13
 1840 00d3 3F       		.uleb128 0x3f
 1841 00d4 19       		.uleb128 0x19
 1842 00d5 3C       		.uleb128 0x3c
 1843 00d6 19       		.uleb128 0x19
 1844 00d7 00       		.byte	0
 1845 00d8 00       		.byte	0
 1846 00d9 12       		.uleb128 0x12
 1847 00da 13       		.uleb128 0x13
 1848 00db 01       		.byte	0x1
 1849 00dc 0B       		.uleb128 0xb
 1850 00dd 0B       		.uleb128 0xb
 1851 00de 3A       		.uleb128 0x3a
 1852 00df 0B       		.uleb128 0xb
 1853 00e0 3B       		.uleb128 0x3b
 1854 00e1 0B       		.uleb128 0xb
 1855 00e2 01       		.uleb128 0x1
 1856 00e3 13       		.uleb128 0x13
 1857 00e4 00       		.byte	0
 1858 00e5 00       		.byte	0
 1859 00e6 13       		.uleb128 0x13
 1860 00e7 17       		.uleb128 0x17
 1861 00e8 01       		.byte	0x1
 1862 00e9 0B       		.uleb128 0xb
 1863 00ea 0B       		.uleb128 0xb
 1864 00eb 3A       		.uleb128 0x3a
 1865 00ec 0B       		.uleb128 0xb
 1866 00ed 3B       		.uleb128 0x3b
 1867 00ee 0B       		.uleb128 0xb
 1868 00ef 01       		.uleb128 0x1
 1869 00f0 13       		.uleb128 0x13
 1870 00f1 00       		.byte	0
 1871 00f2 00       		.byte	0
 1872 00f3 14       		.uleb128 0x14
 1873 00f4 0D       		.uleb128 0xd
 1874 00f5 00       		.byte	0
 1875 00f6 03       		.uleb128 0x3
 1876 00f7 0E       		.uleb128 0xe
 1877 00f8 3A       		.uleb128 0x3a
 1878 00f9 0B       		.uleb128 0xb
 1879 00fa 3B       		.uleb128 0x3b
 1880 00fb 0B       		.uleb128 0xb
 1881 00fc 49       		.uleb128 0x49
ARM GAS  C:\cygwin64\tmp\ccslDetg.s 			page 34


 1882 00fd 13       		.uleb128 0x13
 1883 00fe 00       		.byte	0
 1884 00ff 00       		.byte	0
 1885 0100 15       		.uleb128 0x15
 1886 0101 0D       		.uleb128 0xd
 1887 0102 00       		.byte	0
 1888 0103 03       		.uleb128 0x3
 1889 0104 0E       		.uleb128 0xe
 1890 0105 3A       		.uleb128 0x3a
 1891 0106 0B       		.uleb128 0xb
 1892 0107 3B       		.uleb128 0x3b
 1893 0108 05       		.uleb128 0x5
 1894 0109 49       		.uleb128 0x49
 1895 010a 13       		.uleb128 0x13
 1896 010b 00       		.byte	0
 1897 010c 00       		.byte	0
 1898 010d 16       		.uleb128 0x16
 1899 010e 26       		.uleb128 0x26
 1900 010f 00       		.byte	0
 1901 0110 49       		.uleb128 0x49
 1902 0111 13       		.uleb128 0x13
 1903 0112 00       		.byte	0
 1904 0113 00       		.byte	0
 1905 0114 17       		.uleb128 0x17
 1906 0115 34       		.uleb128 0x34
 1907 0116 00       		.byte	0
 1908 0117 03       		.uleb128 0x3
 1909 0118 08       		.uleb128 0x8
 1910 0119 3A       		.uleb128 0x3a
 1911 011a 0B       		.uleb128 0xb
 1912 011b 3B       		.uleb128 0x3b
 1913 011c 05       		.uleb128 0x5
 1914 011d 49       		.uleb128 0x49
 1915 011e 13       		.uleb128 0x13
 1916 011f 3F       		.uleb128 0x3f
 1917 0120 19       		.uleb128 0x19
 1918 0121 3C       		.uleb128 0x3c
 1919 0122 19       		.uleb128 0x19
 1920 0123 00       		.byte	0
 1921 0124 00       		.byte	0
 1922 0125 18       		.uleb128 0x18
 1923 0126 01       		.uleb128 0x1
 1924 0127 01       		.byte	0x1
 1925 0128 49       		.uleb128 0x49
 1926 0129 13       		.uleb128 0x13
 1927 012a 01       		.uleb128 0x1
 1928 012b 13       		.uleb128 0x13
 1929 012c 00       		.byte	0
 1930 012d 00       		.byte	0
 1931 012e 19       		.uleb128 0x19
 1932 012f 21       		.uleb128 0x21
 1933 0130 00       		.byte	0
 1934 0131 00       		.byte	0
 1935 0132 00       		.byte	0
 1936 0133 1A       		.uleb128 0x1a
 1937 0134 21       		.uleb128 0x21
 1938 0135 00       		.byte	0
ARM GAS  C:\cygwin64\tmp\ccslDetg.s 			page 35


 1939 0136 49       		.uleb128 0x49
 1940 0137 13       		.uleb128 0x13
 1941 0138 2F       		.uleb128 0x2f
 1942 0139 0B       		.uleb128 0xb
 1943 013a 00       		.byte	0
 1944 013b 00       		.byte	0
 1945 013c 1B       		.uleb128 0x1b
 1946 013d 2E       		.uleb128 0x2e
 1947 013e 01       		.byte	0x1
 1948 013f 3F       		.uleb128 0x3f
 1949 0140 19       		.uleb128 0x19
 1950 0141 03       		.uleb128 0x3
 1951 0142 0E       		.uleb128 0xe
 1952 0143 3A       		.uleb128 0x3a
 1953 0144 0B       		.uleb128 0xb
 1954 0145 3B       		.uleb128 0x3b
 1955 0146 0B       		.uleb128 0xb
 1956 0147 27       		.uleb128 0x27
 1957 0148 19       		.uleb128 0x19
 1958 0149 11       		.uleb128 0x11
 1959 014a 01       		.uleb128 0x1
 1960 014b 12       		.uleb128 0x12
 1961 014c 06       		.uleb128 0x6
 1962 014d 40       		.uleb128 0x40
 1963 014e 18       		.uleb128 0x18
 1964 014f 9742     		.uleb128 0x2117
 1965 0151 19       		.uleb128 0x19
 1966 0152 01       		.uleb128 0x1
 1967 0153 13       		.uleb128 0x13
 1968 0154 00       		.byte	0
 1969 0155 00       		.byte	0
 1970 0156 1C       		.uleb128 0x1c
 1971 0157 898201   		.uleb128 0x4109
 1972 015a 00       		.byte	0
 1973 015b 11       		.uleb128 0x11
 1974 015c 01       		.uleb128 0x1
 1975 015d 9542     		.uleb128 0x2115
 1976 015f 19       		.uleb128 0x19
 1977 0160 31       		.uleb128 0x31
 1978 0161 13       		.uleb128 0x13
 1979 0162 00       		.byte	0
 1980 0163 00       		.byte	0
 1981 0164 1D       		.uleb128 0x1d
 1982 0165 05       		.uleb128 0x5
 1983 0166 00       		.byte	0
 1984 0167 03       		.uleb128 0x3
 1985 0168 08       		.uleb128 0x8
 1986 0169 3A       		.uleb128 0x3a
 1987 016a 0B       		.uleb128 0xb
 1988 016b 3B       		.uleb128 0x3b
 1989 016c 0B       		.uleb128 0xb
 1990 016d 49       		.uleb128 0x49
 1991 016e 13       		.uleb128 0x13
 1992 016f 02       		.uleb128 0x2
 1993 0170 17       		.uleb128 0x17
 1994 0171 00       		.byte	0
 1995 0172 00       		.byte	0
ARM GAS  C:\cygwin64\tmp\ccslDetg.s 			page 36


 1996 0173 1E       		.uleb128 0x1e
 1997 0174 898201   		.uleb128 0x4109
 1998 0177 01       		.byte	0x1
 1999 0178 11       		.uleb128 0x11
 2000 0179 01       		.uleb128 0x1
 2001 017a 9542     		.uleb128 0x2115
 2002 017c 19       		.uleb128 0x19
 2003 017d 31       		.uleb128 0x31
 2004 017e 13       		.uleb128 0x13
 2005 017f 00       		.byte	0
 2006 0180 00       		.byte	0
 2007 0181 1F       		.uleb128 0x1f
 2008 0182 8A8201   		.uleb128 0x410a
 2009 0185 00       		.byte	0
 2010 0186 02       		.uleb128 0x2
 2011 0187 18       		.uleb128 0x18
 2012 0188 9142     		.uleb128 0x2111
 2013 018a 18       		.uleb128 0x18
 2014 018b 00       		.byte	0
 2015 018c 00       		.byte	0
 2016 018d 20       		.uleb128 0x20
 2017 018e 1D       		.uleb128 0x1d
 2018 018f 01       		.byte	0x1
 2019 0190 31       		.uleb128 0x31
 2020 0191 13       		.uleb128 0x13
 2021 0192 11       		.uleb128 0x11
 2022 0193 01       		.uleb128 0x1
 2023 0194 12       		.uleb128 0x12
 2024 0195 06       		.uleb128 0x6
 2025 0196 58       		.uleb128 0x58
 2026 0197 0B       		.uleb128 0xb
 2027 0198 59       		.uleb128 0x59
 2028 0199 0B       		.uleb128 0xb
 2029 019a 01       		.uleb128 0x1
 2030 019b 13       		.uleb128 0x13
 2031 019c 00       		.byte	0
 2032 019d 00       		.byte	0
 2033 019e 21       		.uleb128 0x21
 2034 019f 1D       		.uleb128 0x1d
 2035 01a0 01       		.byte	0x1
 2036 01a1 31       		.uleb128 0x31
 2037 01a2 13       		.uleb128 0x13
 2038 01a3 11       		.uleb128 0x11
 2039 01a4 01       		.uleb128 0x1
 2040 01a5 12       		.uleb128 0x12
 2041 01a6 06       		.uleb128 0x6
 2042 01a7 58       		.uleb128 0x58
 2043 01a8 0B       		.uleb128 0xb
 2044 01a9 59       		.uleb128 0x59
 2045 01aa 05       		.uleb128 0x5
 2046 01ab 00       		.byte	0
 2047 01ac 00       		.byte	0
 2048 01ad 22       		.uleb128 0x22
 2049 01ae 05       		.uleb128 0x5
 2050 01af 00       		.byte	0
 2051 01b0 31       		.uleb128 0x31
 2052 01b1 13       		.uleb128 0x13
ARM GAS  C:\cygwin64\tmp\ccslDetg.s 			page 37


 2053 01b2 02       		.uleb128 0x2
 2054 01b3 17       		.uleb128 0x17
 2055 01b4 00       		.byte	0
 2056 01b5 00       		.byte	0
 2057 01b6 23       		.uleb128 0x23
 2058 01b7 1D       		.uleb128 0x1d
 2059 01b8 01       		.byte	0x1
 2060 01b9 31       		.uleb128 0x31
 2061 01ba 13       		.uleb128 0x13
 2062 01bb 11       		.uleb128 0x11
 2063 01bc 01       		.uleb128 0x1
 2064 01bd 12       		.uleb128 0x12
 2065 01be 06       		.uleb128 0x6
 2066 01bf 58       		.uleb128 0x58
 2067 01c0 0B       		.uleb128 0xb
 2068 01c1 59       		.uleb128 0x59
 2069 01c2 0B       		.uleb128 0xb
 2070 01c3 00       		.byte	0
 2071 01c4 00       		.byte	0
 2072 01c5 24       		.uleb128 0x24
 2073 01c6 898201   		.uleb128 0x4109
 2074 01c9 01       		.byte	0x1
 2075 01ca 11       		.uleb128 0x11
 2076 01cb 01       		.uleb128 0x1
 2077 01cc 31       		.uleb128 0x31
 2078 01cd 13       		.uleb128 0x13
 2079 01ce 01       		.uleb128 0x1
 2080 01cf 13       		.uleb128 0x13
 2081 01d0 00       		.byte	0
 2082 01d1 00       		.byte	0
 2083 01d2 25       		.uleb128 0x25
 2084 01d3 2E       		.uleb128 0x2e
 2085 01d4 00       		.byte	0
 2086 01d5 03       		.uleb128 0x3
 2087 01d6 0E       		.uleb128 0xe
 2088 01d7 3A       		.uleb128 0x3a
 2089 01d8 0B       		.uleb128 0xb
 2090 01d9 3B       		.uleb128 0x3b
 2091 01da 05       		.uleb128 0x5
 2092 01db 27       		.uleb128 0x27
 2093 01dc 19       		.uleb128 0x19
 2094 01dd 20       		.uleb128 0x20
 2095 01de 0B       		.uleb128 0xb
 2096 01df 00       		.byte	0
 2097 01e0 00       		.byte	0
 2098 01e1 26       		.uleb128 0x26
 2099 01e2 2E       		.uleb128 0x2e
 2100 01e3 01       		.byte	0x1
 2101 01e4 03       		.uleb128 0x3
 2102 01e5 0E       		.uleb128 0xe
 2103 01e6 3A       		.uleb128 0x3a
 2104 01e7 0B       		.uleb128 0xb
 2105 01e8 3B       		.uleb128 0x3b
 2106 01e9 05       		.uleb128 0x5
 2107 01ea 27       		.uleb128 0x27
 2108 01eb 19       		.uleb128 0x19
 2109 01ec 20       		.uleb128 0x20
ARM GAS  C:\cygwin64\tmp\ccslDetg.s 			page 38


 2110 01ed 0B       		.uleb128 0xb
 2111 01ee 01       		.uleb128 0x1
 2112 01ef 13       		.uleb128 0x13
 2113 01f0 00       		.byte	0
 2114 01f1 00       		.byte	0
 2115 01f2 27       		.uleb128 0x27
 2116 01f3 05       		.uleb128 0x5
 2117 01f4 00       		.byte	0
 2118 01f5 03       		.uleb128 0x3
 2119 01f6 0E       		.uleb128 0xe
 2120 01f7 3A       		.uleb128 0x3a
 2121 01f8 0B       		.uleb128 0xb
 2122 01f9 3B       		.uleb128 0x3b
 2123 01fa 05       		.uleb128 0x5
 2124 01fb 49       		.uleb128 0x49
 2125 01fc 13       		.uleb128 0x13
 2126 01fd 00       		.byte	0
 2127 01fe 00       		.byte	0
 2128 01ff 28       		.uleb128 0x28
 2129 0200 2E       		.uleb128 0x2e
 2130 0201 00       		.byte	0
 2131 0202 3F       		.uleb128 0x3f
 2132 0203 19       		.uleb128 0x19
 2133 0204 3C       		.uleb128 0x3c
 2134 0205 19       		.uleb128 0x19
 2135 0206 6E       		.uleb128 0x6e
 2136 0207 0E       		.uleb128 0xe
 2137 0208 03       		.uleb128 0x3
 2138 0209 0E       		.uleb128 0xe
 2139 020a 3A       		.uleb128 0x3a
 2140 020b 0B       		.uleb128 0xb
 2141 020c 3B       		.uleb128 0x3b
 2142 020d 0B       		.uleb128 0xb
 2143 020e 00       		.byte	0
 2144 020f 00       		.byte	0
 2145 0210 00       		.byte	0
 2146              		.section	.debug_loc,"",%progbits
 2147              	.Ldebug_loc0:
 2148              	.LLST2:
 2149 0000 00000000 		.4byte	.LVL6
 2150 0004 16000000 		.4byte	.LVL8
 2151 0008 0100     		.2byte	0x1
 2152 000a 50       		.byte	0x50
 2153 000b 16000000 		.4byte	.LVL8
 2154 000f 19000000 		.4byte	.LVL9-1
 2155 0013 0400     		.2byte	0x4
 2156 0015 71       		.byte	0x71
 2157 0016 B87F     		.sleb128 -72
 2158 0018 9F       		.byte	0x9f
 2159 0019 19000000 		.4byte	.LVL9-1
 2160 001d 20000000 		.4byte	.LFE248
 2161 0021 0400     		.2byte	0x4
 2162 0023 F3       		.byte	0xf3
 2163 0024 01       		.uleb128 0x1
 2164 0025 50       		.byte	0x50
 2165 0026 9F       		.byte	0x9f
 2166 0027 00000000 		.4byte	0
ARM GAS  C:\cygwin64\tmp\ccslDetg.s 			page 39


 2167 002b 00000000 		.4byte	0
 2168              	.LLST3:
 2169 002f 00000000 		.4byte	.LVL6
 2170 0033 14000000 		.4byte	.LVL7
 2171 0037 0100     		.2byte	0x1
 2172 0039 51       		.byte	0x51
 2173 003a 14000000 		.4byte	.LVL7
 2174 003e 19000000 		.4byte	.LVL9-1
 2175 0042 0400     		.2byte	0x4
 2176 0044 73       		.byte	0x73
 2177 0045 B87F     		.sleb128 -72
 2178 0047 9F       		.byte	0x9f
 2179 0048 19000000 		.4byte	.LVL9-1
 2180 004c 20000000 		.4byte	.LFE248
 2181 0050 0400     		.2byte	0x4
 2182 0052 F3       		.byte	0xf3
 2183 0053 01       		.uleb128 0x1
 2184 0054 51       		.byte	0x51
 2185 0055 9F       		.byte	0x9f
 2186 0056 00000000 		.4byte	0
 2187 005a 00000000 		.4byte	0
 2188              	.LLST0:
 2189 005e 00000000 		.4byte	.LVL2
 2190 0062 06000000 		.4byte	.LVL3
 2191 0066 0300     		.2byte	0x3
 2192 0068 08       		.byte	0x8
 2193 0069 20       		.byte	0x20
 2194 006a 9F       		.byte	0x9f
 2195 006b 00000000 		.4byte	0
 2196 006f 00000000 		.4byte	0
 2197              	.LLST1:
 2198 0073 12000000 		.4byte	.LVL4
 2199 0077 18000000 		.4byte	.LVL5
 2200 007b 0200     		.2byte	0x2
 2201 007d 30       		.byte	0x30
 2202 007e 9F       		.byte	0x9f
 2203 007f 00000000 		.4byte	0
 2204 0083 00000000 		.4byte	0
 2205              		.section	.debug_aranges,"",%progbits
 2206 0000 4C000000 		.4byte	0x4c
 2207 0004 0200     		.2byte	0x2
 2208 0006 00000000 		.4byte	.Ldebug_info0
 2209 000a 04       		.byte	0x4
 2210 000b 00       		.byte	0
 2211 000c 0000     		.2byte	0
 2212 000e 0000     		.2byte	0
 2213 0010 00000000 		.4byte	.LFB246
 2214 0014 28000000 		.4byte	.LFE246-.LFB246
 2215 0018 00000000 		.4byte	.LFB247
 2216 001c 20000000 		.4byte	.LFE247-.LFB247
 2217 0020 00000000 		.4byte	.LFB248
 2218 0024 20000000 		.4byte	.LFE248-.LFB248
 2219 0028 00000000 		.4byte	.LFB249
 2220 002c 0C000000 		.4byte	.LFE249-.LFB249
 2221 0030 00000000 		.4byte	.LFB250
 2222 0034 0C000000 		.4byte	.LFE250-.LFB250
 2223 0038 00000000 		.4byte	.LFB251
ARM GAS  C:\cygwin64\tmp\ccslDetg.s 			page 40


 2224 003c 0C000000 		.4byte	.LFE251-.LFB251
 2225 0040 00000000 		.4byte	.LFB252
 2226 0044 0C000000 		.4byte	.LFE252-.LFB252
 2227 0048 00000000 		.4byte	0
 2228 004c 00000000 		.4byte	0
 2229              		.section	.debug_ranges,"",%progbits
 2230              	.Ldebug_ranges0:
 2231 0000 00000000 		.4byte	.LFB246
 2232 0004 28000000 		.4byte	.LFE246
 2233 0008 00000000 		.4byte	.LFB247
 2234 000c 20000000 		.4byte	.LFE247
 2235 0010 00000000 		.4byte	.LFB248
 2236 0014 20000000 		.4byte	.LFE248
 2237 0018 00000000 		.4byte	.LFB249
 2238 001c 0C000000 		.4byte	.LFE249
 2239 0020 00000000 		.4byte	.LFB250
 2240 0024 0C000000 		.4byte	.LFE250
 2241 0028 00000000 		.4byte	.LFB251
 2242 002c 0C000000 		.4byte	.LFE251
 2243 0030 00000000 		.4byte	.LFB252
 2244 0034 0C000000 		.4byte	.LFE252
 2245 0038 00000000 		.4byte	0
 2246 003c 00000000 		.4byte	0
 2247              		.section	.debug_line,"",%progbits
 2248              	.Ldebug_line0:
 2249 0000 61030000 		.section	.debug_str,"MS",%progbits,1
 2249      0200CC02 
 2249      00000201 
 2249      FB0E0D00 
 2249      01010101 
 2250              	.LASF147:
 2251 0000 433A5C63 		.ascii	"C:\\cygwin64\\home\\calfan\\ardupilot\\build\\fmuv3"
 2251      79677769 
 2251      6E36345C 
 2251      686F6D65 
 2251      5C63616C 
 2252 002d 00       		.ascii	"\000"
 2253              	.LASF56:
 2254 002e 72656164 		.ascii	"ready_list_t\000"
 2254      795F6C69 
 2254      73745F74 
 2254      00
 2255              	.LASF98:
 2256 003b 77747472 		.ascii	"wttrp\000"
 2256      7000
 2257              	.LASF62:
 2258 0041 64656C74 		.ascii	"delta\000"
 2258      6100
 2259              	.LASF95:
 2260 0047 7264796D 		.ascii	"rdymsg\000"
 2260      736700
 2261              	.LASF19:
 2262 004e 75696E74 		.ascii	"uint64_t\000"
 2262      36345F74 
 2262      00
 2263              	.LASF75:
 2264 0057 6B65726E 		.ascii	"kernel_stats\000"
ARM GAS  C:\cygwin64\tmp\ccslDetg.s 			page 41


 2264      656C5F73 
 2264      74617473 
 2264      00
 2265              	.LASF6:
 2266 0064 5F5F7569 		.ascii	"__uint8_t\000"
 2266      6E74385F 
 2266      7400
 2267              	.LASF55:
 2268 006e 70726576 		.ascii	"prev\000"
 2268      00
 2269              	.LASF82:
 2270 0073 706F7274 		.ascii	"port_intctx\000"
 2270      5F696E74 
 2270      63747800 
 2271              	.LASF54:
 2272 007f 63685F74 		.ascii	"ch_threads_queue\000"
 2272      68726561 
 2272      64735F71 
 2272      75657565 
 2272      00
 2273              	.LASF67:
 2274 0090 73797374 		.ascii	"system_debug_t\000"
 2274      656D5F64 
 2274      65627567 
 2274      5F7400
 2275              	.LASF140:
 2276 009f 706F7274 		.ascii	"port_lock\000"
 2276      5F6C6F63 
 2276      6B00
 2277              	.LASF86:
 2278 00a9 776F7273 		.ascii	"worst\000"
 2278      7400
 2279              	.LASF89:
 2280 00af 74696D65 		.ascii	"time_measurement_t\000"
 2280      5F6D6561 
 2280      73757265 
 2280      6D656E74 
 2280      5F7400
 2281              	.LASF14:
 2282 00c2 6C6F6E67 		.ascii	"long long unsigned int\000"
 2282      206C6F6E 
 2282      6720756E 
 2282      7369676E 
 2282      65642069 
 2283              	.LASF96:
 2284 00d9 65786974 		.ascii	"exitcode\000"
 2284      636F6465 
 2284      00
 2285              	.LASF74:
 2286 00e2 6D61696E 		.ascii	"mainthread\000"
 2286      74687265 
 2286      616400
 2287              	.LASF99:
 2288 00ed 73656E74 		.ascii	"sentmsg\000"
 2288      6D736700 
 2289              	.LASF64:
 2290 00f5 76697274 		.ascii	"virtual_timers_list_t\000"
ARM GAS  C:\cygwin64\tmp\ccslDetg.s 			page 42


 2290      75616C5F 
 2290      74696D65 
 2290      72735F6C 
 2290      6973745F 
 2291              	.LASF144:
 2292 010b 6368544D 		.ascii	"chTMObjectInit\000"
 2292      4F626A65 
 2292      6374496E 
 2292      697400
 2293              	.LASF52:
 2294 011a 6E657874 		.ascii	"next\000"
 2294      00
 2295              	.LASF21:
 2296 011f 72747469 		.ascii	"rttime_t\000"
 2296      6D655F74 
 2296      00
 2297              	.LASF1:
 2298 0128 6C6F6E67 		.ascii	"long long int\000"
 2298      206C6F6E 
 2298      6720696E 
 2298      7400
 2299              	.LASF3:
 2300 0136 7369676E 		.ascii	"signed char\000"
 2300      65642063 
 2300      68617200 
 2301              	.LASF110:
 2302 0142 73697A65 		.ascii	"size\000"
 2302      00
 2303              	.LASF145:
 2304 0147 474E5520 		.ascii	"GNU C11 6.3.1 20170620 (release) [ARM/embedded-6-br"
 2304      43313120 
 2304      362E332E 
 2304      31203230 
 2304      31373036 
 2305 017a 616E6368 		.ascii	"anch revision 249437] -mcpu=cortex-m4 -mfloat-abi=h"
 2305      20726576 
 2305      6973696F 
 2305      6E203234 
 2305      39343337 
 2306 01ad 61726420 		.ascii	"ard -mfpu=fpv4-sp-d16 -mno-thumb-interwork -mthumb "
 2306      2D6D6670 
 2306      753D6670 
 2306      76342D73 
 2306      702D6431 
 2307 01e0 2D67202D 		.ascii	"-g -Os -fomit-frame-pointer -falign-functions=16 -f"
 2307      4F73202D 
 2307      666F6D69 
 2307      742D6672 
 2307      616D652D 
 2308 0213 66756E63 		.ascii	"function-sections -fdata-sections -fno-common -fsin"
 2308      74696F6E 
 2308      2D736563 
 2308      74696F6E 
 2308      73202D66 
 2309 0246 676C652D 		.ascii	"gle-precision-constant\000"
 2309      70726563 
 2309      6973696F 
ARM GAS  C:\cygwin64\tmp\ccslDetg.s 			page 43


 2309      6E2D636F 
 2309      6E737461 
 2310              	.LASF73:
 2311 025d 76746C69 		.ascii	"vtlist\000"
 2311      737400
 2312              	.LASF139:
 2313 0264 706F7274 		.ascii	"port_unlock\000"
 2313      5F756E6C 
 2313      6F636B00 
 2314              	.LASF142:
 2315 0270 6368544D 		.ascii	"chTMStartMeasurementX\000"
 2315      53746172 
 2315      744D6561 
 2315      73757265 
 2315      6D656E74 
 2316              	.LASF38:
 2317 0286 73746174 		.ascii	"state\000"
 2317      6500
 2318              	.LASF141:
 2319 028c 6368544D 		.ascii	"chTMStopMeasurementX\000"
 2319      53746F70 
 2319      4D656173 
 2319      7572656D 
 2319      656E7458 
 2320              	.LASF10:
 2321 02a1 6C6F6E67 		.ascii	"long int\000"
 2321      20696E74 
 2321      00
 2322              	.LASF23:
 2323 02aa 74737461 		.ascii	"tstate_t\000"
 2323      74655F74 
 2323      00
 2324              	.LASF63:
 2325 02b3 66756E63 		.ascii	"func\000"
 2325      00
 2326              	.LASF47:
 2327 02b8 73746174 		.ascii	"stats\000"
 2327      7300
 2328              	.LASF126:
 2329 02be 63686465 		.ascii	"chdebug_t\000"
 2329      6275675F 
 2329      7400
 2330              	.LASF124:
 2331 02c8 6F66665F 		.ascii	"off_preempt\000"
 2331      70726565 
 2331      6D707400 
 2332              	.LASF11:
 2333 02d4 5F5F7569 		.ascii	"__uint32_t\000"
 2333      6E743332 
 2333      5F7400
 2334              	.LASF79:
 2335 02df 72656761 		.ascii	"regarm_t\000"
 2335      726D5F74 
 2335      00
 2336              	.LASF68:
 2337 02e8 63685F73 		.ascii	"ch_system_debug\000"
 2337      79737465 
ARM GAS  C:\cygwin64\tmp\ccslDetg.s 			page 44


 2337      6D5F6465 
 2337      62756700 
 2338              	.LASF41:
 2339 02f8 77616974 		.ascii	"waiting\000"
 2339      696E6700 
 2340              	.LASF109:
 2341 0300 7A65726F 		.ascii	"zero\000"
 2341      00
 2342              	.LASF128:
 2343 0305 6D757465 		.ascii	"mutex_t\000"
 2343      785F7400 
 2344              	.LASF149:
 2345 030d 76616C75 		.ascii	"value\000"
 2345      6500
 2346              	.LASF28:
 2347 0313 636E745F 		.ascii	"cnt_t\000"
 2347      7400
 2348              	.LASF42:
 2349 0319 6D736771 		.ascii	"msgqueue\000"
 2349      75657565 
 2349      00
 2350              	.LASF0:
 2351 0322 756E7369 		.ascii	"unsigned int\000"
 2351      676E6564 
 2351      20696E74 
 2351      00
 2352              	.LASF16:
 2353 032f 75696E74 		.ascii	"uint16_t\000"
 2353      31365F74 
 2353      00
 2354              	.LASF78:
 2355 0338 53797374 		.ascii	"SystemCoreClock\000"
 2355      656D436F 
 2355      7265436C 
 2355      6F636B00 
 2356              	.LASF100:
 2357 0348 77747365 		.ascii	"wtsemp\000"
 2357      6D7000
 2358              	.LASF127:
 2359 034f 63685F64 		.ascii	"ch_debug\000"
 2359      65627567 
 2359      00
 2360              	.LASF90:
 2361 0358 6E5F6972 		.ascii	"n_irq\000"
 2361      7100
 2362              	.LASF32:
 2363 035e 71756575 		.ascii	"queue\000"
 2363      6500
 2364              	.LASF46:
 2365 0364 6D706F6F 		.ascii	"mpool\000"
 2365      6C00
 2366              	.LASF123:
 2367 036a 6F66665F 		.ascii	"off_refs\000"
 2367      72656673 
 2367      00
 2368              	.LASF94:
 2369 0373 6B65726E 		.ascii	"kernel_stats_t\000"
ARM GAS  C:\cygwin64\tmp\ccslDetg.s 			page 45


 2369      656C5F73 
 2369      74617473 
 2369      5F7400
 2370              	.LASF36:
 2371 0382 6E616D65 		.ascii	"name\000"
 2371      00
 2372              	.LASF50:
 2373 0387 63685F74 		.ascii	"ch_thread\000"
 2373      68726561 
 2373      6400
 2374              	.LASF26:
 2375 0391 6D73675F 		.ascii	"msg_t\000"
 2375      7400
 2376              	.LASF87:
 2377 0397 6C617374 		.ascii	"last\000"
 2377      00
 2378              	.LASF29:
 2379 039c 75636E74 		.ascii	"ucnt_t\000"
 2379      5F7400
 2380              	.LASF43:
 2381 03a3 6570656E 		.ascii	"epending\000"
 2381      64696E67 
 2381      00
 2382              	.LASF70:
 2383 03ac 63685F73 		.ascii	"ch_system_t\000"
 2383      79737465 
 2383      6D5F7400 
 2384              	.LASF116:
 2385 03b8 6F66665F 		.ascii	"off_ctx\000"
 2385      63747800 
 2386              	.LASF22:
 2387 03c0 746D6F64 		.ascii	"tmode_t\000"
 2387      655F7400 
 2388              	.LASF93:
 2389 03c8 6D5F6372 		.ascii	"m_crit_isr\000"
 2389      69745F69 
 2389      737200
 2390              	.LASF57:
 2391 03d3 63685F72 		.ascii	"ch_ready_list\000"
 2391      65616479 
 2391      5F6C6973 
 2391      7400
 2392              	.LASF27:
 2393 03e1 6576656E 		.ascii	"eventmask_t\000"
 2393      746D6173 
 2393      6B5F7400 
 2394              	.LASF119:
 2395 03ed 6F66665F 		.ascii	"off_name\000"
 2395      6E616D65 
 2395      00
 2396              	.LASF143:
 2397 03f6 6368544D 		.ascii	"chTMChainMeasurementToX\000"
 2397      43686169 
 2397      6E4D6561 
 2397      73757265 
 2397      6D656E74 
 2398              	.LASF80:
ARM GAS  C:\cygwin64\tmp\ccslDetg.s 			page 46


 2399 040e 73746B61 		.ascii	"stkalign_t\000"
 2399      6C69676E 
 2399      5F7400
 2400              	.LASF34:
 2401 0419 6E657765 		.ascii	"newer\000"
 2401      7200
 2402              	.LASF45:
 2403 041f 7265616C 		.ascii	"realprio\000"
 2403      7072696F 
 2403      00
 2404              	.LASF111:
 2405 0428 76657273 		.ascii	"version\000"
 2405      696F6E00 
 2406              	.LASF132:
 2407 0430 5F737461 		.ascii	"_stats_stop_measure_crit_thd\000"
 2407      74735F73 
 2407      746F705F 
 2407      6D656173 
 2407      7572655F 
 2408              	.LASF76:
 2409 044d 73697A65 		.ascii	"sizetype\000"
 2409      74797065 
 2409      00
 2410              	.LASF48:
 2411 0456 74687265 		.ascii	"thread_reference_t\000"
 2411      61645F72 
 2411      65666572 
 2411      656E6365 
 2411      5F7400
 2412              	.LASF65:
 2413 0469 63685F76 		.ascii	"ch_virtual_timers_list\000"
 2413      69727475 
 2413      616C5F74 
 2413      696D6572 
 2413      735F6C69 
 2414              	.LASF2:
 2415 0480 6C6F6E67 		.ascii	"long double\000"
 2415      20646F75 
 2415      626C6500 
 2416              	.LASF117:
 2417 048c 6F66665F 		.ascii	"off_newer\000"
 2417      6E657765 
 2417      7200
 2418              	.LASF81:
 2419 0496 706F7274 		.ascii	"port_context\000"
 2419      5F636F6E 
 2419      74657874 
 2419      00
 2420              	.LASF84:
 2421 04a3 746D5F63 		.ascii	"tm_calibration_t\000"
 2421      616C6962 
 2421      72617469 
 2421      6F6E5F74 
 2421      00
 2422              	.LASF33:
 2423 04b4 7072696F 		.ascii	"prio\000"
 2423      00
ARM GAS  C:\cygwin64\tmp\ccslDetg.s 			page 47


 2424              	.LASF131:
 2425 04b9 5F737461 		.ascii	"_stats_start_measure_crit_isr\000"
 2425      74735F73 
 2425      74617274 
 2425      5F6D6561 
 2425      73757265 
 2426              	.LASF58:
 2427 04d7 63757272 		.ascii	"current\000"
 2427      656E7400 
 2428              	.LASF13:
 2429 04df 5F5F7569 		.ascii	"__uint64_t\000"
 2429      6E743634 
 2429      5F7400
 2430              	.LASF88:
 2431 04ea 63756D75 		.ascii	"cumulative\000"
 2431      6C617469 
 2431      766500
 2432              	.LASF24:
 2433 04f5 74726566 		.ascii	"trefs_t\000"
 2433      735F7400 
 2434              	.LASF114:
 2435 04fd 74687265 		.ascii	"threadsize\000"
 2435      61647369 
 2435      7A6500
 2436              	.LASF40:
 2437 0508 72656673 		.ascii	"refs\000"
 2437      00
 2438              	.LASF60:
 2439 050d 76697274 		.ascii	"virtual_timer_t\000"
 2439      75616C5F 
 2439      74696D65 
 2439      725F7400 
 2440              	.LASF25:
 2441 051d 74707269 		.ascii	"tprio_t\000"
 2441      6F5F7400 
 2442              	.LASF91:
 2443 0525 6E5F6374 		.ascii	"n_ctxswc\000"
 2443      78737763 
 2443      00
 2444              	.LASF129:
 2445 052e 5F426F6F 		.ascii	"_Bool\000"
 2445      6C00
 2446              	.LASF17:
 2447 0534 696E7433 		.ascii	"int32_t\000"
 2447      325F7400 
 2448              	.LASF4:
 2449 053c 756E7369 		.ascii	"unsigned char\000"
 2449      676E6564 
 2449      20636861 
 2449      7200
 2450              	.LASF115:
 2451 054a 6F66665F 		.ascii	"off_prio\000"
 2451      7072696F 
 2451      00
 2452              	.LASF120:
 2453 0553 6F66665F 		.ascii	"off_stklimit\000"
 2453      73746B6C 
ARM GAS  C:\cygwin64\tmp\ccslDetg.s 			page 48


 2453      696D6974 
 2453      00
 2454              	.LASF77:
 2455 0560 49544D5F 		.ascii	"ITM_RxBuffer\000"
 2455      52784275 
 2455      66666572 
 2455      00
 2456              	.LASF5:
 2457 056d 73686F72 		.ascii	"short int\000"
 2457      7420696E 
 2457      7400
 2458              	.LASF66:
 2459 0577 6C617374 		.ascii	"lasttime\000"
 2459      74696D65 
 2459      00
 2460              	.LASF102:
 2461 0580 65776D61 		.ascii	"ewmask\000"
 2461      736B00
 2462              	.LASF71:
 2463 0587 63685F73 		.ascii	"ch_system\000"
 2463      79737465 
 2463      6D00
 2464              	.LASF61:
 2465 0591 63685F76 		.ascii	"ch_virtual_timer\000"
 2465      69727475 
 2465      616C5F74 
 2465      696D6572 
 2465      00
 2466              	.LASF103:
 2467 05a2 63685F73 		.ascii	"ch_semaphore\000"
 2467      656D6170 
 2467      686F7265 
 2467      00
 2468              	.LASF125:
 2469 05af 6F66665F 		.ascii	"off_time\000"
 2469      74696D65 
 2469      00
 2470              	.LASF107:
 2471 05b8 63685F69 		.ascii	"ch_idle_thread_wa\000"
 2471      646C655F 
 2471      74687265 
 2471      61645F77 
 2471      6100
 2472              	.LASF113:
 2473 05ca 74696D65 		.ascii	"timesize\000"
 2473      73697A65 
 2473      00
 2474              	.LASF18:
 2475 05d3 75696E74 		.ascii	"uint32_t\000"
 2475      33325F74 
 2475      00
 2476              	.LASF135:
 2477 05dc 5F737461 		.ascii	"_stats_increase_irq\000"
 2477      74735F69 
 2477      6E637265 
 2477      6173655F 
 2477      69727100 
ARM GAS  C:\cygwin64\tmp\ccslDetg.s 			page 49


 2478              	.LASF51:
 2479 05f0 63685F74 		.ascii	"ch_threads_list\000"
 2479      68726561 
 2479      64735F6C 
 2479      69737400 
 2480              	.LASF105:
 2481 0600 6F776E65 		.ascii	"owner\000"
 2481      7200
 2482              	.LASF12:
 2483 0606 6C6F6E67 		.ascii	"long unsigned int\000"
 2483      20756E73 
 2483      69676E65 
 2483      6420696E 
 2483      7400
 2484              	.LASF37:
 2485 0618 77616261 		.ascii	"wabase\000"
 2485      736500
 2486              	.LASF106:
 2487 061f 63686172 		.ascii	"char\000"
 2487      00
 2488              	.LASF35:
 2489 0624 6F6C6465 		.ascii	"older\000"
 2489      7200
 2490              	.LASF9:
 2491 062a 5F5F696E 		.ascii	"__int32_t\000"
 2491      7433325F 
 2491      7400
 2492              	.LASF101:
 2493 0634 77746D74 		.ascii	"wtmtxp\000"
 2493      787000
 2494              	.LASF7:
 2495 063b 5F5F7569 		.ascii	"__uint16_t\000"
 2495      6E743136 
 2495      5F7400
 2496              	.LASF137:
 2497 0646 706F7274 		.ascii	"port_unlock_from_isr\000"
 2497      5F756E6C 
 2497      6F636B5F 
 2497      66726F6D 
 2497      5F697372 
 2498              	.LASF31:
 2499 065b 74687265 		.ascii	"thread_t\000"
 2499      61645F74 
 2499      00
 2500              	.LASF85:
 2501 0664 62657374 		.ascii	"best\000"
 2501      00
 2502              	.LASF30:
 2503 0669 73797374 		.ascii	"systime_t\000"
 2503      696D655F 
 2503      7400
 2504              	.LASF59:
 2505 0673 76746675 		.ascii	"vtfunc_t\000"
 2505      6E635F74 
 2505      00
 2506              	.LASF148:
 2507 067c 5F5F7365 		.ascii	"__set_BASEPRI\000"
ARM GAS  C:\cygwin64\tmp\ccslDetg.s 			page 50


 2507      745F4241 
 2507      53455052 
 2507      4900
 2508              	.LASF69:
 2509 068a 70616E69 		.ascii	"panic_msg\000"
 2509      635F6D73 
 2509      6700
 2510              	.LASF83:
 2511 0694 6F666673 		.ascii	"offset\000"
 2511      657400
 2512              	.LASF118:
 2513 069b 6F66665F 		.ascii	"off_older\000"
 2513      6F6C6465 
 2513      7200
 2514              	.LASF122:
 2515 06a5 6F66665F 		.ascii	"off_flags\000"
 2515      666C6167 
 2515      7300
 2516              	.LASF8:
 2517 06af 73686F72 		.ascii	"short unsigned int\000"
 2517      7420756E 
 2517      7369676E 
 2517      65642069 
 2517      6E7400
 2518              	.LASF108:
 2519 06c2 6964656E 		.ascii	"identifier\000"
 2519      74696669 
 2519      657200
 2520              	.LASF20:
 2521 06cd 7274636E 		.ascii	"rtcnt_t\000"
 2521      745F7400 
 2522              	.LASF138:
 2523 06d5 706F7274 		.ascii	"port_lock_from_isr\000"
 2523      5F6C6F63 
 2523      6B5F6672 
 2523      6F6D5F69 
 2523      737200
 2524              	.LASF112:
 2525 06e8 70747273 		.ascii	"ptrsize\000"
 2525      697A6500 
 2526              	.LASF53:
 2527 06f0 74687265 		.ascii	"threads_queue_t\000"
 2527      6164735F 
 2527      71756575 
 2527      655F7400 
 2528              	.LASF104:
 2529 0700 63685F6D 		.ascii	"ch_mutex\000"
 2529      75746578 
 2529      00
 2530              	.LASF72:
 2531 0709 726C6973 		.ascii	"rlist\000"
 2531      7400
 2532              	.LASF15:
 2533 070f 75696E74 		.ascii	"uint8_t\000"
 2533      385F7400 
 2534              	.LASF39:
 2535 0717 666C6167 		.ascii	"flags\000"
ARM GAS  C:\cygwin64\tmp\ccslDetg.s 			page 51


 2535      7300
 2536              	.LASF133:
 2537 071d 5F737461 		.ascii	"_stats_start_measure_crit_thd\000"
 2537      74735F73 
 2537      74617274 
 2537      5F6D6561 
 2537      73757265 
 2538              	.LASF134:
 2539 073b 5F737461 		.ascii	"_stats_ctxswc\000"
 2539      74735F63 
 2539      74787377 
 2539      6300
 2540              	.LASF97:
 2541 0749 77746F62 		.ascii	"wtobjp\000"
 2541      6A7000
 2542              	.LASF49:
 2543 0750 74687265 		.ascii	"threads_list_t\000"
 2543      6164735F 
 2543      6C697374 
 2543      5F7400
 2544              	.LASF121:
 2545 075f 6F66665F 		.ascii	"off_state\000"
 2545      73746174 
 2545      6500
 2546              	.LASF136:
 2547 0769 5F737461 		.ascii	"_stats_init\000"
 2547      74735F69 
 2547      6E697400 
 2548              	.LASF130:
 2549 0775 5F737461 		.ascii	"_stats_stop_measure_crit_isr\000"
 2549      74735F73 
 2549      746F705F 
 2549      6D656173 
 2549      7572655F 
 2550              	.LASF146:
 2551 0792 2E2E2F2E 		.ascii	"../../modules/ChibiOS/os/rt/src/chstats.c\000"
 2551      2E2F6D6F 
 2551      64756C65 
 2551      732F4368 
 2551      6962694F 
 2552              	.LASF44:
 2553 07bc 6D74786C 		.ascii	"mtxlist\000"
 2553      69737400 
 2554              	.LASF92:
 2555 07c4 6D5F6372 		.ascii	"m_crit_thd\000"
 2555      69745F74 
 2555      686400
 2556              		.ident	"GCC: (GNU Tools for ARM Embedded Processors 6-2017-q2-update) 6.3.1 20170620 (release) [AR
ARM GAS  C:\cygwin64\tmp\ccslDetg.s 			page 52


DEFINED SYMBOLS
                            *ABS*:00000000 chstats.c
C:\cygwin64\tmp\ccslDetg.s:18     .text._stats_init:00000000 $t
C:\cygwin64\tmp\ccslDetg.s:25     .text._stats_init:00000000 _stats_init
C:\cygwin64\tmp\ccslDetg.s:61     .text._stats_init:00000024 $d
C:\cygwin64\tmp\ccslDetg.s:66     .text._stats_increase_irq:00000000 $t
C:\cygwin64\tmp\ccslDetg.s:73     .text._stats_increase_irq:00000000 _stats_increase_irq
C:\cygwin64\tmp\ccslDetg.s:122    .text._stats_increase_irq:0000001c $d
C:\cygwin64\tmp\ccslDetg.s:131    .text._stats_ctxswc:00000000 $t
C:\cygwin64\tmp\ccslDetg.s:138    .text._stats_ctxswc:00000000 _stats_ctxswc
C:\cygwin64\tmp\ccslDetg.s:162    .text._stats_ctxswc:0000001c $d
C:\cygwin64\tmp\ccslDetg.s:167    .text._stats_start_measure_crit_thd:00000000 $t
C:\cygwin64\tmp\ccslDetg.s:174    .text._stats_start_measure_crit_thd:00000000 _stats_start_measure_crit_thd
C:\cygwin64\tmp\ccslDetg.s:188    .text._stats_start_measure_crit_thd:00000008 $d
C:\cygwin64\tmp\ccslDetg.s:193    .text._stats_stop_measure_crit_thd:00000000 $t
C:\cygwin64\tmp\ccslDetg.s:200    .text._stats_stop_measure_crit_thd:00000000 _stats_stop_measure_crit_thd
C:\cygwin64\tmp\ccslDetg.s:214    .text._stats_stop_measure_crit_thd:00000008 $d
C:\cygwin64\tmp\ccslDetg.s:219    .text._stats_start_measure_crit_isr:00000000 $t
C:\cygwin64\tmp\ccslDetg.s:226    .text._stats_start_measure_crit_isr:00000000 _stats_start_measure_crit_isr
C:\cygwin64\tmp\ccslDetg.s:240    .text._stats_start_measure_crit_isr:00000008 $d
C:\cygwin64\tmp\ccslDetg.s:245    .text._stats_stop_measure_crit_isr:00000000 $t
C:\cygwin64\tmp\ccslDetg.s:252    .text._stats_stop_measure_crit_isr:00000000 _stats_stop_measure_crit_isr
C:\cygwin64\tmp\ccslDetg.s:266    .text._stats_stop_measure_crit_isr:00000008 $d
                     .debug_frame:00000010 $d

UNDEFINED SYMBOLS
chTMObjectInit
ch
chTMChainMeasurementToX
chTMStartMeasurementX
chTMStopMeasurementX
