ARM GAS  C:\cygwin64\tmp\ccXTzhUP.s 			page 1


   1              		.cpu cortex-m4
   2              		.eabi_attribute 27, 1
   3              		.eabi_attribute 28, 1
   4              		.eabi_attribute 20, 1
   5              		.eabi_attribute 21, 1
   6              		.eabi_attribute 23, 3
   7              		.eabi_attribute 24, 1
   8              		.eabi_attribute 25, 1
   9              		.eabi_attribute 26, 1
  10              		.eabi_attribute 30, 4
  11              		.eabi_attribute 34, 1
  12              		.eabi_attribute 18, 4
  13              		.file	"chtm.c"
  14              		.text
  15              	.Ltext0:
  16              		.cfi_sections	.debug_frame
  17              		.section	.text.chTMObjectInit,"ax",%progbits
  18              		.align	1
  19              		.global	chTMObjectInit
  20              		.syntax unified
  21              		.thumb
  22              		.thumb_func
  23              		.fpu fpv4-sp-d16
  24              		.type	chTMObjectInit, %function
  25              	chTMObjectInit:
  26              	.LFB248:
  27              		.file 1 "../../modules/ChibiOS/os/rt/src/chtm.c"
  28              		.loc 1 97 0
  29              		.cfi_startproc
  30              		@ args = 0, pretend = 0, frame = 0
  31              		@ frame_needed = 0, uses_anonymous_args = 0
  32              		@ link register save eliminated.
  33              	.LVL0:
  34              		.loc 1 99 0
  35 0000 4FF0FF33 		mov	r3, #-1
  36 0004 0360     		str	r3, [r0]
  37              		.loc 1 100 0
  38 0006 0023     		movs	r3, #0
  39 0008 4360     		str	r3, [r0, #4]
  40              		.loc 1 101 0
  41 000a 8360     		str	r3, [r0, #8]
  42              		.loc 1 102 0
  43 000c C360     		str	r3, [r0, #12]
  44              		.loc 1 103 0
  45 000e 0022     		movs	r2, #0
  46 0010 0023     		movs	r3, #0
  47 0012 C0E90423 		strd	r2, [r0, #16]
  48 0016 7047     		bx	lr
  49              		.cfi_endproc
  50              	.LFE248:
  51              		.size	chTMObjectInit, .-chTMObjectInit
  52              		.section	.text.chTMStartMeasurementX,"ax",%progbits
  53              		.align	1
  54              		.global	chTMStartMeasurementX
  55              		.syntax unified
  56              		.thumb
  57              		.thumb_func
ARM GAS  C:\cygwin64\tmp\ccXTzhUP.s 			page 2


  58              		.fpu fpv4-sp-d16
  59              		.type	chTMStartMeasurementX, %function
  60              	chTMStartMeasurementX:
  61              	.LFB249:
  62              		.loc 1 114 0
  63              		.cfi_startproc
  64              		@ args = 0, pretend = 0, frame = 0
  65              		@ frame_needed = 0, uses_anonymous_args = 0
  66              		@ link register save eliminated.
  67              	.LVL1:
  68              	.LBB8:
  69              	.LBB9:
  70              		.file 2 "../../modules/ChibiOS/os/common/ports/ARMCMx/chcore_v7m.h"
  71              		.loc 2 708 0
  72 0000 014B     		ldr	r3, .L3
  73 0002 5B68     		ldr	r3, [r3, #4]
  74              	.LBE9:
  75              	.LBE8:
  76              		.loc 1 116 0
  77 0004 8360     		str	r3, [r0, #8]
  78 0006 7047     		bx	lr
  79              	.L4:
  80              		.align	2
  81              	.L3:
  82 0008 001000E0 		.word	-536866816
  83              		.cfi_endproc
  84              	.LFE249:
  85              		.size	chTMStartMeasurementX, .-chTMStartMeasurementX
  86              		.section	.text.chTMStopMeasurementX,"ax",%progbits
  87              		.align	1
  88              		.global	chTMStopMeasurementX
  89              		.syntax unified
  90              		.thumb
  91              		.thumb_func
  92              		.fpu fpv4-sp-d16
  93              		.type	chTMStopMeasurementX, %function
  94              	chTMStopMeasurementX:
  95              	.LFB250:
  96              		.loc 1 127 0
  97              		.cfi_startproc
  98              		@ args = 0, pretend = 0, frame = 0
  99              		@ frame_needed = 0, uses_anonymous_args = 0
 100              	.LVL2:
 101              		.loc 1 129 0
 102 0000 0E4A     		ldr	r2, .L8
 103              	.LBB14:
 104              	.LBB15:
 105              		.loc 2 708 0
 106 0002 0F4B     		ldr	r3, .L8+4
 107              	.LBE15:
 108              	.LBE14:
 109              		.loc 1 129 0
 110 0004 D2F89010 		ldr	r1, [r2, #144]
 111              	.LVL3:
 112              	.LBB17:
 113              	.LBB18:
 114              		.loc 1 57 0
ARM GAS  C:\cygwin64\tmp\ccXTzhUP.s 			page 3


 115 0008 C268     		ldr	r2, [r0, #12]
 116              	.LBE18:
 117              	.LBE17:
 118              	.LBB21:
 119              	.LBB16:
 120              		.loc 2 708 0
 121 000a 5B68     		ldr	r3, [r3, #4]
 122              	.LVL4:
 123              	.LBE16:
 124              	.LBE21:
 125              	.LBB22:
 126              	.LBB19:
 127              		.loc 1 57 0
 128 000c 0132     		adds	r2, r2, #1
 129 000e C260     		str	r2, [r0, #12]
 130              		.loc 1 58 0
 131 0010 8268     		ldr	r2, [r0, #8]
 132              	.LBE19:
 133              	.LBE22:
 134              		.loc 1 127 0
 135 0012 30B5     		push	{r4, r5, lr}
 136              		.cfi_def_cfa_offset 12
 137              		.cfi_offset 4, -12
 138              		.cfi_offset 5, -8
 139              		.cfi_offset 14, -4
 140              	.LBB23:
 141              	.LBB20:
 142              		.loc 1 59 0
 143 0014 D0E90445 		ldrd	r4, [r0, #16]
 144              		.loc 1 58 0
 145 0018 9B1A     		subs	r3, r3, r2
 146              	.LVL5:
 147 001a 5B1A     		subs	r3, r3, r1
 148              		.loc 1 60 0
 149 001c 4268     		ldr	r2, [r0, #4]
 150              		.loc 1 58 0
 151 001e 8360     		str	r3, [r0, #8]
 152              		.loc 1 59 0
 153 0020 E418     		adds	r4, r4, r3
 154 0022 45F10005 		adc	r5, r5, #0
 155              		.loc 1 60 0
 156 0026 9342     		cmp	r3, r2
 157              		.loc 1 63 0
 158 0028 0268     		ldr	r2, [r0]
 159              		.loc 1 61 0
 160 002a 88BF     		it	hi
 161 002c 4360     		strhi	r3, [r0, #4]
 162              		.loc 1 63 0
 163 002e 9342     		cmp	r3, r2
 164              		.loc 1 59 0
 165 0030 C0E90445 		strd	r4, [r0, #16]
 166              		.loc 1 64 0
 167 0034 38BF     		it	cc
 168 0036 0360     		strcc	r3, [r0]
 169              	.LVL6:
 170 0038 30BD     		pop	{r4, r5, pc}
 171              	.L9:
ARM GAS  C:\cygwin64\tmp\ccXTzhUP.s 			page 4


 172 003a 00BF     		.align	2
 173              	.L8:
 174 003c 00000000 		.word	ch
 175 0040 001000E0 		.word	-536866816
 176              	.LBE20:
 177              	.LBE23:
 178              		.cfi_endproc
 179              	.LFE250:
 180              		.size	chTMStopMeasurementX, .-chTMStopMeasurementX
 181              		.section	.text._tm_init,"ax",%progbits
 182              		.align	1
 183              		.global	_tm_init
 184              		.syntax unified
 185              		.thumb
 186              		.thumb_func
 187              		.fpu fpv4-sp-d16
 188              		.type	_tm_init, %function
 189              	_tm_init:
 190              	.LFB247:
 191              		.loc 1 77 0
 192              		.cfi_startproc
 193              		@ args = 0, pretend = 0, frame = 24
 194              		@ frame_needed = 0, uses_anonymous_args = 0
 195 0000 10B5     		push	{r4, lr}
 196              		.cfi_def_cfa_offset 8
 197              		.cfi_offset 4, -8
 198              		.cfi_offset 14, -4
 199              		.loc 1 83 0
 200 0002 094C     		ldr	r4, .L11
 201              		.loc 1 77 0
 202 0004 86B0     		sub	sp, sp, #24
 203              		.cfi_def_cfa_offset 32
 204              		.loc 1 83 0
 205 0006 0023     		movs	r3, #0
 206              		.loc 1 84 0
 207 0008 6846     		mov	r0, sp
 208              		.loc 1 83 0
 209 000a C4F89030 		str	r3, [r4, #144]
 210              		.loc 1 84 0
 211 000e FFF7FEFF 		bl	chTMObjectInit
 212              	.LVL7:
 213              		.loc 1 85 0
 214 0012 6846     		mov	r0, sp
 215 0014 FFF7FEFF 		bl	chTMStartMeasurementX
 216              	.LVL8:
 217              		.loc 1 86 0
 218 0018 6846     		mov	r0, sp
 219 001a FFF7FEFF 		bl	chTMStopMeasurementX
 220              	.LVL9:
 221              		.loc 1 87 0
 222 001e 029B     		ldr	r3, [sp, #8]
 223 0020 C4F89030 		str	r3, [r4, #144]
 224              		.loc 1 88 0
 225 0024 06B0     		add	sp, sp, #24
 226              		.cfi_def_cfa_offset 8
 227              		@ sp needed
 228 0026 10BD     		pop	{r4, pc}
ARM GAS  C:\cygwin64\tmp\ccXTzhUP.s 			page 5


 229              	.L12:
 230              		.align	2
 231              	.L11:
 232 0028 00000000 		.word	ch
 233              		.cfi_endproc
 234              	.LFE247:
 235              		.size	_tm_init, .-_tm_init
 236              		.section	.text.chTMChainMeasurementToX,"ax",%progbits
 237              		.align	1
 238              		.global	chTMChainMeasurementToX
 239              		.syntax unified
 240              		.thumb
 241              		.thumb_func
 242              		.fpu fpv4-sp-d16
 243              		.type	chTMChainMeasurementToX, %function
 244              	chTMChainMeasurementToX:
 245              	.LFB251:
 246              		.loc 1 145 0
 247              		.cfi_startproc
 248              		@ args = 0, pretend = 0, frame = 0
 249              		@ frame_needed = 0, uses_anonymous_args = 0
 250              	.LVL10:
 251              	.LBB28:
 252              	.LBB29:
 253              		.loc 2 708 0
 254 0000 0C4B     		ldr	r3, .L16
 255              	.LBE29:
 256              	.LBE28:
 257              	.LBB31:
 258              	.LBB32:
 259              		.loc 1 57 0
 260 0002 C268     		ldr	r2, [r0, #12]
 261              	.LBE32:
 262              	.LBE31:
 263              	.LBB35:
 264              	.LBB30:
 265              		.loc 2 708 0
 266 0004 5B68     		ldr	r3, [r3, #4]
 267              	.LBE30:
 268              	.LBE35:
 269              		.loc 1 145 0
 270 0006 30B5     		push	{r4, r5, lr}
 271              		.cfi_def_cfa_offset 12
 272              		.cfi_offset 4, -12
 273              		.cfi_offset 5, -8
 274              		.cfi_offset 14, -4
 275              	.LBB36:
 276              	.LBB33:
 277              		.loc 1 57 0
 278 0008 0132     		adds	r2, r2, #1
 279              	.LBE33:
 280              	.LBE36:
 281              		.loc 1 148 0
 282 000a 8B60     		str	r3, [r1, #8]
 283              	.LVL11:
 284              	.LBB37:
 285              	.LBB34:
ARM GAS  C:\cygwin64\tmp\ccXTzhUP.s 			page 6


 286              		.loc 1 59 0
 287 000c D0E90445 		ldrd	r4, [r0, #16]
 288              		.loc 1 57 0
 289 0010 C260     		str	r2, [r0, #12]
 290              		.loc 1 58 0
 291 0012 8268     		ldr	r2, [r0, #8]
 292 0014 9B1A     		subs	r3, r3, r2
 293              	.LVL12:
 294              		.loc 1 60 0
 295 0016 4268     		ldr	r2, [r0, #4]
 296              		.loc 1 58 0
 297 0018 8360     		str	r3, [r0, #8]
 298              	.LVL13:
 299              		.loc 1 59 0
 300 001a E418     		adds	r4, r4, r3
 301 001c 45F10005 		adc	r5, r5, #0
 302              		.loc 1 60 0
 303 0020 9342     		cmp	r3, r2
 304              		.loc 1 63 0
 305 0022 0268     		ldr	r2, [r0]
 306              		.loc 1 61 0
 307 0024 88BF     		it	hi
 308 0026 4360     		strhi	r3, [r0, #4]
 309              		.loc 1 63 0
 310 0028 9342     		cmp	r3, r2
 311              		.loc 1 59 0
 312 002a C0E90445 		strd	r4, [r0, #16]
 313              		.loc 1 64 0
 314 002e 38BF     		it	cc
 315 0030 0360     		strcc	r3, [r0]
 316              	.LVL14:
 317 0032 30BD     		pop	{r4, r5, pc}
 318              	.L17:
 319              		.align	2
 320              	.L16:
 321 0034 001000E0 		.word	-536866816
 322              	.LBE34:
 323              	.LBE37:
 324              		.cfi_endproc
 325              	.LFE251:
 326              		.size	chTMChainMeasurementToX, .-chTMChainMeasurementToX
 327              		.text
 328              	.Letext0:
 329              		.file 3 "c:\\program files (x86)\\gnu tools arm embedded\\6 2017-q2-update\\arm-none-eabi\\include
 330              		.file 4 "c:\\program files (x86)\\gnu tools arm embedded\\6 2017-q2-update\\arm-none-eabi\\include
 331              		.file 5 "../../modules/ChibiOS/os/common/ports/ARMCMx/compilers/GCC/chtypes.h"
 332              		.file 6 "../../modules/ChibiOS/os/rt/include/chsystypes.h"
 333              		.file 7 "../../modules/ChibiOS/os/rt/include/chschd.h"
 334              		.file 8 "../../modules/ChibiOS/os/common/ext/CMSIS/include/core_cm4.h"
 335              		.file 9 "../../modules/ChibiOS/os/common/ext/CMSIS/ST/STM32F4xx/system_stm32f4xx.h"
 336              		.file 10 "../../modules/ChibiOS/os/common/ports/ARMCMx/chcore.h"
 337              		.file 11 "../../modules/ChibiOS/os/rt/include/chtm.h"
 338              		.file 12 "../../modules/ChibiOS/os/rt/include/chstats.h"
 339              		.file 13 "../../modules/ChibiOS/os/rt/include/chsem.h"
 340              		.file 14 "../../modules/ChibiOS/os/rt/include/chmtx.h"
 341              		.file 15 "../../modules/ChibiOS/os/rt/include/chsys.h"
 342              		.file 16 "../../modules/ChibiOS/os/rt/include/chregistry.h"
ARM GAS  C:\cygwin64\tmp\ccXTzhUP.s 			page 7


 343              		.section	.debug_info,"",%progbits
 344              	.Ldebug_info0:
 345 0000 050C0000 		.4byte	0xc05
 346 0004 0400     		.2byte	0x4
 347 0006 00000000 		.4byte	.Ldebug_abbrev0
 348 000a 04       		.byte	0x4
 349 000b 01       		.uleb128 0x1
 350 000c 80010000 		.4byte	.LASF161
 351 0010 0C       		.byte	0xc
 352 0011 64000000 		.4byte	.LASF162
 353 0015 00000000 		.4byte	.LASF163
 354 0019 70000000 		.4byte	.Ldebug_ranges0+0x70
 355 001d 00000000 		.4byte	0
 356 0021 00000000 		.4byte	.Ldebug_line0
 357 0025 02       		.uleb128 0x2
 358 0026 04       		.byte	0x4
 359 0027 05       		.byte	0x5
 360 0028 696E7400 		.ascii	"int\000"
 361 002c 03       		.uleb128 0x3
 362 002d 04       		.byte	0x4
 363 002e 07       		.byte	0x7
 364 002f 5C030000 		.4byte	.LASF0
 365 0033 03       		.uleb128 0x3
 366 0034 08       		.byte	0x8
 367 0035 05       		.byte	0x5
 368 0036 5A010000 		.4byte	.LASF1
 369 003a 03       		.uleb128 0x3
 370 003b 08       		.byte	0x8
 371 003c 04       		.byte	0x4
 372 003d D8040000 		.4byte	.LASF2
 373 0041 03       		.uleb128 0x3
 374 0042 01       		.byte	0x1
 375 0043 06       		.byte	0x6
 376 0044 68010000 		.4byte	.LASF3
 377 0048 04       		.uleb128 0x4
 378 0049 8B000000 		.4byte	.LASF6
 379 004d 03       		.byte	0x3
 380 004e 2B       		.byte	0x2b
 381 004f 53000000 		.4byte	0x53
 382 0053 03       		.uleb128 0x3
 383 0054 01       		.byte	0x1
 384 0055 08       		.byte	0x8
 385 0056 99050000 		.4byte	.LASF4
 386 005a 03       		.uleb128 0x3
 387 005b 02       		.byte	0x2
 388 005c 05       		.byte	0x5
 389 005d F2050000 		.4byte	.LASF5
 390 0061 04       		.uleb128 0x4
 391 0062 AF060000 		.4byte	.LASF7
 392 0066 03       		.byte	0x3
 393 0067 39       		.byte	0x39
 394 0068 6C000000 		.4byte	0x6c
 395 006c 03       		.uleb128 0x3
 396 006d 02       		.byte	0x2
 397 006e 07       		.byte	0x7
 398 006f 0B070000 		.4byte	.LASF8
 399 0073 04       		.uleb128 0x4
ARM GAS  C:\cygwin64\tmp\ccXTzhUP.s 			page 8


 400 0074 5A040000 		.4byte	.LASF9
 401 0078 03       		.byte	0x3
 402 0079 4D       		.byte	0x4d
 403 007a 7E000000 		.4byte	0x7e
 404 007e 03       		.uleb128 0x3
 405 007f 04       		.byte	0x4
 406 0080 05       		.byte	0x5
 407 0081 CE020000 		.4byte	.LASF10
 408 0085 04       		.uleb128 0x4
 409 0086 01030000 		.4byte	.LASF11
 410 008a 03       		.byte	0x3
 411 008b 4F       		.byte	0x4f
 412 008c 90000000 		.4byte	0x90
 413 0090 03       		.uleb128 0x3
 414 0091 04       		.byte	0x4
 415 0092 07       		.byte	0x7
 416 0093 8B060000 		.4byte	.LASF12
 417 0097 04       		.uleb128 0x4
 418 0098 24050000 		.4byte	.LASF13
 419 009c 03       		.byte	0x3
 420 009d 69       		.byte	0x69
 421 009e A2000000 		.4byte	0xa2
 422 00a2 03       		.uleb128 0x3
 423 00a3 08       		.byte	0x8
 424 00a4 07       		.byte	0x7
 425 00a5 EA000000 		.4byte	.LASF14
 426 00a9 04       		.uleb128 0x4
 427 00aa 66070000 		.4byte	.LASF15
 428 00ae 04       		.byte	0x4
 429 00af 18       		.byte	0x18
 430 00b0 48000000 		.4byte	0x48
 431 00b4 04       		.uleb128 0x4
 432 00b5 23040000 		.4byte	.LASF16
 433 00b9 04       		.byte	0x4
 434 00ba 24       		.byte	0x24
 435 00bb 61000000 		.4byte	0x61
 436 00bf 04       		.uleb128 0x4
 437 00c0 91050000 		.4byte	.LASF17
 438 00c4 04       		.byte	0x4
 439 00c5 2C       		.byte	0x2c
 440 00c6 73000000 		.4byte	0x73
 441 00ca 05       		.uleb128 0x5
 442 00cb BF000000 		.4byte	0xbf
 443 00cf 04       		.uleb128 0x4
 444 00d0 5F060000 		.4byte	.LASF18
 445 00d4 04       		.byte	0x4
 446 00d5 30       		.byte	0x30
 447 00d6 85000000 		.4byte	0x85
 448 00da 05       		.uleb128 0x5
 449 00db CF000000 		.4byte	0xcf
 450 00df 06       		.uleb128 0x6
 451 00e0 DA000000 		.4byte	0xda
 452 00e4 04       		.uleb128 0x4
 453 00e5 4E000000 		.4byte	.LASF19
 454 00e9 04       		.byte	0x4
 455 00ea 3C       		.byte	0x3c
 456 00eb 97000000 		.4byte	0x97
ARM GAS  C:\cygwin64\tmp\ccXTzhUP.s 			page 9


 457 00ef 04       		.uleb128 0x4
 458 00f0 32070000 		.4byte	.LASF20
 459 00f4 05       		.byte	0x5
 460 00f5 39       		.byte	0x39
 461 00f6 CF000000 		.4byte	0xcf
 462 00fa 04       		.uleb128 0x4
 463 00fb 47010000 		.4byte	.LASF21
 464 00ff 05       		.byte	0x5
 465 0100 3A       		.byte	0x3a
 466 0101 E4000000 		.4byte	0xe4
 467 0105 04       		.uleb128 0x4
 468 0106 1B040000 		.4byte	.LASF22
 469 010a 05       		.byte	0x5
 470 010b 3C       		.byte	0x3c
 471 010c A9000000 		.4byte	0xa9
 472 0110 04       		.uleb128 0x4
 473 0111 D7020000 		.4byte	.LASF23
 474 0115 05       		.byte	0x5
 475 0116 3D       		.byte	0x3d
 476 0117 A9000000 		.4byte	0xa9
 477 011b 04       		.uleb128 0x4
 478 011c 3A050000 		.4byte	.LASF24
 479 0120 05       		.byte	0x5
 480 0121 3E       		.byte	0x3e
 481 0122 A9000000 		.4byte	0xa9
 482 0126 04       		.uleb128 0x4
 483 0127 75050000 		.4byte	.LASF25
 484 012b 05       		.byte	0x5
 485 012c 40       		.byte	0x40
 486 012d CF000000 		.4byte	0xcf
 487 0131 04       		.uleb128 0x4
 488 0132 EC030000 		.4byte	.LASF26
 489 0136 05       		.byte	0x5
 490 0137 41       		.byte	0x41
 491 0138 BF000000 		.4byte	0xbf
 492 013c 04       		.uleb128 0x4
 493 013d 45040000 		.4byte	.LASF27
 494 0141 05       		.byte	0x5
 495 0142 43       		.byte	0x43
 496 0143 CF000000 		.4byte	0xcf
 497 0147 04       		.uleb128 0x4
 498 0148 47030000 		.4byte	.LASF28
 499 014c 05       		.byte	0x5
 500 014d 45       		.byte	0x45
 501 014e BF000000 		.4byte	0xbf
 502 0152 04       		.uleb128 0x4
 503 0153 F7030000 		.4byte	.LASF29
 504 0157 05       		.byte	0x5
 505 0158 46       		.byte	0x46
 506 0159 CF000000 		.4byte	0xcf
 507 015d 04       		.uleb128 0x4
 508 015e DD060000 		.4byte	.LASF30
 509 0162 06       		.byte	0x6
 510 0163 33       		.byte	0x33
 511 0164 CF000000 		.4byte	0xcf
 512 0168 04       		.uleb128 0x4
 513 0169 BA060000 		.4byte	.LASF31
ARM GAS  C:\cygwin64\tmp\ccXTzhUP.s 			page 10


 514 016d 06       		.byte	0x6
 515 016e 3F       		.byte	0x3f
 516 016f 73010000 		.4byte	0x173
 517 0173 07       		.uleb128 0x7
 518 0174 9E030000 		.4byte	.LASF50
 519 0178 60       		.byte	0x60
 520 0179 07       		.byte	0x7
 521 017a 9A       		.byte	0x9a
 522 017b 5E020000 		.4byte	0x25e
 523 017f 08       		.uleb128 0x8
 524 0180 AE030000 		.4byte	.LASF32
 525 0184 07       		.byte	0x7
 526 0185 9B       		.byte	0x9b
 527 0186 93020000 		.4byte	0x293
 528 018a 00       		.byte	0
 529 018b 08       		.uleb128 0x8
 530 018c 17050000 		.4byte	.LASF33
 531 0190 07       		.byte	0x7
 532 0191 9C       		.byte	0x9c
 533 0192 26010000 		.4byte	0x126
 534 0196 08       		.byte	0x8
 535 0197 09       		.uleb128 0x9
 536 0198 63747800 		.ascii	"ctx\000"
 537 019c 07       		.byte	0x7
 538 019d 9D       		.byte	0x9d
 539 019e 00060000 		.4byte	0x600
 540 01a2 0C       		.byte	0xc
 541 01a3 08       		.uleb128 0x8
 542 01a4 87040000 		.4byte	.LASF34
 543 01a8 07       		.byte	0x7
 544 01a9 9F       		.byte	0x9f
 545 01aa 69020000 		.4byte	0x269
 546 01ae 10       		.byte	0x10
 547 01af 08       		.uleb128 0x8
 548 01b0 A9060000 		.4byte	.LASF35
 549 01b4 07       		.byte	0x7
 550 01b5 A0       		.byte	0xa0
 551 01b6 69020000 		.4byte	0x269
 552 01ba 14       		.byte	0x14
 553 01bb 08       		.uleb128 0x8
 554 01bc D7030000 		.4byte	.LASF36
 555 01c0 07       		.byte	0x7
 556 01c1 A7       		.byte	0xa7
 557 01c2 E7080000 		.4byte	0x8e7
 558 01c6 18       		.byte	0x18
 559 01c7 08       		.uleb128 0x8
 560 01c8 9D060000 		.4byte	.LASF37
 561 01cc 07       		.byte	0x7
 562 01cd B0       		.byte	0xb0
 563 01ce FE080000 		.4byte	0x8fe
 564 01d2 1C       		.byte	0x1c
 565 01d3 08       		.uleb128 0x8
 566 01d4 B3020000 		.4byte	.LASF38
 567 01d8 07       		.byte	0x7
 568 01d9 B5       		.byte	0xb5
 569 01da 10010000 		.4byte	0x110
 570 01de 20       		.byte	0x20
ARM GAS  C:\cygwin64\tmp\ccXTzhUP.s 			page 11


 571 01df 08       		.uleb128 0x8
 572 01e0 6E070000 		.4byte	.LASF39
 573 01e4 07       		.byte	0x7
 574 01e5 B9       		.byte	0xb9
 575 01e6 05010000 		.4byte	0x105
 576 01ea 21       		.byte	0x21
 577 01eb 08       		.uleb128 0x8
 578 01ec 60050000 		.4byte	.LASF40
 579 01f0 07       		.byte	0x7
 580 01f1 BE       		.byte	0xbe
 581 01f2 1B010000 		.4byte	0x11b
 582 01f6 22       		.byte	0x22
 583 01f7 0A       		.uleb128 0xa
 584 01f8 7500     		.ascii	"u\000"
 585 01fa 07       		.byte	0x7
 586 01fb 0F01     		.2byte	0x10f
 587 01fd 1C080000 		.4byte	0x81c
 588 0201 24       		.byte	0x24
 589 0202 0B       		.uleb128 0xb
 590 0203 25030000 		.4byte	.LASF41
 591 0207 07       		.byte	0x7
 592 0208 1401     		.2byte	0x114
 593 020a 6F020000 		.4byte	0x26f
 594 020e 28       		.byte	0x28
 595 020f 0B       		.uleb128 0xb
 596 0210 4D030000 		.4byte	.LASF42
 597 0214 07       		.byte	0x7
 598 0215 1A01     		.2byte	0x11a
 599 0217 93020000 		.4byte	0x293
 600 021b 2C       		.byte	0x2c
 601 021c 0B       		.uleb128 0xb
 602 021d FE030000 		.4byte	.LASF43
 603 0221 07       		.byte	0x7
 604 0222 2001     		.2byte	0x120
 605 0224 3C010000 		.4byte	0x13c
 606 0228 34       		.byte	0x34
 607 0229 0B       		.uleb128 0xb
 608 022a A6070000 		.4byte	.LASF44
 609 022e 07       		.byte	0x7
 610 022f 2701     		.2byte	0x127
 611 0231 E1080000 		.4byte	0x8e1
 612 0235 38       		.byte	0x38
 613 0236 0B       		.uleb128 0xb
 614 0237 94040000 		.4byte	.LASF45
 615 023b 07       		.byte	0x7
 616 023c 2B01     		.2byte	0x12b
 617 023e 26010000 		.4byte	0x126
 618 0242 3C       		.byte	0x3c
 619 0243 0B       		.uleb128 0xb
 620 0244 B4030000 		.4byte	.LASF46
 621 0248 07       		.byte	0x7
 622 0249 3201     		.2byte	0x132
 623 024b 46030000 		.4byte	0x346
 624 024f 40       		.byte	0x40
 625 0250 0B       		.uleb128 0xb
 626 0251 E5020000 		.4byte	.LASF47
 627 0255 07       		.byte	0x7
ARM GAS  C:\cygwin64\tmp\ccXTzhUP.s 			page 12


 628 0256 3801     		.2byte	0x138
 629 0258 CD070000 		.4byte	0x7cd
 630 025c 48       		.byte	0x48
 631 025d 00       		.byte	0
 632 025e 04       		.uleb128 0x4
 633 025f AE040000 		.4byte	.LASF48
 634 0263 06       		.byte	0x6
 635 0264 44       		.byte	0x44
 636 0265 69020000 		.4byte	0x269
 637 0269 0C       		.uleb128 0xc
 638 026a 04       		.byte	0x4
 639 026b 68010000 		.4byte	0x168
 640 026f 04       		.uleb128 0x4
 641 0270 83070000 		.4byte	.LASF49
 642 0274 06       		.byte	0x6
 643 0275 49       		.byte	0x49
 644 0276 7A020000 		.4byte	0x27a
 645 027a 07       		.uleb128 0x7
 646 027b 6F060000 		.4byte	.LASF51
 647 027f 04       		.byte	0x4
 648 0280 07       		.byte	0x7
 649 0281 88       		.byte	0x88
 650 0282 93020000 		.4byte	0x293
 651 0286 08       		.uleb128 0x8
 652 0287 42010000 		.4byte	.LASF52
 653 028b 07       		.byte	0x7
 654 028c 89       		.byte	0x89
 655 028d 69020000 		.4byte	0x269
 656 0291 00       		.byte	0
 657 0292 00       		.byte	0
 658 0293 04       		.uleb128 0x4
 659 0294 47070000 		.4byte	.LASF53
 660 0298 06       		.byte	0x6
 661 0299 50       		.byte	0x50
 662 029a 9E020000 		.4byte	0x29e
 663 029e 07       		.uleb128 0x7
 664 029f A6000000 		.4byte	.LASF54
 665 02a3 08       		.byte	0x8
 666 02a4 07       		.byte	0x7
 667 02a5 8F       		.byte	0x8f
 668 02a6 C3020000 		.4byte	0x2c3
 669 02aa 08       		.uleb128 0x8
 670 02ab 42010000 		.4byte	.LASF52
 671 02af 07       		.byte	0x7
 672 02b0 90       		.byte	0x90
 673 02b1 69020000 		.4byte	0x269
 674 02b5 00       		.byte	0
 675 02b6 08       		.uleb128 0x8
 676 02b7 95000000 		.4byte	.LASF55
 677 02bb 07       		.byte	0x7
 678 02bc 91       		.byte	0x91
 679 02bd 69020000 		.4byte	0x269
 680 02c1 04       		.byte	0x4
 681 02c2 00       		.byte	0
 682 02c3 04       		.uleb128 0x4
 683 02c4 2E000000 		.4byte	.LASF56
 684 02c8 06       		.byte	0x6
ARM GAS  C:\cygwin64\tmp\ccXTzhUP.s 			page 13


 685 02c9 57       		.byte	0x57
 686 02ca CE020000 		.4byte	0x2ce
 687 02ce 0D       		.uleb128 0xd
 688 02cf 37040000 		.4byte	.LASF57
 689 02d3 1C       		.byte	0x1c
 690 02d4 07       		.byte	0x7
 691 02d5 6A01     		.2byte	0x16a
 692 02d7 2A030000 		.4byte	0x32a
 693 02db 0B       		.uleb128 0xb
 694 02dc AE030000 		.4byte	.LASF32
 695 02e0 07       		.byte	0x7
 696 02e1 6B01     		.2byte	0x16b
 697 02e3 93020000 		.4byte	0x293
 698 02e7 00       		.byte	0
 699 02e8 0B       		.uleb128 0xb
 700 02e9 17050000 		.4byte	.LASF33
 701 02ed 07       		.byte	0x7
 702 02ee 6C01     		.2byte	0x16c
 703 02f0 26010000 		.4byte	0x126
 704 02f4 08       		.byte	0x8
 705 02f5 0A       		.uleb128 0xa
 706 02f6 63747800 		.ascii	"ctx\000"
 707 02fa 07       		.byte	0x7
 708 02fb 6E01     		.2byte	0x16e
 709 02fd 00060000 		.4byte	0x600
 710 0301 0C       		.byte	0xc
 711 0302 0B       		.uleb128 0xb
 712 0303 87040000 		.4byte	.LASF34
 713 0307 07       		.byte	0x7
 714 0308 7101     		.2byte	0x171
 715 030a 69020000 		.4byte	0x269
 716 030e 10       		.byte	0x10
 717 030f 0B       		.uleb128 0xb
 718 0310 A9060000 		.4byte	.LASF35
 719 0314 07       		.byte	0x7
 720 0315 7201     		.2byte	0x172
 721 0317 69020000 		.4byte	0x269
 722 031b 14       		.byte	0x14
 723 031c 0B       		.uleb128 0xb
 724 031d 1C050000 		.4byte	.LASF58
 725 0321 07       		.byte	0x7
 726 0322 7501     		.2byte	0x175
 727 0324 69020000 		.4byte	0x269
 728 0328 18       		.byte	0x18
 729 0329 00       		.byte	0
 730 032a 04       		.uleb128 0x4
 731 032b E7060000 		.4byte	.LASF59
 732 032f 06       		.byte	0x6
 733 0330 5C       		.byte	0x5c
 734 0331 35030000 		.4byte	0x335
 735 0335 0C       		.uleb128 0xc
 736 0336 04       		.byte	0x4
 737 0337 3B030000 		.4byte	0x33b
 738 033b 0E       		.uleb128 0xe
 739 033c 46030000 		.4byte	0x346
 740 0340 0F       		.uleb128 0xf
 741 0341 46030000 		.4byte	0x346
ARM GAS  C:\cygwin64\tmp\ccXTzhUP.s 			page 14


 742 0345 00       		.byte	0
 743 0346 10       		.uleb128 0x10
 744 0347 04       		.byte	0x4
 745 0348 04       		.uleb128 0x4
 746 0349 65050000 		.4byte	.LASF60
 747 034d 06       		.byte	0x6
 748 034e 61       		.byte	0x61
 749 034f 53030000 		.4byte	0x353
 750 0353 0D       		.uleb128 0xd
 751 0354 16060000 		.4byte	.LASF61
 752 0358 14       		.byte	0x14
 753 0359 07       		.byte	0x7
 754 035a 4501     		.2byte	0x145
 755 035c A2030000 		.4byte	0x3a2
 756 0360 0B       		.uleb128 0xb
 757 0361 42010000 		.4byte	.LASF52
 758 0365 07       		.byte	0x7
 759 0366 4601     		.2byte	0x146
 760 0368 04090000 		.4byte	0x904
 761 036c 00       		.byte	0
 762 036d 0B       		.uleb128 0xb
 763 036e 95000000 		.4byte	.LASF55
 764 0372 07       		.byte	0x7
 765 0373 4701     		.2byte	0x147
 766 0375 04090000 		.4byte	0x904
 767 0379 04       		.byte	0x4
 768 037a 0B       		.uleb128 0xb
 769 037b 41000000 		.4byte	.LASF62
 770 037f 07       		.byte	0x7
 771 0380 4801     		.2byte	0x148
 772 0382 5D010000 		.4byte	0x15d
 773 0386 08       		.byte	0x8
 774 0387 0B       		.uleb128 0xb
 775 0388 E0020000 		.4byte	.LASF63
 776 038c 07       		.byte	0x7
 777 038d 4901     		.2byte	0x149
 778 038f 2A030000 		.4byte	0x32a
 779 0393 0C       		.byte	0xc
 780 0394 0A       		.uleb128 0xa
 781 0395 70617200 		.ascii	"par\000"
 782 0399 07       		.byte	0x7
 783 039a 4B01     		.2byte	0x14b
 784 039c 46030000 		.4byte	0x346
 785 03a0 10       		.byte	0x10
 786 03a1 00       		.byte	0
 787 03a2 04       		.uleb128 0x4
 788 03a3 1D010000 		.4byte	.LASF64
 789 03a7 06       		.byte	0x6
 790 03a8 66       		.byte	0x66
 791 03a9 AD030000 		.4byte	0x3ad
 792 03ad 0D       		.uleb128 0xd
 793 03ae C1040000 		.4byte	.LASF65
 794 03b2 10       		.byte	0x10
 795 03b3 07       		.byte	0x7
 796 03b4 5501     		.2byte	0x155
 797 03b6 EF030000 		.4byte	0x3ef
 798 03ba 0B       		.uleb128 0xb
ARM GAS  C:\cygwin64\tmp\ccXTzhUP.s 			page 15


 799 03bb 42010000 		.4byte	.LASF52
 800 03bf 07       		.byte	0x7
 801 03c0 5601     		.2byte	0x156
 802 03c2 04090000 		.4byte	0x904
 803 03c6 00       		.byte	0
 804 03c7 0B       		.uleb128 0xb
 805 03c8 95000000 		.4byte	.LASF55
 806 03cc 07       		.byte	0x7
 807 03cd 5801     		.2byte	0x158
 808 03cf 04090000 		.4byte	0x904
 809 03d3 04       		.byte	0x4
 810 03d4 0B       		.uleb128 0xb
 811 03d5 41000000 		.4byte	.LASF62
 812 03d9 07       		.byte	0x7
 813 03da 5A01     		.2byte	0x15a
 814 03dc 5D010000 		.4byte	0x15d
 815 03e0 08       		.byte	0x8
 816 03e1 0B       		.uleb128 0xb
 817 03e2 FC050000 		.4byte	.LASF66
 818 03e6 07       		.byte	0x7
 819 03e7 6201     		.2byte	0x162
 820 03e9 5D010000 		.4byte	0x15d
 821 03ed 0C       		.byte	0xc
 822 03ee 00       		.byte	0
 823 03ef 04       		.uleb128 0x4
 824 03f0 B7000000 		.4byte	.LASF67
 825 03f4 06       		.byte	0x6
 826 03f5 6B       		.byte	0x6b
 827 03f6 FA030000 		.4byte	0x3fa
 828 03fa 0D       		.uleb128 0xd
 829 03fb 15030000 		.4byte	.LASF68
 830 03ff 04       		.byte	0x4
 831 0400 07       		.byte	0x7
 832 0401 7C01     		.2byte	0x17c
 833 0403 15040000 		.4byte	0x415
 834 0407 0B       		.uleb128 0xb
 835 0408 F0060000 		.4byte	.LASF69
 836 040c 07       		.byte	0x7
 837 040d 8401     		.2byte	0x184
 838 040f ED080000 		.4byte	0x8ed
 839 0413 00       		.byte	0
 840 0414 00       		.byte	0
 841 0415 04       		.uleb128 0x4
 842 0416 07040000 		.4byte	.LASF70
 843 041a 06       		.byte	0x6
 844 041b 70       		.byte	0x70
 845 041c 20040000 		.4byte	0x420
 846 0420 0D       		.uleb128 0xd
 847 0421 0C060000 		.4byte	.LASF71
 848 0425 D0       		.byte	0xd0
 849 0426 07       		.byte	0x7
 850 0427 9C01     		.2byte	0x19c
 851 0429 7B040000 		.4byte	0x47b
 852 042d 0B       		.uleb128 0xb
 853 042e 60070000 		.4byte	.LASF72
 854 0432 07       		.byte	0x7
 855 0433 A001     		.2byte	0x1a0
ARM GAS  C:\cygwin64\tmp\ccXTzhUP.s 			page 16


 856 0435 C3020000 		.4byte	0x2c3
 857 0439 00       		.byte	0
 858 043a 0B       		.uleb128 0xb
 859 043b 96020000 		.4byte	.LASF73
 860 043f 07       		.byte	0x7
 861 0440 A401     		.2byte	0x1a4
 862 0442 A2030000 		.4byte	0x3a2
 863 0446 1C       		.byte	0x1c
 864 0447 0A       		.uleb128 0xa
 865 0448 64626700 		.ascii	"dbg\000"
 866 044c 07       		.byte	0x7
 867 044d A801     		.2byte	0x1a8
 868 044f EF030000 		.4byte	0x3ef
 869 0453 2C       		.byte	0x2c
 870 0454 0B       		.uleb128 0xb
 871 0455 0A010000 		.4byte	.LASF74
 872 0459 07       		.byte	0x7
 873 045a AC01     		.2byte	0x1ac
 874 045c 68010000 		.4byte	0x168
 875 0460 30       		.byte	0x30
 876 0461 0A       		.uleb128 0xa
 877 0462 746D00   		.ascii	"tm\000"
 878 0465 07       		.byte	0x7
 879 0466 B101     		.2byte	0x1b1
 880 0468 7F070000 		.4byte	0x77f
 881 046c 90       		.byte	0x90
 882 046d 0B       		.uleb128 0xb
 883 046e 57000000 		.4byte	.LASF75
 884 0472 07       		.byte	0x7
 885 0473 B701     		.2byte	0x1b7
 886 0475 11080000 		.4byte	0x811
 887 0479 98       		.byte	0x98
 888 047a 00       		.byte	0
 889 047b 03       		.uleb128 0x3
 890 047c 04       		.byte	0x4
 891 047d 07       		.byte	0x7
 892 047e A5040000 		.4byte	.LASF76
 893 0482 11       		.uleb128 0x11
 894 0483 CF000000 		.4byte	0xcf
 895 0487 92040000 		.4byte	0x492
 896 048b 12       		.uleb128 0x12
 897 048c 7B040000 		.4byte	0x47b
 898 0490 00       		.byte	0
 899 0491 00       		.byte	0
 900 0492 13       		.uleb128 0x13
 901 0493 5C       		.byte	0x5c
 902 0494 08       		.byte	0x8
 903 0495 8303     		.2byte	0x383
 904 0497 C7050000 		.4byte	0x5c7
 905 049b 0B       		.uleb128 0xb
 906 049c 3A070000 		.4byte	.LASF77
 907 04a0 08       		.byte	0x8
 908 04a1 8503     		.2byte	0x385
 909 04a3 DA000000 		.4byte	0xda
 910 04a7 00       		.byte	0
 911 04a8 0B       		.uleb128 0xb
 912 04a9 8D040000 		.4byte	.LASF78
ARM GAS  C:\cygwin64\tmp\ccXTzhUP.s 			page 17


 913 04ad 08       		.byte	0x8
 914 04ae 8603     		.2byte	0x386
 915 04b0 DA000000 		.4byte	0xda
 916 04b4 04       		.byte	0x4
 917 04b5 0B       		.uleb128 0xb
 918 04b6 79010000 		.4byte	.LASF79
 919 04ba 08       		.byte	0x8
 920 04bb 8703     		.2byte	0x387
 921 04bd DA000000 		.4byte	0xda
 922 04c1 08       		.byte	0x8
 923 04c2 0B       		.uleb128 0xb
 924 04c3 E5030000 		.4byte	.LASF80
 925 04c7 08       		.byte	0x8
 926 04c8 8803     		.2byte	0x388
 927 04ca DA000000 		.4byte	0xda
 928 04ce 0C       		.byte	0xc
 929 04cf 0B       		.uleb128 0xb
 930 04d0 DC030000 		.4byte	.LASF81
 931 04d4 08       		.byte	0x8
 932 04d5 8903     		.2byte	0x389
 933 04d7 DA000000 		.4byte	0xda
 934 04db 10       		.byte	0x10
 935 04dc 0B       		.uleb128 0xb
 936 04dd 58060000 		.4byte	.LASF82
 937 04e1 08       		.byte	0x8
 938 04e2 8A03     		.2byte	0x38a
 939 04e4 DA000000 		.4byte	0xda
 940 04e8 14       		.byte	0x14
 941 04e9 0B       		.uleb128 0xb
 942 04ea 74070000 		.4byte	.LASF83
 943 04ee 08       		.byte	0x8
 944 04ef 8B03     		.2byte	0x38b
 945 04f1 DA000000 		.4byte	0xda
 946 04f5 18       		.byte	0x18
 947 04f6 0B       		.uleb128 0xb
 948 04f7 7D050000 		.4byte	.LASF84
 949 04fb 08       		.byte	0x8
 950 04fc 8C03     		.2byte	0x38c
 951 04fe DF000000 		.4byte	0xdf
 952 0502 1C       		.byte	0x1c
 953 0503 0B       		.uleb128 0xb
 954 0504 FF040000 		.4byte	.LASF85
 955 0508 08       		.byte	0x8
 956 0509 8D03     		.2byte	0x38d
 957 050b DA000000 		.4byte	0xda
 958 050f 20       		.byte	0x20
 959 0510 0B       		.uleb128 0xb
 960 0511 56030000 		.4byte	.LASF86
 961 0515 08       		.byte	0x8
 962 0516 8E03     		.2byte	0x38e
 963 0518 DA000000 		.4byte	0xda
 964 051c 24       		.byte	0x24
 965 051d 0B       		.uleb128 0xb
 966 051e CA050000 		.4byte	.LASF87
 967 0522 08       		.byte	0x8
 968 0523 8F03     		.2byte	0x38f
 969 0525 DA000000 		.4byte	0xda
ARM GAS  C:\cygwin64\tmp\ccXTzhUP.s 			page 18


 970 0529 28       		.byte	0x28
 971 052a 0B       		.uleb128 0xb
 972 052b 42050000 		.4byte	.LASF88
 973 052f 08       		.byte	0x8
 974 0530 9003     		.2byte	0x390
 975 0532 82040000 		.4byte	0x482
 976 0536 2C       		.byte	0x2c
 977 0537 0B       		.uleb128 0xb
 978 0538 05050000 		.4byte	.LASF89
 979 053c 08       		.byte	0x8
 980 053d 9103     		.2byte	0x391
 981 053f DA000000 		.4byte	0xda
 982 0543 30       		.byte	0x30
 983 0544 0B       		.uleb128 0xb
 984 0545 8B050000 		.4byte	.LASF90
 985 0549 08       		.byte	0x8
 986 054a 9203     		.2byte	0x392
 987 054c DA000000 		.4byte	0xda
 988 0550 34       		.byte	0x34
 989 0551 0B       		.uleb128 0xb
 990 0552 D4050000 		.4byte	.LASF91
 991 0556 08       		.byte	0x8
 992 0557 9303     		.2byte	0x393
 993 0559 DA000000 		.4byte	0xda
 994 055d 38       		.byte	0x38
 995 055e 0B       		.uleb128 0xb
 996 055f 4C050000 		.4byte	.LASF92
 997 0563 08       		.byte	0x8
 998 0564 9403     		.2byte	0x394
 999 0566 82040000 		.4byte	0x482
 1000 056a 3C       		.byte	0x3c
 1001 056b 0B       		.uleb128 0xb
 1002 056c 0B050000 		.4byte	.LASF93
 1003 0570 08       		.byte	0x8
 1004 0571 9503     		.2byte	0x395
 1005 0573 DA000000 		.4byte	0xda
 1006 0577 40       		.byte	0x40
 1007 0578 0B       		.uleb128 0xb
 1008 0579 69030000 		.4byte	.LASF94
 1009 057d 08       		.byte	0x8
 1010 057e 9603     		.2byte	0x396
 1011 0580 DA000000 		.4byte	0xda
 1012 0584 44       		.byte	0x44
 1013 0585 0B       		.uleb128 0xb
 1014 0586 DE050000 		.4byte	.LASF95
 1015 058a 08       		.byte	0x8
 1016 058b 9703     		.2byte	0x397
 1017 058d DA000000 		.4byte	0xda
 1018 0591 48       		.byte	0x48
 1019 0592 0B       		.uleb128 0xb
 1020 0593 56050000 		.4byte	.LASF96
 1021 0597 08       		.byte	0x8
 1022 0598 9803     		.2byte	0x398
 1023 059a 82040000 		.4byte	0x482
 1024 059e 4C       		.byte	0x4c
 1025 059f 0B       		.uleb128 0xb
 1026 05a0 11050000 		.4byte	.LASF97
ARM GAS  C:\cygwin64\tmp\ccXTzhUP.s 			page 19


 1027 05a4 08       		.byte	0x8
 1028 05a5 9903     		.2byte	0x399
 1029 05a7 DA000000 		.4byte	0xda
 1030 05ab 50       		.byte	0x50
 1031 05ac 0B       		.uleb128 0xb
 1032 05ad 7F030000 		.4byte	.LASF98
 1033 05b1 08       		.byte	0x8
 1034 05b2 9A03     		.2byte	0x39a
 1035 05b4 DA000000 		.4byte	0xda
 1036 05b8 54       		.byte	0x54
 1037 05b9 0B       		.uleb128 0xb
 1038 05ba E8050000 		.4byte	.LASF99
 1039 05be 08       		.byte	0x8
 1040 05bf 9B03     		.2byte	0x39b
 1041 05c1 DA000000 		.4byte	0xda
 1042 05c5 58       		.byte	0x58
 1043 05c6 00       		.byte	0
 1044 05c7 14       		.uleb128 0x14
 1045 05c8 1E070000 		.4byte	.LASF100
 1046 05cc 08       		.byte	0x8
 1047 05cd 9C03     		.2byte	0x39c
 1048 05cf 92040000 		.4byte	0x492
 1049 05d3 15       		.uleb128 0x15
 1050 05d4 BD050000 		.4byte	.LASF101
 1051 05d8 08       		.byte	0x8
 1052 05d9 4407     		.2byte	0x744
 1053 05db CA000000 		.4byte	0xca
 1054 05df 16       		.uleb128 0x16
 1055 05e0 6F030000 		.4byte	.LASF102
 1056 05e4 09       		.byte	0x9
 1057 05e5 4C       		.byte	0x4c
 1058 05e6 CF000000 		.4byte	0xcf
 1059 05ea 04       		.uleb128 0x4
 1060 05eb 0C030000 		.4byte	.LASF103
 1061 05ef 0A       		.byte	0xa
 1062 05f0 65       		.byte	0x65
 1063 05f1 46030000 		.4byte	0x346
 1064 05f5 04       		.uleb128 0x4
 1065 05f6 7C040000 		.4byte	.LASF104
 1066 05fa 0A       		.byte	0xa
 1067 05fb 6D       		.byte	0x6d
 1068 05fc E4000000 		.4byte	0xe4
 1069 0600 07       		.uleb128 0x7
 1070 0601 3A030000 		.4byte	.LASF105
 1071 0605 04       		.byte	0x4
 1072 0606 0A       		.byte	0xa
 1073 0607 89       		.byte	0x89
 1074 0608 18060000 		.4byte	0x618
 1075 060c 09       		.uleb128 0x9
 1076 060d 737000   		.ascii	"sp\000"
 1077 0610 0A       		.byte	0xa
 1078 0611 8A       		.byte	0x8a
 1079 0612 64070000 		.4byte	0x764
 1080 0616 00       		.byte	0
 1081 0617 00       		.byte	0
 1082 0618 0D       		.uleb128 0xd
 1083 0619 9A000000 		.4byte	.LASF106
ARM GAS  C:\cygwin64\tmp\ccXTzhUP.s 			page 20


 1084 061d 64       		.byte	0x64
 1085 061e 02       		.byte	0x2
 1086 061f 5901     		.2byte	0x159
 1087 0621 64070000 		.4byte	0x764
 1088 0625 0A       		.uleb128 0xa
 1089 0626 73313600 		.ascii	"s16\000"
 1090 062a 02       		.byte	0x2
 1091 062b 5B01     		.2byte	0x15b
 1092 062d EA050000 		.4byte	0x5ea
 1093 0631 00       		.byte	0
 1094 0632 0A       		.uleb128 0xa
 1095 0633 73313700 		.ascii	"s17\000"
 1096 0637 02       		.byte	0x2
 1097 0638 5C01     		.2byte	0x15c
 1098 063a EA050000 		.4byte	0x5ea
 1099 063e 04       		.byte	0x4
 1100 063f 0A       		.uleb128 0xa
 1101 0640 73313800 		.ascii	"s18\000"
 1102 0644 02       		.byte	0x2
 1103 0645 5D01     		.2byte	0x15d
 1104 0647 EA050000 		.4byte	0x5ea
 1105 064b 08       		.byte	0x8
 1106 064c 0A       		.uleb128 0xa
 1107 064d 73313900 		.ascii	"s19\000"
 1108 0651 02       		.byte	0x2
 1109 0652 5E01     		.2byte	0x15e
 1110 0654 EA050000 		.4byte	0x5ea
 1111 0658 0C       		.byte	0xc
 1112 0659 0A       		.uleb128 0xa
 1113 065a 73323000 		.ascii	"s20\000"
 1114 065e 02       		.byte	0x2
 1115 065f 5F01     		.2byte	0x15f
 1116 0661 EA050000 		.4byte	0x5ea
 1117 0665 10       		.byte	0x10
 1118 0666 0A       		.uleb128 0xa
 1119 0667 73323100 		.ascii	"s21\000"
 1120 066b 02       		.byte	0x2
 1121 066c 6001     		.2byte	0x160
 1122 066e EA050000 		.4byte	0x5ea
 1123 0672 14       		.byte	0x14
 1124 0673 0A       		.uleb128 0xa
 1125 0674 73323200 		.ascii	"s22\000"
 1126 0678 02       		.byte	0x2
 1127 0679 6101     		.2byte	0x161
 1128 067b EA050000 		.4byte	0x5ea
 1129 067f 18       		.byte	0x18
 1130 0680 0A       		.uleb128 0xa
 1131 0681 73323300 		.ascii	"s23\000"
 1132 0685 02       		.byte	0x2
 1133 0686 6201     		.2byte	0x162
 1134 0688 EA050000 		.4byte	0x5ea
 1135 068c 1C       		.byte	0x1c
 1136 068d 0A       		.uleb128 0xa
 1137 068e 73323400 		.ascii	"s24\000"
 1138 0692 02       		.byte	0x2
 1139 0693 6301     		.2byte	0x163
 1140 0695 EA050000 		.4byte	0x5ea
ARM GAS  C:\cygwin64\tmp\ccXTzhUP.s 			page 21


 1141 0699 20       		.byte	0x20
 1142 069a 0A       		.uleb128 0xa
 1143 069b 73323500 		.ascii	"s25\000"
 1144 069f 02       		.byte	0x2
 1145 06a0 6401     		.2byte	0x164
 1146 06a2 EA050000 		.4byte	0x5ea
 1147 06a6 24       		.byte	0x24
 1148 06a7 0A       		.uleb128 0xa
 1149 06a8 73323600 		.ascii	"s26\000"
 1150 06ac 02       		.byte	0x2
 1151 06ad 6501     		.2byte	0x165
 1152 06af EA050000 		.4byte	0x5ea
 1153 06b3 28       		.byte	0x28
 1154 06b4 0A       		.uleb128 0xa
 1155 06b5 73323700 		.ascii	"s27\000"
 1156 06b9 02       		.byte	0x2
 1157 06ba 6601     		.2byte	0x166
 1158 06bc EA050000 		.4byte	0x5ea
 1159 06c0 2C       		.byte	0x2c
 1160 06c1 0A       		.uleb128 0xa
 1161 06c2 73323800 		.ascii	"s28\000"
 1162 06c6 02       		.byte	0x2
 1163 06c7 6701     		.2byte	0x167
 1164 06c9 EA050000 		.4byte	0x5ea
 1165 06cd 30       		.byte	0x30
 1166 06ce 0A       		.uleb128 0xa
 1167 06cf 73323900 		.ascii	"s29\000"
 1168 06d3 02       		.byte	0x2
 1169 06d4 6801     		.2byte	0x168
 1170 06d6 EA050000 		.4byte	0x5ea
 1171 06da 34       		.byte	0x34
 1172 06db 0A       		.uleb128 0xa
 1173 06dc 73333000 		.ascii	"s30\000"
 1174 06e0 02       		.byte	0x2
 1175 06e1 6901     		.2byte	0x169
 1176 06e3 EA050000 		.4byte	0x5ea
 1177 06e7 38       		.byte	0x38
 1178 06e8 0A       		.uleb128 0xa
 1179 06e9 73333100 		.ascii	"s31\000"
 1180 06ed 02       		.byte	0x2
 1181 06ee 6A01     		.2byte	0x16a
 1182 06f0 EA050000 		.4byte	0x5ea
 1183 06f4 3C       		.byte	0x3c
 1184 06f5 0A       		.uleb128 0xa
 1185 06f6 723400   		.ascii	"r4\000"
 1186 06f9 02       		.byte	0x2
 1187 06fa 6C01     		.2byte	0x16c
 1188 06fc EA050000 		.4byte	0x5ea
 1189 0700 40       		.byte	0x40
 1190 0701 0A       		.uleb128 0xa
 1191 0702 723500   		.ascii	"r5\000"
 1192 0705 02       		.byte	0x2
 1193 0706 6D01     		.2byte	0x16d
 1194 0708 EA050000 		.4byte	0x5ea
 1195 070c 44       		.byte	0x44
 1196 070d 0A       		.uleb128 0xa
 1197 070e 723600   		.ascii	"r6\000"
ARM GAS  C:\cygwin64\tmp\ccXTzhUP.s 			page 22


 1198 0711 02       		.byte	0x2
 1199 0712 6E01     		.2byte	0x16e
 1200 0714 EA050000 		.4byte	0x5ea
 1201 0718 48       		.byte	0x48
 1202 0719 0A       		.uleb128 0xa
 1203 071a 723700   		.ascii	"r7\000"
 1204 071d 02       		.byte	0x2
 1205 071e 6F01     		.2byte	0x16f
 1206 0720 EA050000 		.4byte	0x5ea
 1207 0724 4C       		.byte	0x4c
 1208 0725 0A       		.uleb128 0xa
 1209 0726 723800   		.ascii	"r8\000"
 1210 0729 02       		.byte	0x2
 1211 072a 7001     		.2byte	0x170
 1212 072c EA050000 		.4byte	0x5ea
 1213 0730 50       		.byte	0x50
 1214 0731 0A       		.uleb128 0xa
 1215 0732 723900   		.ascii	"r9\000"
 1216 0735 02       		.byte	0x2
 1217 0736 7101     		.2byte	0x171
 1218 0738 EA050000 		.4byte	0x5ea
 1219 073c 54       		.byte	0x54
 1220 073d 0A       		.uleb128 0xa
 1221 073e 72313000 		.ascii	"r10\000"
 1222 0742 02       		.byte	0x2
 1223 0743 7201     		.2byte	0x172
 1224 0745 EA050000 		.4byte	0x5ea
 1225 0749 58       		.byte	0x58
 1226 074a 0A       		.uleb128 0xa
 1227 074b 72313100 		.ascii	"r11\000"
 1228 074f 02       		.byte	0x2
 1229 0750 7301     		.2byte	0x173
 1230 0752 EA050000 		.4byte	0x5ea
 1231 0756 5C       		.byte	0x5c
 1232 0757 0A       		.uleb128 0xa
 1233 0758 6C7200   		.ascii	"lr\000"
 1234 075b 02       		.byte	0x2
 1235 075c 7401     		.2byte	0x174
 1236 075e EA050000 		.4byte	0x5ea
 1237 0762 60       		.byte	0x60
 1238 0763 00       		.byte	0
 1239 0764 0C       		.uleb128 0xc
 1240 0765 04       		.byte	0x4
 1241 0766 18060000 		.4byte	0x618
 1242 076a 17       		.uleb128 0x17
 1243 076b 04       		.byte	0x4
 1244 076c 0B       		.byte	0xb
 1245 076d 38       		.byte	0x38
 1246 076e 7F070000 		.4byte	0x77f
 1247 0772 08       		.uleb128 0x8
 1248 0773 FA060000 		.4byte	.LASF107
 1249 0777 0B       		.byte	0xb
 1250 0778 3C       		.byte	0x3c
 1251 0779 EF000000 		.4byte	0xef
 1252 077d 00       		.byte	0
 1253 077e 00       		.byte	0
 1254 077f 04       		.uleb128 0x4
ARM GAS  C:\cygwin64\tmp\ccXTzhUP.s 			page 23


 1255 0780 EE040000 		.4byte	.LASF108
 1256 0784 0B       		.byte	0xb
 1257 0785 3D       		.byte	0x3d
 1258 0786 6A070000 		.4byte	0x76a
 1259 078a 17       		.uleb128 0x17
 1260 078b 18       		.byte	0x18
 1261 078c 0B       		.byte	0xb
 1262 078d 48       		.byte	0x48
 1263 078e CD070000 		.4byte	0x7cd
 1264 0792 08       		.uleb128 0x8
 1265 0793 BA030000 		.4byte	.LASF109
 1266 0797 0B       		.byte	0xb
 1267 0798 49       		.byte	0x49
 1268 0799 EF000000 		.4byte	0xef
 1269 079d 00       		.byte	0
 1270 079e 08       		.uleb128 0x8
 1271 079f D1000000 		.4byte	.LASF110
 1272 07a3 0B       		.byte	0xb
 1273 07a4 4A       		.byte	0x4a
 1274 07a5 EF000000 		.4byte	0xef
 1275 07a9 04       		.byte	0x4
 1276 07aa 08       		.uleb128 0x8
 1277 07ab F2030000 		.4byte	.LASF111
 1278 07af 0B       		.byte	0xb
 1279 07b0 4B       		.byte	0x4b
 1280 07b1 EF000000 		.4byte	0xef
 1281 07b5 08       		.byte	0x8
 1282 07b6 09       		.uleb128 0x9
 1283 07b7 6E00     		.ascii	"n\000"
 1284 07b9 0B       		.byte	0xb
 1285 07ba 4C       		.byte	0x4c
 1286 07bb 52010000 		.4byte	0x152
 1287 07bf 0C       		.byte	0xc
 1288 07c0 08       		.uleb128 0x8
 1289 07c1 2F050000 		.4byte	.LASF112
 1290 07c5 0B       		.byte	0xb
 1291 07c6 4D       		.byte	0x4d
 1292 07c7 FA000000 		.4byte	0xfa
 1293 07cb 10       		.byte	0x10
 1294 07cc 00       		.byte	0
 1295 07cd 04       		.uleb128 0x4
 1296 07ce D7000000 		.4byte	.LASF113
 1297 07d2 0B       		.byte	0xb
 1298 07d3 4E       		.byte	0x4e
 1299 07d4 8A070000 		.4byte	0x78a
 1300 07d8 17       		.uleb128 0x17
 1301 07d9 38       		.byte	0x38
 1302 07da 0C       		.byte	0xc
 1303 07db 38       		.byte	0x38
 1304 07dc 11080000 		.4byte	0x811
 1305 07e0 08       		.uleb128 0x8
 1306 07e1 A8030000 		.4byte	.LASF114
 1307 07e5 0C       		.byte	0xc
 1308 07e6 39       		.byte	0x39
 1309 07e7 52010000 		.4byte	0x152
 1310 07eb 00       		.byte	0
 1311 07ec 08       		.uleb128 0x8
ARM GAS  C:\cygwin64\tmp\ccXTzhUP.s 			page 24


 1312 07ed 82050000 		.4byte	.LASF115
 1313 07f1 0C       		.byte	0xc
 1314 07f2 3A       		.byte	0x3a
 1315 07f3 52010000 		.4byte	0x152
 1316 07f7 04       		.byte	0x4
 1317 07f8 08       		.uleb128 0x8
 1318 07f9 B6070000 		.4byte	.LASF116
 1319 07fd 0C       		.byte	0xc
 1320 07fe 3B       		.byte	0x3b
 1321 07ff CD070000 		.4byte	0x7cd
 1322 0803 08       		.byte	0x8
 1323 0804 08       		.uleb128 0x8
 1324 0805 2C040000 		.4byte	.LASF117
 1325 0809 0C       		.byte	0xc
 1326 080a 3D       		.byte	0x3d
 1327 080b CD070000 		.4byte	0x7cd
 1328 080f 20       		.byte	0x20
 1329 0810 00       		.byte	0
 1330 0811 04       		.uleb128 0x4
 1331 0812 C8030000 		.4byte	.LASF118
 1332 0816 0C       		.byte	0xc
 1333 0817 3F       		.byte	0x3f
 1334 0818 D8070000 		.4byte	0x7d8
 1335 081c 18       		.uleb128 0x18
 1336 081d 04       		.byte	0x4
 1337 081e 07       		.byte	0x7
 1338 081f D2       		.byte	0xd2
 1339 0820 7F080000 		.4byte	0x87f
 1340 0824 19       		.uleb128 0x19
 1341 0825 47000000 		.4byte	.LASF119
 1342 0829 07       		.byte	0x7
 1343 082a D9       		.byte	0xd9
 1344 082b 31010000 		.4byte	0x131
 1345 082f 19       		.uleb128 0x19
 1346 0830 01010000 		.4byte	.LASF120
 1347 0834 07       		.byte	0x7
 1348 0835 E0       		.byte	0xe0
 1349 0836 31010000 		.4byte	0x131
 1350 083a 19       		.uleb128 0x19
 1351 083b 7C070000 		.4byte	.LASF121
 1352 083f 07       		.byte	0x7
 1353 0840 E7       		.byte	0xe7
 1354 0841 46030000 		.4byte	0x346
 1355 0845 19       		.uleb128 0x19
 1356 0846 3B000000 		.4byte	.LASF122
 1357 084a 07       		.byte	0x7
 1358 084b EE       		.byte	0xee
 1359 084c 7F080000 		.4byte	0x87f
 1360 0850 19       		.uleb128 0x19
 1361 0851 AE070000 		.4byte	.LASF123
 1362 0855 07       		.byte	0x7
 1363 0856 F3       		.byte	0xf3
 1364 0857 31010000 		.4byte	0x131
 1365 085b 19       		.uleb128 0x19
 1366 085c 85030000 		.4byte	.LASF124
 1367 0860 07       		.byte	0x7
 1368 0861 FC       		.byte	0xfc
ARM GAS  C:\cygwin64\tmp\ccXTzhUP.s 			page 25


 1369 0862 AA080000 		.4byte	0x8aa
 1370 0866 1A       		.uleb128 0x1a
 1371 0867 68060000 		.4byte	.LASF125
 1372 086b 07       		.byte	0x7
 1373 086c 0501     		.2byte	0x105
 1374 086e E1080000 		.4byte	0x8e1
 1375 0872 1A       		.uleb128 0x1a
 1376 0873 05060000 		.4byte	.LASF126
 1377 0877 07       		.byte	0x7
 1378 0878 0D01     		.2byte	0x10d
 1379 087a 3C010000 		.4byte	0x13c
 1380 087e 00       		.byte	0
 1381 087f 0C       		.uleb128 0xc
 1382 0880 04       		.byte	0x4
 1383 0881 5E020000 		.4byte	0x25e
 1384 0885 07       		.uleb128 0x7
 1385 0886 27060000 		.4byte	.LASF127
 1386 088a 0C       		.byte	0xc
 1387 088b 0D       		.byte	0xd
 1388 088c 34       		.byte	0x34
 1389 088d AA080000 		.4byte	0x8aa
 1390 0891 08       		.uleb128 0x8
 1391 0892 AE030000 		.4byte	.LASF32
 1392 0896 0D       		.byte	0xd
 1393 0897 35       		.byte	0x35
 1394 0898 93020000 		.4byte	0x293
 1395 089c 00       		.byte	0
 1396 089d 09       		.uleb128 0x9
 1397 089e 636E7400 		.ascii	"cnt\000"
 1398 08a2 0D       		.byte	0xd
 1399 08a3 37       		.byte	0x37
 1400 08a4 47010000 		.4byte	0x147
 1401 08a8 08       		.byte	0x8
 1402 08a9 00       		.byte	0
 1403 08aa 0C       		.uleb128 0xc
 1404 08ab 04       		.byte	0x4
 1405 08ac 85080000 		.4byte	0x885
 1406 08b0 07       		.uleb128 0x7
 1407 08b1 57070000 		.4byte	.LASF128
 1408 08b5 10       		.byte	0x10
 1409 08b6 0E       		.byte	0xe
 1410 08b7 39       		.byte	0x39
 1411 08b8 E1080000 		.4byte	0x8e1
 1412 08bc 08       		.uleb128 0x8
 1413 08bd AE030000 		.4byte	.LASF32
 1414 08c1 0E       		.byte	0xe
 1415 08c2 3A       		.byte	0x3a
 1416 08c3 93020000 		.4byte	0x293
 1417 08c7 00       		.byte	0
 1418 08c8 08       		.uleb128 0x8
 1419 08c9 7F060000 		.4byte	.LASF129
 1420 08cd 0E       		.byte	0xe
 1421 08ce 3C       		.byte	0x3c
 1422 08cf 69020000 		.4byte	0x269
 1423 08d3 08       		.byte	0x8
 1424 08d4 08       		.uleb128 0x8
 1425 08d5 42010000 		.4byte	.LASF52
ARM GAS  C:\cygwin64\tmp\ccXTzhUP.s 			page 26


 1426 08d9 0E       		.byte	0xe
 1427 08da 3E       		.byte	0x3e
 1428 08db 430A0000 		.4byte	0xa43
 1429 08df 0C       		.byte	0xc
 1430 08e0 00       		.byte	0
 1431 08e1 0C       		.uleb128 0xc
 1432 08e2 04       		.byte	0x4
 1433 08e3 B0080000 		.4byte	0x8b0
 1434 08e7 0C       		.uleb128 0xc
 1435 08e8 04       		.byte	0x4
 1436 08e9 F9080000 		.4byte	0x8f9
 1437 08ed 05       		.uleb128 0x5
 1438 08ee E7080000 		.4byte	0x8e7
 1439 08f2 03       		.uleb128 0x3
 1440 08f3 01       		.byte	0x1
 1441 08f4 08       		.byte	0x8
 1442 08f5 A4060000 		.4byte	.LASF130
 1443 08f9 06       		.uleb128 0x6
 1444 08fa F2080000 		.4byte	0x8f2
 1445 08fe 0C       		.uleb128 0xc
 1446 08ff 04       		.byte	0x4
 1447 0900 F5050000 		.4byte	0x5f5
 1448 0904 0C       		.uleb128 0xc
 1449 0905 04       		.byte	0x4
 1450 0906 48030000 		.4byte	0x348
 1451 090a 1B       		.uleb128 0x1b
 1452 090b 636800   		.ascii	"ch\000"
 1453 090e 07       		.byte	0x7
 1454 090f D201     		.2byte	0x1d2
 1455 0911 15040000 		.4byte	0x415
 1456 0915 11       		.uleb128 0x11
 1457 0916 F5050000 		.4byte	0x5f5
 1458 091a 20090000 		.4byte	0x920
 1459 091e 1C       		.uleb128 0x1c
 1460 091f 00       		.byte	0
 1461 0920 15       		.uleb128 0x15
 1462 0921 3D060000 		.4byte	.LASF131
 1463 0925 0F       		.byte	0xf
 1464 0926 2B01     		.2byte	0x12b
 1465 0928 15090000 		.4byte	0x915
 1466 092c 17       		.uleb128 0x17
 1467 092d 16       		.byte	0x16
 1468 092e 10       		.byte	0x10
 1469 092f 34       		.byte	0x34
 1470 0930 0D0A0000 		.4byte	0xa0d
 1471 0934 08       		.uleb128 0x8
 1472 0935 27070000 		.4byte	.LASF132
 1473 0939 10       		.byte	0x10
 1474 093a 35       		.byte	0x35
 1475 093b 0D0A0000 		.4byte	0xa0d
 1476 093f 00       		.byte	0
 1477 0940 08       		.uleb128 0x8
 1478 0941 2D030000 		.4byte	.LASF133
 1479 0945 10       		.byte	0x10
 1480 0946 36       		.byte	0x36
 1481 0947 A9000000 		.4byte	0xa9
 1482 094b 04       		.byte	0x4
ARM GAS  C:\cygwin64\tmp\ccXTzhUP.s 			page 27


 1483 094c 08       		.uleb128 0x8
 1484 094d 74010000 		.4byte	.LASF134
 1485 0951 10       		.byte	0x10
 1486 0952 37       		.byte	0x37
 1487 0953 A9000000 		.4byte	0xa9
 1488 0957 05       		.byte	0x5
 1489 0958 08       		.uleb128 0x8
 1490 0959 9D040000 		.4byte	.LASF135
 1491 095d 10       		.byte	0x10
 1492 095e 38       		.byte	0x38
 1493 095f B4000000 		.4byte	0xb4
 1494 0963 06       		.byte	0x6
 1495 0964 08       		.uleb128 0x8
 1496 0965 3F070000 		.4byte	.LASF136
 1497 0969 10       		.byte	0x10
 1498 096a 39       		.byte	0x39
 1499 096b A9000000 		.4byte	0xa9
 1500 096f 08       		.byte	0x8
 1501 0970 08       		.uleb128 0x8
 1502 0971 4F060000 		.4byte	.LASF137
 1503 0975 10       		.byte	0x10
 1504 0976 3A       		.byte	0x3a
 1505 0977 A9000000 		.4byte	0xa9
 1506 097b 09       		.byte	0x9
 1507 097c 08       		.uleb128 0x8
 1508 097d C6000000 		.4byte	.LASF138
 1509 0981 10       		.byte	0x10
 1510 0982 3B       		.byte	0x3b
 1511 0983 A9000000 		.4byte	0xa9
 1512 0987 0A       		.byte	0xa
 1513 0988 08       		.uleb128 0x8
 1514 0989 A7050000 		.4byte	.LASF139
 1515 098d 10       		.byte	0x10
 1516 098e 3C       		.byte	0x3c
 1517 098f A9000000 		.4byte	0xa9
 1518 0993 0B       		.byte	0xb
 1519 0994 08       		.uleb128 0x8
 1520 0995 13040000 		.4byte	.LASF140
 1521 0999 10       		.byte	0x10
 1522 099a 3D       		.byte	0x3d
 1523 099b A9000000 		.4byte	0xa9
 1524 099f 0C       		.byte	0xc
 1525 09a0 08       		.uleb128 0x8
 1526 09a1 E4040000 		.4byte	.LASF141
 1527 09a5 10       		.byte	0x10
 1528 09a6 3E       		.byte	0x3e
 1529 09a7 A9000000 		.4byte	0xa9
 1530 09ab 0D       		.byte	0xd
 1531 09ac 08       		.uleb128 0x8
 1532 09ad 01070000 		.4byte	.LASF142
 1533 09b1 10       		.byte	0x10
 1534 09b2 3F       		.byte	0x3f
 1535 09b3 A9000000 		.4byte	0xa9
 1536 09b7 0E       		.byte	0xe
 1537 09b8 08       		.uleb128 0x8
 1538 09b9 51040000 		.4byte	.LASF143
 1539 09bd 10       		.byte	0x10
ARM GAS  C:\cygwin64\tmp\ccXTzhUP.s 			page 28


 1540 09be 40       		.byte	0x40
 1541 09bf A9000000 		.4byte	0xa9
 1542 09c3 0F       		.byte	0xf
 1543 09c4 08       		.uleb128 0x8
 1544 09c5 B0050000 		.4byte	.LASF144
 1545 09c9 10       		.byte	0x10
 1546 09ca 41       		.byte	0x41
 1547 09cb A9000000 		.4byte	0xa9
 1548 09cf 10       		.byte	0x10
 1549 09d0 08       		.uleb128 0x8
 1550 09d1 92070000 		.4byte	.LASF145
 1551 09d5 10       		.byte	0x10
 1552 09d6 42       		.byte	0x42
 1553 09d7 A9000000 		.4byte	0xa9
 1554 09db 11       		.byte	0x11
 1555 09dc 08       		.uleb128 0x8
 1556 09dd 9C070000 		.4byte	.LASF146
 1557 09e1 10       		.byte	0x10
 1558 09e2 43       		.byte	0x43
 1559 09e3 A9000000 		.4byte	0xa9
 1560 09e7 12       		.byte	0x12
 1561 09e8 08       		.uleb128 0x8
 1562 09e9 BF030000 		.4byte	.LASF147
 1563 09ed 10       		.byte	0x10
 1564 09ee 44       		.byte	0x44
 1565 09ef A9000000 		.4byte	0xa9
 1566 09f3 13       		.byte	0x13
 1567 09f4 08       		.uleb128 0x8
 1568 09f5 F5020000 		.4byte	.LASF148
 1569 09f9 10       		.byte	0x10
 1570 09fa 45       		.byte	0x45
 1571 09fb A9000000 		.4byte	0xa9
 1572 09ff 14       		.byte	0x14
 1573 0a00 08       		.uleb128 0x8
 1574 0a01 34060000 		.4byte	.LASF149
 1575 0a05 10       		.byte	0x10
 1576 0a06 46       		.byte	0x46
 1577 0a07 A9000000 		.4byte	0xa9
 1578 0a0b 15       		.byte	0x15
 1579 0a0c 00       		.byte	0
 1580 0a0d 11       		.uleb128 0x11
 1581 0a0e F2080000 		.4byte	0x8f2
 1582 0a12 1D0A0000 		.4byte	0xa1d
 1583 0a16 12       		.uleb128 0x12
 1584 0a17 7B040000 		.4byte	0x47b
 1585 0a1b 03       		.byte	0x3
 1586 0a1c 00       		.byte	0
 1587 0a1d 04       		.uleb128 0x4
 1588 0a1e EB020000 		.4byte	.LASF150
 1589 0a22 10       		.byte	0x10
 1590 0a23 47       		.byte	0x47
 1591 0a24 2C090000 		.4byte	0x92c
 1592 0a28 06       		.uleb128 0x6
 1593 0a29 1D0A0000 		.4byte	0xa1d
 1594 0a2d 16       		.uleb128 0x16
 1595 0a2e 95030000 		.4byte	.LASF151
 1596 0a32 10       		.byte	0x10
ARM GAS  C:\cygwin64\tmp\ccXTzhUP.s 			page 29


 1597 0a33 6C       		.byte	0x6c
 1598 0a34 280A0000 		.4byte	0xa28
 1599 0a38 04       		.uleb128 0x4
 1600 0a39 32030000 		.4byte	.LASF152
 1601 0a3d 0E       		.byte	0xe
 1602 0a3e 34       		.byte	0x34
 1603 0a3f B0080000 		.4byte	0x8b0
 1604 0a43 0C       		.uleb128 0xc
 1605 0a44 04       		.byte	0x4
 1606 0a45 380A0000 		.4byte	0xa38
 1607 0a49 03       		.uleb128 0x3
 1608 0a4a 01       		.byte	0x1
 1609 0a4b 02       		.byte	0x2
 1610 0a4c 85060000 		.4byte	.LASF153
 1611 0a50 1D       		.uleb128 0x1d
 1612 0a51 64040000 		.4byte	.LASF156
 1613 0a55 01       		.byte	0x1
 1614 0a56 90       		.byte	0x90
 1615 0a57 00000000 		.4byte	.LFB251
 1616 0a5b 38000000 		.4byte	.LFE251-.LFB251
 1617 0a5f 01       		.uleb128 0x1
 1618 0a60 9C       		.byte	0x9c
 1619 0a61 BA0A0000 		.4byte	0xaba
 1620 0a65 1E       		.uleb128 0x1e
 1621 0a66 50010000 		.4byte	.LASF154
 1622 0a6a 01       		.byte	0x1
 1623 0a6b 90       		.byte	0x90
 1624 0a6c BA0A0000 		.4byte	0xaba
 1625 0a70 01       		.uleb128 0x1
 1626 0a71 50       		.byte	0x50
 1627 0a72 1E       		.uleb128 0x1e
 1628 0a73 55010000 		.4byte	.LASF155
 1629 0a77 01       		.byte	0x1
 1630 0a78 91       		.byte	0x91
 1631 0a79 BA0A0000 		.4byte	0xaba
 1632 0a7d 01       		.uleb128 0x1
 1633 0a7e 51       		.byte	0x51
 1634 0a7f 1F       		.uleb128 0x1f
 1635 0a80 FB0B0000 		.4byte	0xbfb
 1636 0a84 00000000 		.4byte	.LBB28
 1637 0a88 38000000 		.4byte	.Ldebug_ranges0+0x38
 1638 0a8c 01       		.byte	0x1
 1639 0a8d 94       		.byte	0x94
 1640 0a8e 20       		.uleb128 0x20
 1641 0a8f CD0B0000 		.4byte	0xbcd
 1642 0a93 02000000 		.4byte	.LBB31
 1643 0a97 50000000 		.4byte	.Ldebug_ranges0+0x50
 1644 0a9b 01       		.byte	0x1
 1645 0a9c 97       		.byte	0x97
 1646 0a9d 21       		.uleb128 0x21
 1647 0a9e EF0B0000 		.4byte	0xbef
 1648 0aa2 00000000 		.4byte	.LLST3
 1649 0aa6 21       		.uleb128 0x21
 1650 0aa7 E40B0000 		.4byte	0xbe4
 1651 0aab 14000000 		.4byte	.LLST4
 1652 0aaf 21       		.uleb128 0x21
 1653 0ab0 D90B0000 		.4byte	0xbd9
ARM GAS  C:\cygwin64\tmp\ccXTzhUP.s 			page 30


 1654 0ab4 33000000 		.4byte	.LLST5
 1655 0ab8 00       		.byte	0
 1656 0ab9 00       		.byte	0
 1657 0aba 0C       		.uleb128 0xc
 1658 0abb 04       		.byte	0x4
 1659 0abc CD070000 		.4byte	0x7cd
 1660 0ac0 1D       		.uleb128 0x1d
 1661 0ac1 B9020000 		.4byte	.LASF157
 1662 0ac5 01       		.byte	0x1
 1663 0ac6 7F       		.byte	0x7f
 1664 0ac7 00000000 		.4byte	.LFB250
 1665 0acb 44000000 		.4byte	.LFE250-.LFB250
 1666 0acf 01       		.uleb128 0x1
 1667 0ad0 9C       		.byte	0x9c
 1668 0ad1 1D0B0000 		.4byte	0xb1d
 1669 0ad5 22       		.uleb128 0x22
 1670 0ad6 746D7000 		.ascii	"tmp\000"
 1671 0ada 01       		.byte	0x1
 1672 0adb 7F       		.byte	0x7f
 1673 0adc BA0A0000 		.4byte	0xaba
 1674 0ae0 01       		.uleb128 0x1
 1675 0ae1 50       		.byte	0x50
 1676 0ae2 1F       		.uleb128 0x1f
 1677 0ae3 FB0B0000 		.4byte	0xbfb
 1678 0ae7 02000000 		.4byte	.LBB14
 1679 0aeb 00000000 		.4byte	.Ldebug_ranges0+0
 1680 0aef 01       		.byte	0x1
 1681 0af0 81       		.byte	0x81
 1682 0af1 20       		.uleb128 0x20
 1683 0af2 CD0B0000 		.4byte	0xbcd
 1684 0af6 08000000 		.4byte	.LBB17
 1685 0afa 18000000 		.4byte	.Ldebug_ranges0+0x18
 1686 0afe 01       		.byte	0x1
 1687 0aff 81       		.byte	0x81
 1688 0b00 21       		.uleb128 0x21
 1689 0b01 EF0B0000 		.4byte	0xbef
 1690 0b05 46000000 		.4byte	.LLST0
 1691 0b09 21       		.uleb128 0x21
 1692 0b0a E40B0000 		.4byte	0xbe4
 1693 0b0e 59000000 		.4byte	.LLST1
 1694 0b12 21       		.uleb128 0x21
 1695 0b13 D90B0000 		.4byte	0xbd9
 1696 0b17 6C000000 		.4byte	.LLST2
 1697 0b1b 00       		.byte	0
 1698 0b1c 00       		.byte	0
 1699 0b1d 1D       		.uleb128 0x1d
 1700 0b1e 9D020000 		.4byte	.LASF158
 1701 0b22 01       		.byte	0x1
 1702 0b23 72       		.byte	0x72
 1703 0b24 00000000 		.4byte	.LFB249
 1704 0b28 0C000000 		.4byte	.LFE249-.LFB249
 1705 0b2c 01       		.uleb128 0x1
 1706 0b2d 9C       		.byte	0x9c
 1707 0b2e 4F0B0000 		.4byte	0xb4f
 1708 0b32 22       		.uleb128 0x22
 1709 0b33 746D7000 		.ascii	"tmp\000"
 1710 0b37 01       		.byte	0x1
ARM GAS  C:\cygwin64\tmp\ccXTzhUP.s 			page 31


 1711 0b38 72       		.byte	0x72
 1712 0b39 BA0A0000 		.4byte	0xaba
 1713 0b3d 01       		.uleb128 0x1
 1714 0b3e 50       		.byte	0x50
 1715 0b3f 23       		.uleb128 0x23
 1716 0b40 FB0B0000 		.4byte	0xbfb
 1717 0b44 00000000 		.4byte	.LBB8
 1718 0b48 04000000 		.4byte	.LBE8-.LBB8
 1719 0b4c 01       		.byte	0x1
 1720 0b4d 74       		.byte	0x74
 1721 0b4e 00       		.byte	0
 1722 0b4f 1D       		.uleb128 0x1d
 1723 0b50 33010000 		.4byte	.LASF159
 1724 0b54 01       		.byte	0x1
 1725 0b55 61       		.byte	0x61
 1726 0b56 00000000 		.4byte	.LFB248
 1727 0b5a 18000000 		.4byte	.LFE248-.LFB248
 1728 0b5e 01       		.uleb128 0x1
 1729 0b5f 9C       		.byte	0x9c
 1730 0b60 720B0000 		.4byte	0xb72
 1731 0b64 22       		.uleb128 0x22
 1732 0b65 746D7000 		.ascii	"tmp\000"
 1733 0b69 01       		.byte	0x1
 1734 0b6a 61       		.byte	0x61
 1735 0b6b BA0A0000 		.4byte	0xaba
 1736 0b6f 01       		.uleb128 0x1
 1737 0b70 50       		.byte	0x50
 1738 0b71 00       		.byte	0
 1739 0b72 1D       		.uleb128 0x1d
 1740 0b73 8C030000 		.4byte	.LASF160
 1741 0b77 01       		.byte	0x1
 1742 0b78 4D       		.byte	0x4d
 1743 0b79 00000000 		.4byte	.LFB247
 1744 0b7d 2C000000 		.4byte	.LFE247-.LFB247
 1745 0b81 01       		.uleb128 0x1
 1746 0b82 9C       		.byte	0x9c
 1747 0b83 CD0B0000 		.4byte	0xbcd
 1748 0b87 24       		.uleb128 0x24
 1749 0b88 746D00   		.ascii	"tm\000"
 1750 0b8b 01       		.byte	0x1
 1751 0b8c 4E       		.byte	0x4e
 1752 0b8d CD070000 		.4byte	0x7cd
 1753 0b91 02       		.uleb128 0x2
 1754 0b92 91       		.byte	0x91
 1755 0b93 60       		.sleb128 -32
 1756 0b94 25       		.uleb128 0x25
 1757 0b95 12000000 		.4byte	.LVL7
 1758 0b99 4F0B0000 		.4byte	0xb4f
 1759 0b9d A80B0000 		.4byte	0xba8
 1760 0ba1 26       		.uleb128 0x26
 1761 0ba2 01       		.uleb128 0x1
 1762 0ba3 50       		.byte	0x50
 1763 0ba4 02       		.uleb128 0x2
 1764 0ba5 70       		.byte	0x70
 1765 0ba6 00       		.sleb128 0
 1766 0ba7 00       		.byte	0
 1767 0ba8 25       		.uleb128 0x25
ARM GAS  C:\cygwin64\tmp\ccXTzhUP.s 			page 32


 1768 0ba9 18000000 		.4byte	.LVL8
 1769 0bad 1D0B0000 		.4byte	0xb1d
 1770 0bb1 BC0B0000 		.4byte	0xbbc
 1771 0bb5 26       		.uleb128 0x26
 1772 0bb6 01       		.uleb128 0x1
 1773 0bb7 50       		.byte	0x50
 1774 0bb8 02       		.uleb128 0x2
 1775 0bb9 70       		.byte	0x70
 1776 0bba 00       		.sleb128 0
 1777 0bbb 00       		.byte	0
 1778 0bbc 27       		.uleb128 0x27
 1779 0bbd 1E000000 		.4byte	.LVL9
 1780 0bc1 C00A0000 		.4byte	0xac0
 1781 0bc5 26       		.uleb128 0x26
 1782 0bc6 01       		.uleb128 0x1
 1783 0bc7 50       		.byte	0x50
 1784 0bc8 02       		.uleb128 0x2
 1785 0bc9 70       		.byte	0x70
 1786 0bca 00       		.sleb128 0
 1787 0bcb 00       		.byte	0
 1788 0bcc 00       		.byte	0
 1789 0bcd 28       		.uleb128 0x28
 1790 0bce 15010000 		.4byte	.LASF164
 1791 0bd2 01       		.byte	0x1
 1792 0bd3 35       		.byte	0x35
 1793 0bd4 03       		.byte	0x3
 1794 0bd5 FB0B0000 		.4byte	0xbfb
 1795 0bd9 29       		.uleb128 0x29
 1796 0bda 746D7000 		.ascii	"tmp\000"
 1797 0bde 01       		.byte	0x1
 1798 0bdf 35       		.byte	0x35
 1799 0be0 BA0A0000 		.4byte	0xaba
 1800 0be4 29       		.uleb128 0x29
 1801 0be5 6E6F7700 		.ascii	"now\000"
 1802 0be9 01       		.byte	0x1
 1803 0bea 36       		.byte	0x36
 1804 0beb EF000000 		.4byte	0xef
 1805 0bef 2A       		.uleb128 0x2a
 1806 0bf0 FA060000 		.4byte	.LASF107
 1807 0bf4 01       		.byte	0x1
 1808 0bf5 37       		.byte	0x37
 1809 0bf6 EF000000 		.4byte	0xef
 1810 0bfa 00       		.byte	0
 1811 0bfb 2B       		.uleb128 0x2b
 1812 0bfc C3060000 		.4byte	.LASF165
 1813 0c00 02       		.byte	0x2
 1814 0c01 C202     		.2byte	0x2c2
 1815 0c03 EF000000 		.4byte	0xef
 1816 0c07 03       		.byte	0x3
 1817 0c08 00       		.byte	0
 1818              		.section	.debug_abbrev,"",%progbits
 1819              	.Ldebug_abbrev0:
 1820 0000 01       		.uleb128 0x1
 1821 0001 11       		.uleb128 0x11
 1822 0002 01       		.byte	0x1
 1823 0003 25       		.uleb128 0x25
 1824 0004 0E       		.uleb128 0xe
ARM GAS  C:\cygwin64\tmp\ccXTzhUP.s 			page 33


 1825 0005 13       		.uleb128 0x13
 1826 0006 0B       		.uleb128 0xb
 1827 0007 03       		.uleb128 0x3
 1828 0008 0E       		.uleb128 0xe
 1829 0009 1B       		.uleb128 0x1b
 1830 000a 0E       		.uleb128 0xe
 1831 000b 55       		.uleb128 0x55
 1832 000c 17       		.uleb128 0x17
 1833 000d 11       		.uleb128 0x11
 1834 000e 01       		.uleb128 0x1
 1835 000f 10       		.uleb128 0x10
 1836 0010 17       		.uleb128 0x17
 1837 0011 00       		.byte	0
 1838 0012 00       		.byte	0
 1839 0013 02       		.uleb128 0x2
 1840 0014 24       		.uleb128 0x24
 1841 0015 00       		.byte	0
 1842 0016 0B       		.uleb128 0xb
 1843 0017 0B       		.uleb128 0xb
 1844 0018 3E       		.uleb128 0x3e
 1845 0019 0B       		.uleb128 0xb
 1846 001a 03       		.uleb128 0x3
 1847 001b 08       		.uleb128 0x8
 1848 001c 00       		.byte	0
 1849 001d 00       		.byte	0
 1850 001e 03       		.uleb128 0x3
 1851 001f 24       		.uleb128 0x24
 1852 0020 00       		.byte	0
 1853 0021 0B       		.uleb128 0xb
 1854 0022 0B       		.uleb128 0xb
 1855 0023 3E       		.uleb128 0x3e
 1856 0024 0B       		.uleb128 0xb
 1857 0025 03       		.uleb128 0x3
 1858 0026 0E       		.uleb128 0xe
 1859 0027 00       		.byte	0
 1860 0028 00       		.byte	0
 1861 0029 04       		.uleb128 0x4
 1862 002a 16       		.uleb128 0x16
 1863 002b 00       		.byte	0
 1864 002c 03       		.uleb128 0x3
 1865 002d 0E       		.uleb128 0xe
 1866 002e 3A       		.uleb128 0x3a
 1867 002f 0B       		.uleb128 0xb
 1868 0030 3B       		.uleb128 0x3b
 1869 0031 0B       		.uleb128 0xb
 1870 0032 49       		.uleb128 0x49
 1871 0033 13       		.uleb128 0x13
 1872 0034 00       		.byte	0
 1873 0035 00       		.byte	0
 1874 0036 05       		.uleb128 0x5
 1875 0037 35       		.uleb128 0x35
 1876 0038 00       		.byte	0
 1877 0039 49       		.uleb128 0x49
 1878 003a 13       		.uleb128 0x13
 1879 003b 00       		.byte	0
 1880 003c 00       		.byte	0
 1881 003d 06       		.uleb128 0x6
ARM GAS  C:\cygwin64\tmp\ccXTzhUP.s 			page 34


 1882 003e 26       		.uleb128 0x26
 1883 003f 00       		.byte	0
 1884 0040 49       		.uleb128 0x49
 1885 0041 13       		.uleb128 0x13
 1886 0042 00       		.byte	0
 1887 0043 00       		.byte	0
 1888 0044 07       		.uleb128 0x7
 1889 0045 13       		.uleb128 0x13
 1890 0046 01       		.byte	0x1
 1891 0047 03       		.uleb128 0x3
 1892 0048 0E       		.uleb128 0xe
 1893 0049 0B       		.uleb128 0xb
 1894 004a 0B       		.uleb128 0xb
 1895 004b 3A       		.uleb128 0x3a
 1896 004c 0B       		.uleb128 0xb
 1897 004d 3B       		.uleb128 0x3b
 1898 004e 0B       		.uleb128 0xb
 1899 004f 01       		.uleb128 0x1
 1900 0050 13       		.uleb128 0x13
 1901 0051 00       		.byte	0
 1902 0052 00       		.byte	0
 1903 0053 08       		.uleb128 0x8
 1904 0054 0D       		.uleb128 0xd
 1905 0055 00       		.byte	0
 1906 0056 03       		.uleb128 0x3
 1907 0057 0E       		.uleb128 0xe
 1908 0058 3A       		.uleb128 0x3a
 1909 0059 0B       		.uleb128 0xb
 1910 005a 3B       		.uleb128 0x3b
 1911 005b 0B       		.uleb128 0xb
 1912 005c 49       		.uleb128 0x49
 1913 005d 13       		.uleb128 0x13
 1914 005e 38       		.uleb128 0x38
 1915 005f 0B       		.uleb128 0xb
 1916 0060 00       		.byte	0
 1917 0061 00       		.byte	0
 1918 0062 09       		.uleb128 0x9
 1919 0063 0D       		.uleb128 0xd
 1920 0064 00       		.byte	0
 1921 0065 03       		.uleb128 0x3
 1922 0066 08       		.uleb128 0x8
 1923 0067 3A       		.uleb128 0x3a
 1924 0068 0B       		.uleb128 0xb
 1925 0069 3B       		.uleb128 0x3b
 1926 006a 0B       		.uleb128 0xb
 1927 006b 49       		.uleb128 0x49
 1928 006c 13       		.uleb128 0x13
 1929 006d 38       		.uleb128 0x38
 1930 006e 0B       		.uleb128 0xb
 1931 006f 00       		.byte	0
 1932 0070 00       		.byte	0
 1933 0071 0A       		.uleb128 0xa
 1934 0072 0D       		.uleb128 0xd
 1935 0073 00       		.byte	0
 1936 0074 03       		.uleb128 0x3
 1937 0075 08       		.uleb128 0x8
 1938 0076 3A       		.uleb128 0x3a
ARM GAS  C:\cygwin64\tmp\ccXTzhUP.s 			page 35


 1939 0077 0B       		.uleb128 0xb
 1940 0078 3B       		.uleb128 0x3b
 1941 0079 05       		.uleb128 0x5
 1942 007a 49       		.uleb128 0x49
 1943 007b 13       		.uleb128 0x13
 1944 007c 38       		.uleb128 0x38
 1945 007d 0B       		.uleb128 0xb
 1946 007e 00       		.byte	0
 1947 007f 00       		.byte	0
 1948 0080 0B       		.uleb128 0xb
 1949 0081 0D       		.uleb128 0xd
 1950 0082 00       		.byte	0
 1951 0083 03       		.uleb128 0x3
 1952 0084 0E       		.uleb128 0xe
 1953 0085 3A       		.uleb128 0x3a
 1954 0086 0B       		.uleb128 0xb
 1955 0087 3B       		.uleb128 0x3b
 1956 0088 05       		.uleb128 0x5
 1957 0089 49       		.uleb128 0x49
 1958 008a 13       		.uleb128 0x13
 1959 008b 38       		.uleb128 0x38
 1960 008c 0B       		.uleb128 0xb
 1961 008d 00       		.byte	0
 1962 008e 00       		.byte	0
 1963 008f 0C       		.uleb128 0xc
 1964 0090 0F       		.uleb128 0xf
 1965 0091 00       		.byte	0
 1966 0092 0B       		.uleb128 0xb
 1967 0093 0B       		.uleb128 0xb
 1968 0094 49       		.uleb128 0x49
 1969 0095 13       		.uleb128 0x13
 1970 0096 00       		.byte	0
 1971 0097 00       		.byte	0
 1972 0098 0D       		.uleb128 0xd
 1973 0099 13       		.uleb128 0x13
 1974 009a 01       		.byte	0x1
 1975 009b 03       		.uleb128 0x3
 1976 009c 0E       		.uleb128 0xe
 1977 009d 0B       		.uleb128 0xb
 1978 009e 0B       		.uleb128 0xb
 1979 009f 3A       		.uleb128 0x3a
 1980 00a0 0B       		.uleb128 0xb
 1981 00a1 3B       		.uleb128 0x3b
 1982 00a2 05       		.uleb128 0x5
 1983 00a3 01       		.uleb128 0x1
 1984 00a4 13       		.uleb128 0x13
 1985 00a5 00       		.byte	0
 1986 00a6 00       		.byte	0
 1987 00a7 0E       		.uleb128 0xe
 1988 00a8 15       		.uleb128 0x15
 1989 00a9 01       		.byte	0x1
 1990 00aa 27       		.uleb128 0x27
 1991 00ab 19       		.uleb128 0x19
 1992 00ac 01       		.uleb128 0x1
 1993 00ad 13       		.uleb128 0x13
 1994 00ae 00       		.byte	0
 1995 00af 00       		.byte	0
ARM GAS  C:\cygwin64\tmp\ccXTzhUP.s 			page 36


 1996 00b0 0F       		.uleb128 0xf
 1997 00b1 05       		.uleb128 0x5
 1998 00b2 00       		.byte	0
 1999 00b3 49       		.uleb128 0x49
 2000 00b4 13       		.uleb128 0x13
 2001 00b5 00       		.byte	0
 2002 00b6 00       		.byte	0
 2003 00b7 10       		.uleb128 0x10
 2004 00b8 0F       		.uleb128 0xf
 2005 00b9 00       		.byte	0
 2006 00ba 0B       		.uleb128 0xb
 2007 00bb 0B       		.uleb128 0xb
 2008 00bc 00       		.byte	0
 2009 00bd 00       		.byte	0
 2010 00be 11       		.uleb128 0x11
 2011 00bf 01       		.uleb128 0x1
 2012 00c0 01       		.byte	0x1
 2013 00c1 49       		.uleb128 0x49
 2014 00c2 13       		.uleb128 0x13
 2015 00c3 01       		.uleb128 0x1
 2016 00c4 13       		.uleb128 0x13
 2017 00c5 00       		.byte	0
 2018 00c6 00       		.byte	0
 2019 00c7 12       		.uleb128 0x12
 2020 00c8 21       		.uleb128 0x21
 2021 00c9 00       		.byte	0
 2022 00ca 49       		.uleb128 0x49
 2023 00cb 13       		.uleb128 0x13
 2024 00cc 2F       		.uleb128 0x2f
 2025 00cd 0B       		.uleb128 0xb
 2026 00ce 00       		.byte	0
 2027 00cf 00       		.byte	0
 2028 00d0 13       		.uleb128 0x13
 2029 00d1 13       		.uleb128 0x13
 2030 00d2 01       		.byte	0x1
 2031 00d3 0B       		.uleb128 0xb
 2032 00d4 0B       		.uleb128 0xb
 2033 00d5 3A       		.uleb128 0x3a
 2034 00d6 0B       		.uleb128 0xb
 2035 00d7 3B       		.uleb128 0x3b
 2036 00d8 05       		.uleb128 0x5
 2037 00d9 01       		.uleb128 0x1
 2038 00da 13       		.uleb128 0x13
 2039 00db 00       		.byte	0
 2040 00dc 00       		.byte	0
 2041 00dd 14       		.uleb128 0x14
 2042 00de 16       		.uleb128 0x16
 2043 00df 00       		.byte	0
 2044 00e0 03       		.uleb128 0x3
 2045 00e1 0E       		.uleb128 0xe
 2046 00e2 3A       		.uleb128 0x3a
 2047 00e3 0B       		.uleb128 0xb
 2048 00e4 3B       		.uleb128 0x3b
 2049 00e5 05       		.uleb128 0x5
 2050 00e6 49       		.uleb128 0x49
 2051 00e7 13       		.uleb128 0x13
 2052 00e8 00       		.byte	0
ARM GAS  C:\cygwin64\tmp\ccXTzhUP.s 			page 37


 2053 00e9 00       		.byte	0
 2054 00ea 15       		.uleb128 0x15
 2055 00eb 34       		.uleb128 0x34
 2056 00ec 00       		.byte	0
 2057 00ed 03       		.uleb128 0x3
 2058 00ee 0E       		.uleb128 0xe
 2059 00ef 3A       		.uleb128 0x3a
 2060 00f0 0B       		.uleb128 0xb
 2061 00f1 3B       		.uleb128 0x3b
 2062 00f2 05       		.uleb128 0x5
 2063 00f3 49       		.uleb128 0x49
 2064 00f4 13       		.uleb128 0x13
 2065 00f5 3F       		.uleb128 0x3f
 2066 00f6 19       		.uleb128 0x19
 2067 00f7 3C       		.uleb128 0x3c
 2068 00f8 19       		.uleb128 0x19
 2069 00f9 00       		.byte	0
 2070 00fa 00       		.byte	0
 2071 00fb 16       		.uleb128 0x16
 2072 00fc 34       		.uleb128 0x34
 2073 00fd 00       		.byte	0
 2074 00fe 03       		.uleb128 0x3
 2075 00ff 0E       		.uleb128 0xe
 2076 0100 3A       		.uleb128 0x3a
 2077 0101 0B       		.uleb128 0xb
 2078 0102 3B       		.uleb128 0x3b
 2079 0103 0B       		.uleb128 0xb
 2080 0104 49       		.uleb128 0x49
 2081 0105 13       		.uleb128 0x13
 2082 0106 3F       		.uleb128 0x3f
 2083 0107 19       		.uleb128 0x19
 2084 0108 3C       		.uleb128 0x3c
 2085 0109 19       		.uleb128 0x19
 2086 010a 00       		.byte	0
 2087 010b 00       		.byte	0
 2088 010c 17       		.uleb128 0x17
 2089 010d 13       		.uleb128 0x13
 2090 010e 01       		.byte	0x1
 2091 010f 0B       		.uleb128 0xb
 2092 0110 0B       		.uleb128 0xb
 2093 0111 3A       		.uleb128 0x3a
 2094 0112 0B       		.uleb128 0xb
 2095 0113 3B       		.uleb128 0x3b
 2096 0114 0B       		.uleb128 0xb
 2097 0115 01       		.uleb128 0x1
 2098 0116 13       		.uleb128 0x13
 2099 0117 00       		.byte	0
 2100 0118 00       		.byte	0
 2101 0119 18       		.uleb128 0x18
 2102 011a 17       		.uleb128 0x17
 2103 011b 01       		.byte	0x1
 2104 011c 0B       		.uleb128 0xb
 2105 011d 0B       		.uleb128 0xb
 2106 011e 3A       		.uleb128 0x3a
 2107 011f 0B       		.uleb128 0xb
 2108 0120 3B       		.uleb128 0x3b
 2109 0121 0B       		.uleb128 0xb
ARM GAS  C:\cygwin64\tmp\ccXTzhUP.s 			page 38


 2110 0122 01       		.uleb128 0x1
 2111 0123 13       		.uleb128 0x13
 2112 0124 00       		.byte	0
 2113 0125 00       		.byte	0
 2114 0126 19       		.uleb128 0x19
 2115 0127 0D       		.uleb128 0xd
 2116 0128 00       		.byte	0
 2117 0129 03       		.uleb128 0x3
 2118 012a 0E       		.uleb128 0xe
 2119 012b 3A       		.uleb128 0x3a
 2120 012c 0B       		.uleb128 0xb
 2121 012d 3B       		.uleb128 0x3b
 2122 012e 0B       		.uleb128 0xb
 2123 012f 49       		.uleb128 0x49
 2124 0130 13       		.uleb128 0x13
 2125 0131 00       		.byte	0
 2126 0132 00       		.byte	0
 2127 0133 1A       		.uleb128 0x1a
 2128 0134 0D       		.uleb128 0xd
 2129 0135 00       		.byte	0
 2130 0136 03       		.uleb128 0x3
 2131 0137 0E       		.uleb128 0xe
 2132 0138 3A       		.uleb128 0x3a
 2133 0139 0B       		.uleb128 0xb
 2134 013a 3B       		.uleb128 0x3b
 2135 013b 05       		.uleb128 0x5
 2136 013c 49       		.uleb128 0x49
 2137 013d 13       		.uleb128 0x13
 2138 013e 00       		.byte	0
 2139 013f 00       		.byte	0
 2140 0140 1B       		.uleb128 0x1b
 2141 0141 34       		.uleb128 0x34
 2142 0142 00       		.byte	0
 2143 0143 03       		.uleb128 0x3
 2144 0144 08       		.uleb128 0x8
 2145 0145 3A       		.uleb128 0x3a
 2146 0146 0B       		.uleb128 0xb
 2147 0147 3B       		.uleb128 0x3b
 2148 0148 05       		.uleb128 0x5
 2149 0149 49       		.uleb128 0x49
 2150 014a 13       		.uleb128 0x13
 2151 014b 3F       		.uleb128 0x3f
 2152 014c 19       		.uleb128 0x19
 2153 014d 3C       		.uleb128 0x3c
 2154 014e 19       		.uleb128 0x19
 2155 014f 00       		.byte	0
 2156 0150 00       		.byte	0
 2157 0151 1C       		.uleb128 0x1c
 2158 0152 21       		.uleb128 0x21
 2159 0153 00       		.byte	0
 2160 0154 00       		.byte	0
 2161 0155 00       		.byte	0
 2162 0156 1D       		.uleb128 0x1d
 2163 0157 2E       		.uleb128 0x2e
 2164 0158 01       		.byte	0x1
 2165 0159 3F       		.uleb128 0x3f
 2166 015a 19       		.uleb128 0x19
ARM GAS  C:\cygwin64\tmp\ccXTzhUP.s 			page 39


 2167 015b 03       		.uleb128 0x3
 2168 015c 0E       		.uleb128 0xe
 2169 015d 3A       		.uleb128 0x3a
 2170 015e 0B       		.uleb128 0xb
 2171 015f 3B       		.uleb128 0x3b
 2172 0160 0B       		.uleb128 0xb
 2173 0161 27       		.uleb128 0x27
 2174 0162 19       		.uleb128 0x19
 2175 0163 11       		.uleb128 0x11
 2176 0164 01       		.uleb128 0x1
 2177 0165 12       		.uleb128 0x12
 2178 0166 06       		.uleb128 0x6
 2179 0167 40       		.uleb128 0x40
 2180 0168 18       		.uleb128 0x18
 2181 0169 9742     		.uleb128 0x2117
 2182 016b 19       		.uleb128 0x19
 2183 016c 01       		.uleb128 0x1
 2184 016d 13       		.uleb128 0x13
 2185 016e 00       		.byte	0
 2186 016f 00       		.byte	0
 2187 0170 1E       		.uleb128 0x1e
 2188 0171 05       		.uleb128 0x5
 2189 0172 00       		.byte	0
 2190 0173 03       		.uleb128 0x3
 2191 0174 0E       		.uleb128 0xe
 2192 0175 3A       		.uleb128 0x3a
 2193 0176 0B       		.uleb128 0xb
 2194 0177 3B       		.uleb128 0x3b
 2195 0178 0B       		.uleb128 0xb
 2196 0179 49       		.uleb128 0x49
 2197 017a 13       		.uleb128 0x13
 2198 017b 02       		.uleb128 0x2
 2199 017c 18       		.uleb128 0x18
 2200 017d 00       		.byte	0
 2201 017e 00       		.byte	0
 2202 017f 1F       		.uleb128 0x1f
 2203 0180 1D       		.uleb128 0x1d
 2204 0181 00       		.byte	0
 2205 0182 31       		.uleb128 0x31
 2206 0183 13       		.uleb128 0x13
 2207 0184 52       		.uleb128 0x52
 2208 0185 01       		.uleb128 0x1
 2209 0186 55       		.uleb128 0x55
 2210 0187 17       		.uleb128 0x17
 2211 0188 58       		.uleb128 0x58
 2212 0189 0B       		.uleb128 0xb
 2213 018a 59       		.uleb128 0x59
 2214 018b 0B       		.uleb128 0xb
 2215 018c 00       		.byte	0
 2216 018d 00       		.byte	0
 2217 018e 20       		.uleb128 0x20
 2218 018f 1D       		.uleb128 0x1d
 2219 0190 01       		.byte	0x1
 2220 0191 31       		.uleb128 0x31
 2221 0192 13       		.uleb128 0x13
 2222 0193 52       		.uleb128 0x52
 2223 0194 01       		.uleb128 0x1
ARM GAS  C:\cygwin64\tmp\ccXTzhUP.s 			page 40


 2224 0195 55       		.uleb128 0x55
 2225 0196 17       		.uleb128 0x17
 2226 0197 58       		.uleb128 0x58
 2227 0198 0B       		.uleb128 0xb
 2228 0199 59       		.uleb128 0x59
 2229 019a 0B       		.uleb128 0xb
 2230 019b 00       		.byte	0
 2231 019c 00       		.byte	0
 2232 019d 21       		.uleb128 0x21
 2233 019e 05       		.uleb128 0x5
 2234 019f 00       		.byte	0
 2235 01a0 31       		.uleb128 0x31
 2236 01a1 13       		.uleb128 0x13
 2237 01a2 02       		.uleb128 0x2
 2238 01a3 17       		.uleb128 0x17
 2239 01a4 00       		.byte	0
 2240 01a5 00       		.byte	0
 2241 01a6 22       		.uleb128 0x22
 2242 01a7 05       		.uleb128 0x5
 2243 01a8 00       		.byte	0
 2244 01a9 03       		.uleb128 0x3
 2245 01aa 08       		.uleb128 0x8
 2246 01ab 3A       		.uleb128 0x3a
 2247 01ac 0B       		.uleb128 0xb
 2248 01ad 3B       		.uleb128 0x3b
 2249 01ae 0B       		.uleb128 0xb
 2250 01af 49       		.uleb128 0x49
 2251 01b0 13       		.uleb128 0x13
 2252 01b1 02       		.uleb128 0x2
 2253 01b2 18       		.uleb128 0x18
 2254 01b3 00       		.byte	0
 2255 01b4 00       		.byte	0
 2256 01b5 23       		.uleb128 0x23
 2257 01b6 1D       		.uleb128 0x1d
 2258 01b7 00       		.byte	0
 2259 01b8 31       		.uleb128 0x31
 2260 01b9 13       		.uleb128 0x13
 2261 01ba 11       		.uleb128 0x11
 2262 01bb 01       		.uleb128 0x1
 2263 01bc 12       		.uleb128 0x12
 2264 01bd 06       		.uleb128 0x6
 2265 01be 58       		.uleb128 0x58
 2266 01bf 0B       		.uleb128 0xb
 2267 01c0 59       		.uleb128 0x59
 2268 01c1 0B       		.uleb128 0xb
 2269 01c2 00       		.byte	0
 2270 01c3 00       		.byte	0
 2271 01c4 24       		.uleb128 0x24
 2272 01c5 34       		.uleb128 0x34
 2273 01c6 00       		.byte	0
 2274 01c7 03       		.uleb128 0x3
 2275 01c8 08       		.uleb128 0x8
 2276 01c9 3A       		.uleb128 0x3a
 2277 01ca 0B       		.uleb128 0xb
 2278 01cb 3B       		.uleb128 0x3b
 2279 01cc 0B       		.uleb128 0xb
 2280 01cd 49       		.uleb128 0x49
ARM GAS  C:\cygwin64\tmp\ccXTzhUP.s 			page 41


 2281 01ce 13       		.uleb128 0x13
 2282 01cf 02       		.uleb128 0x2
 2283 01d0 18       		.uleb128 0x18
 2284 01d1 00       		.byte	0
 2285 01d2 00       		.byte	0
 2286 01d3 25       		.uleb128 0x25
 2287 01d4 898201   		.uleb128 0x4109
 2288 01d7 01       		.byte	0x1
 2289 01d8 11       		.uleb128 0x11
 2290 01d9 01       		.uleb128 0x1
 2291 01da 31       		.uleb128 0x31
 2292 01db 13       		.uleb128 0x13
 2293 01dc 01       		.uleb128 0x1
 2294 01dd 13       		.uleb128 0x13
 2295 01de 00       		.byte	0
 2296 01df 00       		.byte	0
 2297 01e0 26       		.uleb128 0x26
 2298 01e1 8A8201   		.uleb128 0x410a
 2299 01e4 00       		.byte	0
 2300 01e5 02       		.uleb128 0x2
 2301 01e6 18       		.uleb128 0x18
 2302 01e7 9142     		.uleb128 0x2111
 2303 01e9 18       		.uleb128 0x18
 2304 01ea 00       		.byte	0
 2305 01eb 00       		.byte	0
 2306 01ec 27       		.uleb128 0x27
 2307 01ed 898201   		.uleb128 0x4109
 2308 01f0 01       		.byte	0x1
 2309 01f1 11       		.uleb128 0x11
 2310 01f2 01       		.uleb128 0x1
 2311 01f3 31       		.uleb128 0x31
 2312 01f4 13       		.uleb128 0x13
 2313 01f5 00       		.byte	0
 2314 01f6 00       		.byte	0
 2315 01f7 28       		.uleb128 0x28
 2316 01f8 2E       		.uleb128 0x2e
 2317 01f9 01       		.byte	0x1
 2318 01fa 03       		.uleb128 0x3
 2319 01fb 0E       		.uleb128 0xe
 2320 01fc 3A       		.uleb128 0x3a
 2321 01fd 0B       		.uleb128 0xb
 2322 01fe 3B       		.uleb128 0x3b
 2323 01ff 0B       		.uleb128 0xb
 2324 0200 27       		.uleb128 0x27
 2325 0201 19       		.uleb128 0x19
 2326 0202 20       		.uleb128 0x20
 2327 0203 0B       		.uleb128 0xb
 2328 0204 01       		.uleb128 0x1
 2329 0205 13       		.uleb128 0x13
 2330 0206 00       		.byte	0
 2331 0207 00       		.byte	0
 2332 0208 29       		.uleb128 0x29
 2333 0209 05       		.uleb128 0x5
 2334 020a 00       		.byte	0
 2335 020b 03       		.uleb128 0x3
 2336 020c 08       		.uleb128 0x8
 2337 020d 3A       		.uleb128 0x3a
ARM GAS  C:\cygwin64\tmp\ccXTzhUP.s 			page 42


 2338 020e 0B       		.uleb128 0xb
 2339 020f 3B       		.uleb128 0x3b
 2340 0210 0B       		.uleb128 0xb
 2341 0211 49       		.uleb128 0x49
 2342 0212 13       		.uleb128 0x13
 2343 0213 00       		.byte	0
 2344 0214 00       		.byte	0
 2345 0215 2A       		.uleb128 0x2a
 2346 0216 05       		.uleb128 0x5
 2347 0217 00       		.byte	0
 2348 0218 03       		.uleb128 0x3
 2349 0219 0E       		.uleb128 0xe
 2350 021a 3A       		.uleb128 0x3a
 2351 021b 0B       		.uleb128 0xb
 2352 021c 3B       		.uleb128 0x3b
 2353 021d 0B       		.uleb128 0xb
 2354 021e 49       		.uleb128 0x49
 2355 021f 13       		.uleb128 0x13
 2356 0220 00       		.byte	0
 2357 0221 00       		.byte	0
 2358 0222 2B       		.uleb128 0x2b
 2359 0223 2E       		.uleb128 0x2e
 2360 0224 00       		.byte	0
 2361 0225 03       		.uleb128 0x3
 2362 0226 0E       		.uleb128 0xe
 2363 0227 3A       		.uleb128 0x3a
 2364 0228 0B       		.uleb128 0xb
 2365 0229 3B       		.uleb128 0x3b
 2366 022a 05       		.uleb128 0x5
 2367 022b 27       		.uleb128 0x27
 2368 022c 19       		.uleb128 0x19
 2369 022d 49       		.uleb128 0x49
 2370 022e 13       		.uleb128 0x13
 2371 022f 20       		.uleb128 0x20
 2372 0230 0B       		.uleb128 0xb
 2373 0231 00       		.byte	0
 2374 0232 00       		.byte	0
 2375 0233 00       		.byte	0
 2376              		.section	.debug_loc,"",%progbits
 2377              	.Ldebug_loc0:
 2378              	.LLST3:
 2379 0000 0C000000 		.4byte	.LVL11
 2380 0004 32000000 		.4byte	.LVL14
 2381 0008 0200     		.2byte	0x2
 2382 000a 30       		.byte	0x30
 2383 000b 9F       		.byte	0x9f
 2384 000c 00000000 		.4byte	0
 2385 0010 00000000 		.4byte	0
 2386              	.LLST4:
 2387 0014 0C000000 		.4byte	.LVL11
 2388 0018 16000000 		.4byte	.LVL12
 2389 001c 0100     		.2byte	0x1
 2390 001e 53       		.byte	0x53
 2391 001f 16000000 		.4byte	.LVL12
 2392 0023 1A000000 		.4byte	.LVL13
 2393 0027 0200     		.2byte	0x2
 2394 0029 71       		.byte	0x71
ARM GAS  C:\cygwin64\tmp\ccXTzhUP.s 			page 43


 2395 002a 08       		.sleb128 8
 2396 002b 00000000 		.4byte	0
 2397 002f 00000000 		.4byte	0
 2398              	.LLST5:
 2399 0033 0C000000 		.4byte	.LVL11
 2400 0037 32000000 		.4byte	.LVL14
 2401 003b 0100     		.2byte	0x1
 2402 003d 50       		.byte	0x50
 2403 003e 00000000 		.4byte	0
 2404 0042 00000000 		.4byte	0
 2405              	.LLST0:
 2406 0046 0C000000 		.4byte	.LVL4
 2407 004a 38000000 		.4byte	.LVL6
 2408 004e 0100     		.2byte	0x1
 2409 0050 51       		.byte	0x51
 2410 0051 00000000 		.4byte	0
 2411 0055 00000000 		.4byte	0
 2412              	.LLST1:
 2413 0059 0C000000 		.4byte	.LVL4
 2414 005d 1A000000 		.4byte	.LVL5
 2415 0061 0100     		.2byte	0x1
 2416 0063 53       		.byte	0x53
 2417 0064 00000000 		.4byte	0
 2418 0068 00000000 		.4byte	0
 2419              	.LLST2:
 2420 006c 08000000 		.4byte	.LVL3
 2421 0070 38000000 		.4byte	.LVL6
 2422 0074 0100     		.2byte	0x1
 2423 0076 50       		.byte	0x50
 2424 0077 00000000 		.4byte	0
 2425 007b 00000000 		.4byte	0
 2426              		.section	.debug_aranges,"",%progbits
 2427 0000 3C000000 		.4byte	0x3c
 2428 0004 0200     		.2byte	0x2
 2429 0006 00000000 		.4byte	.Ldebug_info0
 2430 000a 04       		.byte	0x4
 2431 000b 00       		.byte	0
 2432 000c 0000     		.2byte	0
 2433 000e 0000     		.2byte	0
 2434 0010 00000000 		.4byte	.LFB248
 2435 0014 18000000 		.4byte	.LFE248-.LFB248
 2436 0018 00000000 		.4byte	.LFB249
 2437 001c 0C000000 		.4byte	.LFE249-.LFB249
 2438 0020 00000000 		.4byte	.LFB250
 2439 0024 44000000 		.4byte	.LFE250-.LFB250
 2440 0028 00000000 		.4byte	.LFB247
 2441 002c 2C000000 		.4byte	.LFE247-.LFB247
 2442 0030 00000000 		.4byte	.LFB251
 2443 0034 38000000 		.4byte	.LFE251-.LFB251
 2444 0038 00000000 		.4byte	0
 2445 003c 00000000 		.4byte	0
 2446              		.section	.debug_ranges,"",%progbits
 2447              	.Ldebug_ranges0:
 2448 0000 02000000 		.4byte	.LBB14
 2449 0004 04000000 		.4byte	.LBE14
 2450 0008 0A000000 		.4byte	.LBB21
 2451 000c 0C000000 		.4byte	.LBE21
ARM GAS  C:\cygwin64\tmp\ccXTzhUP.s 			page 44


 2452 0010 00000000 		.4byte	0
 2453 0014 00000000 		.4byte	0
 2454 0018 08000000 		.4byte	.LBB17
 2455 001c 0A000000 		.4byte	.LBE17
 2456 0020 0C000000 		.4byte	.LBB22
 2457 0024 12000000 		.4byte	.LBE22
 2458 0028 14000000 		.4byte	.LBB23
 2459 002c 44000000 		.4byte	.LBE23
 2460 0030 00000000 		.4byte	0
 2461 0034 00000000 		.4byte	0
 2462 0038 00000000 		.4byte	.LBB28
 2463 003c 02000000 		.4byte	.LBE28
 2464 0040 04000000 		.4byte	.LBB35
 2465 0044 06000000 		.4byte	.LBE35
 2466 0048 00000000 		.4byte	0
 2467 004c 00000000 		.4byte	0
 2468 0050 02000000 		.4byte	.LBB31
 2469 0054 04000000 		.4byte	.LBE31
 2470 0058 08000000 		.4byte	.LBB36
 2471 005c 0A000000 		.4byte	.LBE36
 2472 0060 0C000000 		.4byte	.LBB37
 2473 0064 38000000 		.4byte	.LBE37
 2474 0068 00000000 		.4byte	0
 2475 006c 00000000 		.4byte	0
 2476 0070 00000000 		.4byte	.LFB248
 2477 0074 18000000 		.4byte	.LFE248
 2478 0078 00000000 		.4byte	.LFB249
 2479 007c 0C000000 		.4byte	.LFE249
 2480 0080 00000000 		.4byte	.LFB250
 2481 0084 44000000 		.4byte	.LFE250
 2482 0088 00000000 		.4byte	.LFB247
 2483 008c 2C000000 		.4byte	.LFE247
 2484 0090 00000000 		.4byte	.LFB251
 2485 0094 38000000 		.4byte	.LFE251
 2486 0098 00000000 		.4byte	0
 2487 009c 00000000 		.4byte	0
 2488              		.section	.debug_line,"",%progbits
 2489              	.Ldebug_line0:
 2490 0000 8C030000 		.section	.debug_str,"MS",%progbits,1
 2490      0200BA02 
 2490      00000201 
 2490      FB0E0D00 
 2490      01010101 
 2491              	.LASF163:
 2492 0000 433A5C63 		.ascii	"C:\\cygwin64\\home\\calfan\\ardupilot\\build\\fmuv3"
 2492      79677769 
 2492      6E36345C 
 2492      686F6D65 
 2492      5C63616C 
 2493 002d 00       		.ascii	"\000"
 2494              	.LASF56:
 2495 002e 72656164 		.ascii	"ready_list_t\000"
 2495      795F6C69 
 2495      73745F74 
 2495      00
 2496              	.LASF122:
 2497 003b 77747472 		.ascii	"wttrp\000"
ARM GAS  C:\cygwin64\tmp\ccXTzhUP.s 			page 45


 2497      7000
 2498              	.LASF62:
 2499 0041 64656C74 		.ascii	"delta\000"
 2499      6100
 2500              	.LASF119:
 2501 0047 7264796D 		.ascii	"rdymsg\000"
 2501      736700
 2502              	.LASF19:
 2503 004e 75696E74 		.ascii	"uint64_t\000"
 2503      36345F74 
 2503      00
 2504              	.LASF75:
 2505 0057 6B65726E 		.ascii	"kernel_stats\000"
 2505      656C5F73 
 2505      74617473 
 2505      00
 2506              	.LASF162:
 2507 0064 2E2E2F2E 		.ascii	"../../modules/ChibiOS/os/rt/src/chtm.c\000"
 2507      2E2F6D6F 
 2507      64756C65 
 2507      732F4368 
 2507      6962694F 
 2508              	.LASF6:
 2509 008b 5F5F7569 		.ascii	"__uint8_t\000"
 2509      6E74385F 
 2509      7400
 2510              	.LASF55:
 2511 0095 70726576 		.ascii	"prev\000"
 2511      00
 2512              	.LASF106:
 2513 009a 706F7274 		.ascii	"port_intctx\000"
 2513      5F696E74 
 2513      63747800 
 2514              	.LASF54:
 2515 00a6 63685F74 		.ascii	"ch_threads_queue\000"
 2515      68726561 
 2515      64735F71 
 2515      75657565 
 2515      00
 2516              	.LASF67:
 2517 00b7 73797374 		.ascii	"system_debug_t\000"
 2517      656D5F64 
 2517      65627567 
 2517      5F7400
 2518              	.LASF138:
 2519 00c6 74687265 		.ascii	"threadsize\000"
 2519      61647369 
 2519      7A6500
 2520              	.LASF110:
 2521 00d1 776F7273 		.ascii	"worst\000"
 2521      7400
 2522              	.LASF113:
 2523 00d7 74696D65 		.ascii	"time_measurement_t\000"
 2523      5F6D6561 
 2523      73757265 
 2523      6D656E74 
 2523      5F7400
ARM GAS  C:\cygwin64\tmp\ccXTzhUP.s 			page 46


 2524              	.LASF14:
 2525 00ea 6C6F6E67 		.ascii	"long long unsigned int\000"
 2525      206C6F6E 
 2525      6720756E 
 2525      7369676E 
 2525      65642069 
 2526              	.LASF120:
 2527 0101 65786974 		.ascii	"exitcode\000"
 2527      636F6465 
 2527      00
 2528              	.LASF74:
 2529 010a 6D61696E 		.ascii	"mainthread\000"
 2529      74687265 
 2529      616400
 2530              	.LASF164:
 2531 0115 746D5F73 		.ascii	"tm_stop\000"
 2531      746F7000 
 2532              	.LASF64:
 2533 011d 76697274 		.ascii	"virtual_timers_list_t\000"
 2533      75616C5F 
 2533      74696D65 
 2533      72735F6C 
 2533      6973745F 
 2534              	.LASF159:
 2535 0133 6368544D 		.ascii	"chTMObjectInit\000"
 2535      4F626A65 
 2535      6374496E 
 2535      697400
 2536              	.LASF52:
 2537 0142 6E657874 		.ascii	"next\000"
 2537      00
 2538              	.LASF21:
 2539 0147 72747469 		.ascii	"rttime_t\000"
 2539      6D655F74 
 2539      00
 2540              	.LASF154:
 2541 0150 746D7031 		.ascii	"tmp1\000"
 2541      00
 2542              	.LASF155:
 2543 0155 746D7032 		.ascii	"tmp2\000"
 2543      00
 2544              	.LASF1:
 2545 015a 6C6F6E67 		.ascii	"long long int\000"
 2545      206C6F6E 
 2545      6720696E 
 2545      7400
 2546              	.LASF3:
 2547 0168 7369676E 		.ascii	"signed char\000"
 2547      65642063 
 2547      68617200 
 2548              	.LASF134:
 2549 0174 73697A65 		.ascii	"size\000"
 2549      00
 2550              	.LASF79:
 2551 0179 43504943 		.ascii	"CPICNT\000"
 2551      4E5400
 2552              	.LASF161:
ARM GAS  C:\cygwin64\tmp\ccXTzhUP.s 			page 47


 2553 0180 474E5520 		.ascii	"GNU C11 6.3.1 20170620 (release) [ARM/embedded-6-br"
 2553      43313120 
 2553      362E332E 
 2553      31203230 
 2553      31373036 
 2554 01b3 616E6368 		.ascii	"anch revision 249437] -mcpu=cortex-m4 -mfloat-abi=h"
 2554      20726576 
 2554      6973696F 
 2554      6E203234 
 2554      39343337 
 2555 01e6 61726420 		.ascii	"ard -mfpu=fpv4-sp-d16 -mno-thumb-interwork -mthumb "
 2555      2D6D6670 
 2555      753D6670 
 2555      76342D73 
 2555      702D6431 
 2556 0219 2D67202D 		.ascii	"-g -Os -fomit-frame-pointer -falign-functions=16 -f"
 2556      4F73202D 
 2556      666F6D69 
 2556      742D6672 
 2556      616D652D 
 2557 024c 66756E63 		.ascii	"function-sections -fdata-sections -fno-common -fsin"
 2557      74696F6E 
 2557      2D736563 
 2557      74696F6E 
 2557      73202D66 
 2558 027f 676C652D 		.ascii	"gle-precision-constant\000"
 2558      70726563 
 2558      6973696F 
 2558      6E2D636F 
 2558      6E737461 
 2559              	.LASF73:
 2560 0296 76746C69 		.ascii	"vtlist\000"
 2560      737400
 2561              	.LASF158:
 2562 029d 6368544D 		.ascii	"chTMStartMeasurementX\000"
 2562      53746172 
 2562      744D6561 
 2562      73757265 
 2562      6D656E74 
 2563              	.LASF38:
 2564 02b3 73746174 		.ascii	"state\000"
 2564      6500
 2565              	.LASF157:
 2566 02b9 6368544D 		.ascii	"chTMStopMeasurementX\000"
 2566      53746F70 
 2566      4D656173 
 2566      7572656D 
 2566      656E7458 
 2567              	.LASF10:
 2568 02ce 6C6F6E67 		.ascii	"long int\000"
 2568      20696E74 
 2568      00
 2569              	.LASF23:
 2570 02d7 74737461 		.ascii	"tstate_t\000"
 2570      74655F74 
 2570      00
 2571              	.LASF63:
ARM GAS  C:\cygwin64\tmp\ccXTzhUP.s 			page 48


 2572 02e0 66756E63 		.ascii	"func\000"
 2572      00
 2573              	.LASF47:
 2574 02e5 73746174 		.ascii	"stats\000"
 2574      7300
 2575              	.LASF150:
 2576 02eb 63686465 		.ascii	"chdebug_t\000"
 2576      6275675F 
 2576      7400
 2577              	.LASF148:
 2578 02f5 6F66665F 		.ascii	"off_preempt\000"
 2578      70726565 
 2578      6D707400 
 2579              	.LASF11:
 2580 0301 5F5F7569 		.ascii	"__uint32_t\000"
 2580      6E743332 
 2580      5F7400
 2581              	.LASF103:
 2582 030c 72656761 		.ascii	"regarm_t\000"
 2582      726D5F74 
 2582      00
 2583              	.LASF68:
 2584 0315 63685F73 		.ascii	"ch_system_debug\000"
 2584      79737465 
 2584      6D5F6465 
 2584      62756700 
 2585              	.LASF41:
 2586 0325 77616974 		.ascii	"waiting\000"
 2586      696E6700 
 2587              	.LASF133:
 2588 032d 7A65726F 		.ascii	"zero\000"
 2588      00
 2589              	.LASF152:
 2590 0332 6D757465 		.ascii	"mutex_t\000"
 2590      785F7400 
 2591              	.LASF105:
 2592 033a 706F7274 		.ascii	"port_context\000"
 2592      5F636F6E 
 2592      74657874 
 2592      00
 2593              	.LASF28:
 2594 0347 636E745F 		.ascii	"cnt_t\000"
 2594      7400
 2595              	.LASF42:
 2596 034d 6D736771 		.ascii	"msgqueue\000"
 2596      75657565 
 2596      00
 2597              	.LASF86:
 2598 0356 4D41534B 		.ascii	"MASK0\000"
 2598      3000
 2599              	.LASF0:
 2600 035c 756E7369 		.ascii	"unsigned int\000"
 2600      676E6564 
 2600      20696E74 
 2600      00
 2601              	.LASF94:
 2602 0369 4D41534B 		.ascii	"MASK2\000"
ARM GAS  C:\cygwin64\tmp\ccXTzhUP.s 			page 49


 2602      3200
 2603              	.LASF102:
 2604 036f 53797374 		.ascii	"SystemCoreClock\000"
 2604      656D436F 
 2604      7265436C 
 2604      6F636B00 
 2605              	.LASF98:
 2606 037f 4D41534B 		.ascii	"MASK3\000"
 2606      3300
 2607              	.LASF124:
 2608 0385 77747365 		.ascii	"wtsemp\000"
 2608      6D7000
 2609              	.LASF160:
 2610 038c 5F746D5F 		.ascii	"_tm_init\000"
 2610      696E6974 
 2610      00
 2611              	.LASF151:
 2612 0395 63685F64 		.ascii	"ch_debug\000"
 2612      65627567 
 2612      00
 2613              	.LASF50:
 2614 039e 63685F74 		.ascii	"ch_thread\000"
 2614      68726561 
 2614      6400
 2615              	.LASF114:
 2616 03a8 6E5F6972 		.ascii	"n_irq\000"
 2616      7100
 2617              	.LASF32:
 2618 03ae 71756575 		.ascii	"queue\000"
 2618      6500
 2619              	.LASF46:
 2620 03b4 6D706F6F 		.ascii	"mpool\000"
 2620      6C00
 2621              	.LASF109:
 2622 03ba 62657374 		.ascii	"best\000"
 2622      00
 2623              	.LASF147:
 2624 03bf 6F66665F 		.ascii	"off_refs\000"
 2624      72656673 
 2624      00
 2625              	.LASF118:
 2626 03c8 6B65726E 		.ascii	"kernel_stats_t\000"
 2626      656C5F73 
 2626      74617473 
 2626      5F7400
 2627              	.LASF36:
 2628 03d7 6E616D65 		.ascii	"name\000"
 2628      00
 2629              	.LASF81:
 2630 03dc 534C4545 		.ascii	"SLEEPCNT\000"
 2630      50434E54 
 2630      00
 2631              	.LASF80:
 2632 03e5 45584343 		.ascii	"EXCCNT\000"
 2632      4E5400
 2633              	.LASF26:
 2634 03ec 6D73675F 		.ascii	"msg_t\000"
ARM GAS  C:\cygwin64\tmp\ccXTzhUP.s 			page 50


 2634      7400
 2635              	.LASF111:
 2636 03f2 6C617374 		.ascii	"last\000"
 2636      00
 2637              	.LASF29:
 2638 03f7 75636E74 		.ascii	"ucnt_t\000"
 2638      5F7400
 2639              	.LASF43:
 2640 03fe 6570656E 		.ascii	"epending\000"
 2640      64696E67 
 2640      00
 2641              	.LASF70:
 2642 0407 63685F73 		.ascii	"ch_system_t\000"
 2642      79737465 
 2642      6D5F7400 
 2643              	.LASF140:
 2644 0413 6F66665F 		.ascii	"off_ctx\000"
 2644      63747800 
 2645              	.LASF22:
 2646 041b 746D6F64 		.ascii	"tmode_t\000"
 2646      655F7400 
 2647              	.LASF16:
 2648 0423 75696E74 		.ascii	"uint16_t\000"
 2648      31365F74 
 2648      00
 2649              	.LASF117:
 2650 042c 6D5F6372 		.ascii	"m_crit_isr\000"
 2650      69745F69 
 2650      737200
 2651              	.LASF57:
 2652 0437 63685F72 		.ascii	"ch_ready_list\000"
 2652      65616479 
 2652      5F6C6973 
 2652      7400
 2653              	.LASF27:
 2654 0445 6576656E 		.ascii	"eventmask_t\000"
 2654      746D6173 
 2654      6B5F7400 
 2655              	.LASF143:
 2656 0451 6F66665F 		.ascii	"off_name\000"
 2656      6E616D65 
 2656      00
 2657              	.LASF9:
 2658 045a 5F5F696E 		.ascii	"__int32_t\000"
 2658      7433325F 
 2658      7400
 2659              	.LASF156:
 2660 0464 6368544D 		.ascii	"chTMChainMeasurementToX\000"
 2660      43686169 
 2660      6E4D6561 
 2660      73757265 
 2660      6D656E74 
 2661              	.LASF104:
 2662 047c 73746B61 		.ascii	"stkalign_t\000"
 2662      6C69676E 
 2662      5F7400
 2663              	.LASF34:
ARM GAS  C:\cygwin64\tmp\ccXTzhUP.s 			page 51


 2664 0487 6E657765 		.ascii	"newer\000"
 2664      7200
 2665              	.LASF78:
 2666 048d 43594343 		.ascii	"CYCCNT\000"
 2666      4E5400
 2667              	.LASF45:
 2668 0494 7265616C 		.ascii	"realprio\000"
 2668      7072696F 
 2668      00
 2669              	.LASF135:
 2670 049d 76657273 		.ascii	"version\000"
 2670      696F6E00 
 2671              	.LASF76:
 2672 04a5 73697A65 		.ascii	"sizetype\000"
 2672      74797065 
 2672      00
 2673              	.LASF48:
 2674 04ae 74687265 		.ascii	"thread_reference_t\000"
 2674      61645F72 
 2674      65666572 
 2674      656E6365 
 2674      5F7400
 2675              	.LASF65:
 2676 04c1 63685F76 		.ascii	"ch_virtual_timers_list\000"
 2676      69727475 
 2676      616C5F74 
 2676      696D6572 
 2676      735F6C69 
 2677              	.LASF2:
 2678 04d8 6C6F6E67 		.ascii	"long double\000"
 2678      20646F75 
 2678      626C6500 
 2679              	.LASF141:
 2680 04e4 6F66665F 		.ascii	"off_newer\000"
 2680      6E657765 
 2680      7200
 2681              	.LASF108:
 2682 04ee 746D5F63 		.ascii	"tm_calibration_t\000"
 2682      616C6962 
 2682      72617469 
 2682      6F6E5F74 
 2682      00
 2683              	.LASF85:
 2684 04ff 434F4D50 		.ascii	"COMP0\000"
 2684      3000
 2685              	.LASF89:
 2686 0505 434F4D50 		.ascii	"COMP1\000"
 2686      3100
 2687              	.LASF93:
 2688 050b 434F4D50 		.ascii	"COMP2\000"
 2688      3200
 2689              	.LASF97:
 2690 0511 434F4D50 		.ascii	"COMP3\000"
 2690      3300
 2691              	.LASF33:
 2692 0517 7072696F 		.ascii	"prio\000"
 2692      00
ARM GAS  C:\cygwin64\tmp\ccXTzhUP.s 			page 52


 2693              	.LASF58:
 2694 051c 63757272 		.ascii	"current\000"
 2694      656E7400 
 2695              	.LASF13:
 2696 0524 5F5F7569 		.ascii	"__uint64_t\000"
 2696      6E743634 
 2696      5F7400
 2697              	.LASF112:
 2698 052f 63756D75 		.ascii	"cumulative\000"
 2698      6C617469 
 2698      766500
 2699              	.LASF24:
 2700 053a 74726566 		.ascii	"trefs_t\000"
 2700      735F7400 
 2701              	.LASF88:
 2702 0542 52455345 		.ascii	"RESERVED0\000"
 2702      52564544 
 2702      3000
 2703              	.LASF92:
 2704 054c 52455345 		.ascii	"RESERVED1\000"
 2704      52564544 
 2704      3100
 2705              	.LASF96:
 2706 0556 52455345 		.ascii	"RESERVED2\000"
 2706      52564544 
 2706      3200
 2707              	.LASF40:
 2708 0560 72656673 		.ascii	"refs\000"
 2708      00
 2709              	.LASF60:
 2710 0565 76697274 		.ascii	"virtual_timer_t\000"
 2710      75616C5F 
 2710      74696D65 
 2710      725F7400 
 2711              	.LASF25:
 2712 0575 74707269 		.ascii	"tprio_t\000"
 2712      6F5F7400 
 2713              	.LASF84:
 2714 057d 50435352 		.ascii	"PCSR\000"
 2714      00
 2715              	.LASF115:
 2716 0582 6E5F6374 		.ascii	"n_ctxswc\000"
 2716      78737763 
 2716      00
 2717              	.LASF90:
 2718 058b 4D41534B 		.ascii	"MASK1\000"
 2718      3100
 2719              	.LASF17:
 2720 0591 696E7433 		.ascii	"int32_t\000"
 2720      325F7400 
 2721              	.LASF4:
 2722 0599 756E7369 		.ascii	"unsigned char\000"
 2722      676E6564 
 2722      20636861 
 2722      7200
 2723              	.LASF139:
 2724 05a7 6F66665F 		.ascii	"off_prio\000"
ARM GAS  C:\cygwin64\tmp\ccXTzhUP.s 			page 53


 2724      7072696F 
 2724      00
 2725              	.LASF144:
 2726 05b0 6F66665F 		.ascii	"off_stklimit\000"
 2726      73746B6C 
 2726      696D6974 
 2726      00
 2727              	.LASF101:
 2728 05bd 49544D5F 		.ascii	"ITM_RxBuffer\000"
 2728      52784275 
 2728      66666572 
 2728      00
 2729              	.LASF87:
 2730 05ca 46554E43 		.ascii	"FUNCTION0\000"
 2730      54494F4E 
 2730      3000
 2731              	.LASF91:
 2732 05d4 46554E43 		.ascii	"FUNCTION1\000"
 2732      54494F4E 
 2732      3100
 2733              	.LASF95:
 2734 05de 46554E43 		.ascii	"FUNCTION2\000"
 2734      54494F4E 
 2734      3200
 2735              	.LASF99:
 2736 05e8 46554E43 		.ascii	"FUNCTION3\000"
 2736      54494F4E 
 2736      3300
 2737              	.LASF5:
 2738 05f2 73686F72 		.ascii	"short int\000"
 2738      7420696E 
 2738      7400
 2739              	.LASF66:
 2740 05fc 6C617374 		.ascii	"lasttime\000"
 2740      74696D65 
 2740      00
 2741              	.LASF126:
 2742 0605 65776D61 		.ascii	"ewmask\000"
 2742      736B00
 2743              	.LASF71:
 2744 060c 63685F73 		.ascii	"ch_system\000"
 2744      79737465 
 2744      6D00
 2745              	.LASF61:
 2746 0616 63685F76 		.ascii	"ch_virtual_timer\000"
 2746      69727475 
 2746      616C5F74 
 2746      696D6572 
 2746      00
 2747              	.LASF127:
 2748 0627 63685F73 		.ascii	"ch_semaphore\000"
 2748      656D6170 
 2748      686F7265 
 2748      00
 2749              	.LASF149:
 2750 0634 6F66665F 		.ascii	"off_time\000"
 2750      74696D65 
ARM GAS  C:\cygwin64\tmp\ccXTzhUP.s 			page 54


 2750      00
 2751              	.LASF131:
 2752 063d 63685F69 		.ascii	"ch_idle_thread_wa\000"
 2752      646C655F 
 2752      74687265 
 2752      61645F77 
 2752      6100
 2753              	.LASF137:
 2754 064f 74696D65 		.ascii	"timesize\000"
 2754      73697A65 
 2754      00
 2755              	.LASF82:
 2756 0658 4C535543 		.ascii	"LSUCNT\000"
 2756      4E5400
 2757              	.LASF18:
 2758 065f 75696E74 		.ascii	"uint32_t\000"
 2758      33325F74 
 2758      00
 2759              	.LASF125:
 2760 0668 77746D74 		.ascii	"wtmtxp\000"
 2760      787000
 2761              	.LASF51:
 2762 066f 63685F74 		.ascii	"ch_threads_list\000"
 2762      68726561 
 2762      64735F6C 
 2762      69737400 
 2763              	.LASF129:
 2764 067f 6F776E65 		.ascii	"owner\000"
 2764      7200
 2765              	.LASF153:
 2766 0685 5F426F6F 		.ascii	"_Bool\000"
 2766      6C00
 2767              	.LASF12:
 2768 068b 6C6F6E67 		.ascii	"long unsigned int\000"
 2768      20756E73 
 2768      69676E65 
 2768      6420696E 
 2768      7400
 2769              	.LASF37:
 2770 069d 77616261 		.ascii	"wabase\000"
 2770      736500
 2771              	.LASF130:
 2772 06a4 63686172 		.ascii	"char\000"
 2772      00
 2773              	.LASF35:
 2774 06a9 6F6C6465 		.ascii	"older\000"
 2774      7200
 2775              	.LASF7:
 2776 06af 5F5F7569 		.ascii	"__uint16_t\000"
 2776      6E743136 
 2776      5F7400
 2777              	.LASF31:
 2778 06ba 74687265 		.ascii	"thread_t\000"
 2778      61645F74 
 2778      00
 2779              	.LASF165:
 2780 06c3 706F7274 		.ascii	"port_rt_get_counter_value\000"
ARM GAS  C:\cygwin64\tmp\ccXTzhUP.s 			page 55


 2780      5F72745F 
 2780      6765745F 
 2780      636F756E 
 2780      7465725F 
 2781              	.LASF30:
 2782 06dd 73797374 		.ascii	"systime_t\000"
 2782      696D655F 
 2782      7400
 2783              	.LASF59:
 2784 06e7 76746675 		.ascii	"vtfunc_t\000"
 2784      6E635F74 
 2784      00
 2785              	.LASF69:
 2786 06f0 70616E69 		.ascii	"panic_msg\000"
 2786      635F6D73 
 2786      6700
 2787              	.LASF107:
 2788 06fa 6F666673 		.ascii	"offset\000"
 2788      657400
 2789              	.LASF142:
 2790 0701 6F66665F 		.ascii	"off_older\000"
 2790      6F6C6465 
 2790      7200
 2791              	.LASF8:
 2792 070b 73686F72 		.ascii	"short unsigned int\000"
 2792      7420756E 
 2792      7369676E 
 2792      65642069 
 2792      6E7400
 2793              	.LASF100:
 2794 071e 4457545F 		.ascii	"DWT_Type\000"
 2794      54797065 
 2794      00
 2795              	.LASF132:
 2796 0727 6964656E 		.ascii	"identifier\000"
 2796      74696669 
 2796      657200
 2797              	.LASF20:
 2798 0732 7274636E 		.ascii	"rtcnt_t\000"
 2798      745F7400 
 2799              	.LASF77:
 2800 073a 4354524C 		.ascii	"CTRL\000"
 2800      00
 2801              	.LASF136:
 2802 073f 70747273 		.ascii	"ptrsize\000"
 2802      697A6500 
 2803              	.LASF53:
 2804 0747 74687265 		.ascii	"threads_queue_t\000"
 2804      6164735F 
 2804      71756575 
 2804      655F7400 
 2805              	.LASF128:
 2806 0757 63685F6D 		.ascii	"ch_mutex\000"
 2806      75746578 
 2806      00
 2807              	.LASF72:
 2808 0760 726C6973 		.ascii	"rlist\000"
ARM GAS  C:\cygwin64\tmp\ccXTzhUP.s 			page 56


 2808      7400
 2809              	.LASF15:
 2810 0766 75696E74 		.ascii	"uint8_t\000"
 2810      385F7400 
 2811              	.LASF39:
 2812 076e 666C6167 		.ascii	"flags\000"
 2812      7300
 2813              	.LASF83:
 2814 0774 464F4C44 		.ascii	"FOLDCNT\000"
 2814      434E5400 
 2815              	.LASF121:
 2816 077c 77746F62 		.ascii	"wtobjp\000"
 2816      6A7000
 2817              	.LASF49:
 2818 0783 74687265 		.ascii	"threads_list_t\000"
 2818      6164735F 
 2818      6C697374 
 2818      5F7400
 2819              	.LASF145:
 2820 0792 6F66665F 		.ascii	"off_state\000"
 2820      73746174 
 2820      6500
 2821              	.LASF146:
 2822 079c 6F66665F 		.ascii	"off_flags\000"
 2822      666C6167 
 2822      7300
 2823              	.LASF44:
 2824 07a6 6D74786C 		.ascii	"mtxlist\000"
 2824      69737400 
 2825              	.LASF123:
 2826 07ae 73656E74 		.ascii	"sentmsg\000"
 2826      6D736700 
 2827              	.LASF116:
 2828 07b6 6D5F6372 		.ascii	"m_crit_thd\000"
 2828      69745F74 
 2828      686400
 2829              		.ident	"GCC: (GNU Tools for ARM Embedded Processors 6-2017-q2-update) 6.3.1 20170620 (release) [AR
ARM GAS  C:\cygwin64\tmp\ccXTzhUP.s 			page 57


DEFINED SYMBOLS
                            *ABS*:00000000 chtm.c
C:\cygwin64\tmp\ccXTzhUP.s:18     .text.chTMObjectInit:00000000 $t
C:\cygwin64\tmp\ccXTzhUP.s:25     .text.chTMObjectInit:00000000 chTMObjectInit
C:\cygwin64\tmp\ccXTzhUP.s:53     .text.chTMStartMeasurementX:00000000 $t
C:\cygwin64\tmp\ccXTzhUP.s:60     .text.chTMStartMeasurementX:00000000 chTMStartMeasurementX
C:\cygwin64\tmp\ccXTzhUP.s:82     .text.chTMStartMeasurementX:00000008 $d
C:\cygwin64\tmp\ccXTzhUP.s:87     .text.chTMStopMeasurementX:00000000 $t
C:\cygwin64\tmp\ccXTzhUP.s:94     .text.chTMStopMeasurementX:00000000 chTMStopMeasurementX
C:\cygwin64\tmp\ccXTzhUP.s:174    .text.chTMStopMeasurementX:0000003c $d
C:\cygwin64\tmp\ccXTzhUP.s:182    .text._tm_init:00000000 $t
C:\cygwin64\tmp\ccXTzhUP.s:189    .text._tm_init:00000000 _tm_init
C:\cygwin64\tmp\ccXTzhUP.s:232    .text._tm_init:00000028 $d
C:\cygwin64\tmp\ccXTzhUP.s:237    .text.chTMChainMeasurementToX:00000000 $t
C:\cygwin64\tmp\ccXTzhUP.s:244    .text.chTMChainMeasurementToX:00000000 chTMChainMeasurementToX
C:\cygwin64\tmp\ccXTzhUP.s:321    .text.chTMChainMeasurementToX:00000034 $d
                     .debug_frame:00000010 $d

UNDEFINED SYMBOLS
ch
