ARM GAS  C:\cygwin64\tmp\ccKPN3Lz.s 			page 1


   1              		.cpu cortex-m4
   2              		.eabi_attribute 27, 1
   3              		.eabi_attribute 28, 1
   4              		.eabi_attribute 20, 1
   5              		.eabi_attribute 21, 1
   6              		.eabi_attribute 23, 3
   7              		.eabi_attribute 24, 1
   8              		.eabi_attribute 25, 1
   9              		.eabi_attribute 26, 1
  10              		.eabi_attribute 30, 4
  11              		.eabi_attribute 34, 1
  12              		.eabi_attribute 18, 4
  13              		.file	"fatfs_syscall.c"
  14              		.text
  15              	.Ltext0:
  16              		.cfi_sections	.debug_frame
  17              		.section	.text.ff_cre_syncobj,"ax",%progbits
  18              		.align	1
  19              		.global	ff_cre_syncobj
  20              		.syntax unified
  21              		.thumb
  22              		.thumb_func
  23              		.fpu fpv4-sp-d16
  24              		.type	ff_cre_syncobj, %function
  25              	ff_cre_syncobj:
  26              	.LFB277:
  27              		.file 1 "../../modules/ChibiOS/os/various/fatfs_bindings/fatfs_syscall.c"
  28              		.loc 1 35 0
  29              		.cfi_startproc
  30              		@ args = 0, pretend = 0, frame = 0
  31              		@ frame_needed = 0, uses_anonymous_args = 0
  32              	.LVL0:
  33 0000 08B5     		push	{r3, lr}
  34              		.cfi_def_cfa_offset 8
  35              		.cfi_offset 3, -8
  36              		.cfi_offset 14, -4
  37              		.loc 1 37 0
  38 0002 054B     		ldr	r3, .L2
  39 0004 00EB4000 		add	r0, r0, r0, lsl #1
  40              	.LVL1:
  41 0008 03EB8000 		add	r0, r3, r0, lsl #2
  42 000c 0860     		str	r0, [r1]
  43              		.loc 1 38 0
  44 000e 0121     		movs	r1, #1
  45              	.LVL2:
  46 0010 FFF7FEFF 		bl	chSemObjectInit
  47              	.LVL3:
  48              		.loc 1 40 0
  49 0014 0120     		movs	r0, #1
  50 0016 08BD     		pop	{r3, pc}
  51              	.L3:
  52              		.align	2
  53              	.L2:
  54 0018 00000000 		.word	.LANCHOR0
  55              		.cfi_endproc
  56              	.LFE277:
  57              		.size	ff_cre_syncobj, .-ff_cre_syncobj
ARM GAS  C:\cygwin64\tmp\ccKPN3Lz.s 			page 2


  58              		.section	.text.ff_del_syncobj,"ax",%progbits
  59              		.align	1
  60              		.global	ff_del_syncobj
  61              		.syntax unified
  62              		.thumb
  63              		.thumb_func
  64              		.fpu fpv4-sp-d16
  65              		.type	ff_del_syncobj, %function
  66              	ff_del_syncobj:
  67              	.LFB278:
  68              		.loc 1 45 0
  69              		.cfi_startproc
  70              		@ args = 0, pretend = 0, frame = 0
  71              		@ frame_needed = 0, uses_anonymous_args = 0
  72              	.LVL4:
  73 0000 08B5     		push	{r3, lr}
  74              		.cfi_def_cfa_offset 8
  75              		.cfi_offset 3, -8
  76              		.cfi_offset 14, -4
  77              		.loc 1 47 0
  78 0002 0021     		movs	r1, #0
  79 0004 FFF7FEFF 		bl	chSemReset
  80              	.LVL5:
  81              		.loc 1 49 0
  82 0008 0120     		movs	r0, #1
  83 000a 08BD     		pop	{r3, pc}
  84              		.cfi_endproc
  85              	.LFE278:
  86              		.size	ff_del_syncobj, .-ff_del_syncobj
  87              		.section	.text.ff_req_grant,"ax",%progbits
  88              		.align	1
  89              		.global	ff_req_grant
  90              		.syntax unified
  91              		.thumb
  92              		.thumb_func
  93              		.fpu fpv4-sp-d16
  94              		.type	ff_req_grant, %function
  95              	ff_req_grant:
  96              	.LFB279:
  97              		.loc 1 54 0
  98              		.cfi_startproc
  99              		@ args = 0, pretend = 0, frame = 0
 100              		@ frame_needed = 0, uses_anonymous_args = 0
 101              	.LVL6:
 102 0000 08B5     		push	{r3, lr}
 103              		.cfi_def_cfa_offset 8
 104              		.cfi_offset 3, -8
 105              		.cfi_offset 14, -4
 106              		.loc 1 56 0
 107 0002 0349     		ldr	r1, .L6
 108 0004 FFF7FEFF 		bl	chSemWaitTimeout
 109              	.LVL7:
 110              		.loc 1 58 0
 111 0008 B0FA80F0 		clz	r0, r0
 112              	.LVL8:
 113 000c 4009     		lsrs	r0, r0, #5
 114 000e 08BD     		pop	{r3, pc}
ARM GAS  C:\cygwin64\tmp\ccKPN3Lz.s 			page 3


 115              	.L7:
 116              		.align	2
 117              	.L6:
 118 0010 40420F00 		.word	1000000
 119              		.cfi_endproc
 120              	.LFE279:
 121              		.size	ff_req_grant, .-ff_req_grant
 122              		.section	.text.ff_rel_grant,"ax",%progbits
 123              		.align	1
 124              		.global	ff_rel_grant
 125              		.syntax unified
 126              		.thumb
 127              		.thumb_func
 128              		.fpu fpv4-sp-d16
 129              		.type	ff_rel_grant, %function
 130              	ff_rel_grant:
 131              	.LFB280:
 132              		.loc 1 63 0
 133              		.cfi_startproc
 134              		@ args = 0, pretend = 0, frame = 0
 135              		@ frame_needed = 0, uses_anonymous_args = 0
 136              		@ link register save eliminated.
 137              	.LVL9:
 138              		.loc 1 65 0
 139 0000 FFF7FEBF 		b	chSemSignal
 140              	.LVL10:
 141              		.cfi_endproc
 142              	.LFE280:
 143              		.size	ff_rel_grant, .-ff_rel_grant
 144              		.section	.text.ff_memalloc,"ax",%progbits
 145              		.align	1
 146              		.global	ff_memalloc
 147              		.syntax unified
 148              		.thumb
 149              		.thumb_func
 150              		.fpu fpv4-sp-d16
 151              		.type	ff_memalloc, %function
 152              	ff_memalloc:
 153              	.LFB281:
 154              		.loc 1 73 0
 155              		.cfi_startproc
 156              		@ args = 0, pretend = 0, frame = 0
 157              		@ frame_needed = 0, uses_anonymous_args = 0
 158              		@ link register save eliminated.
 159              	.LVL11:
 160              		.loc 1 75 0
 161 0000 FFF7FEBF 		b	malloc
 162              	.LVL12:
 163              		.cfi_endproc
 164              	.LFE281:
 165              		.size	ff_memalloc, .-ff_memalloc
 166              		.section	.text.ff_memfree,"ax",%progbits
 167              		.align	1
 168              		.global	ff_memfree
 169              		.syntax unified
 170              		.thumb
 171              		.thumb_func
ARM GAS  C:\cygwin64\tmp\ccKPN3Lz.s 			page 4


 172              		.fpu fpv4-sp-d16
 173              		.type	ff_memfree, %function
 174              	ff_memfree:
 175              	.LFB282:
 176              		.loc 1 81 0
 177              		.cfi_startproc
 178              		@ args = 0, pretend = 0, frame = 0
 179              		@ frame_needed = 0, uses_anonymous_args = 0
 180              		@ link register save eliminated.
 181              	.LVL13:
 182              		.loc 1 83 0
 183 0000 FFF7FEBF 		b	free
 184              	.LVL14:
 185              		.cfi_endproc
 186              	.LFE282:
 187              		.size	ff_memfree, .-ff_memfree
 188              		.section	.bss.ff_sem,"aw",%nobits
 189              		.align	2
 190              		.set	.LANCHOR0,. + 0
 191              		.type	ff_sem, %object
 192              		.size	ff_sem, 12
 193              	ff_sem:
 194 0000 00000000 		.space	12
 194      00000000 
 194      00000000 
 195              		.text
 196              	.Letext0:
 197              		.file 2 "c:\\program files (x86)\\gnu tools arm embedded\\6 2017-q2-update\\lib\\gcc\\arm-none-eab
 198              		.file 3 "c:\\program files (x86)\\gnu tools arm embedded\\6 2017-q2-update\\arm-none-eabi\\include
 199              		.file 4 "c:\\program files (x86)\\gnu tools arm embedded\\6 2017-q2-update\\arm-none-eabi\\include
 200              		.file 5 "../../modules/ChibiOS/os/common/ports/ARMCMx/compilers/GCC/chtypes.h"
 201              		.file 6 "../../modules/ChibiOS/os/rt/include/chsystypes.h"
 202              		.file 7 "../../modules/ChibiOS/os/rt/include/chschd.h"
 203              		.file 8 "../../modules/ChibiOS/os/common/ext/CMSIS/include/core_cm4.h"
 204              		.file 9 "../../modules/ChibiOS/os/common/ext/CMSIS/ST/STM32F4xx/system_stm32f4xx.h"
 205              		.file 10 "../../modules/ChibiOS/os/common/ext/CMSIS/ST/STM32F4xx/stm32f427xx.h"
 206              		.file 11 "../../modules/ChibiOS/os/common/ports/ARMCMx/chcore.h"
 207              		.file 12 "../../modules/ChibiOS/os/common/ports/ARMCMx/chcore_v7m.h"
 208              		.file 13 "../../modules/ChibiOS/os/hal/ports/STM32/LLD/TIMv1/stm32_tim.h"
 209              		.file 14 "../../modules/ChibiOS/os/rt/include/chtm.h"
 210              		.file 15 "../../modules/ChibiOS/os/rt/include/chstats.h"
 211              		.file 16 "../../modules/ChibiOS/os/rt/include/chsem.h"
 212              		.file 17 "../../modules/ChibiOS/os/rt/include/chmtx.h"
 213              		.file 18 "../../modules/ChibiOS/os/rt/include/chsys.h"
 214              		.file 19 "../../modules/ChibiOS/os/rt/include/chregistry.h"
 215              		.file 20 "../../modules/ChibiOS/os/rt/include/chevents.h"
 216              		.file 21 "../../modules/ChibiOS/os/hal/ports/STM32/LLD/DMAv2/stm32_dma.h"
 217              		.file 22 "../../modules/ChibiOS/os/hal/include/hal_ioblock.h"
 218              		.file 23 "../../modules/ChibiOS/os/hal/include/hal_queues.h"
 219              		.file 24 "../../modules/ChibiOS/os/hal/ports/STM32/LLD/GPIOv2/hal_pal_lld.h"
 220              		.file 25 "../../modules/ChibiOS/os/hal/include/hal_adc.h"
 221              		.file 26 "../../modules/ChibiOS/os/hal/ports/STM32/LLD/ADCv2/hal_adc_lld.h"
 222              		.file 27 "../../modules/ChibiOS/os/hal/include/hal_ext.h"
 223              		.file 28 "../../modules/ChibiOS/os/hal/ports/STM32/LLD/EXTIv1/hal_ext_lld.h"
 224              		.file 29 "../../modules/ChibiOS/os/hal/include/hal_i2c.h"
 225              		.file 30 "../../modules/ChibiOS/os/hal/ports/STM32/LLD/I2Cv1/hal_i2c_lld.h"
 226              		.file 31 "../../modules/ChibiOS/os/hal/include/hal_pwm.h"
ARM GAS  C:\cygwin64\tmp\ccKPN3Lz.s 			page 5


 227              		.file 32 "../../modules/ChibiOS/os/hal/ports/STM32/LLD/TIMv1/hal_pwm_lld.h"
 228              		.file 33 "../../modules/ChibiOS/os/hal/include/hal_serial.h"
 229              		.file 34 "../../modules/ChibiOS/os/hal/ports/STM32/LLD/USARTv1/hal_serial_lld.h"
 230              		.file 35 "../../modules/ChibiOS/os/hal/include/hal_sdc.h"
 231              		.file 36 "../../modules/ChibiOS/os/hal/ports/STM32/LLD/SDIOv1/hal_sdc_lld.h"
 232              		.file 37 "../../modules/ChibiOS/os/hal/include/hal_spi.h"
 233              		.file 38 "../../modules/ChibiOS/os/hal/ports/STM32/LLD/SPIv1/hal_spi_lld.h"
 234              		.file 39 "../../modules/ChibiOS/os/hal/include/hal_usb.h"
 235              		.file 40 "../../modules/ChibiOS/os/hal/ports/STM32/LLD/OTGv1/hal_usb_lld.h"
 236              		.file 41 "../../modules/ChibiOS/os/hal/ports/STM32/LLD/OTGv1/stm32_otg.h"
 237              		.file 42 "../../modules/ChibiOS/ext/fatfs/src/integer.h"
 238              		.file 43 "c:\\program files (x86)\\gnu tools arm embedded\\6 2017-q2-update\\arm-none-eabi\\includ
 239              		.file 44 "c:\\program files (x86)\\gnu tools arm embedded\\6 2017-q2-update\\arm-none-eabi\\includ
 240              		.file 45 "c:\\program files (x86)\\gnu tools arm embedded\\6 2017-q2-update\\arm-none-eabi\\includ
 241              		.file 46 "c:\\program files (x86)\\gnu tools arm embedded\\6 2017-q2-update\\arm-none-eabi\\includ