ARM GAS  C:\cygwin64\tmp\cc6eY66b.s 			page 1


   1              		.cpu cortex-m4
   2              		.eabi_attribute 27, 1
   3              		.eabi_attribute 28, 1
   4              		.eabi_attribute 20, 1
   5              		.eabi_attribute 21, 1
   6              		.eabi_attribute 23, 3
   7              		.eabi_attribute 24, 1
   8              		.eabi_attribute 25, 1
   9              		.eabi_attribute 26, 1
  10              		.eabi_attribute 30, 4
  11              		.eabi_attribute 34, 1
  12              		.eabi_attribute 18, 4
  13              		.file	"ff.c"
  14              		.text
  15              	.Ltext0:
  16              		.cfi_sections	.debug_frame
  17              		.section	.text.ld_dword,"ax",%progbits
  18              		.align	1
  19              		.syntax unified
  20              		.thumb
  21              		.thumb_func
  22              		.fpu fpv4-sp-d16
  23              		.type	ld_dword, %function
  24              	ld_dword:
  25              	.LFB247:
  26              		.file 1 "../../modules/ChibiOS/ext/fatfs/src/ff.c"
  27              		.loc 1 613 0
  28              		.cfi_startproc
  29              		@ args = 0, pretend = 0, frame = 0
  30              		@ frame_needed = 0, uses_anonymous_args = 0
  31              		@ link register save eliminated.
  32              	.LVL0:
  33              		.loc 1 617 0
  34 0000 4288     		ldrh	r2, [r0, #2]	@ unaligned
  35              	.LVL1:
  36              		.loc 1 618 0
  37 0002 4378     		ldrb	r3, [r0, #1]	@ zero_extendqisi2
  38              		.loc 1 619 0
  39 0004 0078     		ldrb	r0, [r0]	@ zero_extendqisi2
  40              	.LVL2:
  41              		.loc 1 618 0
  42 0006 43EA0223 		orr	r3, r3, r2, lsl #8
  43              	.LVL3:
  44              		.loc 1 621 0
  45 000a 40EA0320 		orr	r0, r0, r3, lsl #8
  46 000e 7047     		bx	lr
  47              		.cfi_endproc
  48              	.LFE247:
  49              		.size	ld_dword, .-ld_dword
  50              		.section	.text.ld_qword,"ax",%progbits
  51              		.align	1
  52              		.syntax unified
  53              		.thumb
  54              		.thumb_func
  55              		.fpu fpv4-sp-d16
  56              		.type	ld_qword, %function
  57              	ld_qword:
ARM GAS  C:\cygwin64\tmp\cc6eY66b.s 			page 2


  58              	.LFB248:
  59              		.loc 1 626 0
  60              		.cfi_startproc
  61              		@ args = 0, pretend = 0, frame = 0
  62              		@ frame_needed = 0, uses_anonymous_args = 0
  63              	.LVL4:
  64 0000 30B5     		push	{r4, r5, lr}
  65              		.cfi_def_cfa_offset 12
  66              		.cfi_offset 4, -12
  67              		.cfi_offset 5, -8
  68              		.cfi_offset 14, -4
  69              		.loc 1 632 0
  70 0002 4168     		ldr	r1, [r0, #4]	@ unaligned
  71              		.loc 1 633 0
  72 0004 C478     		ldrb	r4, [r0, #3]	@ zero_extendqisi2
  73 0006 0B0E     		lsrs	r3, r1, #24
  74 0008 0025     		movs	r5, #0
  75 000a 0A02     		lsls	r2, r1, #8
  76              	.LVL5:
  77 000c 1D43     		orrs	r5, r5, r3
  78 000e 1443     		orrs	r4, r4, r2
  79              		.loc 1 634 0
  80 0010 2B02     		lsls	r3, r5, #8
  81 0012 43EA1463 		orr	r3, r3, r4, lsr #24
  82 0016 2202     		lsls	r2, r4, #8
  83              	.LVL6:
  84 0018 0025     		movs	r5, #0
  85 001a 8478     		ldrb	r4, [r0, #2]	@ zero_extendqisi2
  86 001c 1D43     		orrs	r5, r5, r3
  87 001e 1443     		orrs	r4, r4, r2
  88              		.loc 1 635 0
  89 0020 2B02     		lsls	r3, r5, #8
  90 0022 43EA1463 		orr	r3, r3, r4, lsr #24
  91 0026 2202     		lsls	r2, r4, #8
  92              	.LVL7:
  93 0028 0025     		movs	r5, #0
  94 002a 4478     		ldrb	r4, [r0, #1]	@ zero_extendqisi2
  95              		.loc 1 636 0
  96 002c 0078     		ldrb	r0, [r0]	@ zero_extendqisi2
  97              	.LVL8:
  98              		.loc 1 635 0
  99 002e 1D43     		orrs	r5, r5, r3
 100 0030 1443     		orrs	r4, r4, r2
 101              	.LVL9:
 102              		.loc 1 636 0
 103 0032 2B02     		lsls	r3, r5, #8
 104 0034 43EA1463 		orr	r3, r3, r4, lsr #24
 105 0038 2202     		lsls	r2, r4, #8
 106              	.LVL10:
 107 003a 0021     		movs	r1, #0
 108              		.loc 1 638 0
 109 003c 1043     		orrs	r0, r0, r2
 110 003e 1943     		orrs	r1, r1, r3
 111 0040 30BD     		pop	{r4, r5, pc}
 112              		.cfi_endproc
 113              	.LFE248:
 114              		.size	ld_qword, .-ld_qword
ARM GAS  C:\cygwin64\tmp\cc6eY66b.s 			page 3


 115              		.section	.text.st_dword,"ax",%progbits
 116              		.align	1
 117              		.syntax unified
 118              		.thumb
 119              		.thumb_func
 120              		.fpu fpv4-sp-d16
 121              		.type	st_dword, %function
 122              	st_dword:
 123              	.LFB250:
 124              		.loc 1 651 0
 125              		.cfi_startproc
 126              		@ args = 0, pretend = 0, frame = 0
 127              		@ frame_needed = 0, uses_anonymous_args = 0
 128              		@ link register save eliminated.
 129              	.LVL11:
 130              		.loc 1 652 0
 131 0000 0B0A     		lsrs	r3, r1, #8
 132 0002 0170     		strb	r1, [r0]
 133              	.LVL12:
 134              		.loc 1 653 0
 135 0004 4370     		strb	r3, [r0, #1]
 136              	.LVL13:
 137 0006 0B0C     		lsrs	r3, r1, #16
 138              	.LVL14:
 139              		.loc 1 654 0
 140 0008 090E     		lsrs	r1, r1, #24
 141 000a 8370     		strb	r3, [r0, #2]
 142              	.LVL15:
 143              		.loc 1 655 0
 144 000c C170     		strb	r1, [r0, #3]
 145 000e 7047     		bx	lr
 146              		.cfi_endproc
 147              	.LFE250:
 148              		.size	st_dword, .-st_dword
 149              		.section	.text.st_qword,"ax",%progbits
 150              		.align	1
 151              		.syntax unified
 152              		.thumb
 153              		.thumb_func
 154              		.fpu fpv4-sp-d16
 155              		.type	st_qword, %function
 156              	st_qword:
 157              	.LFB251:
 158              		.loc 1 661 0
 159              		.cfi_startproc
 160              		@ args = 0, pretend = 0, frame = 0
 161              		@ frame_needed = 0, uses_anonymous_args = 0
 162              		@ link register save eliminated.
 163              	.LVL16:
 164              		.loc 1 662 0
 165 0000 110A     		lsrs	r1, r2, #8
 166 0002 0270     		strb	r2, [r0]
 167              	.LVL17:
 168              		.loc 1 663 0
 169 0004 4170     		strb	r1, [r0, #1]
 170              	.LVL18:
 171 0006 110C     		lsrs	r1, r2, #16
ARM GAS  C:\cygwin64\tmp\cc6eY66b.s 			page 4


 172              		.loc 1 664 0
 173 0008 120E     		lsrs	r2, r2, #24
 174              	.LVL19:
 175              		.loc 1 665 0
 176 000a C270     		strb	r2, [r0, #3]
 177              		.loc 1 666 0
 178 000c 1A0A     		lsrs	r2, r3, #8
 179 000e 0371     		strb	r3, [r0, #4]
 180              		.loc 1 667 0
 181 0010 4271     		strb	r2, [r0, #5]
 182 0012 1A0C     		lsrs	r2, r3, #16
 183              		.loc 1 668 0
 184 0014 1B0E     		lsrs	r3, r3, #24
 185              		.loc 1 664 0
 186 0016 8170     		strb	r1, [r0, #2]
 187              	.LVL20:
 188              		.loc 1 668 0
 189 0018 8271     		strb	r2, [r0, #6]
 190              	.LVL21:
 191              		.loc 1 669 0
 192 001a C371     		strb	r3, [r0, #7]
 193 001c 7047     		bx	lr
 194              		.cfi_endproc
 195              	.LFE251:
 196              		.size	st_qword, .-st_qword
 197              		.section	.text.mem_set,"ax",%progbits
 198              		.align	1
 199              		.syntax unified
 200              		.thumb
 201              		.thumb_func
 202              		.fpu fpv4-sp-d16
 203              		.type	mem_set, %function
 204              	mem_set:
 205              	.LFB253:
 206              		.loc 1 693 0
 207              		.cfi_startproc
 208              		@ args = 0, pretend = 0, frame = 0
 209              		@ frame_needed = 0, uses_anonymous_args = 0
 210              		@ link register save eliminated.
 211              	.LVL22:
 212 0000 0244     		add	r2, r2, r0
 213              	.LVL23:
 214              	.L6:
 215              		.loc 1 696 0 discriminator 1
 216 0002 00F8011B 		strb	r1, [r0], #1
 217              	.LVL24:
 218 0006 9042     		cmp	r0, r2
 219 0008 FBD1     		bne	.L6
 220              		.loc 1 697 0
 221 000a 7047     		bx	lr
 222              		.cfi_endproc
 223              	.LFE253:
 224              		.size	mem_set, .-mem_set
 225              		.section	.text.clust2sect,"ax",%progbits
 226              		.align	1
 227              		.syntax unified
 228              		.thumb
ARM GAS  C:\cygwin64\tmp\cc6eY66b.s 			page 5


 229              		.thumb_func
 230              		.fpu fpv4-sp-d16
 231              		.type	clust2sect, %function
 232              	clust2sect:
 233              	.LFB261:
 234              		.loc 1 972 0
 235              		.cfi_startproc
 236              		@ args = 0, pretend = 0, frame = 0
 237              		@ frame_needed = 0, uses_anonymous_args = 0
 238              		@ link register save eliminated.
 239              	.LVL25:
 240              		.loc 1 974 0
 241 0000 036B     		ldr	r3, [r0, #48]
 242              		.loc 1 973 0
 243 0002 0239     		subs	r1, r1, #2
 244              	.LVL26:
 245              		.loc 1 974 0
 246 0004 023B     		subs	r3, r3, #2
 247 0006 9942     		cmp	r1, r3
 248              		.loc 1 975 0
 249 0008 3DBF     		ittte	cc
 250 000a 4389     		ldrhcc	r3, [r0, #10]
 251 000c 406C     		ldrcc	r0, [r0, #68]
 252              	.LVL27:
 253 000e 01FB0300 		mlacc	r0, r1, r3, r0
 254              		.loc 1 974 0
 255 0012 0020     		movcs	r0, #0
 256              		.loc 1 976 0
 257 0014 7047     		bx	lr
 258              		.cfi_endproc
 259              	.LFE261:
 260              		.size	clust2sect, .-clust2sect
 261              		.section	.text.sum_sfn,"ax",%progbits
 262              		.align	1
 263              		.syntax unified
 264              		.thumb
 265              		.thumb_func
 266              		.fpu fpv4-sp-d16
 267              		.type	sum_sfn, %function
 268              	sum_sfn:
 269              	.LFB278:
 270              		.loc 1 1808 0
 271              		.cfi_startproc
 272              		@ args = 0, pretend = 0, frame = 0
 273              		@ frame_needed = 0, uses_anonymous_args = 0
 274              		@ link register save eliminated.
 275              	.LVL28:
 276              		.loc 1 1808 0
 277 0000 0246     		mov	r2, r0
 278 0002 00F10B01 		add	r1, r0, #11
 279              		.loc 1 1809 0
 280 0006 0020     		movs	r0, #0
 281              	.LVL29:
 282              	.L12:
 283              		.loc 1 1812 0 discriminator 1
 284 0008 C301     		lsls	r3, r0, #7
 285 000a 43EA5003 		orr	r3, r3, r0, lsr #1
ARM GAS  C:\cygwin64\tmp\cc6eY66b.s 			page 6


 286 000e 12F8010B 		ldrb	r0, [r2], #1	@ zero_extendqisi2
 287              	.LVL30:
 288 0012 50FA83F3 		uxtab	r3, r0, r3
 289 0016 8A42     		cmp	r2, r1
 290 0018 D8B2     		uxtb	r0, r3
 291              	.LVL31:
 292 001a F5D1     		bne	.L12
 293              		.loc 1 1814 0
 294 001c 7047     		bx	lr
 295              		.cfi_endproc
 296              	.LFE278:
 297              		.size	sum_sfn, .-sum_sfn
 298              		.section	.text.xdir_sum,"ax",%progbits
 299              		.align	1
 300              		.syntax unified
 301              		.thumb
 302              		.thumb_func
 303              		.fpu fpv4-sp-d16
 304              		.type	xdir_sum, %function
 305              	xdir_sum:
 306              	.LFB279:
 307              		.loc 1 1829 0
 308              		.cfi_startproc
 309              		@ args = 0, pretend = 0, frame = 0
 310              		@ frame_needed = 0, uses_anonymous_args = 0
 311              	.LVL32:
 312 0000 30B5     		push	{r4, r5, lr}
 313              		.cfi_def_cfa_offset 12
 314              		.cfi_offset 4, -12
 315              		.cfi_offset 5, -8
 316              		.cfi_offset 14, -4
 317              		.loc 1 1834 0
 318 0002 4178     		ldrb	r1, [r0, #1]	@ zero_extendqisi2
 319              		.loc 1 1835 0
 320 0004 0022     		movs	r2, #0
 321              		.loc 1 1834 0
 322 0006 0131     		adds	r1, r1, #1
 323 0008 4901     		lsls	r1, r1, #5
 324              	.LVL33:
 325              		.loc 1 1835 0
 326 000a 1346     		mov	r3, r2
 327              	.LVL34:
 328              	.L17:
 329              		.loc 1 1836 0
 330 000c 022B     		cmp	r3, #2
 331 000e 0FD0     		beq	.L18
 332              		.loc 1 1839 0
 333 0010 C55C     		ldrb	r5, [r0, r3]	@ zero_extendqisi2
 334 0012 12F0010F 		tst	r2, #1
 335 0016 14BF     		ite	ne
 336 0018 4FF40044 		movne	r4, #32768
 337 001c 0024     		moveq	r4, #0
 338 001e 05EB5202 		add	r2, r5, r2, lsr #1
 339              	.LVL35:
 340 0022 2244     		add	r2, r2, r4
 341 0024 92B2     		uxth	r2, r2
 342              	.LVL36:
ARM GAS  C:\cygwin64\tmp\cc6eY66b.s 			page 7


 343              	.L15:
 344              		.loc 1 1835 0 discriminator 2
 345 0026 0133     		adds	r3, r3, #1
 346              	.LVL37:
 347 0028 9942     		cmp	r1, r3
 348 002a EFD8     		bhi	.L17
 349              		.loc 1 1843 0
 350 002c 1046     		mov	r0, r2
 351              	.LVL38:
 352 002e 30BD     		pop	{r4, r5, pc}
 353              	.LVL39:
 354              	.L18:
 355              		.loc 1 1837 0
 356 0030 0323     		movs	r3, #3
 357              	.LVL40:
 358 0032 F8E7     		b	.L15
 359              		.cfi_endproc
 360              	.LFE279:
 361              		.size	xdir_sum, .-xdir_sum
 362              		.section	.text.get_ldnumber,"ax",%progbits
 363              		.align	1
 364              		.syntax unified
 365              		.thumb
 366              		.thumb_func
 367              		.fpu fpv4-sp-d16
 368              		.type	get_ldnumber, %function
 369              	get_ldnumber:
 370              	.LFB293:
 371              		.loc 1 2856 0
 372              		.cfi_startproc
 373              		@ args = 0, pretend = 0, frame = 0
 374              		@ frame_needed = 0, uses_anonymous_args = 0
 375              	.LVL41:
 376              		.loc 1 2868 0
 377 0000 0268     		ldr	r2, [r0]
 378              		.loc 1 2856 0
 379 0002 10B5     		push	{r4, lr}
 380              		.cfi_def_cfa_offset 8
 381              		.cfi_offset 4, -8
 382              		.cfi_offset 14, -4
 383              		.loc 1 2868 0
 384 0004 52B1     		cbz	r2, .L31
 385 0006 1146     		mov	r1, r2
 386              	.L23:
 387 0008 0B46     		mov	r3, r1
 388              	.LVL42:
 389              		.loc 1 2869 0 discriminator 1
 390 000a 11F8014B 		ldrb	r4, [r1], #1	@ zero_extendqisi2
 391              	.LVL43:
 392 000e 1F2C     		cmp	r4, #31
 393 0010 0CD9     		bls	.L27
 394              		.loc 1 2869 0 is_stmt 0 discriminator 3
 395 0012 3A2C     		cmp	r4, #58
 396 0014 F8D1     		bne	.L23
 397              	.LVL44:
 398              		.loc 1 2872 0 is_stmt 1
 399 0016 511C     		adds	r1, r2, #1
ARM GAS  C:\cygwin64\tmp\cc6eY66b.s 			page 8


 400              	.LVL45:
 401              		.loc 1 2873 0
 402 0018 8B42     		cmp	r3, r1
 403 001a 02D0     		beq	.L25
 404              	.LVL46:
 405              	.L31:
 406              		.loc 1 2859 0
 407 001c 4FF0FF30 		mov	r0, #-1
 408              	.LVL47:
 409              		.loc 1 2904 0
 410 0020 10BD     		pop	{r4, pc}
 411              	.LVL48:
 412              	.L25:
 413              		.loc 1 2874 0
 414 0022 1278     		ldrb	r2, [r2]	@ zero_extendqisi2
 415              	.LVL49:
 416 0024 302A     		cmp	r2, #48
 417 0026 F9D1     		bne	.L31
 418              	.LVL50:
 419              		.loc 1 2876 0
 420 0028 0133     		adds	r3, r3, #1
 421              	.LVL51:
 422 002a 0360     		str	r3, [r0]
 423              	.LVL52:
 424              	.L27:
 425              		.loc 1 2900 0
 426 002c 0020     		movs	r0, #0
 427              	.LVL53:
 428 002e 10BD     		pop	{r4, pc}
 429              		.cfi_endproc
 430              	.LFE293:
 431              		.size	get_ldnumber, .-get_ldnumber
 432              		.section	.text.xname_sum,"ax",%progbits
 433              		.align	1
 434              		.syntax unified
 435              		.thumb
 436              		.thumb_func
 437              		.fpu fpv4-sp-d16
 438              		.type	xname_sum, %function
 439              	xname_sum:
 440              	.LFB280:
 441              		.loc 1 1851 0
 442              		.cfi_startproc
 443              		@ args = 0, pretend = 0, frame = 0
 444              		@ frame_needed = 0, uses_anonymous_args = 0
 445              	.LVL54:
 446 0000 38B5     		push	{r3, r4, r5, lr}
 447              		.cfi_def_cfa_offset 16
 448              		.cfi_offset 3, -16
 449              		.cfi_offset 4, -12
 450              		.cfi_offset 5, -8
 451              		.cfi_offset 14, -4
 452              		.loc 1 1851 0
 453 0002 0546     		mov	r5, r0
 454              		.loc 1 1853 0
 455 0004 0024     		movs	r4, #0
 456              	.LVL55:
ARM GAS  C:\cygwin64\tmp\cc6eY66b.s 			page 9


 457              	.L33:
 458              		.loc 1 1856 0
 459 0006 35F8020B 		ldrh	r0, [r5], #2
 460              	.LVL56:
 461 000a 08B9     		cbnz	r0, .L36
 462              		.loc 1 1862 0
 463 000c 2046     		mov	r0, r4
 464              	.LVL57:
 465 000e 38BD     		pop	{r3, r4, r5, pc}
 466              	.LVL58:
 467              	.L36:
 468              		.loc 1 1857 0
 469 0010 FFF7FEFF 		bl	ff_wtoupper
 470              	.LVL59:
 471              		.loc 1 1858 0
 472 0014 14F0010F 		tst	r4, #1
 473 0018 C2B2     		uxtb	r2, r0
 474 001a 02EB5404 		add	r4, r2, r4, lsr #1
 475              	.LVL60:
 476 001e 14BF     		ite	ne
 477 0020 4FF40043 		movne	r3, #32768
 478 0024 0023     		moveq	r3, #0
 479 0026 2344     		add	r3, r3, r4
 480 0028 9BB2     		uxth	r3, r3
 481              	.LVL61:
 482              		.loc 1 1859 0
 483 002a 13F0010F 		tst	r3, #1
 484 002e 4FEA1020 		lsr	r0, r0, #8
 485              	.LVL62:
 486 0032 14BF     		ite	ne
 487 0034 4FF40042 		movne	r2, #32768
 488 0038 0022     		moveq	r2, #0
 489 003a 00EB5300 		add	r0, r0, r3, lsr #1
 490 003e 12FA80F0 		uxtah	r0, r2, r0
 491 0042 84B2     		uxth	r4, r0
 492              	.LVL63:
 493 0044 DFE7     		b	.L33
 494              		.cfi_endproc
 495              	.LFE280:
 496              		.size	xname_sum, .-xname_sum
 497              		.section	.text.mem_cpy.part.0,"ax",%progbits
 498              		.align	1
 499              		.syntax unified
 500              		.thumb
 501              		.thumb_func
 502              		.fpu fpv4-sp-d16
 503              		.type	mem_cpy.part.0, %function
 504              	mem_cpy.part.0:
 505              	.LFB316:
 506              		.loc 1 682 0
 507              		.cfi_startproc
 508              		@ args = 0, pretend = 0, frame = 0
 509              		@ frame_needed = 0, uses_anonymous_args = 0
 510              		@ link register save eliminated.
 511              	.LVL64:
 512 0000 0138     		subs	r0, r0, #1
 513              	.LVL65:
ARM GAS  C:\cygwin64\tmp\cc6eY66b.s 			page 10


 514 0002 0A44     		add	r2, r2, r1
 515              	.LVL66:
 516              	.L40:
 517              		.loc 1 687 0
 518 0004 11F8013B 		ldrb	r3, [r1], #1	@ zero_extendqisi2
 519              	.LVL67:
 520 0008 00F8013F 		strb	r3, [r0, #1]!
 521              	.LVL68:
 522 000c 9142     		cmp	r1, r2
 523 000e F9D1     		bne	.L40
 524              		.loc 1 689 0
 525 0010 7047     		bx	lr
 526              		.cfi_endproc
 527              	.LFE316:
 528              		.size	mem_cpy.part.0, .-mem_cpy.part.0
 529              		.section	.text.ld_clust.isra.1,"ax",%progbits
 530              		.align	1
 531              		.syntax unified
 532              		.thumb
 533              		.thumb_func
 534              		.fpu fpv4-sp-d16
 535              		.type	ld_clust.isra.1, %function
 536              	ld_clust.isra.1:
 537              	.LFB317:
 538              		.loc 1 1589 0
 539              		.cfi_startproc
 540              		@ args = 0, pretend = 0, frame = 0
 541              		@ frame_needed = 0, uses_anonymous_args = 0
 542              		@ link register save eliminated.
 543              	.LVL69:
 544              	.LBB145:
 545              	.LBB146:
 546              		.loc 1 607 0
 547 0000 CA7E     		ldrb	r2, [r1, #27]	@ zero_extendqisi2
 548 0002 8B7E     		ldrb	r3, [r1, #26]	@ zero_extendqisi2
 549              	.LBE146:
 550              	.LBE145:
 551              		.loc 1 1597 0
 552 0004 0328     		cmp	r0, #3
 553              		.loc 1 1596 0
 554 0006 43EA0223 		orr	r3, r3, r2, lsl #8
 555              	.LVL70:
 556              	.LBB147:
 557              	.LBB148:
 558              		.loc 1 607 0
 559 000a 01BF     		itttt	eq
 560 000c 487D     		ldrbeq	r0, [r1, #21]	@ zero_extendqisi2
 561 000e 0A7D     		ldrbeq	r2, [r1, #20]	@ zero_extendqisi2
 562              	.LBE148:
 563              	.LBE147:
 564              		.loc 1 1598 0
 565 0010 42EA0022 		orreq	r2, r2, r0, lsl #8
 566 0014 43EA0243 		orreq	r3, r3, r2, lsl #16
 567              	.LVL71:
 568              		.loc 1 1602 0
 569 0018 1846     		mov	r0, r3
 570 001a 7047     		bx	lr
ARM GAS  C:\cygwin64\tmp\cc6eY66b.s 			page 11


 571              		.cfi_endproc
 572              	.LFE317:
 573              		.size	ld_clust.isra.1, .-ld_clust.isra.1
 574              		.section	.text.st_clust.isra.2,"ax",%progbits
 575              		.align	1
 576              		.syntax unified
 577              		.thumb
 578              		.thumb_func
 579              		.fpu fpv4-sp-d16
 580              		.type	st_clust.isra.2, %function
 581              	st_clust.isra.2:
 582              	.LFB318:
 583              		.loc 1 1607 0
 584              		.cfi_startproc
 585              		@ args = 0, pretend = 0, frame = 0
 586              		@ frame_needed = 0, uses_anonymous_args = 0
 587              		@ link register save eliminated.
 588              	.LVL72:
 589              	.LBB149:
 590              	.LBB150:
 591              		.loc 1 645 0
 592 0000 C2F30723 		ubfx	r3, r2, #8, #8
 593 0004 8A76     		strb	r2, [r1, #26]
 594              	.LVL73:
 595              		.loc 1 646 0
 596 0006 CB76     		strb	r3, [r1, #27]
 597              	.LVL74:
 598              	.LBE150:
 599              	.LBE149:
 600              		.loc 1 1614 0
 601 0008 0378     		ldrb	r3, [r0]	@ zero_extendqisi2
 602 000a 032B     		cmp	r3, #3
 603              		.loc 1 1615 0
 604 000c 01BF     		itttt	eq
 605 000e 120C     		lsreq	r2, r2, #16
 606              	.LVL75:
 607              	.LBB151:
 608              	.LBB152:
 609              		.loc 1 645 0
 610 0010 0A75     		strbeq	r2, [r1, #20]
 611              	.LVL76:
 612 0012 120A     		lsreq	r2, r2, #8
 613              	.LVL77:
 614              		.loc 1 646 0
 615 0014 4A75     		strbeq	r2, [r1, #21]
 616 0016 7047     		bx	lr
 617              	.LBE152:
 618              	.LBE151:
 619              		.cfi_endproc
 620              	.LFE318:
 621              		.size	st_clust.isra.2, .-st_clust.isra.2
 622              		.section	.text.validate,"ax",%progbits
 623              		.align	1
 624              		.syntax unified
 625              		.thumb
 626              		.thumb_func
 627              		.fpu fpv4-sp-d16
ARM GAS  C:\cygwin64\tmp\cc6eY66b.s 			page 12


 628              		.type	validate, %function
 629              	validate:
 630              	.LFB296:
 631              		.loc 1 3167 0
 632              		.cfi_startproc
 633              		@ args = 0, pretend = 0, frame = 0
 634              		@ frame_needed = 0, uses_anonymous_args = 0
 635              	.LVL78:
 636 0000 38B5     		push	{r3, r4, r5, lr}
 637              		.cfi_def_cfa_offset 16
 638              		.cfi_offset 3, -16
 639              		.cfi_offset 4, -12
 640              		.cfi_offset 5, -8
 641              		.cfi_offset 14, -4
 642              		.loc 1 3167 0
 643 0002 0D46     		mov	r5, r1
 644              		.loc 1 3171 0
 645 0004 0446     		mov	r4, r0
 646 0006 18B9     		cbnz	r0, .L47
 647              	.LVL79:
 648              	.L49:
 649              		.loc 1 3172 0
 650 0008 0023     		movs	r3, #0
 651 000a 2B60     		str	r3, [r5]
 652              	.LVL80:
 653              		.loc 1 3173 0
 654 000c 0920     		movs	r0, #9
 655 000e 38BD     		pop	{r3, r4, r5, pc}
 656              	.LVL81:
 657              	.L47:
 658              		.loc 1 3171 0 discriminator 1
 659 0010 0368     		ldr	r3, [r0]
 660 0012 002B     		cmp	r3, #0
 661 0014 F8D0     		beq	.L49
 662              		.loc 1 3171 0 is_stmt 0 discriminator 2
 663 0016 1A78     		ldrb	r2, [r3]	@ zero_extendqisi2
 664 0018 002A     		cmp	r2, #0
 665 001a F5D0     		beq	.L49
 666              		.loc 1 3171 0 discriminator 3
 667 001c D988     		ldrh	r1, [r3, #6]
 668              	.LVL82:
 669 001e 8288     		ldrh	r2, [r0, #4]
 670 0020 9142     		cmp	r1, r2
 671 0022 F1D1     		bne	.L49
 672              		.loc 1 3171 0 discriminator 4
 673 0024 5878     		ldrb	r0, [r3, #1]	@ zero_extendqisi2
 674              	.LVL83:
 675 0026 FFF7FEFF 		bl	disk_status
 676              	.LVL84:
 677 002a C307     		lsls	r3, r0, #31
 678 002c ECD4     		bmi	.L49
 679              	.LVL85:
 680              	.LBB157:
 681              	.LBB158:
 682              		.loc 1 3175 0 is_stmt 1
 683 002e 2368     		ldr	r3, [r4]
 684 0030 2B60     		str	r3, [r5]
ARM GAS  C:\cygwin64\tmp\cc6eY66b.s 			page 13


 685              	.LVL86:
 686              	.LBB159:
 687              	.LBB160:
 688              		.loc 1 731 0
 689 0032 2368     		ldr	r3, [r4]
 690 0034 5869     		ldr	r0, [r3, #20]
 691 0036 FFF7FEFF 		bl	ff_req_grant
 692              	.LVL87:
 693              	.LBE160:
 694              	.LBE159:
 695              		.loc 1 3177 0
 696 003a 0028     		cmp	r0, #0
 697 003c 0CBF     		ite	eq
 698 003e 0F20     		moveq	r0, #15
 699 0040 0020     		movne	r0, #0
 700              	.LBE158:
 701              	.LBE157:
 702              		.loc 1 3180 0
 703 0042 38BD     		pop	{r3, r4, r5, pc}
 704              		.cfi_endproc
 705              	.LFE296:
 706              		.size	validate, .-validate
 707              		.section	.text.sync_window.part.5,"ax",%progbits
 708              		.align	1
 709              		.syntax unified
 710              		.thumb
 711              		.thumb_func
 712              		.fpu fpv4-sp-d16
 713              		.type	sync_window.part.5, %function
 714              	sync_window.part.5:
 715              	.LFB321:
 716              		.loc 1 868 0
 717              		.cfi_startproc
 718              		@ args = 0, pretend = 0, frame = 0
 719              		@ frame_needed = 0, uses_anonymous_args = 0
 720              	.LVL88:
 721 0000 F8B5     		push	{r3, r4, r5, r6, r7, lr}
 722              		.cfi_def_cfa_offset 24
 723              		.cfi_offset 3, -24
 724              		.cfi_offset 4, -20
 725              		.cfi_offset 5, -16
 726              		.cfi_offset 6, -12
 727              		.cfi_offset 7, -8
 728              		.cfi_offset 14, -4
 729              		.loc 1 878 0
 730 0002 856C     		ldr	r5, [r0, #72]
 731              	.LVL89:
 732              		.loc 1 879 0
 733 0004 00F14C07 		add	r7, r0, #76
 734              		.loc 1 868 0
 735 0008 0446     		mov	r4, r0
 736              		.loc 1 879 0
 737 000a 0123     		movs	r3, #1
 738 000c 2A46     		mov	r2, r5
 739 000e 3946     		mov	r1, r7
 740 0010 4078     		ldrb	r0, [r0, #1]	@ zero_extendqisi2
 741              	.LVL90:
ARM GAS  C:\cygwin64\tmp\cc6eY66b.s 			page 14


 742 0012 FFF7FEFF 		bl	disk_write
 743              	.LVL91:
 744 0016 A0B9     		cbnz	r0, .L63
 745              		.loc 1 883 0
 746 0018 E36B     		ldr	r3, [r4, #60]
 747 001a 626B     		ldr	r2, [r4, #52]
 748              		.loc 1 882 0
 749 001c E070     		strb	r0, [r4, #3]
 750              		.loc 1 883 0
 751 001e EB1A     		subs	r3, r5, r3
 752 0020 9342     		cmp	r3, r2
 753 0022 01D3     		bcc	.L59
 754              	.L62:
 755              		.loc 1 874 0
 756 0024 0020     		movs	r0, #0
 757 0026 F8BD     		pop	{r3, r4, r5, r6, r7, pc}
 758              	.LVL92:
 759              	.L59:
 760              		.loc 1 884 0
 761 0028 A678     		ldrb	r6, [r4, #2]	@ zero_extendqisi2
 762              	.LVL93:
 763              	.L60:
 764 002a 012E     		cmp	r6, #1
 765 002c FAD9     		bls	.L62
 766              		.loc 1 885 0
 767 002e 636B     		ldr	r3, [r4, #52]
 768              		.loc 1 886 0
 769 0030 6078     		ldrb	r0, [r4, #1]	@ zero_extendqisi2
 770              		.loc 1 885 0
 771 0032 1D44     		add	r5, r5, r3
 772              	.LVL94:
 773              		.loc 1 886 0
 774 0034 2A46     		mov	r2, r5
 775 0036 0123     		movs	r3, #1
 776 0038 3946     		mov	r1, r7
 777 003a FFF7FEFF 		bl	disk_write
 778              	.LVL95:
 779              		.loc 1 884 0
 780 003e 013E     		subs	r6, r6, #1
 781              	.LVL96:
 782 0040 F3E7     		b	.L60
 783              	.LVL97:
 784              	.L63:
 785              		.loc 1 880 0
 786 0042 0120     		movs	r0, #1
 787              	.LVL98:
 788              		.loc 1 892 0
 789 0044 F8BD     		pop	{r3, r4, r5, r6, r7, pc}
 790              		.cfi_endproc
 791              	.LFE321:
 792              		.size	sync_window.part.5, .-sync_window.part.5
 793              		.section	.text.sync_window,"ax",%progbits
 794              		.align	1
 795              		.syntax unified
 796              		.thumb
 797              		.thumb_func
 798              		.fpu fpv4-sp-d16
ARM GAS  C:\cygwin64\tmp\cc6eY66b.s 			page 15


 799              		.type	sync_window, %function
 800              	sync_window:
 801              	.LFB258:
 802              		.loc 1 871 0
 803              		.cfi_startproc
 804              		@ args = 0, pretend = 0, frame = 0
 805              		@ frame_needed = 0, uses_anonymous_args = 0
 806              		@ link register save eliminated.
 807              	.LVL99:
 808              		.loc 1 877 0
 809 0000 C378     		ldrb	r3, [r0, #3]	@ zero_extendqisi2
 810 0002 0BB1     		cbz	r3, .L65
 811 0004 FFF7FEBF 		b	sync_window.part.5
 812              	.LVL100:
 813              	.L65:
 814              		.loc 1 892 0
 815 0008 1846     		mov	r0, r3
 816              	.LVL101:
 817 000a 7047     		bx	lr
 818              		.cfi_endproc
 819              	.LFE258:
 820              		.size	sync_window, .-sync_window
 821              		.section	.text.sync_fs,"ax",%progbits
 822              		.align	1
 823              		.syntax unified
 824              		.thumb
 825              		.thumb_func
 826              		.fpu fpv4-sp-d16
 827              		.type	sync_fs, %function
 828              	sync_fs:
 829              	.LFB260:
 830              		.loc 1 932 0
 831              		.cfi_startproc
 832              		@ args = 0, pretend = 0, frame = 0
 833              		@ frame_needed = 0, uses_anonymous_args = 0
 834              	.LVL102:
 835 0000 F8B5     		push	{r3, r4, r5, r6, r7, lr}
 836              		.cfi_def_cfa_offset 24
 837              		.cfi_offset 3, -24
 838              		.cfi_offset 4, -20
 839              		.cfi_offset 5, -16
 840              		.cfi_offset 6, -12
 841              		.cfi_offset 7, -8
 842              		.cfi_offset 14, -4
 843              		.loc 1 932 0
 844 0002 0446     		mov	r4, r0
 845              		.loc 1 936 0
 846 0004 FFF7FEFF 		bl	sync_window
 847              	.LVL103:
 848 0008 0546     		mov	r5, r0
 849              	.LVL104:
 850              		.loc 1 937 0
 851 000a 0028     		cmp	r0, #0
 852 000c 42D1     		bne	.L67
 853              		.loc 1 939 0
 854 000e 2378     		ldrb	r3, [r4]	@ zero_extendqisi2
 855 0010 032B     		cmp	r3, #3
ARM GAS  C:\cygwin64\tmp\cc6eY66b.s 			page 16


 856 0012 37D1     		bne	.L68
 857              		.loc 1 939 0 is_stmt 0 discriminator 1
 858 0014 2779     		ldrb	r7, [r4, #4]	@ zero_extendqisi2
 859 0016 012F     		cmp	r7, #1
 860 0018 34D1     		bne	.L68
 861              		.loc 1 941 0 is_stmt 1
 862 001a 04F14C06 		add	r6, r4, #76
 863 001e 0146     		mov	r1, r0
 864 0020 4FF40072 		mov	r2, #512
 865 0024 3046     		mov	r0, r6
 866              	.LVL105:
 867 0026 FFF7FEFF 		bl	mem_set
 868              	.LVL106:
 869              	.LBB161:
 870              	.LBB162:
 871              		.loc 1 645 0
 872 002a 5523     		movs	r3, #85
 873 002c 84F84A32 		strb	r3, [r4, #586]
 874              	.LVL107:
 875              		.loc 1 646 0
 876 0030 AA23     		movs	r3, #170
 877 0032 84F84B32 		strb	r3, [r4, #587]
 878              	.LVL108:
 879              	.LBE162:
 880              	.LBE161:
 881              	.LBB163:
 882              	.LBB164:
 883              		.loc 1 652 0
 884 0036 5223     		movs	r3, #82
 885              		.loc 1 655 0
 886 0038 4122     		movs	r2, #65
 887              	.LBE164:
 888              	.LBE163:
 889              	.LBB166:
 890              	.LBB167:
 891              		.loc 1 652 0
 892 003a 7221     		movs	r1, #114
 893              	.LBE167:
 894              	.LBE166:
 895              	.LBB169:
 896              	.LBB165:
 897 003c 84F84C30 		strb	r3, [r4, #76]
 898              	.LVL109:
 899              		.loc 1 653 0
 900 0040 84F84D30 		strb	r3, [r4, #77]
 901              	.LVL110:
 902              		.loc 1 654 0
 903 0044 6123     		movs	r3, #97
 904 0046 84F84E30 		strb	r3, [r4, #78]
 905              	.LVL111:
 906              		.loc 1 655 0
 907 004a 84F84F20 		strb	r2, [r4, #79]
 908              	.LVL112:
 909              	.LBE165:
 910              	.LBE169:
 911              	.LBB170:
 912              	.LBB168:
ARM GAS  C:\cygwin64\tmp\cc6eY66b.s 			page 17


 913              		.loc 1 654 0
 914 004e 84F83222 		strb	r2, [r4, #562]
 915              		.loc 1 655 0
 916 0052 84F83332 		strb	r3, [r4, #563]
 917              		.loc 1 652 0
 918 0056 84F83012 		strb	r1, [r4, #560]
 919              	.LVL113:
 920              		.loc 1 653 0
 921 005a 84F83112 		strb	r1, [r4, #561]
 922              	.LVL114:
 923              	.LBE168:
 924              	.LBE170:
 925              		.loc 1 945 0
 926 005e 04F50D70 		add	r0, r4, #564
 927 0062 E169     		ldr	r1, [r4, #28]
 928 0064 FFF7FEFF 		bl	st_dword
 929              	.LVL115:
 930              		.loc 1 946 0
 931 0068 A169     		ldr	r1, [r4, #24]
 932 006a 04F50E70 		add	r0, r4, #568
 933 006e FFF7FEFF 		bl	st_dword
 934              	.LVL116:
 935              		.loc 1 948 0
 936 0072 A26B     		ldr	r2, [r4, #56]
 937              		.loc 1 949 0
 938 0074 6078     		ldrb	r0, [r4, #1]	@ zero_extendqisi2
 939              		.loc 1 948 0
 940 0076 0132     		adds	r2, r2, #1
 941 0078 A264     		str	r2, [r4, #72]
 942              		.loc 1 949 0
 943 007a 3B46     		mov	r3, r7
 944 007c 3146     		mov	r1, r6
 945 007e FFF7FEFF 		bl	disk_write
 946              	.LVL117:
 947              		.loc 1 950 0
 948 0082 2571     		strb	r5, [r4, #4]
 949              	.L68:
 950              		.loc 1 953 0
 951 0084 0022     		movs	r2, #0
 952 0086 1146     		mov	r1, r2
 953 0088 6078     		ldrb	r0, [r4, #1]	@ zero_extendqisi2
 954 008a FFF7FEFF 		bl	disk_ioctl
 955              	.LVL118:
 956 008e 0030     		adds	r0, r0, #0
 957 0090 18BF     		it	ne
 958 0092 0120     		movne	r0, #1
 959              	.L67:
 960              	.LVL119:
 961              		.loc 1 957 0
 962 0094 F8BD     		pop	{r3, r4, r5, r6, r7, pc}
 963              		.cfi_endproc
 964              	.LFE260:
 965              		.size	sync_fs, .-sync_fs
 966              		.section	.text.move_window,"ax",%progbits
 967              		.align	1
 968              		.syntax unified
 969              		.thumb
ARM GAS  C:\cygwin64\tmp\cc6eY66b.s 			page 18


 970              		.thumb_func
 971              		.fpu fpv4-sp-d16
 972              		.type	move_window, %function
 973              	move_window:
 974              	.LFB259:
 975              		.loc 1 901 0
 976              		.cfi_startproc
 977              		@ args = 0, pretend = 0, frame = 0
 978              		@ frame_needed = 0, uses_anonymous_args = 0
 979              	.LVL120:
 980              		.loc 1 905 0
 981 0000 836C     		ldr	r3, [r0, #72]
 982 0002 8B42     		cmp	r3, r1
 983              		.loc 1 901 0
 984 0004 70B5     		push	{r4, r5, r6, lr}
 985              		.cfi_def_cfa_offset 16
 986              		.cfi_offset 4, -16
 987              		.cfi_offset 5, -12
 988              		.cfi_offset 6, -8
 989              		.cfi_offset 14, -4
 990              		.loc 1 901 0
 991 0006 0646     		mov	r6, r0
 992 0008 0D46     		mov	r5, r1
 993              		.loc 1 905 0
 994 000a 12D0     		beq	.L72
 995              	.LVL121:
 996              	.LBB173:
 997              	.LBB174:
 998              		.loc 1 907 0
 999 000c FFF7FEFF 		bl	sync_window
 1000              	.LVL122:
 1001              		.loc 1 909 0
 1002 0010 0446     		mov	r4, r0
 1003 0012 60B9     		cbnz	r0, .L70
 1004              		.loc 1 910 0
 1005 0014 2A46     		mov	r2, r5
 1006 0016 0123     		movs	r3, #1
 1007 0018 06F14C01 		add	r1, r6, #76
 1008 001c 7078     		ldrb	r0, [r6, #1]	@ zero_extendqisi2
 1009              	.LVL123:
 1010 001e FFF7FEFF 		bl	disk_read
 1011              	.LVL124:
 1012 0022 0028     		cmp	r0, #0
 1013              		.loc 1 912 0
 1014 0024 1CBF     		itt	ne
 1015 0026 4FF0FF35 		movne	r5, #-1
 1016              	.LVL125:
 1017 002a 0124     		movne	r4, #1
 1018              	.LVL126:
 1019              		.loc 1 914 0
 1020 002c B564     		str	r5, [r6, #72]
 1021              	.LVL127:
 1022              	.L70:
 1023              	.LBE174:
 1024              	.LBE173:
 1025              		.loc 1 918 0
 1026 002e 2046     		mov	r0, r4
ARM GAS  C:\cygwin64\tmp\cc6eY66b.s 			page 19


 1027 0030 70BD     		pop	{r4, r5, r6, pc}
 1028              	.LVL128:
 1029              	.L72:
 1030              		.loc 1 902 0
 1031 0032 0024     		movs	r4, #0
 1032 0034 FBE7     		b	.L70
 1033              		.cfi_endproc
 1034              	.LFE259:
 1035              		.size	move_window, .-move_window
 1036              		.section	.text.change_bitmap,"ax",%progbits
 1037              		.align	1
 1038              		.syntax unified
 1039              		.thumb
 1040              		.thumb_func
 1041              		.fpu fpv4-sp-d16
 1042              		.type	change_bitmap, %function
 1043              	change_bitmap:
 1044              	.LFB265:
 1045              		.loc 1 1175 0
 1046              		.cfi_startproc
 1047              		@ args = 0, pretend = 0, frame = 0
 1048              		@ frame_needed = 0, uses_anonymous_args = 0
 1049              	.LVL129:
 1050 0000 2DE9F047 		push	{r4, r5, r6, r7, r8, r9, r10, lr}
 1051              		.cfi_def_cfa_offset 32
 1052              		.cfi_offset 4, -32
 1053              		.cfi_offset 5, -28
 1054              		.cfi_offset 6, -24
 1055              		.cfi_offset 7, -20
 1056              		.cfi_offset 8, -16
 1057              		.cfi_offset 9, -12
 1058              		.cfi_offset 10, -8
 1059              		.cfi_offset 14, -4
 1060              		.loc 1 1181 0
 1061 0004 8C1E     		subs	r4, r1, #2
 1062              	.LVL130:
 1063              		.loc 1 1182 0
 1064 0006 416C     		ldr	r1, [r0, #68]
 1065              		.loc 1 1183 0
 1066 0008 C4F3C808 		ubfx	r8, r4, #3, #9
 1067              		.loc 1 1182 0
 1068 000c 01EB1431 		add	r1, r1, r4, lsr #12
 1069              	.LVL131:
 1070              		.loc 1 1184 0
 1071 0010 4FF00109 		mov	r9, #1
 1072 0014 04F00704 		and	r4, r4, #7
 1073              	.LVL132:
 1074 0018 09FA04F4 		lsl	r4, r9, r4
 1075              		.loc 1 1175 0
 1076 001c 0546     		mov	r5, r0
 1077 001e 1646     		mov	r6, r2
 1078 0020 1F46     		mov	r7, r3
 1079              		.loc 1 1184 0
 1080 0022 E4B2     		uxtb	r4, r4
 1081              	.LVL133:
 1082              	.L79:
 1083              		.loc 1 1186 0
ARM GAS  C:\cygwin64\tmp\cc6eY66b.s 			page 20


 1084 0024 2846     		mov	r0, r5
 1085 0026 01F1010A 		add	r10, r1, #1
 1086              	.LVL134:
 1087 002a FFF7FEFF 		bl	move_window
 1088              	.LVL135:
 1089 002e 00BB     		cbnz	r0, .L80
 1090 0030 4346     		mov	r3, r8
 1091              	.LVL136:
 1092              	.L77:
 1093              		.loc 1 1189 0
 1094 0032 E918     		adds	r1, r5, r3
 1095 0034 91F84C20 		ldrb	r2, [r1, #76]	@ zero_extendqisi2
 1096 0038 1442     		tst	r4, r2
 1097 003a 14BF     		ite	ne
 1098 003c 4FF0010E 		movne	lr, #1
 1099 0040 4FF0000E 		moveq	lr, #0
 1100 0044 BE45     		cmp	lr, r7
 1101 0046 17D0     		beq	.L81
 1102              	.LVL137:
 1103              		.loc 1 1190 0
 1104 0048 6240     		eors	r2, r2, r4
 1105              		.loc 1 1192 0
 1106 004a 013E     		subs	r6, r6, #1
 1107              	.LVL138:
 1108              		.loc 1 1190 0
 1109 004c 81F84C20 		strb	r2, [r1, #76]
 1110              		.loc 1 1191 0
 1111 0050 85F80390 		strb	r9, [r5, #3]
 1112              		.loc 1 1192 0
 1113 0054 11D0     		beq	.L76
 1114              		.loc 1 1193 0
 1115 0056 6400     		lsls	r4, r4, #1
 1116              	.LVL139:
 1117 0058 14F0FF04 		ands	r4, r4, #255
 1118              	.LVL140:
 1119 005c E9D1     		bne	.L77
 1120              	.LVL141:
 1121              		.loc 1 1195 0
 1122 005e 0133     		adds	r3, r3, #1
 1123              	.LVL142:
 1124 0060 B3F5007F 		cmp	r3, #512
 1125              		.loc 1 1194 0
 1126 0064 4FF00104 		mov	r4, #1
 1127              		.loc 1 1196 0
 1128 0068 4FF00008 		mov	r8, #0
 1129              		.loc 1 1186 0
 1130 006c 5146     		mov	r1, r10
 1131              		.loc 1 1195 0
 1132 006e E0D1     		bne	.L77
 1133              	.LVL143:
 1134 0070 D8E7     		b	.L79
 1135              	.LVL144:
 1136              	.L80:
 1137              		.loc 1 1186 0
 1138 0072 0120     		movs	r0, #1
 1139 0074 BDE8F087 		pop	{r4, r5, r6, r7, r8, r9, r10, pc}
 1140              	.LVL145:
ARM GAS  C:\cygwin64\tmp\cc6eY66b.s 			page 21


 1141              	.L81:
 1142              		.loc 1 1189 0
 1143 0078 0220     		movs	r0, #2
 1144              	.L76:
 1145              		.loc 1 1198 0
 1146 007a BDE8F087 		pop	{r4, r5, r6, r7, r8, r9, r10, pc}
 1147              		.cfi_endproc
 1148              	.LFE265:
 1149              		.size	change_bitmap, .-change_bitmap
 1150              		.section	.text.get_fat,"ax",%progbits
 1151              		.align	1
 1152              		.syntax unified
 1153              		.thumb
 1154              		.thumb_func
 1155              		.fpu fpv4-sp-d16
 1156              		.type	get_fat, %function
 1157              	get_fat:
 1158              	.LFB262:
 1159              		.loc 1 990 0
 1160              		.cfi_startproc
 1161              		@ args = 0, pretend = 0, frame = 0
 1162              		@ frame_needed = 0, uses_anonymous_args = 0
 1163              	.LVL146:
 1164              		.loc 1 996 0
 1165 0000 0129     		cmp	r1, #1
 1166              		.loc 1 990 0
 1167 0002 F8B5     		push	{r3, r4, r5, r6, r7, lr}
 1168              		.cfi_def_cfa_offset 24
 1169              		.cfi_offset 3, -24
 1170              		.cfi_offset 4, -20
 1171              		.cfi_offset 5, -16
 1172              		.cfi_offset 6, -12
 1173              		.cfi_offset 7, -8
 1174              		.cfi_offset 14, -4
 1175              		.loc 1 990 0
 1176 0004 0C46     		mov	r4, r1
 1177              		.loc 1 996 0
 1178 0006 40F28B80 		bls	.L104
 1179              		.loc 1 993 0 discriminator 1
 1180 000a 0568     		ldr	r5, [r0]
 1181              		.loc 1 996 0 discriminator 1
 1182 000c 2B6B     		ldr	r3, [r5, #48]
 1183 000e 9942     		cmp	r1, r3
 1184 0010 80F08680 		bcs	.L104
 1185              	.LVL147:
 1186              		.loc 1 1002 0
 1187 0014 2B78     		ldrb	r3, [r5]	@ zero_extendqisi2
 1188 0016 013B     		subs	r3, r3, #1
 1189 0018 032B     		cmp	r3, #3
 1190 001a 00F28180 		bhi	.L104
 1191 001e DFE803F0 		tbb	[pc, r3]
 1192              	.L90:
 1193 0022 02       		.byte	(.L89-.L90)/2
 1194 0023 29       		.byte	(.L91-.L90)/2
 1195 0024 3B       		.byte	(.L92-.L90)/2
 1196 0025 4E       		.byte	(.L93-.L90)/2
 1197              		.p2align 1
ARM GAS  C:\cygwin64\tmp\cc6eY66b.s 			page 22


 1198              	.L89:
 1199              	.LVL148:
 1200              		.loc 1 1004 0
 1201 0026 01EB5106 		add	r6, r1, r1, lsr #1
 1202              	.LVL149:
 1203              		.loc 1 1005 0
 1204 002a E96B     		ldr	r1, [r5, #60]
 1205              	.LVL150:
 1206 002c 2846     		mov	r0, r5
 1207              	.LVL151:
 1208 002e 01EB5621 		add	r1, r1, r6, lsr #9
 1209 0032 FFF7FEFF 		bl	move_window
 1210              	.LVL152:
 1211 0036 10B1     		cbz	r0, .L94
 1212              	.LVL153:
 1213              	.L95:
 1214              		.loc 1 1000 0
 1215 0038 4FF0FF30 		mov	r0, #-1
 1216 003c F8BD     		pop	{r3, r4, r5, r6, r7, pc}
 1217              	.LVL154:
 1218              	.L94:
 1219              		.loc 1 1006 0
 1220 003e 771C     		adds	r7, r6, #1
 1221              	.LVL155:
 1222              		.loc 1 1007 0
 1223 0040 E96B     		ldr	r1, [r5, #60]
 1224              		.loc 1 1006 0
 1225 0042 C6F30806 		ubfx	r6, r6, #0, #9
 1226 0046 2E44     		add	r6, r6, r5
 1227              		.loc 1 1007 0
 1228 0048 01EB5721 		add	r1, r1, r7, lsr #9
 1229 004c 2846     		mov	r0, r5
 1230              		.loc 1 1006 0
 1231 004e 96F84C60 		ldrb	r6, [r6, #76]	@ zero_extendqisi2
 1232              	.LVL156:
 1233              		.loc 1 1007 0
 1234 0052 FFF7FEFF 		bl	move_window
 1235              	.LVL157:
 1236 0056 0028     		cmp	r0, #0
 1237 0058 EED1     		bne	.L95
 1238              		.loc 1 1008 0
 1239 005a C7F30807 		ubfx	r7, r7, #0, #9
 1240              	.LVL158:
 1241 005e 3D44     		add	r5, r5, r7
 1242              		.loc 1 1009 0
 1243 0060 E307     		lsls	r3, r4, #31
 1244              		.loc 1 1008 0
 1245 0062 95F84C00 		ldrb	r0, [r5, #76]	@ zero_extendqisi2
 1246 0066 46EA0020 		orr	r0, r6, r0, lsl #8
 1247              	.LVL159:
 1248              		.loc 1 1009 0
 1249 006a 4CBF     		ite	mi
 1250 006c 0009     		lsrmi	r0, r0, #4
 1251              	.LVL160:
 1252 006e C0F30B00 		ubfxpl	r0, r0, #0, #12
 1253 0072 F8BD     		pop	{r3, r4, r5, r6, r7, pc}
 1254              	.LVL161:
ARM GAS  C:\cygwin64\tmp\cc6eY66b.s 			page 23


 1255              	.L91:
 1256              		.loc 1 1013 0
 1257 0074 E96B     		ldr	r1, [r5, #60]
 1258              	.LVL162:
 1259 0076 2846     		mov	r0, r5
 1260              	.LVL163:
 1261 0078 01EB1421 		add	r1, r1, r4, lsr #8
 1262 007c FFF7FEFF 		bl	move_window
 1263              	.LVL164:
 1264 0080 0028     		cmp	r0, #0
 1265 0082 D9D1     		bne	.L95
 1266              		.loc 1 1014 0
 1267 0084 6400     		lsls	r4, r4, #1
 1268              	.LVL165:
 1269 0086 04F4FF73 		and	r3, r4, #510
 1270 008a 4C35     		adds	r5, r5, #76
 1271 008c EA18     		adds	r2, r5, r3
 1272              	.LBB175:
 1273              	.LBB176:
 1274              		.loc 1 607 0
 1275 008e E85C     		ldrb	r0, [r5, r3]	@ zero_extendqisi2
 1276 0090 5478     		ldrb	r4, [r2, #1]	@ zero_extendqisi2
 1277              	.LBE176:
 1278              	.LBE175:
 1279              		.loc 1 1014 0
 1280 0092 40EA0420 		orr	r0, r0, r4, lsl #8
 1281              	.LVL166:
 1282              		.loc 1 1015 0
 1283 0096 F8BD     		pop	{r3, r4, r5, r6, r7, pc}
 1284              	.LVL167:
 1285              	.L92:
 1286              		.loc 1 1018 0
 1287 0098 E96B     		ldr	r1, [r5, #60]
 1288              	.LVL168:
 1289 009a 2846     		mov	r0, r5
 1290              	.LVL169:
 1291 009c 01EBD411 		add	r1, r1, r4, lsr #7
 1292 00a0 FFF7FEFF 		bl	move_window
 1293              	.LVL170:
 1294 00a4 0028     		cmp	r0, #0
 1295 00a6 C7D1     		bne	.L95
 1296              		.loc 1 1019 0
 1297 00a8 A400     		lsls	r4, r4, #2
 1298              	.LVL171:
 1299 00aa 05F14C00 		add	r0, r5, #76
 1300 00ae 04F4FE74 		and	r4, r4, #508
 1301 00b2 2044     		add	r0, r0, r4
 1302 00b4 FFF7FEFF 		bl	ld_dword
 1303              	.LVL172:
 1304 00b8 20F07040 		bic	r0, r0, #-268435456
 1305              	.LVL173:
 1306              		.loc 1 1020 0
 1307 00bc F8BD     		pop	{r3, r4, r5, r6, r7, pc}
 1308              	.LVL174:
 1309              	.L93:
 1310              		.loc 1 1023 0
 1311 00be D0E90423 		ldrd	r2, [r0, #16]
ARM GAS  C:\cygwin64\tmp\cc6eY66b.s 			page 24


 1312 00c2 52EA0301 		orrs	r1, r2, r3
 1313              	.LVL175:
 1314 00c6 2BD0     		beq	.L104
 1315              	.LBB177:
 1316              		.loc 1 1027 0
 1317 00c8 C179     		ldrb	r1, [r0, #7]	@ zero_extendqisi2
 1318              		.loc 1 1024 0
 1319 00ca 8668     		ldr	r6, [r0, #8]
 1320              		.loc 1 1027 0
 1321 00cc 0229     		cmp	r1, #2
 1322              		.loc 1 1024 0
 1323 00ce A4EB0606 		sub	r6, r4, r6
 1324              	.LVL176:
 1325              		.loc 1 1027 0
 1326 00d2 0ED1     		bne	.L97
 1327              		.loc 1 1025 0
 1328 00d4 12F1FF30 		adds	r0, r2, #-1
 1329              	.LVL177:
 1330 00d8 43F1FF31 		adc	r1, r3, #-1
 1331 00dc 430A     		lsrs	r3, r0, #9
 1332 00de 43EAC153 		orr	r3, r3, r1, lsl #23
 1333 00e2 6A89     		ldrh	r2, [r5, #10]
 1334              	.LVL178:
 1335 00e4 B3FBF2F3 		udiv	r3, r3, r2
 1336              		.loc 1 1028 0
 1337 00e8 9E42     		cmp	r6, r3
 1338 00ea 19D8     		bhi	.L104
 1339              		.loc 1 1029 0
 1340 00ec 1AD0     		beq	.L105
 1341              	.L99:
 1342              		.loc 1 1029 0 is_stmt 0 discriminator 1
 1343 00ee 601C     		adds	r0, r4, #1
 1344 00f0 F8BD     		pop	{r3, r4, r5, r6, r7, pc}
 1345              	.LVL179:
 1346              	.L97:
 1347              		.loc 1 1033 0 is_stmt 1
 1348 00f2 0329     		cmp	r1, #3
 1349 00f4 02D1     		bne	.L98
 1350              		.loc 1 1033 0 is_stmt 0 discriminator 1
 1351 00f6 8369     		ldr	r3, [r0, #24]
 1352 00f8 9E42     		cmp	r6, r3
 1353 00fa F8D3     		bcc	.L99
 1354              	.L98:
 1355              		.loc 1 1038 0 is_stmt 1
 1356 00fc E96B     		ldr	r1, [r5, #60]
 1357 00fe 2846     		mov	r0, r5
 1358              	.LVL180:
 1359 0100 01EBD411 		add	r1, r1, r4, lsr #7
 1360 0104 FFF7FEFF 		bl	move_window
 1361              	.LVL181:
 1362 0108 0028     		cmp	r0, #0
 1363 010a 95D1     		bne	.L95
 1364              		.loc 1 1039 0
 1365 010c A000     		lsls	r0, r4, #2
 1366 010e 4C35     		adds	r5, r5, #76
 1367 0110 00F4FE70 		and	r0, r0, #508
 1368 0114 2844     		add	r0, r0, r5
ARM GAS  C:\cygwin64\tmp\cc6eY66b.s 			page 25


 1369 0116 FFF7FEFF 		bl	ld_dword
 1370              	.LVL182:
 1371 011a 20F00040 		bic	r0, r0, #-2147483648
 1372              	.LVL183:
 1373              		.loc 1 1040 0
 1374 011e F8BD     		pop	{r3, r4, r5, r6, r7, pc}
 1375              	.LVL184:
 1376              	.L104:
 1377              	.LBE177:
 1378              		.loc 1 997 0
 1379 0120 0120     		movs	r0, #1
 1380 0122 F8BD     		pop	{r3, r4, r5, r6, r7, pc}
 1381              	.LVL185:
 1382              	.L105:
 1383              	.LBB178:
 1384              		.loc 1 1029 0
 1385 0124 6FF00040 		mvn	r0, #-2147483648
 1386              	.LVL186:
 1387              	.LBE178:
 1388              		.loc 1 1051 0
 1389 0128 F8BD     		pop	{r3, r4, r5, r6, r7, pc}
 1390              		.cfi_endproc
 1391              	.LFE262:
 1392              		.size	get_fat, .-get_fat
 1393              		.section	.text.dir_sdi,"ax",%progbits
 1394              		.align	1
 1395              		.syntax unified
 1396              		.thumb
 1397              		.thumb_func
 1398              		.fpu fpv4-sp-d16
 1399              		.type	dir_sdi, %function
 1400              	dir_sdi:
 1401              	.LFB269:
 1402              		.loc 1 1431 0
 1403              		.cfi_startproc
 1404              		@ args = 0, pretend = 0, frame = 0
 1405              		@ frame_needed = 0, uses_anonymous_args = 0
 1406              	.LVL187:
 1407 0000 F8B5     		push	{r3, r4, r5, r6, r7, lr}
 1408              		.cfi_def_cfa_offset 24
 1409              		.cfi_offset 3, -24
 1410              		.cfi_offset 4, -20
 1411              		.cfi_offset 5, -16
 1412              		.cfi_offset 6, -12
 1413              		.cfi_offset 7, -8
 1414              		.cfi_offset 14, -4
 1415              		.loc 1 1433 0
 1416 0002 0468     		ldr	r4, [r0]
 1417              	.LVL188:
 1418              		.loc 1 1436 0
 1419 0004 2378     		ldrb	r3, [r4]	@ zero_extendqisi2
 1420 0006 042B     		cmp	r3, #4
 1421 0008 0CBF     		ite	eq
 1422 000a 4FF08052 		moveq	r2, #268435456
 1423 000e 4FF40012 		movne	r2, #2097152
 1424 0012 8A42     		cmp	r2, r1
 1425              		.loc 1 1431 0
ARM GAS  C:\cygwin64\tmp\cc6eY66b.s 			page 26


 1426 0014 0546     		mov	r5, r0
 1427 0016 0E46     		mov	r6, r1
 1428              		.loc 1 1436 0
 1429 0018 01D8     		bhi	.L108
 1430              	.LVL189:
 1431              	.L110:
 1432              		.loc 1 1437 0
 1433 001a 0220     		movs	r0, #2
 1434 001c F8BD     		pop	{r3, r4, r5, r6, r7, pc}
 1435              	.LVL190:
 1436              	.L108:
 1437              		.loc 1 1436 0 discriminator 5
 1438 001e CA06     		lsls	r2, r1, #27
 1439 0020 FBD1     		bne	.L110
 1440              		.loc 1 1440 0
 1441 0022 8268     		ldr	r2, [r0, #8]
 1442              	.LVL191:
 1443              		.loc 1 1439 0
 1444 0024 A962     		str	r1, [r5, #40]
 1445              		.loc 1 1441 0
 1446 0026 22BB     		cbnz	r2, .L119
 1447              		.loc 1 1441 0 is_stmt 0 discriminator 1
 1448 0028 022B     		cmp	r3, #2
 1449 002a 13D8     		bhi	.L112
 1450              	.LVL192:
 1451              	.L114:
 1452              		.loc 1 1447 0 is_stmt 1
 1453 002c 2389     		ldrh	r3, [r4, #8]
 1454 002e B3EB561F 		cmp	r3, r6, lsr #5
 1455 0032 F2D9     		bls	.L110
 1456              		.loc 1 1448 0
 1457 0034 236C     		ldr	r3, [r4, #64]
 1458 0036 2B63     		str	r3, [r5, #48]
 1459              	.LVL193:
 1460              	.L115:
 1461              		.loc 1 1461 0
 1462 0038 2B6B     		ldr	r3, [r5, #48]
 1463              		.loc 1 1460 0
 1464 003a EA62     		str	r2, [r5, #44]
 1465              		.loc 1 1461 0
 1466 003c 002B     		cmp	r3, #0
 1467 003e ECD0     		beq	.L110
 1468              		.loc 1 1462 0
 1469 0040 03EB5623 		add	r3, r3, r6, lsr #9
 1470              		.loc 1 1463 0
 1471 0044 4C34     		adds	r4, r4, #76
 1472              	.LVL194:
 1473 0046 C6F30806 		ubfx	r6, r6, #0, #9
 1474              	.LVL195:
 1475 004a 3444     		add	r4, r4, r6
 1476              	.LVL196:
 1477              		.loc 1 1462 0
 1478 004c 2B63     		str	r3, [r5, #48]
 1479              		.loc 1 1463 0
 1480 004e 6C63     		str	r4, [r5, #52]
 1481              		.loc 1 1465 0
 1482 0050 0020     		movs	r0, #0
ARM GAS  C:\cygwin64\tmp\cc6eY66b.s 			page 27


 1483 0052 F8BD     		pop	{r3, r4, r5, r6, r7, pc}
 1484              	.LVL197:
 1485              	.L112:
 1486              		.loc 1 1442 0
 1487 0054 236C     		ldr	r3, [r4, #64]
 1488              	.LVL198:
 1489              		.loc 1 1443 0
 1490 0056 C271     		strb	r2, [r0, #7]
 1491              		.loc 1 1446 0
 1492 0058 002B     		cmp	r3, #0
 1493 005a E7D0     		beq	.L114
 1494              	.L111:
 1495              		.loc 1 1451 0
 1496 005c 6789     		ldrh	r7, [r4, #10]
 1497              		.loc 1 1452 0
 1498 005e 1A46     		mov	r2, r3
 1499              		.loc 1 1451 0
 1500 0060 7F02     		lsls	r7, r7, #9
 1501              	.LVL199:
 1502              	.L116:
 1503              		.loc 1 1452 0
 1504 0062 BE42     		cmp	r6, r7
 1505              		.loc 1 1453 0
 1506 0064 1146     		mov	r1, r2
 1507              		.loc 1 1452 0
 1508 0066 06D2     		bcs	.L117
 1509              	.LVL200:
 1510              		.loc 1 1458 0
 1511 0068 2046     		mov	r0, r4
 1512 006a FFF7FEFF 		bl	clust2sect
 1513              	.LVL201:
 1514 006e 2863     		str	r0, [r5, #48]
 1515 0070 E2E7     		b	.L115
 1516              	.LVL202:
 1517              	.L119:
 1518 0072 1346     		mov	r3, r2
 1519 0074 F2E7     		b	.L111
 1520              	.LVL203:
 1521              	.L117:
 1522              		.loc 1 1453 0
 1523 0076 2846     		mov	r0, r5
 1524 0078 FFF7FEFF 		bl	get_fat
 1525              	.LVL204:
 1526              		.loc 1 1454 0
 1527 007c 431C     		adds	r3, r0, #1
 1528              		.loc 1 1453 0
 1529 007e 0246     		mov	r2, r0
 1530              	.LVL205:
 1531              		.loc 1 1454 0
 1532 0080 06D0     		beq	.L120
 1533              		.loc 1 1455 0
 1534 0082 0128     		cmp	r0, #1
 1535 0084 C9D9     		bls	.L110
 1536              		.loc 1 1455 0 is_stmt 0 discriminator 2
 1537 0086 236B     		ldr	r3, [r4, #48]
 1538 0088 9842     		cmp	r0, r3
 1539 008a C6D2     		bcs	.L110
ARM GAS  C:\cygwin64\tmp\cc6eY66b.s 			page 28


 1540              		.loc 1 1456 0 is_stmt 1
 1541 008c F61B     		subs	r6, r6, r7
 1542              	.LVL206:
 1543 008e E8E7     		b	.L116
 1544              	.L120:
 1545              		.loc 1 1454 0
 1546 0090 0120     		movs	r0, #1
 1547              	.LVL207:
 1548              		.loc 1 1466 0
 1549 0092 F8BD     		pop	{r3, r4, r5, r6, r7, pc}
 1550              		.cfi_endproc
 1551              	.LFE269:
 1552              		.size	dir_sdi, .-dir_sdi
 1553              		.section	.text.put_fat,"ax",%progbits
 1554              		.align	1
 1555              		.syntax unified
 1556              		.thumb
 1557              		.thumb_func
 1558              		.fpu fpv4-sp-d16
 1559              		.type	put_fat, %function
 1560              	put_fat:
 1561              	.LFB263:
 1562              		.loc 1 1067 0
 1563              		.cfi_startproc
 1564              		@ args = 0, pretend = 0, frame = 0
 1565              		@ frame_needed = 0, uses_anonymous_args = 0
 1566              	.LVL208:
 1567              		.loc 1 1073 0
 1568 0000 0129     		cmp	r1, #1
 1569              		.loc 1 1067 0
 1570 0002 2DE9F047 		push	{r4, r5, r6, r7, r8, r9, r10, lr}
 1571              		.cfi_def_cfa_offset 32
 1572              		.cfi_offset 4, -32
 1573              		.cfi_offset 5, -28
 1574              		.cfi_offset 6, -24
 1575              		.cfi_offset 7, -20
 1576              		.cfi_offset 8, -16
 1577              		.cfi_offset 9, -12
 1578              		.cfi_offset 10, -8
 1579              		.cfi_offset 14, -4
 1580              		.loc 1 1067 0
 1581 0006 0546     		mov	r5, r0
 1582 0008 0C46     		mov	r4, r1
 1583 000a 1646     		mov	r6, r2
 1584              		.loc 1 1073 0
 1585 000c 79D9     		bls	.L141
 1586              		.loc 1 1073 0 is_stmt 0 discriminator 1
 1587 000e 036B     		ldr	r3, [r0, #48]
 1588 0010 9942     		cmp	r1, r3
 1589 0012 76D2     		bcs	.L141
 1590              	.LVL209:
 1591              	.LBB183:
 1592              	.LBB184:
 1593              		.loc 1 1074 0 is_stmt 1
 1594 0014 0378     		ldrb	r3, [r0]	@ zero_extendqisi2
 1595 0016 013B     		subs	r3, r3, #1
 1596 0018 032B     		cmp	r3, #3
ARM GAS  C:\cygwin64\tmp\cc6eY66b.s 			page 29


 1597 001a 72D8     		bhi	.L141
 1598 001c DFE803F0 		tbb	[pc, r3]
 1599              	.LVL210:
 1600              	.L131:
 1601 0020 02       		.byte	(.L130-.L131)/2
 1602 0021 3E       		.byte	(.L132-.L131)/2
 1603 0022 51       		.byte	(.L133-.L131)/2
 1604 0023 51       		.byte	(.L133-.L131)/2
 1605              		.p2align 1
 1606              	.L130:
 1607              		.loc 1 1076 0
 1608 0024 01EB5108 		add	r8, r1, r1, lsr #1
 1609              	.LVL211:
 1610              		.loc 1 1077 0
 1611 0028 C16B     		ldr	r1, [r0, #60]
 1612              	.LVL212:
 1613 002a 01EB5821 		add	r1, r1, r8, lsr #9
 1614 002e FFF7FEFF 		bl	move_window
 1615              	.LVL213:
 1616              		.loc 1 1078 0
 1617 0032 0746     		mov	r7, r0
 1618 0034 38BB     		cbnz	r0, .L129
 1619              		.loc 1 1079 0
 1620 0036 05F14C09 		add	r9, r5, #76
 1621 003a 08F1010A 		add	r10, r8, #1
 1622              	.LVL214:
 1623 003e C8F30808 		ubfx	r8, r8, #0, #9
 1624              	.LVL215:
 1625              		.loc 1 1080 0
 1626 0042 14F00104 		ands	r4, r4, #1
 1627              	.LVL216:
 1628 0046 1FBF     		itttt	ne
 1629 0048 19F80830 		ldrbne	r3, [r9, r8]	@ zero_extendqisi2
 1630 004c 03F00F02 		andne	r2, r3, #15
 1631 0050 3301     		lslne	r3, r6, #4
 1632 0052 03F0F003 		andne	r3, r3, #240
 1633 0056 14BF     		ite	ne
 1634 0058 1343     		orrne	r3, r3, r2
 1635 005a F3B2     		uxtbeq	r3, r6
 1636 005c 09F80830 		strb	r3, [r9, r8]
 1637              		.loc 1 1082 0
 1638 0060 E96B     		ldr	r1, [r5, #60]
 1639              		.loc 1 1081 0
 1640 0062 0123     		movs	r3, #1
 1641 0064 EB70     		strb	r3, [r5, #3]
 1642              		.loc 1 1082 0
 1643 0066 01EB5A21 		add	r1, r1, r10, lsr #9
 1644 006a 2846     		mov	r0, r5
 1645              	.LVL217:
 1646 006c FFF7FEFF 		bl	move_window
 1647              	.LVL218:
 1648              		.loc 1 1083 0
 1649 0070 0746     		mov	r7, r0
 1650 0072 40B9     		cbnz	r0, .L129
 1651              		.loc 1 1084 0
 1652 0074 CAF3080A 		ubfx	r10, r10, #0, #9
 1653              	.LVL219:
ARM GAS  C:\cygwin64\tmp\cc6eY66b.s 			page 30


 1654              		.loc 1 1085 0
 1655 0078 44B1     		cbz	r4, .L136
 1656 007a C6F30716 		ubfx	r6, r6, #4, #8
 1657              	.LVL220:
 1658              	.L137:
 1659 007e 09F80A60 		strb	r6, [r9, r10]
 1660              	.LVL221:
 1661              	.L145:
 1662              		.loc 1 1106 0
 1663 0082 0123     		movs	r3, #1
 1664 0084 EB70     		strb	r3, [r5, #3]
 1665              	.LVL222:
 1666              	.L129:
 1667              	.LBE184:
 1668              	.LBE183:
 1669              		.loc 1 1111 0
 1670 0086 3846     		mov	r0, r7
 1671 0088 BDE8F087 		pop	{r4, r5, r6, r7, r8, r9, r10, pc}
 1672              	.LVL223:
 1673              	.L136:
 1674              	.LBB188:
 1675              	.LBB187:
 1676              		.loc 1 1085 0
 1677 008c 19F80A20 		ldrb	r2, [r9, r10]	@ zero_extendqisi2
 1678 0090 C6F30326 		ubfx	r6, r6, #8, #4
 1679              	.LVL224:
 1680 0094 22F00F02 		bic	r2, r2, #15
 1681 0098 1643     		orrs	r6, r6, r2
 1682 009a F0E7     		b	.L137
 1683              	.LVL225:
 1684              	.L132:
 1685              		.loc 1 1090 0
 1686 009c C16B     		ldr	r1, [r0, #60]
 1687              	.LVL226:
 1688 009e 01EB1421 		add	r1, r1, r4, lsr #8
 1689 00a2 FFF7FEFF 		bl	move_window
 1690              	.LVL227:
 1691              		.loc 1 1091 0
 1692 00a6 0746     		mov	r7, r0
 1693 00a8 0028     		cmp	r0, #0
 1694 00aa ECD1     		bne	.L129
 1695              		.loc 1 1092 0
 1696 00ac 6400     		lsls	r4, r4, #1
 1697              	.LVL228:
 1698 00ae 05F14C03 		add	r3, r5, #76
 1699 00b2 04F4FF74 		and	r4, r4, #510
 1700 00b6 1919     		adds	r1, r3, r4
 1701              	.LVL229:
 1702              	.LBB185:
 1703              	.LBB186:
 1704              		.loc 1 645 0
 1705 00b8 1E55     		strb	r6, [r3, r4]
 1706              	.LVL230:
 1707 00ba C6F30726 		ubfx	r6, r6, #8, #8
 1708              	.LVL231:
 1709              		.loc 1 646 0
 1710 00be 4E70     		strb	r6, [r1, #1]
ARM GAS  C:\cygwin64\tmp\cc6eY66b.s 			page 31


 1711              	.LVL232:
 1712 00c0 DFE7     		b	.L145
 1713              	.LVL233:
 1714              	.L133:
 1715              	.LBE186:
 1716              	.LBE185:
 1717              		.loc 1 1100 0
 1718 00c2 C16B     		ldr	r1, [r0, #60]
 1719              	.LVL234:
 1720 00c4 01EBD411 		add	r1, r1, r4, lsr #7
 1721 00c8 FFF7FEFF 		bl	move_window
 1722              	.LVL235:
 1723              		.loc 1 1101 0
 1724 00cc 0746     		mov	r7, r0
 1725 00ce 0028     		cmp	r0, #0
 1726 00d0 D9D1     		bne	.L129
 1727              		.loc 1 1102 0
 1728 00d2 A846     		mov	r8, r5
 1729 00d4 A400     		lsls	r4, r4, #2
 1730              	.LVL236:
 1731 00d6 18F84C3B 		ldrb	r3, [r8], #76	@ zero_extendqisi2
 1732 00da 042B     		cmp	r3, #4
 1733 00dc 09D0     		beq	.L138
 1734              		.loc 1 1103 0
 1735 00de 04F4FE70 		and	r0, r4, #508
 1736              	.LVL237:
 1737 00e2 4044     		add	r0, r0, r8
 1738 00e4 FFF7FEFF 		bl	ld_dword
 1739              	.LVL238:
 1740 00e8 26F07046 		bic	r6, r6, #-268435456
 1741              	.LVL239:
 1742 00ec 00F07040 		and	r0, r0, #-268435456
 1743 00f0 0643     		orrs	r6, r6, r0
 1744              	.LVL240:
 1745              	.L138:
 1746              		.loc 1 1105 0
 1747 00f2 04F4FE74 		and	r4, r4, #508
 1748 00f6 3146     		mov	r1, r6
 1749 00f8 08EB0400 		add	r0, r8, r4
 1750 00fc FFF7FEFF 		bl	st_dword
 1751              	.LVL241:
 1752 0100 BFE7     		b	.L145
 1753              	.LVL242:
 1754              	.L141:
 1755              		.loc 1 1070 0
 1756 0102 0227     		movs	r7, #2
 1757 0104 BFE7     		b	.L129
 1758              	.LBE187:
 1759              	.LBE188:
 1760              		.cfi_endproc
 1761              	.LFE263:
 1762              		.size	put_fat, .-put_fat
 1763              		.section	.text.remove_chain,"ax",%progbits
 1764              		.align	1
 1765              		.syntax unified
 1766              		.thumb
 1767              		.thumb_func
ARM GAS  C:\cygwin64\tmp\cc6eY66b.s 			page 32


 1768              		.fpu fpv4-sp-d16
 1769              		.type	remove_chain, %function
 1770              	remove_chain:
 1771              	.LFB267:
 1772              		.loc 1 1237 0
 1773              		.cfi_startproc
 1774              		@ args = 0, pretend = 0, frame = 0
 1775              		@ frame_needed = 0, uses_anonymous_args = 0
 1776              	.LVL243:
 1777              		.loc 1 1248 0
 1778 0000 0129     		cmp	r1, #1
 1779              		.loc 1 1237 0
 1780 0002 2DE9F843 		push	{r3, r4, r5, r6, r7, r8, r9, lr}
 1781              		.cfi_def_cfa_offset 32
 1782              		.cfi_offset 3, -32
 1783              		.cfi_offset 4, -28
 1784              		.cfi_offset 5, -24
 1785              		.cfi_offset 6, -20
 1786              		.cfi_offset 7, -16
 1787              		.cfi_offset 8, -12
 1788              		.cfi_offset 9, -8
 1789              		.cfi_offset 14, -4
 1790              		.loc 1 1237 0
 1791 0006 0646     		mov	r6, r0
 1792 0008 0D46     		mov	r5, r1
 1793 000a 1746     		mov	r7, r2
 1794              		.loc 1 1248 0
 1795 000c 02D8     		bhi	.L147
 1796              	.LVL244:
 1797              	.L149:
 1798 000e 0220     		movs	r0, #2
 1799 0010 BDE8F883 		pop	{r3, r4, r5, r6, r7, r8, r9, pc}
 1800              	.LVL245:
 1801              	.L147:
 1802              		.loc 1 1240 0 discriminator 2
 1803 0014 0468     		ldr	r4, [r0]
 1804              		.loc 1 1248 0 discriminator 2
 1805 0016 236B     		ldr	r3, [r4, #48]
 1806 0018 9942     		cmp	r1, r3
 1807 001a F8D2     		bcs	.L149
 1808              		.loc 1 1251 0
 1809 001c 62B9     		cbnz	r2, .L150
 1810              	.LVL246:
 1811              	.L153:
 1812              		.loc 1 1237 0
 1813 001e A946     		mov	r9, r5
 1814              	.LVL247:
 1815              	.L151:
 1816              		.loc 1 1258 0
 1817 0020 2946     		mov	r1, r5
 1818 0022 3046     		mov	r0, r6
 1819 0024 FFF7FEFF 		bl	get_fat
 1820              	.LVL248:
 1821              		.loc 1 1259 0
 1822 0028 8046     		mov	r8, r0
 1823 002a A8B9     		cbnz	r0, .L154
 1824              	.LVL249:
ARM GAS  C:\cygwin64\tmp\cc6eY66b.s 			page 33


 1825              	.L161:
 1826              		.loc 1 1292 0
 1827 002c 2378     		ldrb	r3, [r4]	@ zero_extendqisi2
 1828 002e 042B     		cmp	r3, #4
 1829 0030 44D0     		beq	.L155
 1830              	.L167:
 1831              		.loc 1 1302 0
 1832 0032 0020     		movs	r0, #0
 1833              	.L148:
 1834              		.loc 1 1303 0
 1835 0034 BDE8F883 		pop	{r3, r4, r5, r6, r7, r8, r9, pc}
 1836              	.LVL250:
 1837              	.L150:
 1838              		.loc 1 1251 0 discriminator 1
 1839 0038 2378     		ldrb	r3, [r4]	@ zero_extendqisi2
 1840 003a 042B     		cmp	r3, #4
 1841 003c 02D1     		bne	.L152
 1842              		.loc 1 1251 0 is_stmt 0 discriminator 2
 1843 003e C379     		ldrb	r3, [r0, #7]	@ zero_extendqisi2
 1844 0040 022B     		cmp	r3, #2
 1845 0042 ECD0     		beq	.L153
 1846              	.L152:
 1847              		.loc 1 1252 0 is_stmt 1
 1848 0044 4FF0FF32 		mov	r2, #-1
 1849              	.LVL251:
 1850 0048 3946     		mov	r1, r7
 1851              	.LVL252:
 1852 004a 2046     		mov	r0, r4
 1853              	.LVL253:
 1854 004c FFF7FEFF 		bl	put_fat
 1855              	.LVL254:
 1856              		.loc 1 1253 0
 1857 0050 0028     		cmp	r0, #0
 1858 0052 E4D0     		beq	.L153
 1859 0054 BDE8F883 		pop	{r3, r4, r5, r6, r7, r8, r9, pc}
 1860              	.LVL255:
 1861              	.L154:
 1862              		.loc 1 1260 0
 1863 0058 0128     		cmp	r0, #1
 1864 005a D8D0     		beq	.L149
 1865              		.loc 1 1261 0
 1866 005c B0F1FF3F 		cmp	r0, #-1
 1867 0060 3CD0     		beq	.L163
 1868              		.loc 1 1262 0
 1869 0062 2378     		ldrb	r3, [r4]	@ zero_extendqisi2
 1870 0064 042B     		cmp	r3, #4
 1871 0066 19D1     		bne	.L156
 1872              	.LVL256:
 1873              	.L159:
 1874              		.loc 1 1266 0
 1875 0068 226B     		ldr	r2, [r4, #48]
 1876 006a E369     		ldr	r3, [r4, #28]
 1877 006c 023A     		subs	r2, r2, #2
 1878 006e 9342     		cmp	r3, r2
 1879 0070 1DD3     		bcc	.L157
 1880              	.L158:
 1881              		.loc 1 1271 0
ARM GAS  C:\cygwin64\tmp\cc6eY66b.s 			page 34


 1882 0072 6A1C     		adds	r2, r5, #1
 1883 0074 9045     		cmp	r8, r2
 1884 0076 0CD0     		beq	.L160
 1885              		.loc 1 1275 0
 1886 0078 2378     		ldrb	r3, [r4]	@ zero_extendqisi2
 1887 007a 042B     		cmp	r3, #4
 1888 007c 08D1     		bne	.L164
 1889              		.loc 1 1276 0
 1890 007e 0023     		movs	r3, #0
 1891 0080 A2EB0902 		sub	r2, r2, r9
 1892 0084 4946     		mov	r1, r9
 1893 0086 2046     		mov	r0, r4
 1894 0088 FFF7FEFF 		bl	change_bitmap
 1895              	.LVL257:
 1896              		.loc 1 1277 0
 1897 008c 0028     		cmp	r0, #0
 1898 008e D1D1     		bne	.L148
 1899              	.LVL258:
 1900              	.L164:
 1901 0090 C146     		mov	r9, r8
 1902              	.LVL259:
 1903              	.L160:
 1904              		.loc 1 1289 0
 1905 0092 236B     		ldr	r3, [r4, #48]
 1906 0094 9845     		cmp	r8, r3
 1907 0096 4546     		mov	r5, r8
 1908 0098 C2D3     		bcc	.L151
 1909              	.LVL260:
 1910 009a C7E7     		b	.L161
 1911              	.LVL261:
 1912              	.L156:
 1913              		.loc 1 1263 0
 1914 009c 0022     		movs	r2, #0
 1915 009e 2946     		mov	r1, r5
 1916 00a0 2046     		mov	r0, r4
 1917              	.LVL262:
 1918 00a2 FFF7FEFF 		bl	put_fat
 1919              	.LVL263:
 1920              		.loc 1 1264 0
 1921 00a6 0028     		cmp	r0, #0
 1922 00a8 DED0     		beq	.L159
 1923 00aa BDE8F883 		pop	{r3, r4, r5, r6, r7, r8, r9, pc}
 1924              	.LVL264:
 1925              	.L157:
 1926              		.loc 1 1267 0
 1927 00ae 0133     		adds	r3, r3, #1
 1928 00b0 E361     		str	r3, [r4, #28]
 1929              		.loc 1 1268 0
 1930 00b2 2379     		ldrb	r3, [r4, #4]	@ zero_extendqisi2
 1931 00b4 43F00103 		orr	r3, r3, #1
 1932 00b8 2371     		strb	r3, [r4, #4]
 1933 00ba DAE7     		b	.L158
 1934              	.L155:
 1935              		.loc 1 1293 0
 1936 00bc 0FB9     		cbnz	r7, .L162
 1937              		.loc 1 1294 0
 1938 00be F771     		strb	r7, [r6, #7]
ARM GAS  C:\cygwin64\tmp\cc6eY66b.s 			page 35


 1939 00c0 B7E7     		b	.L167
 1940              	.L162:
 1941              		.loc 1 1296 0
 1942 00c2 F379     		ldrb	r3, [r6, #7]	@ zero_extendqisi2
 1943 00c4 032B     		cmp	r3, #3
 1944 00c6 B4D1     		bne	.L167
 1945              		.loc 1 1296 0 is_stmt 0 discriminator 1
 1946 00c8 B368     		ldr	r3, [r6, #8]
 1947 00ca 9F42     		cmp	r7, r3
 1948 00cc B1D3     		bcc	.L167
 1949              		.loc 1 1296 0 discriminator 2
 1950 00ce B269     		ldr	r2, [r6, #24]
 1951 00d0 1344     		add	r3, r3, r2
 1952 00d2 9F42     		cmp	r7, r3
 1953 00d4 ADD8     		bhi	.L167
 1954              		.loc 1 1297 0 is_stmt 1
 1955 00d6 0223     		movs	r3, #2
 1956 00d8 F371     		strb	r3, [r6, #7]
 1957 00da AAE7     		b	.L167
 1958              	.LVL265:
 1959              	.L163:
 1960              		.loc 1 1261 0
 1961 00dc 0120     		movs	r0, #1
 1962              	.LVL266:
 1963 00de BDE8F883 		pop	{r3, r4, r5, r6, r7, r8, r9, pc}
 1964              		.cfi_endproc
 1965              	.LFE267:
 1966              		.size	remove_chain, .-remove_chain
 1967              		.section	.text.fill_fat_chain,"ax",%progbits
 1968              		.align	1
 1969              		.syntax unified
 1970              		.thumb
 1971              		.thumb_func
 1972              		.fpu fpv4-sp-d16
 1973              		.type	fill_fat_chain, %function
 1974              	fill_fat_chain:
 1975              	.LFB266:
 1976              		.loc 1 1209 0
 1977              		.cfi_startproc
 1978              		@ args = 0, pretend = 0, frame = 0
 1979              		@ frame_needed = 0, uses_anonymous_args = 0
 1980              	.LVL267:
 1981 0000 70B5     		push	{r4, r5, r6, lr}
 1982              		.cfi_def_cfa_offset 16
 1983              		.cfi_offset 4, -16
 1984              		.cfi_offset 5, -12
 1985              		.cfi_offset 6, -8
 1986              		.cfi_offset 14, -4
 1987              		.loc 1 1213 0
 1988 0002 C379     		ldrb	r3, [r0, #7]	@ zero_extendqisi2
 1989 0004 032B     		cmp	r3, #3
 1990              		.loc 1 1209 0
 1991 0006 0446     		mov	r4, r0
 1992              		.loc 1 1213 0
 1993 0008 10D1     		bne	.L179
 1994              	.LVL268:
 1995              	.LBB191:
ARM GAS  C:\cygwin64\tmp\cc6eY66b.s 			page 36


 1996              	.LBB192:
 1997              		.loc 1 1214 0
 1998 000a 8168     		ldr	r1, [r0, #8]
 1999              	.LVL269:
 2000 000c 8369     		ldr	r3, [r0, #24]
 2001 000e CD18     		adds	r5, r1, r3
 2002              	.LVL270:
 2003              	.L177:
 2004 0010 A942     		cmp	r1, r5
 2005 0012 02D1     		bne	.L178
 2006              		.loc 1 1218 0
 2007 0014 0020     		movs	r0, #0
 2008 0016 E071     		strb	r0, [r4, #7]
 2009 0018 70BD     		pop	{r4, r5, r6, pc}
 2010              	.LVL271:
 2011              	.L178:
 2012              		.loc 1 1215 0
 2013 001a 4E1C     		adds	r6, r1, #1
 2014 001c 3246     		mov	r2, r6
 2015 001e 2068     		ldr	r0, [r4]
 2016 0020 FFF7FEFF 		bl	put_fat
 2017              	.LVL272:
 2018              		.loc 1 1214 0
 2019 0024 3146     		mov	r1, r6
 2020              		.loc 1 1216 0
 2021 0026 0028     		cmp	r0, #0
 2022 0028 F2D0     		beq	.L177
 2023              	.LVL273:
 2024              	.L176:
 2025              	.LBE192:
 2026              	.LBE191:
 2027              		.loc 1 1221 0
 2028 002a 70BD     		pop	{r4, r5, r6, pc}
 2029              	.LVL274:
 2030              	.L179:
 2031              		.loc 1 1220 0
 2032 002c 0020     		movs	r0, #0
 2033              	.LVL275:
 2034 002e FCE7     		b	.L176
 2035              		.cfi_endproc
 2036              	.LFE266:
 2037              		.size	fill_fat_chain, .-fill_fat_chain
 2038              		.section	.text.unlock_fs,"ax",%progbits
 2039              		.align	1
 2040              		.syntax unified
 2041              		.thumb
 2042              		.thumb_func
 2043              		.fpu fpv4-sp-d16
 2044              		.type	unlock_fs, %function
 2045              	unlock_fs:
 2046              	.LFB257:
 2047              		.loc 1 740 0
 2048              		.cfi_startproc
 2049              		@ args = 0, pretend = 0, frame = 0
 2050              		@ frame_needed = 0, uses_anonymous_args = 0
 2051              		@ link register save eliminated.
 2052              	.LVL276:
ARM GAS  C:\cygwin64\tmp\cc6eY66b.s 			page 37


 2053              		.loc 1 741 0
 2054 0000 40B1     		cbz	r0, .L180
 2055              		.loc 1 741 0 is_stmt 0 discriminator 2
 2056 0002 A1F10B03 		sub	r3, r1, #11
 2057 0006 012B     		cmp	r3, #1
 2058 0008 04D9     		bls	.L180
 2059              	.LVL277:
 2060              	.LBB195:
 2061              	.LBB196:
 2062              		.loc 1 741 0
 2063 000a 0F29     		cmp	r1, #15
 2064 000c 02D0     		beq	.L180
 2065              		.loc 1 742 0 is_stmt 1
 2066 000e 4069     		ldr	r0, [r0, #20]
 2067              	.LVL278:
 2068 0010 FFF7FEBF 		b	ff_rel_grant
 2069              	.LVL279:
 2070              	.L180:
 2071 0014 7047     		bx	lr
 2072              	.LBE196:
 2073              	.LBE195:
 2074              		.cfi_endproc
 2075              	.LFE257:
 2076              		.size	unlock_fs, .-unlock_fs
 2077              		.section	.text.get_fileinfo,"ax",%progbits
 2078              		.align	1
 2079              		.syntax unified
 2080              		.thumb
 2081              		.thumb_func
 2082              		.fpu fpv4-sp-d16
 2083              		.type	get_fileinfo, %function
 2084              	get_fileinfo:
 2085              	.LFB290:
 2086              		.loc 1 2400 0
 2087              		.cfi_startproc
 2088              		@ args = 0, pretend = 0, frame = 0
 2089              		@ frame_needed = 0, uses_anonymous_args = 0
 2090              	.LVL280:
 2091 0000 2DE9F041 		push	{r4, r5, r6, r7, r8, lr}
 2092              		.cfi_def_cfa_offset 24
 2093              		.cfi_offset 4, -24
 2094              		.cfi_offset 5, -20
 2095              		.cfi_offset 6, -16
 2096              		.cfi_offset 7, -12
 2097              		.cfi_offset 8, -8
 2098              		.cfi_offset 14, -4
 2099              		.loc 1 2410 0
 2100 0004 0025     		movs	r5, #0
 2101              		.loc 1 2406 0
 2102 0006 0768     		ldr	r7, [r0]
 2103              	.LVL281:
 2104              		.loc 1 2410 0
 2105 0008 8D76     		strb	r5, [r1, #26]
 2106              		.loc 1 2411 0
 2107 000a 036B     		ldr	r3, [r0, #48]
 2108              		.loc 1 2400 0
 2109 000c 0646     		mov	r6, r0
ARM GAS  C:\cygwin64\tmp\cc6eY66b.s 			page 38


 2110 000e 0C46     		mov	r4, r1
 2111              		.loc 1 2411 0
 2112 0010 002B     		cmp	r3, #0
 2113 0012 00F09A80 		beq	.L188
 2114              		.loc 1 2415 0
 2115 0016 3B78     		ldrb	r3, [r7]	@ zero_extendqisi2
 2116 0018 042B     		cmp	r3, #4
 2117 001a 3AD1     		bne	.L190
 2118              		.loc 1 2416 0
 2119 001c 3E69     		ldr	r6, [r7, #16]
 2120              	.LVL282:
 2121 001e 01F11A08 		add	r8, r1, #26
 2122              	.LBB207:
 2123              	.LBB208:
 2124              		.loc 1 1907 0
 2125 0022 4027     		movs	r7, #64
 2126              	.LVL283:
 2127              	.L191:
 2128 0024 96F82330 		ldrb	r3, [r6, #35]	@ zero_extendqisi2
 2129 0028 9D42     		cmp	r5, r3
 2130 002a 01D3     		bcc	.L195
 2131              		.loc 1 1919 0
 2132 002c 7DB9     		cbnz	r5, .L194
 2133 002e 0BE0     		b	.L196
 2134              	.L195:
 2135              		.loc 1 1908 0
 2136 0030 FA06     		lsls	r2, r7, #27
 2137 0032 08BF     		it	eq
 2138 0034 0237     		addeq	r7, r7, #2
 2139              	.LVL284:
 2140              		.loc 1 1909 0
 2141 0036 F319     		adds	r3, r6, r7
 2142              		.loc 1 1910 0
 2143 0038 0021     		movs	r1, #0
 2144              	.LBB209:
 2145              	.LBB210:
 2146              		.loc 1 607 0
 2147 003a 5878     		ldrb	r0, [r3, #1]	@ zero_extendqisi2
 2148 003c F35D     		ldrb	r3, [r6, r7]	@ zero_extendqisi2
 2149              	.LBE210:
 2150              	.LBE209:
 2151              		.loc 1 1910 0
 2152 003e 43EA0020 		orr	r0, r3, r0, lsl #8
 2153 0042 FFF7FEFF 		bl	ff_convert
 2154              	.LVL285:
 2155              		.loc 1 1911 0
 2156 0046 E0B9     		cbnz	r0, .L193
 2157              	.LVL286:
 2158              	.L196:
 2159              		.loc 1 1919 0
 2160 0048 3F23     		movs	r3, #63
 2161 004a A376     		strb	r3, [r4, #26]
 2162 004c 0125     		movs	r5, #1
 2163              	.LVL287:
 2164              	.L194:
 2165              		.loc 1 1920 0
 2166 004e 2544     		add	r5, r5, r4
ARM GAS  C:\cygwin64\tmp\cc6eY66b.s 			page 39


 2167              	.LVL288:
 2168 0050 0023     		movs	r3, #0
 2169 0052 AB76     		strb	r3, [r5, #26]
 2170              		.loc 1 1922 0
 2171 0054 6373     		strb	r3, [r4, #13]
 2172              		.loc 1 1923 0
 2173 0056 3379     		ldrb	r3, [r6, #4]	@ zero_extendqisi2
 2174 0058 2373     		strb	r3, [r4, #12]
 2175              		.loc 1 1924 0
 2176 005a DB06     		lsls	r3, r3, #27
 2177 005c 16D4     		bmi	.L211
 2178 005e 06F13800 		add	r0, r6, #56
 2179 0062 FFF7FEFF 		bl	ld_qword
 2180              	.LVL289:
 2181              	.L197:
 2182 0066 C4E90001 		strd	r0, [r4]
 2183              	.LBB211:
 2184              	.LBB212:
 2185              		.loc 1 607 0
 2186 006a 727B     		ldrb	r2, [r6, #13]	@ zero_extendqisi2
 2187 006c 337B     		ldrb	r3, [r6, #12]	@ zero_extendqisi2
 2188 006e 43EA0223 		orr	r3, r3, r2, lsl #8
 2189              	.LBE212:
 2190              	.LBE211:
 2191              		.loc 1 1925 0
 2192 0072 6381     		strh	r3, [r4, #10]	@ movhi
 2193              	.LBB213:
 2194              	.LBB214:
 2195              		.loc 1 607 0
 2196 0074 F27B     		ldrb	r2, [r6, #15]	@ zero_extendqisi2
 2197 0076 B37B     		ldrb	r3, [r6, #14]	@ zero_extendqisi2
 2198 0078 43EA0223 		orr	r3, r3, r2, lsl #8
 2199              	.LBE214:
 2200              	.LBE213:
 2201              		.loc 1 1926 0
 2202 007c 2381     		strh	r3, [r4, #8]	@ movhi
 2203 007e BDE8F081 		pop	{r4, r5, r6, r7, r8, pc}
 2204              	.LVL290:
 2205              	.L193:
 2206              		.loc 1 1916 0
 2207 0082 0135     		adds	r5, r5, #1
 2208              	.LVL291:
 2209 0084 08F8010B 		strb	r0, [r8], #1
 2210              		.loc 1 1907 0
 2211 0088 0237     		adds	r7, r7, #2
 2212              	.LVL292:
 2213 008a CBE7     		b	.L191
 2214              	.LVL293:
 2215              	.L211:
 2216              		.loc 1 1924 0
 2217 008c 0020     		movs	r0, #0
 2218 008e 0021     		movs	r1, #0
 2219 0090 E9E7     		b	.L197
 2220              	.LVL294:
 2221              	.L190:
 2222              	.LBE208:
 2223              	.LBE207:
ARM GAS  C:\cygwin64\tmp\cc6eY66b.s 			page 40


 2224              		.loc 1 2421 0
 2225 0092 436C     		ldr	r3, [r0, #68]
 2226 0094 0133     		adds	r3, r3, #1
 2227 0096 0AD0     		beq	.L198
 2228 0098 01F11A08 		add	r8, r1, #26
 2229              	.LVL295:
 2230              	.L199:
 2231              		.loc 1 2423 0
 2232 009c FA68     		ldr	r2, [r7, #12]
 2233 009e 32F81500 		ldrh	r0, [r2, r5, lsl #1]
 2234 00a2 2B46     		mov	r3, r5
 2235              	.LVL296:
 2236 00a4 0028     		cmp	r0, #0
 2237 00a6 52D1     		bne	.L201
 2238              	.LVL297:
 2239              	.L200:
 2240              		.loc 1 2434 0
 2241 00a8 2344     		add	r3, r3, r4
 2242              	.LVL298:
 2243 00aa 0022     		movs	r2, #0
 2244 00ac 9A76     		strb	r2, [r3, #26]
 2245              	.LVL299:
 2246              	.L198:
 2247              	.LBB215:
 2248              	.LBB216:
 2249              		.loc 1 2441 0
 2250 00ae 716B     		ldr	r1, [r6, #52]
 2251              		.loc 1 2439 0
 2252 00b0 A57E     		ldrb	r5, [r4, #26]	@ zero_extendqisi2
 2253              	.LVL300:
 2254              		.loc 1 2438 0
 2255 00b2 0023     		movs	r3, #0
 2256 00b4 4E1E     		subs	r6, r1, #1
 2257              	.LVL301:
 2258 00b6 1846     		mov	r0, r3
 2259              		.loc 1 2446 0
 2260 00b8 2E27     		movs	r7, #46
 2261              	.LVL302:
 2262              	.L209:
 2263              		.loc 1 2441 0
 2264 00ba 16F8012F 		ldrb	r2, [r6, #1]!	@ zero_extendqisi2
 2265              		.loc 1 2442 0
 2266 00be 202A     		cmp	r2, #32
 2267              		.loc 1 2441 0
 2268 00c0 00F10100 		add	r0, r0, #1
 2269              	.LVL303:
 2270              		.loc 1 2442 0
 2271 00c4 26D0     		beq	.L202
 2272              		.loc 1 2443 0
 2273 00c6 052A     		cmp	r2, #5
 2274 00c8 08BF     		it	eq
 2275 00ca E522     		moveq	r2, #229
 2276              	.LVL304:
 2277              		.loc 1 2444 0
 2278 00cc 0928     		cmp	r0, #9
 2279 00ce 07D1     		bne	.L204
 2280 00d0 04EB030E 		add	lr, r4, r3
ARM GAS  C:\cygwin64\tmp\cc6eY66b.s 			page 41


 2281              		.loc 1 2445 0
 2282 00d4 0DB9     		cbnz	r5, .L205
 2283 00d6 8EF81A70 		strb	r7, [lr, #26]
 2284              	.L205:
 2285              	.LVL305:
 2286              		.loc 1 2446 0
 2287 00da 8EF80D70 		strb	r7, [lr, #13]
 2288 00de 0133     		adds	r3, r3, #1
 2289              	.LVL306:
 2290              	.L204:
 2291              		.loc 1 2455 0
 2292 00e0 04EB030E 		add	lr, r4, r3
 2293 00e4 8EF80D20 		strb	r2, [lr, #13]
 2294              		.loc 1 2456 0
 2295 00e8 9DB9     		cbnz	r5, .L206
 2296              		.loc 1 2457 0
 2297 00ea A2F1410C 		sub	ip, r2, #65
 2298 00ee BCF1190F 		cmp	ip, #25
 2299 00f2 0CD8     		bhi	.L207
 2300 00f4 0828     		cmp	r0, #8
 2301 00f6 91F80C80 		ldrb	r8, [r1, #12]	@ zero_extendqisi2
 2302 00fa 8CBF     		ite	hi
 2303 00fc 4FF0100C 		movhi	ip, #16
 2304 0100 4FF0080C 		movls	ip, #8
 2305 0104 18EA0C0F 		tst	r8, ip
 2306              		.loc 1 2458 0
 2307 0108 1CBF     		itt	ne
 2308 010a 2032     		addne	r2, r2, #32
 2309              	.LVL307:
 2310 010c D2B2     		uxtbne	r2, r2
 2311              	.LVL308:
 2312              	.L207:
 2313              		.loc 1 2460 0
 2314 010e 8EF81A20 		strb	r2, [lr, #26]
 2315              	.L206:
 2316              		.loc 1 2462 0
 2317 0112 0133     		adds	r3, r3, #1
 2318              	.LVL309:
 2319              	.L202:
 2320              		.loc 1 2440 0
 2321 0114 0B28     		cmp	r0, #11
 2322 0116 D0D1     		bne	.L209
 2323              		.loc 1 2464 0
 2324 0118 2DB9     		cbnz	r5, .L210
 2325              		.loc 1 2465 0
 2326 011a E218     		adds	r2, r4, r3
 2327              	.LVL310:
 2328 011c 9576     		strb	r5, [r2, #26]
 2329              		.loc 1 2466 0
 2330 011e 0A7B     		ldrb	r2, [r1, #12]	@ zero_extendqisi2
 2331 0120 002A     		cmp	r2, #0
 2332 0122 08BF     		it	eq
 2333 0124 0023     		moveq	r3, #0
 2334              	.LVL311:
 2335              	.L210:
 2336              		.loc 1 2468 0
 2337 0126 2344     		add	r3, r3, r4
ARM GAS  C:\cygwin64\tmp\cc6eY66b.s 			page 42


 2338              	.LVL312:
 2339 0128 0025     		movs	r5, #0
 2340              	.LVL313:
 2341 012a 5D73     		strb	r5, [r3, #13]
 2342              		.loc 1 2482 0
 2343 012c CB7A     		ldrb	r3, [r1, #11]	@ zero_extendqisi2
 2344 012e 2373     		strb	r3, [r4, #12]
 2345              		.loc 1 2483 0
 2346 0130 01F11C00 		add	r0, r1, #28
 2347              	.LVL314:
 2348 0134 FFF7FEFF 		bl	ld_dword
 2349              	.LVL315:
 2350 0138 84E82100 		stm	r4, {r0, r5}
 2351              		.loc 1 2484 0
 2352 013c 01F11600 		add	r0, r1, #22
 2353 0140 FFF7FEFF 		bl	ld_dword
 2354              	.LVL316:
 2355              		.loc 1 2485 0
 2356 0144 6081     		strh	r0, [r4, #10]	@ movhi
 2357 0146 000C     		lsrs	r0, r0, #16
 2358              	.LVL317:
 2359 0148 2081     		strh	r0, [r4, #8]	@ movhi
 2360              	.LVL318:
 2361              	.L188:
 2362 014a BDE8F081 		pop	{r4, r5, r6, r7, r8, pc}
 2363              	.LVL319:
 2364              	.L201:
 2365              	.LBE216:
 2366              	.LBE215:
 2367              		.loc 1 2425 0
 2368 014e 0021     		movs	r1, #0
 2369 0150 FFF7FEFF 		bl	ff_convert
 2370              	.LVL320:
 2371              		.loc 1 2426 0
 2372 0154 30B1     		cbz	r0, .L213
 2373 0156 0135     		adds	r5, r5, #1
 2374              	.LVL321:
 2375              		.loc 1 2431 0
 2376 0158 B5F5807F 		cmp	r5, #256
 2377 015c 02D0     		beq	.L213
 2378              	.LVL322:
 2379              		.loc 1 2432 0
 2380 015e 08F8010B 		strb	r0, [r8], #1
 2381 0162 9BE7     		b	.L199
 2382              	.LVL323:
 2383              	.L213:
 2384              		.loc 1 2426 0
 2385 0164 0023     		movs	r3, #0
 2386 0166 9FE7     		b	.L200
 2387              		.cfi_endproc
 2388              	.LFE290:
 2389              		.size	get_fileinfo, .-get_fileinfo
 2390              		.section	.text.create_chain,"ax",%progbits
 2391              		.align	1
 2392              		.syntax unified
 2393              		.thumb
 2394              		.thumb_func
ARM GAS  C:\cygwin64\tmp\cc6eY66b.s 			page 43


 2395              		.fpu fpv4-sp-d16
 2396              		.type	create_chain, %function
 2397              	create_chain:
 2398              	.LFB268:
 2399              		.loc 1 1316 0
 2400              		.cfi_startproc
 2401              		@ args = 0, pretend = 0, frame = 0
 2402              		@ frame_needed = 0, uses_anonymous_args = 0
 2403              	.LVL324:
 2404 0000 2DE9F84F 		push	{r3, r4, r5, r6, r7, r8, r9, r10, fp, lr}
 2405              		.cfi_def_cfa_offset 40
 2406              		.cfi_offset 3, -40
 2407              		.cfi_offset 4, -36
 2408              		.cfi_offset 5, -32
 2409              		.cfi_offset 6, -28
 2410              		.cfi_offset 7, -24
 2411              		.cfi_offset 8, -20
 2412              		.cfi_offset 9, -16
 2413              		.cfi_offset 10, -12
 2414              		.cfi_offset 11, -8
 2415              		.cfi_offset 14, -4
 2416              		.loc 1 1316 0
 2417 0004 8046     		mov	r8, r0
 2418              		.loc 1 1319 0
 2419 0006 0568     		ldr	r5, [r0]
 2420              	.LVL325:
 2421              		.loc 1 1322 0
 2422 0008 8A46     		mov	r10, r1
 2423 000a 0029     		cmp	r1, #0
 2424 000c 5ED1     		bne	.L232
 2425              		.loc 1 1323 0
 2426 000e AE69     		ldr	r6, [r5, #24]
 2427              	.LVL326:
 2428              		.loc 1 1324 0
 2429 0010 002E     		cmp	r6, #0
 2430 0012 6CD0     		beq	.L256
 2431              		.loc 1 1324 0 is_stmt 0 discriminator 2
 2432 0014 2B6B     		ldr	r3, [r5, #48]
 2433 0016 9E42     		cmp	r6, r3
 2434 0018 28BF     		it	cs
 2435 001a 0126     		movcs	r6, #1
 2436              	.LVL327:
 2437              	.L233:
 2438              		.loc 1 1335 0 is_stmt 1
 2439 001c 2B78     		ldrb	r3, [r5]	@ zero_extendqisi2
 2440 001e 042B     		cmp	r3, #4
 2441 0020 40F08480 		bne	.L237
 2442              	.LVL328:
 2443              	.LBB219:
 2444              	.LBB220:
 2445              		.loc 1 1140 0
 2446 0024 2B6B     		ldr	r3, [r5, #48]
 2447              		.loc 1 1139 0
 2448 0026 A6F10209 		sub	r9, r6, #2
 2449              	.LVL329:
 2450              		.loc 1 1140 0
 2451 002a 023B     		subs	r3, r3, #2
ARM GAS  C:\cygwin64\tmp\cc6eY66b.s 			page 44


 2452 002c 9945     		cmp	r9, r3
 2453 002e 28BF     		it	cs
 2454 0030 4FF00009 		movcs	r9, #0
 2455              	.LVL330:
 2456              		.loc 1 1141 0
 2457 0034 4F46     		mov	r7, r9
 2458              		.loc 1 1144 0
 2459 0036 4FF0010B 		mov	fp, #1
 2460              	.LVL331:
 2461              	.L244:
 2462              		.loc 1 1143 0
 2463 003a 696C     		ldr	r1, [r5, #68]
 2464 003c 2846     		mov	r0, r5
 2465 003e 01EB1731 		add	r1, r1, r7, lsr #12
 2466 0042 FFF7FEFF 		bl	move_window
 2467              	.LVL332:
 2468 0046 0028     		cmp	r0, #0
 2469 0048 5DD1     		bne	.L257
 2470              		.loc 1 1144 0
 2471 004a 07F00703 		and	r3, r7, #7
 2472              		.loc 1 1148 0
 2473 004e 2A6B     		ldr	r2, [r5, #48]
 2474              		.loc 1 1144 0
 2475 0050 0BFA03F3 		lsl	r3, fp, r3
 2476 0054 C7F3C801 		ubfx	r1, r7, #3, #9
 2477              	.LVL333:
 2478 0058 DBB2     		uxtb	r3, r3
 2479              	.LVL334:
 2480              		.loc 1 1148 0
 2481 005a 901E     		subs	r0, r2, #2
 2482              	.LVL335:
 2483              	.L243:
 2484              		.loc 1 1147 0
 2485 005c 6A18     		adds	r2, r5, r1
 2486              		.loc 1 1158 0
 2487 005e 3C46     		mov	r4, r7
 2488              	.LVL336:
 2489              		.loc 1 1147 0
 2490 0060 92F84C20 		ldrb	r2, [r2, #76]	@ zero_extendqisi2
 2491              		.loc 1 1148 0
 2492 0064 0137     		adds	r7, r7, #1
 2493 0066 8742     		cmp	r7, r0
 2494              		.loc 1 1147 0
 2495 0068 02EA0302 		and	r2, r2, r3
 2496              	.LVL337:
 2497              		.loc 1 1149 0
 2498 006c 2DBF     		iteet	cs
 2499 006e 0027     		movcs	r7, #0
 2500              	.LVL338:
 2501              		.loc 1 1147 0
 2502 0070 5B00     		lslcc	r3, r3, #1
 2503              	.LVL339:
 2504 0072 DBB2     		uxtbcc	r3, r3
 2505              		.loc 1 1149 0
 2506 0074 4FF48051 		movcs	r1, #4096
 2507              	.LVL340:
 2508 0078 28BF     		it	cs
ARM GAS  C:\cygwin64\tmp\cc6eY66b.s 			page 45


 2509 007a 3B46     		movcs	r3, r7
 2510              	.LVL341:
 2511              		.loc 1 1151 0
 2512 007c 002A     		cmp	r2, #0
 2513 007e 38D1     		bne	.L242
 2514              	.LVL342:
 2515              		.loc 1 1152 0
 2516 0080 0234     		adds	r4, r4, #2
 2517              	.LVL343:
 2518              	.L239:
 2519              	.LBE220:
 2520              	.LBE219:
 2521              		.loc 1 1337 0
 2522 0082 631E     		subs	r3, r4, #1
 2523 0084 0333     		adds	r3, r3, #3
 2524 0086 2AD8     		bhi	.L231
 2525              		.loc 1 1338 0
 2526 0088 0123     		movs	r3, #1
 2527 008a 1A46     		mov	r2, r3
 2528 008c 2146     		mov	r1, r4
 2529 008e 2846     		mov	r0, r5
 2530 0090 FFF7FEFF 		bl	change_bitmap
 2531              	.LVL344:
 2532              		.loc 1 1339 0
 2533 0094 0228     		cmp	r0, #2
 2534 0096 73D0     		beq	.L234
 2535              		.loc 1 1340 0
 2536 0098 0128     		cmp	r0, #1
 2537 009a 1ED0     		beq	.L245
 2538              		.loc 1 1341 0
 2539 009c BAF1000F 		cmp	r10, #0
 2540 00a0 36D1     		bne	.L246
 2541              		.loc 1 1342 0
 2542 00a2 0223     		movs	r3, #2
 2543              	.LVL345:
 2544              	.L286:
 2545              		.loc 1 1346 0
 2546 00a4 88F80730 		strb	r3, [r8, #7]
 2547              	.LVL346:
 2548              	.L247:
 2549              		.loc 1 1366 0
 2550 00a8 2B78     		ldrb	r3, [r5]	@ zero_extendqisi2
 2551 00aa 042B     		cmp	r3, #4
 2552 00ac 55D1     		bne	.L251
 2553              		.loc 1 1366 0 is_stmt 0 discriminator 1
 2554 00ae 98F80730 		ldrb	r3, [r8, #7]	@ zero_extendqisi2
 2555 00b2 022B     		cmp	r3, #2
 2556 00b4 51D1     		bne	.L251
 2557              	.L255:
 2558              		.loc 1 1377 0 is_stmt 1
 2559 00b6 2A6B     		ldr	r2, [r5, #48]
 2560 00b8 EB69     		ldr	r3, [r5, #28]
 2561              		.loc 1 1376 0
 2562 00ba AC61     		str	r4, [r5, #24]
 2563              		.loc 1 1377 0
 2564 00bc 023A     		subs	r2, r2, #2
 2565 00be 9342     		cmp	r3, r2
ARM GAS  C:\cygwin64\tmp\cc6eY66b.s 			page 46


 2566 00c0 60D3     		bcc	.L252
 2567              	.L253:
 2568              		.loc 1 1378 0
 2569 00c2 2B79     		ldrb	r3, [r5, #4]	@ zero_extendqisi2
 2570 00c4 43F00103 		orr	r3, r3, #1
 2571 00c8 2B71     		strb	r3, [r5, #4]
 2572 00ca 08E0     		b	.L231
 2573              	.LVL347:
 2574              	.L232:
 2575              		.loc 1 1327 0
 2576 00cc FFF7FEFF 		bl	get_fat
 2577              	.LVL348:
 2578              		.loc 1 1328 0
 2579 00d0 0128     		cmp	r0, #1
 2580              		.loc 1 1327 0
 2581 00d2 0446     		mov	r4, r0
 2582              	.LVL349:
 2583              		.loc 1 1328 0
 2584 00d4 54D9     		bls	.L234
 2585              		.loc 1 1329 0
 2586 00d6 431C     		adds	r3, r0, #1
 2587 00d8 04D1     		bne	.L235
 2588              	.LVL350:
 2589              	.L245:
 2590              		.loc 1 1357 0
 2591 00da 4FF0FF34 		mov	r4, #-1
 2592              	.L231:
 2593              		.loc 1 1384 0
 2594 00de 2046     		mov	r0, r4
 2595 00e0 BDE8F88F 		pop	{r3, r4, r5, r6, r7, r8, r9, r10, fp, pc}
 2596              	.LVL351:
 2597              	.L235:
 2598              		.loc 1 1330 0
 2599 00e4 2B6B     		ldr	r3, [r5, #48]
 2600 00e6 9842     		cmp	r0, r3
 2601 00e8 F9D3     		bcc	.L231
 2602 00ea 5646     		mov	r6, r10
 2603 00ec 96E7     		b	.L233
 2604              	.LVL352:
 2605              	.L256:
 2606              		.loc 1 1324 0
 2607 00ee 0126     		movs	r6, #1
 2608              	.LVL353:
 2609 00f0 94E7     		b	.L233
 2610              	.LVL354:
 2611              	.L242:
 2612              	.LBB222:
 2613              	.LBB221:
 2614              		.loc 1 1156 0
 2615 00f2 B945     		cmp	r9, r7
 2616 00f4 0AD0     		beq	.L259
 2617              		.loc 1 1157 0
 2618 00f6 002B     		cmp	r3, #0
 2619 00f8 B0D1     		bne	.L243
 2620              	.LVL355:
 2621              		.loc 1 1159 0
 2622 00fa 0131     		adds	r1, r1, #1
ARM GAS  C:\cygwin64\tmp\cc6eY66b.s 			page 47


 2623              	.LVL356:
 2624 00fc B1F5007F 		cmp	r1, #512
 2625 0100 9BD2     		bcs	.L244
 2626              		.loc 1 1158 0
 2627 0102 0123     		movs	r3, #1
 2628 0104 AAE7     		b	.L243
 2629              	.LVL357:
 2630              	.L257:
 2631              		.loc 1 1143 0
 2632 0106 4FF0FF34 		mov	r4, #-1
 2633 010a BAE7     		b	.L239
 2634              	.LVL358:
 2635              	.L259:
 2636              		.loc 1 1156 0
 2637 010c 0024     		movs	r4, #0
 2638 010e B8E7     		b	.L239
 2639              	.LVL359:
 2640              	.L246:
 2641              	.LBE221:
 2642              	.LBE222:
 2643              		.loc 1 1344 0
 2644 0110 98F80730 		ldrb	r3, [r8, #7]	@ zero_extendqisi2
 2645 0114 022B     		cmp	r3, #2
 2646 0116 C7D1     		bne	.L247
 2647              		.loc 1 1344 0 is_stmt 0 discriminator 1
 2648 0118 731C     		adds	r3, r6, #1
 2649 011a A342     		cmp	r3, r4
 2650 011c C4D0     		beq	.L247
 2651              		.loc 1 1345 0 is_stmt 1
 2652 011e D8F80830 		ldr	r3, [r8, #8]
 2653 0122 F61A     		subs	r6, r6, r3
 2654              	.LVL360:
 2655 0124 C8F81860 		str	r6, [r8, #24]
 2656              		.loc 1 1346 0
 2657 0128 0323     		movs	r3, #3
 2658 012a BBE7     		b	.L286
 2659              	.LVL361:
 2660              	.L237:
 2661 012c 3446     		mov	r4, r6
 2662              	.L250:
 2663              	.LVL362:
 2664              		.loc 1 1355 0
 2665 012e 2B6B     		ldr	r3, [r5, #48]
 2666              		.loc 1 1354 0
 2667 0130 0134     		adds	r4, r4, #1
 2668              	.LVL363:
 2669              		.loc 1 1355 0
 2670 0132 9C42     		cmp	r4, r3
 2671 0134 04D3     		bcc	.L248
 2672              	.LVL364:
 2673              		.loc 1 1357 0
 2674 0136 012E     		cmp	r6, #1
 2675 0138 01D8     		bhi	.L261
 2676              	.LVL365:
 2677              	.L249:
 2678 013a 0024     		movs	r4, #0
 2679 013c CFE7     		b	.L231
ARM GAS  C:\cygwin64\tmp\cc6eY66b.s 			page 48


 2680              	.LVL366:
 2681              	.L261:
 2682              		.loc 1 1356 0
 2683 013e 0224     		movs	r4, #2
 2684              	.LVL367:
 2685              	.L248:
 2686              		.loc 1 1359 0
 2687 0140 2146     		mov	r1, r4
 2688 0142 4046     		mov	r0, r8
 2689 0144 FFF7FEFF 		bl	get_fat
 2690              	.LVL368:
 2691              		.loc 1 1360 0
 2692 0148 0028     		cmp	r0, #0
 2693 014a ADD0     		beq	.L247
 2694              		.loc 1 1361 0
 2695 014c 0128     		cmp	r0, #1
 2696 014e 17D0     		beq	.L234
 2697              		.loc 1 1361 0 is_stmt 0 discriminator 2
 2698 0150 0130     		adds	r0, r0, #1
 2699              	.LVL369:
 2700 0152 C2D0     		beq	.L245
 2701              		.loc 1 1362 0 is_stmt 1
 2702 0154 B442     		cmp	r4, r6
 2703 0156 EAD1     		bne	.L250
 2704 0158 EFE7     		b	.L249
 2705              	.LVL370:
 2706              	.L251:
 2707              		.loc 1 1369 0
 2708 015a 4FF0FF32 		mov	r2, #-1
 2709 015e 2146     		mov	r1, r4
 2710 0160 2846     		mov	r0, r5
 2711 0162 FFF7FEFF 		bl	put_fat
 2712              	.LVL371:
 2713              		.loc 1 1370 0
 2714 0166 48B9     		cbnz	r0, .L254
 2715              		.loc 1 1370 0 is_stmt 0 discriminator 1
 2716 0168 BAF1000F 		cmp	r10, #0
 2717 016c A3D0     		beq	.L255
 2718              		.loc 1 1371 0 is_stmt 1
 2719 016e 2246     		mov	r2, r4
 2720 0170 5146     		mov	r1, r10
 2721 0172 2846     		mov	r0, r5
 2722              	.LVL372:
 2723 0174 FFF7FEFF 		bl	put_fat
 2724              	.LVL373:
 2725              		.loc 1 1375 0
 2726 0178 0028     		cmp	r0, #0
 2727 017a 9CD0     		beq	.L255
 2728              	.L254:
 2729              		.loc 1 1380 0
 2730 017c 0128     		cmp	r0, #1
 2731 017e ACD0     		beq	.L245
 2732              	.LVL374:
 2733              	.L234:
 2734              		.loc 1 1380 0 is_stmt 0 discriminator 2
 2735 0180 0124     		movs	r4, #1
 2736 0182 ACE7     		b	.L231
ARM GAS  C:\cygwin64\tmp\cc6eY66b.s 			page 49


 2737              	.LVL375:
 2738              	.L252:
 2739              		.loc 1 1377 0 is_stmt 1 discriminator 1
 2740 0184 013B     		subs	r3, r3, #1
 2741 0186 EB61     		str	r3, [r5, #28]
 2742 0188 9BE7     		b	.L253
 2743              		.cfi_endproc
 2744              	.LFE268:
 2745              		.size	create_chain, .-create_chain
 2746              		.section	.text.dir_next,"ax",%progbits
 2747              		.align	1
 2748              		.syntax unified
 2749              		.thumb
 2750              		.thumb_func
 2751              		.fpu fpv4-sp-d16
 2752              		.type	dir_next, %function
 2753              	dir_next:
 2754              	.LFB270:
 2755              		.loc 1 1480 0
 2756              		.cfi_startproc
 2757              		@ args = 0, pretend = 0, frame = 0
 2758              		@ frame_needed = 0, uses_anonymous_args = 0
 2759              	.LVL376:
 2760              		.loc 1 1488 0
 2761 0000 036B     		ldr	r3, [r0, #48]
 2762              		.loc 1 1480 0
 2763 0002 2DE9F047 		push	{r4, r5, r6, r7, r8, r9, r10, lr}
 2764              		.cfi_def_cfa_offset 32
 2765              		.cfi_offset 4, -32
 2766              		.cfi_offset 5, -28
 2767              		.cfi_offset 6, -24
 2768              		.cfi_offset 7, -20
 2769              		.cfi_offset 8, -16
 2770              		.cfi_offset 9, -12
 2771              		.cfi_offset 10, -8
 2772              		.cfi_offset 14, -4
 2773              		.loc 1 1480 0
 2774 0006 0546     		mov	r5, r0
 2775 0008 0F46     		mov	r7, r1
 2776              		.loc 1 1488 0
 2777 000a DBB1     		cbz	r3, .L304
 2778              		.loc 1 1482 0 discriminator 2
 2779 000c 0468     		ldr	r4, [r0]
 2780              		.loc 1 1487 0 discriminator 2
 2781 000e 816A     		ldr	r1, [r0, #40]
 2782              	.LVL377:
 2783              		.loc 1 1488 0 discriminator 2
 2784 0010 2278     		ldrb	r2, [r4]	@ zero_extendqisi2
 2785 0012 042A     		cmp	r2, #4
 2786 0014 0CBF     		ite	eq
 2787 0016 4FF08052 		moveq	r2, #268435456
 2788 001a 4FF40012 		movne	r2, #2097152
 2789              		.loc 1 1487 0 discriminator 2
 2790 001e 01F12008 		add	r8, r1, #32
 2791              		.loc 1 1488 0 discriminator 2
 2792 0022 4245     		cmp	r2, r8
 2793 0024 0ED9     		bls	.L304
ARM GAS  C:\cygwin64\tmp\cc6eY66b.s 			page 50


 2794              		.loc 1 1490 0
 2795 0026 C8F30809 		ubfx	r9, r8, #0, #9
 2796 002a B9F1000F 		cmp	r9, #0
 2797 002e 52D1     		bne	.L291
 2798              		.loc 1 1493 0
 2799 0030 C16A     		ldr	r1, [r0, #44]
 2800              		.loc 1 1491 0
 2801 0032 0133     		adds	r3, r3, #1
 2802 0034 0363     		str	r3, [r0, #48]
 2803              		.loc 1 1493 0
 2804 0036 41B9     		cbnz	r1, .L292
 2805              		.loc 1 1494 0
 2806 0038 2389     		ldrh	r3, [r4, #8]
 2807 003a B3EB581F 		cmp	r3, r8, lsr #5
 2808 003e 4AD8     		bhi	.L291
 2809              	.LVL378:
 2810              	.L297:
 2811              		.loc 1 1495 0
 2812 0040 0023     		movs	r3, #0
 2813 0042 2B63     		str	r3, [r5, #48]
 2814              	.L304:
 2815              		.loc 1 1488 0
 2816 0044 0420     		movs	r0, #4
 2817 0046 BDE8F087 		pop	{r4, r5, r6, r7, r8, r9, r10, pc}
 2818              	.LVL379:
 2819              	.L292:
 2820              		.loc 1 1499 0
 2821 004a 6389     		ldrh	r3, [r4, #10]
 2822 004c 013B     		subs	r3, r3, #1
 2823 004e 13EA5823 		ands	r3, r3, r8, lsr #9
 2824 0052 40D1     		bne	.L291
 2825              		.loc 1 1500 0
 2826 0054 FFF7FEFF 		bl	get_fat
 2827              	.LVL380:
 2828              		.loc 1 1501 0
 2829 0058 0128     		cmp	r0, #1
 2830              		.loc 1 1500 0
 2831 005a 0646     		mov	r6, r0
 2832              	.LVL381:
 2833              		.loc 1 1501 0
 2834 005c 02D8     		bhi	.L294
 2835              	.L298:
 2836 005e 0220     		movs	r0, #2
 2837              	.LVL382:
 2838 0060 BDE8F087 		pop	{r4, r5, r6, r7, r8, r9, r10, pc}
 2839              	.LVL383:
 2840              	.L294:
 2841              		.loc 1 1502 0
 2842 0064 421C     		adds	r2, r0, #1
 2843 0066 02D1     		bne	.L295
 2844              	.LVL384:
 2845              	.L299:
 2846 0068 0120     		movs	r0, #1
 2847 006a BDE8F087 		pop	{r4, r5, r6, r7, r8, r9, r10, pc}
 2848              	.LVL385:
 2849              	.L295:
 2850              		.loc 1 1503 0
ARM GAS  C:\cygwin64\tmp\cc6eY66b.s 			page 51


 2851 006e 236B     		ldr	r3, [r4, #48]
 2852 0070 9842     		cmp	r0, r3
 2853 0072 2AD3     		bcc	.L296
 2854              		.loc 1 1505 0
 2855 0074 002F     		cmp	r7, #0
 2856 0076 E3D0     		beq	.L297
 2857              		.loc 1 1508 0
 2858 0078 E96A     		ldr	r1, [r5, #44]
 2859 007a 2846     		mov	r0, r5
 2860              	.LVL386:
 2861 007c FFF7FEFF 		bl	create_chain
 2862              	.LVL387:
 2863              		.loc 1 1509 0
 2864 0080 0646     		mov	r6, r0
 2865 0082 0028     		cmp	r0, #0
 2866 0084 3BD0     		beq	.L305
 2867              		.loc 1 1510 0
 2868 0086 0128     		cmp	r0, #1
 2869 0088 E9D0     		beq	.L298
 2870              		.loc 1 1511 0
 2871 008a 431C     		adds	r3, r0, #1
 2872 008c ECD0     		beq	.L299
 2873              		.loc 1 1513 0 discriminator 1
 2874 008e EB79     		ldrb	r3, [r5, #7]	@ zero_extendqisi2
 2875 0090 43F00403 		orr	r3, r3, #4
 2876 0094 EB71     		strb	r3, [r5, #7]
 2877              		.loc 1 1514 0 discriminator 1
 2878 0096 2046     		mov	r0, r4
 2879              	.LVL388:
 2880 0098 FFF7FEFF 		bl	sync_window
 2881              	.LVL389:
 2882 009c 0746     		mov	r7, r0
 2883              	.LVL390:
 2884 009e 0028     		cmp	r0, #0
 2885 00a0 E2D1     		bne	.L299
 2886              		.loc 1 1515 0
 2887 00a2 0146     		mov	r1, r0
 2888 00a4 4FF40072 		mov	r2, #512
 2889 00a8 04F14C00 		add	r0, r4, #76
 2890 00ac FFF7FEFF 		bl	mem_set
 2891              	.LVL391:
 2892              		.loc 1 1516 0
 2893 00b0 3146     		mov	r1, r6
 2894 00b2 2046     		mov	r0, r4
 2895 00b4 FFF7FEFF 		bl	clust2sect
 2896              	.LVL392:
 2897              		.loc 1 1517 0
 2898 00b8 4FF0010A 		mov	r10, #1
 2899              		.loc 1 1516 0
 2900 00bc A064     		str	r0, [r4, #72]
 2901              	.LVL393:
 2902              	.L300:
 2903              		.loc 1 1516 0 is_stmt 0 discriminator 1
 2904 00be 6389     		ldrh	r3, [r4, #10]
 2905 00c0 9F42     		cmp	r7, r3
 2906 00c2 10D3     		bcc	.L301
 2907              		.loc 1 1520 0 is_stmt 1
ARM GAS  C:\cygwin64\tmp\cc6eY66b.s 			page 52


 2908 00c4 A36C     		ldr	r3, [r4, #72]
 2909 00c6 DF1B     		subs	r7, r3, r7
 2910              	.LVL394:
 2911 00c8 A764     		str	r7, [r4, #72]
 2912              	.L296:
 2913              		.loc 1 1526 0
 2914 00ca EE62     		str	r6, [r5, #44]
 2915              		.loc 1 1527 0
 2916 00cc 3146     		mov	r1, r6
 2917 00ce 2046     		mov	r0, r4
 2918 00d0 FFF7FEFF 		bl	clust2sect
 2919              	.LVL395:
 2920 00d4 2863     		str	r0, [r5, #48]
 2921              	.LVL396:
 2922              	.L291:
 2923              		.loc 1 1532 0
 2924 00d6 4C34     		adds	r4, r4, #76
 2925 00d8 4C44     		add	r4, r4, r9
 2926              		.loc 1 1531 0
 2927 00da C5F82880 		str	r8, [r5, #40]
 2928              		.loc 1 1532 0
 2929 00de 6C63     		str	r4, [r5, #52]
 2930              		.loc 1 1534 0
 2931 00e0 0020     		movs	r0, #0
 2932 00e2 BDE8F087 		pop	{r4, r5, r6, r7, r8, r9, r10, pc}
 2933              	.LVL397:
 2934              	.L301:
 2935              		.loc 1 1517 0
 2936 00e6 84F803A0 		strb	r10, [r4, #3]
 2937              	.LVL398:
 2938              	.LBB225:
 2939              	.LBB226:
 2940 00ea 2046     		mov	r0, r4
 2941 00ec FFF7FEFF 		bl	sync_window.part.5
 2942              	.LVL399:
 2943              	.LBE226:
 2944              	.LBE225:
 2945              		.loc 1 1518 0
 2946 00f0 0028     		cmp	r0, #0
 2947 00f2 B9D1     		bne	.L299
 2948              		.loc 1 1516 0 discriminator 2
 2949 00f4 A36C     		ldr	r3, [r4, #72]
 2950 00f6 0133     		adds	r3, r3, #1
 2951 00f8 0137     		adds	r7, r7, #1
 2952              	.LVL400:
 2953 00fa A364     		str	r3, [r4, #72]
 2954 00fc DFE7     		b	.L300
 2955              	.LVL401:
 2956              	.L305:
 2957              		.loc 1 1509 0
 2958 00fe 0720     		movs	r0, #7
 2959              	.LVL402:
 2960              		.loc 1 1535 0
 2961 0100 BDE8F087 		pop	{r4, r5, r6, r7, r8, r9, r10, pc}
 2962              		.cfi_endproc
 2963              	.LFE270:
 2964              		.size	dir_next, .-dir_next
ARM GAS  C:\cygwin64\tmp\cc6eY66b.s 			page 53


 2965              		.section	.text.load_xdir,"ax",%progbits
 2966              		.align	1
 2967              		.syntax unified
 2968              		.thumb
 2969              		.thumb_func
 2970              		.fpu fpv4-sp-d16
 2971              		.type	load_xdir, %function
 2972              	load_xdir:
 2973              	.LFB282:
 2974              		.loc 1 1940 0
 2975              		.cfi_startproc
 2976              		@ args = 0, pretend = 0, frame = 0
 2977              		@ frame_needed = 0, uses_anonymous_args = 0
 2978              	.LVL403:
 2979 0000 2DE9F041 		push	{r4, r5, r6, r7, r8, lr}
 2980              		.cfi_def_cfa_offset 24
 2981              		.cfi_offset 4, -24
 2982              		.cfi_offset 5, -20
 2983              		.cfi_offset 6, -16
 2984              		.cfi_offset 7, -12
 2985              		.cfi_offset 8, -8
 2986              		.cfi_offset 14, -4
 2987              		.loc 1 1940 0
 2988 0004 0546     		mov	r5, r0
 2989              		.loc 1 1943 0
 2990 0006 0068     		ldr	r0, [r0]
 2991              	.LVL404:
 2992              		.loc 1 1947 0
 2993 0008 296B     		ldr	r1, [r5, #48]
 2994              		.loc 1 1943 0
 2995 000a 0669     		ldr	r6, [r0, #16]
 2996              	.LVL405:
 2997              		.loc 1 1947 0
 2998 000c FFF7FEFF 		bl	move_window
 2999              	.LVL406:
 3000              		.loc 1 1948 0
 3001 0010 0446     		mov	r4, r0
 3002 0012 20B9     		cbnz	r0, .L316
 3003              		.loc 1 1949 0
 3004 0014 696B     		ldr	r1, [r5, #52]
 3005 0016 0B78     		ldrb	r3, [r1]	@ zero_extendqisi2
 3006 0018 852B     		cmp	r3, #133
 3007 001a 03D0     		beq	.L317
 3008              	.LVL407:
 3009              	.L318:
 3010 001c 0224     		movs	r4, #2
 3011              	.L316:
 3012              		.loc 1 1978 0
 3013 001e 2046     		mov	r0, r4
 3014 0020 BDE8F081 		pop	{r4, r5, r6, r7, r8, pc}
 3015              	.LVL408:
 3016              	.L317:
 3017              	.LBB227:
 3018              	.LBB228:
 3019 0024 2022     		movs	r2, #32
 3020 0026 3046     		mov	r0, r6
 3021              	.LVL409:
ARM GAS  C:\cygwin64\tmp\cc6eY66b.s 			page 54


 3022 0028 FFF7FEFF 		bl	mem_cpy.part.0
 3023              	.LVL410:
 3024              	.LBE228:
 3025              	.LBE227:
 3026              		.loc 1 1954 0
 3027 002c 2146     		mov	r1, r4
 3028 002e 2846     		mov	r0, r5
 3029              		.loc 1 1951 0
 3030 0030 7778     		ldrb	r7, [r6, #1]	@ zero_extendqisi2
 3031              	.LVL411:
 3032              		.loc 1 1954 0
 3033 0032 FFF7FEFF 		bl	dir_next
 3034              	.LVL412:
 3035              		.loc 1 1955 0
 3036 0036 0446     		mov	r4, r0
 3037 0038 0028     		cmp	r0, #0
 3038 003a F0D1     		bne	.L316
 3039              		.loc 1 1956 0
 3040 003c 296B     		ldr	r1, [r5, #48]
 3041 003e 2868     		ldr	r0, [r5]
 3042              	.LVL413:
 3043 0040 FFF7FEFF 		bl	move_window
 3044              	.LVL414:
 3045              		.loc 1 1957 0
 3046 0044 0446     		mov	r4, r0
 3047 0046 0028     		cmp	r0, #0
 3048 0048 E9D1     		bne	.L316
 3049              		.loc 1 1958 0
 3050 004a 696B     		ldr	r1, [r5, #52]
 3051 004c 0B78     		ldrb	r3, [r1]	@ zero_extendqisi2
 3052 004e C02B     		cmp	r3, #192
 3053 0050 E4D1     		bne	.L318
 3054              	.LBB229:
 3055              	.LBB230:
 3056 0052 2022     		movs	r2, #32
 3057              	.LBE230:
 3058              	.LBE229:
 3059              		.loc 1 1951 0
 3060 0054 07F10108 		add	r8, r7, #1
 3061              	.LVL415:
 3062              	.LBB233:
 3063              	.LBB231:
 3064 0058 B018     		adds	r0, r6, r2
 3065              	.LVL416:
 3066              	.LBE231:
 3067              	.LBE233:
 3068              		.loc 1 1962 0
 3069 005a 023F     		subs	r7, r7, #2
 3070              	.LVL417:
 3071              	.LBB234:
 3072              	.LBB232:
 3073 005c FFF7FEFF 		bl	mem_cpy.part.0
 3074              	.LVL418:
 3075              	.LBE232:
 3076              	.LBE234:
 3077 0060 102F     		cmp	r7, #16
 3078 0062 25D8     		bhi	.L320
ARM GAS  C:\cygwin64\tmp\cc6eY66b.s 			page 55


 3079              	.LVL419:
 3080              		.loc 1 1963 0
 3081 0064 4FEA4818 		lsl	r8, r8, #5
 3082              	.LVL420:
 3083 0068 4027     		movs	r7, #64
 3084              	.LVL421:
 3085              	.L319:
 3086              		.loc 1 1965 0
 3087 006a 0021     		movs	r1, #0
 3088 006c 2846     		mov	r0, r5
 3089 006e FFF7FEFF 		bl	dir_next
 3090              	.LVL422:
 3091              		.loc 1 1966 0
 3092 0072 0446     		mov	r4, r0
 3093 0074 0028     		cmp	r0, #0
 3094 0076 D2D1     		bne	.L316
 3095              		.loc 1 1967 0
 3096 0078 296B     		ldr	r1, [r5, #48]
 3097 007a 2868     		ldr	r0, [r5]
 3098              	.LVL423:
 3099 007c FFF7FEFF 		bl	move_window
 3100              	.LVL424:
 3101              		.loc 1 1968 0
 3102 0080 0446     		mov	r4, r0
 3103 0082 0028     		cmp	r0, #0
 3104 0084 CBD1     		bne	.L316
 3105              		.loc 1 1969 0
 3106 0086 696B     		ldr	r1, [r5, #52]
 3107 0088 0B78     		ldrb	r3, [r1]	@ zero_extendqisi2
 3108 008a C12B     		cmp	r3, #193
 3109 008c C6D1     		bne	.L318
 3110              	.LVL425:
 3111              	.LBB235:
 3112              	.LBB236:
 3113 008e F019     		adds	r0, r6, r7
 3114              	.LVL426:
 3115 0090 2022     		movs	r2, #32
 3116              	.LBE236:
 3117              	.LBE235:
 3118              		.loc 1 1971 0
 3119 0092 2037     		adds	r7, r7, #32
 3120              	.LVL427:
 3121              	.LBB238:
 3122              	.LBB237:
 3123 0094 FFF7FEFF 		bl	mem_cpy.part.0
 3124              	.LVL428:
 3125              	.LBE237:
 3126              	.LBE238:
 3127              		.loc 1 1972 0
 3128 0098 B845     		cmp	r8, r7
 3129 009a E6D8     		bhi	.L319
 3130              		.loc 1 1975 0
 3131 009c 3046     		mov	r0, r6
 3132 009e FFF7FEFF 		bl	xdir_sum
 3133              	.LVL429:
 3134              	.LBB239:
 3135              	.LBB240:
ARM GAS  C:\cygwin64\tmp\cc6eY66b.s 			page 56


 3136              		.loc 1 607 0
 3137 00a2 F278     		ldrb	r2, [r6, #3]	@ zero_extendqisi2
 3138 00a4 B378     		ldrb	r3, [r6, #2]	@ zero_extendqisi2
 3139              	.LBE240:
 3140              	.LBE239:
 3141              		.loc 1 1975 0
 3142 00a6 43EA0223 		orr	r3, r3, r2, lsl #8
 3143 00aa 9842     		cmp	r0, r3
 3144 00ac B6D1     		bne	.L318
 3145 00ae B6E7     		b	.L316
 3146              	.LVL430:
 3147              	.L320:
 3148              		.loc 1 1962 0
 3149 00b0 0424     		movs	r4, #4
 3150 00b2 B4E7     		b	.L316
 3151              		.cfi_endproc
 3152              	.LFE282:
 3153              		.size	load_xdir, .-load_xdir
 3154              		.section	.text.load_obj_dir,"ax",%progbits
 3155              		.align	1
 3156              		.syntax unified
 3157              		.thumb
 3158              		.thumb_func
 3159              		.fpu fpv4-sp-d16
 3160              		.type	load_obj_dir, %function
 3161              	load_obj_dir:
 3162              	.LFB283:
 3163              		.loc 1 1990 0
 3164              		.cfi_startproc
 3165              		@ args = 0, pretend = 0, frame = 0
 3166              		@ frame_needed = 0, uses_anonymous_args = 0
 3167              	.LVL431:
 3168              		.loc 1 1995 0
 3169 0000 0B68     		ldr	r3, [r1]
 3170              		.loc 1 1990 0
 3171 0002 10B5     		push	{r4, lr}
 3172              		.cfi_def_cfa_offset 8
 3173              		.cfi_offset 4, -8
 3174              		.cfi_offset 14, -4
 3175              		.loc 1 1995 0
 3176 0004 0360     		str	r3, [r0]
 3177              		.loc 1 1996 0
 3178 0006 CB69     		ldr	r3, [r1, #28]
 3179 0008 8360     		str	r3, [r0, #8]
 3180              		.loc 1 1997 0
 3181 000a 0B6A     		ldr	r3, [r1, #32]
 3182 000c C371     		strb	r3, [r0, #7]
 3183              		.loc 1 1998 0
 3184 000e 23F0FF03 		bic	r3, r3, #255
 3185 0012 0361     		str	r3, [r0, #16]
 3186              		.loc 1 1999 0
 3187 0014 496A     		ldr	r1, [r1, #36]
 3188              	.LVL432:
 3189 0016 4164     		str	r1, [r0, #68]
 3190              		.loc 1 1998 0
 3191 0018 0023     		movs	r3, #0
 3192 001a 4361     		str	r3, [r0, #20]
ARM GAS  C:\cygwin64\tmp\cc6eY66b.s 			page 57


 3193              		.loc 1 1990 0
 3194 001c 0446     		mov	r4, r0
 3195              		.loc 1 2001 0
 3196 001e FFF7FEFF 		bl	dir_sdi
 3197              	.LVL433:
 3198              		.loc 1 2002 0
 3199 0022 20B9     		cbnz	r0, .L323
 3200              		.loc 1 2003 0
 3201 0024 2046     		mov	r0, r4
 3202              	.LVL434:
 3203              		.loc 1 2006 0
 3204 0026 BDE81040 		pop	{r4, lr}
 3205              		.cfi_remember_state
 3206              		.cfi_restore 14
 3207              		.cfi_restore 4
 3208              		.cfi_def_cfa_offset 0
 3209              	.LVL435:
 3210              		.loc 1 2003 0
 3211 002a FFF7FEBF 		b	load_xdir
 3212              	.LVL436:
 3213              	.L323:
 3214              		.cfi_restore_state
 3215              		.loc 1 2006 0
 3216 002e 10BD     		pop	{r4, pc}
 3217              		.cfi_endproc
 3218              	.LFE283:
 3219              		.size	load_obj_dir, .-load_obj_dir
 3220              		.section	.text.dir_alloc,"ax",%progbits
 3221              		.align	1
 3222              		.syntax unified
 3223              		.thumb
 3224              		.thumb_func
 3225              		.fpu fpv4-sp-d16
 3226              		.type	dir_alloc, %function
 3227              	dir_alloc:
 3228              	.LFB271:
 3229              		.loc 1 1550 0
 3230              		.cfi_startproc
 3231              		@ args = 0, pretend = 0, frame = 0
 3232              		@ frame_needed = 0, uses_anonymous_args = 0
 3233              	.LVL437:
 3234 0000 F8B5     		push	{r3, r4, r5, r6, r7, lr}
 3235              		.cfi_def_cfa_offset 24
 3236              		.cfi_offset 3, -24
 3237              		.cfi_offset 4, -20
 3238              		.cfi_offset 5, -16
 3239              		.cfi_offset 6, -12
 3240              		.cfi_offset 7, -8
 3241              		.cfi_offset 14, -4
 3242              		.loc 1 1550 0
 3243 0002 0E46     		mov	r6, r1
 3244              		.loc 1 1556 0
 3245 0004 0021     		movs	r1, #0
 3246              	.LVL438:
 3247              		.loc 1 1550 0
 3248 0006 0446     		mov	r4, r0
 3249              		.loc 1 1553 0
ARM GAS  C:\cygwin64\tmp\cc6eY66b.s 			page 58


 3250 0008 0568     		ldr	r5, [r0]
 3251              	.LVL439:
 3252              		.loc 1 1556 0
 3253 000a FFF7FEFF 		bl	dir_sdi
 3254              	.LVL440:
 3255              		.loc 1 1557 0
 3256 000e F8B9     		cbnz	r0, .L325
 3257 0010 0746     		mov	r7, r0
 3258              	.L331:
 3259              	.LVL441:
 3260              		.loc 1 1560 0
 3261 0012 216B     		ldr	r1, [r4, #48]
 3262 0014 2846     		mov	r0, r5
 3263              	.LVL442:
 3264 0016 FFF7FEFF 		bl	move_window
 3265              	.LVL443:
 3266              		.loc 1 1561 0
 3267 001a C8B9     		cbnz	r0, .L325
 3268              		.loc 1 1563 0
 3269 001c 2B78     		ldrb	r3, [r5]	@ zero_extendqisi2
 3270 001e 042B     		cmp	r3, #4
 3271 0020 636B     		ldr	r3, [r4, #52]
 3272 0022 1B78     		ldrb	r3, [r3]	@ zero_extendqisi2
 3273 0024 07D1     		bne	.L326
 3274              		.loc 1 1563 0 is_stmt 0 discriminator 1
 3275 0026 DB43     		mvns	r3, r3
 3276 0028 C3F3C013 		ubfx	r3, r3, #7, #1
 3277              	.L327:
 3278              		.loc 1 1563 0 discriminator 10
 3279 002c 4BB1     		cbz	r3, .L332
 3280              	.L328:
 3281              		.loc 1 1567 0 is_stmt 1
 3282 002e 0137     		adds	r7, r7, #1
 3283              	.LVL444:
 3284 0030 B742     		cmp	r7, r6
 3285 0032 07D1     		bne	.L329
 3286 0034 F8BD     		pop	{r3, r4, r5, r6, r7, pc}
 3287              	.LVL445:
 3288              	.L326:
 3289              		.loc 1 1563 0 discriminator 2
 3290 0036 E52B     		cmp	r3, #229
 3291 0038 F9D0     		beq	.L328
 3292              		.loc 1 1563 0 is_stmt 0 discriminator 5
 3293 003a B3FA83F3 		clz	r3, r3
 3294 003e 5B09     		lsrs	r3, r3, #5
 3295 0040 F4E7     		b	.L327
 3296              	.L332:
 3297              		.loc 1 1569 0 is_stmt 1
 3298 0042 1F46     		mov	r7, r3
 3299              	.LVL446:
 3300              	.L329:
 3301              		.loc 1 1571 0
 3302 0044 0121     		movs	r1, #1
 3303 0046 2046     		mov	r0, r4
 3304              	.LVL447:
 3305 0048 FFF7FEFF 		bl	dir_next
 3306              	.LVL448:
ARM GAS  C:\cygwin64\tmp\cc6eY66b.s 			page 59


 3307              		.loc 1 1572 0
 3308 004c 0028     		cmp	r0, #0
 3309 004e E0D0     		beq	.L331
 3310              	.LVL449:
 3311              	.L325:
 3312              		.loc 1 1575 0
 3313 0050 0428     		cmp	r0, #4
 3314 0052 08BF     		it	eq
 3315 0054 0720     		moveq	r0, #7
 3316              	.LVL450:
 3317              		.loc 1 1577 0
 3318 0056 F8BD     		pop	{r3, r4, r5, r6, r7, pc}
 3319              		.cfi_endproc
 3320              	.LFE271:
 3321              		.size	dir_alloc, .-dir_alloc
 3322              		.section	.text.store_xdir,"ax",%progbits
 3323              		.align	1
 3324              		.syntax unified
 3325              		.thumb
 3326              		.thumb_func
 3327              		.fpu fpv4-sp-d16
 3328              		.type	store_xdir, %function
 3329              	store_xdir:
 3330              	.LFB284:
 3331              		.loc 1 2018 0
 3332              		.cfi_startproc
 3333              		@ args = 0, pretend = 0, frame = 0
 3334              		@ frame_needed = 0, uses_anonymous_args = 0
 3335              	.LVL451:
 3336              		.loc 1 2021 0
 3337 0000 0368     		ldr	r3, [r0]
 3338              		.loc 1 2018 0
 3339 0002 2DE9F041 		push	{r4, r5, r6, r7, r8, lr}
 3340              		.cfi_def_cfa_offset 24
 3341              		.cfi_offset 4, -24
 3342              		.cfi_offset 5, -20
 3343              		.cfi_offset 6, -16
 3344              		.cfi_offset 7, -12
 3345              		.cfi_offset 8, -8
 3346              		.cfi_offset 14, -4
 3347              		.loc 1 2021 0
 3348 0006 1E69     		ldr	r6, [r3, #16]
 3349              	.LVL452:
 3350              		.loc 1 2018 0
 3351 0008 0546     		mov	r5, r0
 3352              		.loc 1 2024 0
 3353 000a 3046     		mov	r0, r6
 3354              	.LVL453:
 3355 000c FFF7FEFF 		bl	xdir_sum
 3356              	.LVL454:
 3357              	.LBB241:
 3358              	.LBB242:
 3359              		.loc 1 645 0
 3360 0010 B070     		strb	r0, [r6, #2]
 3361              	.LVL455:
 3362 0012 000A     		lsrs	r0, r0, #8
 3363              	.LVL456:
ARM GAS  C:\cygwin64\tmp\cc6eY66b.s 			page 60


 3364              		.loc 1 646 0
 3365 0014 F070     		strb	r0, [r6, #3]
 3366              	.LVL457:
 3367              	.LBE242:
 3368              	.LBE241:
 3369              		.loc 1 2028 0
 3370 0016 696C     		ldr	r1, [r5, #68]
 3371              		.loc 1 2025 0
 3372 0018 7778     		ldrb	r7, [r6, #1]	@ zero_extendqisi2
 3373              	.LVL458:
 3374              		.loc 1 2028 0
 3375 001a 2846     		mov	r0, r5
 3376 001c FFF7FEFF 		bl	dir_sdi
 3377              	.LVL459:
 3378              		.loc 1 2033 0
 3379 0020 4FF00108 		mov	r8, #1
 3380              		.loc 1 2028 0
 3381 0024 0446     		mov	r4, r0
 3382              	.LVL460:
 3383              	.L339:
 3384              		.loc 1 2029 0
 3385 0026 2CB1     		cbz	r4, .L341
 3386              	.LVL461:
 3387              	.L340:
 3388              		.loc 1 2038 0
 3389 0028 022C     		cmp	r4, #2
 3390 002a 28BF     		it	cs
 3391 002c 0224     		movcs	r4, #2
 3392              	.LVL462:
 3393              		.loc 1 2039 0
 3394 002e E0B2     		uxtb	r0, r4
 3395 0030 BDE8F081 		pop	{r4, r5, r6, r7, r8, pc}
 3396              	.LVL463:
 3397              	.L341:
 3398              		.loc 1 2030 0
 3399 0034 296B     		ldr	r1, [r5, #48]
 3400 0036 2868     		ldr	r0, [r5]
 3401 0038 FFF7FEFF 		bl	move_window
 3402              	.LVL464:
 3403              		.loc 1 2031 0
 3404 003c 0446     		mov	r4, r0
 3405 003e 0028     		cmp	r0, #0
 3406 0040 F2D1     		bne	.L340
 3407              	.LVL465:
 3408              	.LBB243:
 3409              	.LBB244:
 3410 0042 2022     		movs	r2, #32
 3411 0044 3146     		mov	r1, r6
 3412 0046 686B     		ldr	r0, [r5, #52]
 3413              	.LVL466:
 3414 0048 FFF7FEFF 		bl	mem_cpy.part.0
 3415              	.LVL467:
 3416              	.LBE244:
 3417              	.LBE243:
 3418              		.loc 1 2033 0
 3419 004c 2B68     		ldr	r3, [r5]
 3420 004e 83F80380 		strb	r8, [r3, #3]
ARM GAS  C:\cygwin64\tmp\cc6eY66b.s 			page 61


 3421              	.LVL468:
 3422              		.loc 1 2034 0
 3423 0052 002F     		cmp	r7, #0
 3424 0054 E8D0     		beq	.L340
 3425              		.loc 1 2036 0
 3426 0056 2146     		mov	r1, r4
 3427 0058 2846     		mov	r0, r5
 3428 005a FFF7FEFF 		bl	dir_next
 3429              	.LVL469:
 3430              		.loc 1 2035 0
 3431 005e 2036     		adds	r6, r6, #32
 3432              	.LVL470:
 3433              		.loc 1 2036 0
 3434 0060 0446     		mov	r4, r0
 3435              	.LVL471:
 3436 0062 013F     		subs	r7, r7, #1
 3437              	.LVL472:
 3438 0064 DFE7     		b	.L339
 3439              		.cfi_endproc
 3440              	.LFE284:
 3441              		.size	store_xdir, .-store_xdir
 3442              		.section	.text.dir_remove,"ax",%progbits
 3443              		.align	1
 3444              		.syntax unified
 3445              		.thumb
 3446              		.thumb_func
 3447              		.fpu fpv4-sp-d16
 3448              		.type	dir_remove, %function
 3449              	dir_remove:
 3450              	.LFB289:
 3451              		.loc 1 2351 0
 3452              		.cfi_startproc
 3453              		@ args = 0, pretend = 0, frame = 0
 3454              		@ frame_needed = 0, uses_anonymous_args = 0
 3455              	.LVL473:
 3456              		.loc 1 2357 0
 3457 0000 416C     		ldr	r1, [r0, #68]
 3458 0002 4B1C     		adds	r3, r1, #1
 3459              		.loc 1 2351 0
 3460 0004 2DE9F041 		push	{r4, r5, r6, r7, r8, lr}
 3461              		.cfi_def_cfa_offset 24
 3462              		.cfi_offset 4, -24
 3463              		.cfi_offset 5, -20
 3464              		.cfi_offset 6, -16
 3465              		.cfi_offset 7, -12
 3466              		.cfi_offset 8, -8
 3467              		.cfi_offset 14, -4
 3468              		.loc 1 2351 0
 3469 0008 0446     		mov	r4, r0
 3470              		.loc 1 2353 0
 3471 000a 0568     		ldr	r5, [r0]
 3472              	.LVL474:
 3473              		.loc 1 2355 0
 3474 000c 866A     		ldr	r6, [r0, #40]
 3475              	.LVL475:
 3476              		.loc 1 2357 0
 3477 000e 1FD1     		bne	.L346
ARM GAS  C:\cygwin64\tmp\cc6eY66b.s 			page 62


 3478              	.LVL476:
 3479              	.L348:
 3480              		.loc 1 2366 0
 3481 0010 E527     		movs	r7, #229
 3482              		.loc 1 2368 0
 3483 0012 4FF00108 		mov	r8, #1
 3484              	.L347:
 3485              		.loc 1 2360 0
 3486 0016 216B     		ldr	r1, [r4, #48]
 3487 0018 2846     		mov	r0, r5
 3488 001a FFF7FEFF 		bl	move_window
 3489              	.LVL477:
 3490              		.loc 1 2361 0
 3491 001e 98B9     		cbnz	r0, .L350
 3492              		.loc 1 2363 0
 3493 0020 2B78     		ldrb	r3, [r5]	@ zero_extendqisi2
 3494 0022 042B     		cmp	r3, #4
 3495 0024 636B     		ldr	r3, [r4, #52]
 3496              		.loc 1 2364 0
 3497 0026 09BF     		itett	eq
 3498 0028 1A78     		ldrbeq	r2, [r3]	@ zero_extendqisi2
 3499              		.loc 1 2366 0
 3500 002a 1F70     		strbne	r7, [r3]
 3501              		.loc 1 2364 0
 3502 002c 02F07F02 		andeq	r2, r2, #127
 3503 0030 1A70     		strbeq	r2, [r3]
 3504              		.loc 1 2368 0
 3505 0032 85F80380 		strb	r8, [r5, #3]
 3506              		.loc 1 2369 0
 3507 0036 A36A     		ldr	r3, [r4, #40]
 3508 0038 9E42     		cmp	r6, r3
 3509 003a 0DD9     		bls	.L349
 3510              		.loc 1 2370 0
 3511 003c 0021     		movs	r1, #0
 3512 003e 2046     		mov	r0, r4
 3513              	.LVL478:
 3514 0040 FFF7FEFF 		bl	dir_next
 3515              	.LVL479:
 3516              		.loc 1 2371 0
 3517 0044 0028     		cmp	r0, #0
 3518 0046 E6D0     		beq	.L347
 3519              	.L350:
 3520              		.loc 1 2372 0
 3521 0048 0428     		cmp	r0, #4
 3522 004a 08BF     		it	eq
 3523 004c 0220     		moveq	r0, #2
 3524              	.LVL480:
 3525 004e 03E0     		b	.L349
 3526              	.LVL481:
 3527              	.L346:
 3528              		.loc 1 2357 0 discriminator 1
 3529 0050 FFF7FEFF 		bl	dir_sdi
 3530              	.LVL482:
 3531              		.loc 1 2358 0 discriminator 1
 3532 0054 0028     		cmp	r0, #0
 3533 0056 DBD0     		beq	.L348
 3534              	.LVL483:
ARM GAS  C:\cygwin64\tmp\cc6eY66b.s 			page 63


 3535              	.L349:
 3536              		.loc 1 2384 0
 3537 0058 BDE8F081 		pop	{r4, r5, r6, r7, r8, pc}
 3538              		.cfi_endproc
 3539              	.LFE289:
 3540              		.size	dir_remove, .-dir_remove
 3541              		.section	.text.dir_read.constprop.12,"ax",%progbits
 3542              		.align	1
 3543              		.syntax unified
 3544              		.thumb
 3545              		.thumb_func
 3546              		.fpu fpv4-sp-d16
 3547              		.type	dir_read.constprop.12, %function
 3548              	dir_read.constprop.12:
 3549              	.LFB330:
 3550              		.loc 1 2089 0
 3551              		.cfi_startproc
 3552              		@ args = 0, pretend = 0, frame = 0
 3553              		@ frame_needed = 0, uses_anonymous_args = 0
 3554              	.LVL484:
 3555 0000 2DE9F84F 		push	{r3, r4, r5, r6, r7, r8, r9, r10, fp, lr}
 3556              		.cfi_def_cfa_offset 40
 3557              		.cfi_offset 3, -40
 3558              		.cfi_offset 4, -36
 3559              		.cfi_offset 5, -32
 3560              		.cfi_offset 6, -28
 3561              		.cfi_offset 7, -24
 3562              		.cfi_offset 8, -20
 3563              		.cfi_offset 9, -16
 3564              		.cfi_offset 10, -12
 3565              		.cfi_offset 11, -8
 3566              		.cfi_offset 14, -4
 3567              		.loc 1 2098 0
 3568 0004 FF27     		movs	r7, #255
 3569              		.loc 1 2095 0
 3570 0006 0668     		ldr	r6, [r0]
 3571              	.LVL485:
 3572              	.LBB251:
 3573              	.LBB252:
 3574              		.loc 1 1684 0
 3575 0008 DFF83081 		ldr	r8, .L392
 3576              	.LBE252:
 3577              	.LBE251:
 3578              		.loc 1 2089 0
 3579 000c 0546     		mov	r5, r0
 3580              		.loc 1 2098 0
 3581 000e 3C46     		mov	r4, r7
 3582              		.loc 1 2094 0
 3583 0010 4FF0040A 		mov	r10, #4
 3584              	.LBB263:
 3585              	.LBB259:
 3586              		.loc 1 1689 0
 3587 0014 4FF6FF79 		movw	r9, #65535
 3588              	.LVL486:
 3589              	.L359:
 3590              	.LBE259:
 3591              	.LBE263:
ARM GAS  C:\cygwin64\tmp\cc6eY66b.s 			page 64


 3592              		.loc 1 2101 0
 3593 0018 296B     		ldr	r1, [r5, #48]
 3594 001a 21B9     		cbnz	r1, .L372
 3595              	.LVL487:
 3596              		.loc 1 2153 0
 3597 001c BAF1000F 		cmp	r10, #0
 3598 0020 00F08280 		beq	.L373
 3599 0024 75E0     		b	.L360
 3600              	.LVL488:
 3601              	.L372:
 3602              		.loc 1 2102 0
 3603 0026 3046     		mov	r0, r6
 3604 0028 FFF7FEFF 		bl	move_window
 3605              	.LVL489:
 3606              		.loc 1 2103 0
 3607 002c 8246     		mov	r10, r0
 3608 002e 0028     		cmp	r0, #0
 3609 0030 6FD1     		bne	.L360
 3610              		.loc 1 2104 0
 3611 0032 686B     		ldr	r0, [r5, #52]
 3612              	.LVL490:
 3613 0034 0378     		ldrb	r3, [r0]	@ zero_extendqisi2
 3614              	.LVL491:
 3615              		.loc 1 2105 0
 3616 0036 002B     		cmp	r3, #0
 3617 0038 7DD0     		beq	.L374
 3618              		.loc 1 2107 0
 3619 003a 3278     		ldrb	r2, [r6]	@ zero_extendqisi2
 3620 003c 042A     		cmp	r2, #4
 3621 003e 11D1     		bne	.L361
 3622              		.loc 1 2111 0
 3623 0040 852B     		cmp	r3, #133
 3624 0042 5FD1     		bne	.L362
 3625              		.loc 1 2112 0
 3626 0044 AB6A     		ldr	r3, [r5, #40]
 3627              	.LVL492:
 3628 0046 6B64     		str	r3, [r5, #68]
 3629              	.LVL493:
 3630              		.loc 1 2113 0
 3631 0048 2846     		mov	r0, r5
 3632 004a FFF7FEFF 		bl	load_xdir
 3633              	.LVL494:
 3634              		.loc 1 2114 0
 3635 004e 8246     		mov	r10, r0
 3636 0050 0028     		cmp	r0, #0
 3637 0052 5ED1     		bne	.L360
 3638              		.loc 1 2115 0
 3639 0054 3369     		ldr	r3, [r6, #16]
 3640 0056 1B79     		ldrb	r3, [r3, #4]	@ zero_extendqisi2
 3641 0058 03F03F03 		and	r3, r3, #63
 3642 005c AB71     		strb	r3, [r5, #6]
 3643              	.LVL495:
 3644              	.L391:
 3645              		.loc 1 2155 0
 3646 005e 5046     		mov	r0, r10
 3647 0060 BDE8F88F 		pop	{r3, r4, r5, r6, r7, r8, r9, r10, fp, pc}
 3648              	.LVL496:
ARM GAS  C:\cygwin64\tmp\cc6eY66b.s 			page 65


 3649              	.L361:
 3650              		.loc 1 2123 0
 3651 0064 C27A     		ldrb	r2, [r0, #11]	@ zero_extendqisi2
 3652              		.loc 1 2125 0
 3653 0066 E52B     		cmp	r3, #229
 3654              		.loc 1 2123 0
 3655 0068 02F03F02 		and	r2, r2, #63
 3656              	.LVL497:
 3657 006c AA71     		strb	r2, [r5, #6]
 3658              		.loc 1 2125 0
 3659 006e 48D0     		beq	.L383
 3660 0070 2E2B     		cmp	r3, #46
 3661 0072 46D0     		beq	.L383
 3662 0074 22F02001 		bic	r1, r2, #32
 3663 0078 0829     		cmp	r1, #8
 3664 007a 42D0     		beq	.L383
 3665              		.loc 1 2128 0
 3666 007c 0F2A     		cmp	r2, #15
 3667 007e 4ED1     		bne	.L364
 3668              		.loc 1 2129 0
 3669 0080 5A06     		lsls	r2, r3, #25
 3670              	.LVL498:
 3671 0082 3CD5     		bpl	.L365
 3672              		.loc 1 2131 0
 3673 0084 03F0BF04 		and	r4, r3, #191
 3674              	.LVL499:
 3675              		.loc 1 2132 0
 3676 0088 AB6A     		ldr	r3, [r5, #40]
 3677              	.LVL500:
 3678              		.loc 1 2130 0
 3679 008a 477B     		ldrb	r7, [r0, #13]	@ zero_extendqisi2
 3680              	.LVL501:
 3681              		.loc 1 2132 0
 3682 008c 6B64     		str	r3, [r5, #68]
 3683              	.LVL502:
 3684              	.L366:
 3685              		.loc 1 2135 0
 3686 008e 437B     		ldrb	r3, [r0, #13]	@ zero_extendqisi2
 3687 0090 BB42     		cmp	r3, r7
 3688 0092 36D1     		bne	.L383
 3689              	.LVL503:
 3690              	.LBB264:
 3691              	.LBB260:
 3692              	.LBB253:
 3693              	.LBB254:
 3694              		.loc 1 607 0
 3695 0094 C27E     		ldrb	r2, [r0, #27]	@ zero_extendqisi2
 3696 0096 837E     		ldrb	r3, [r0, #26]	@ zero_extendqisi2
 3697 0098 43EA0223 		orr	r3, r3, r2, lsl #8
 3698              	.LBE254:
 3699              	.LBE253:
 3700              		.loc 1 1679 0
 3701 009c 1BB2     		sxth	r3, r3
 3702 009e 83BB     		cbnz	r3, .L383
 3703              		.loc 1 1681 0
 3704 00a0 0278     		ldrb	r2, [r0]	@ zero_extendqisi2
 3705              	.LBE260:
ARM GAS  C:\cygwin64\tmp\cc6eY66b.s 			page 66


 3706              	.LBE264:
 3707              		.loc 1 2135 0
 3708 00a2 F168     		ldr	r1, [r6, #12]
 3709              	.LBB265:
 3710              	.LBB261:
 3711              		.loc 1 1681 0
 3712 00a4 02F03F02 		and	r2, r2, #63
 3713 00a8 013A     		subs	r2, r2, #1
 3714 00aa 4FF00D0E 		mov	lr, #13
 3715 00ae 0EFB02FE 		mul	lr, lr, r2
 3716              	.LVL504:
 3717              		.loc 1 1683 0
 3718 00b2 4FF0010C 		mov	ip, #1
 3719              	.LVL505:
 3720              	.L369:
 3721              		.loc 1 1684 0
 3722 00b6 13F808A0 		ldrb	r10, [r3, r8]	@ zero_extendqisi2
 3723 00ba 00EB0A02 		add	r2, r0, r10
 3724              	.LVL506:
 3725              	.LBB255:
 3726              	.LBB256:
 3727              		.loc 1 607 0
 3728 00be 92F801B0 		ldrb	fp, [r2, #1]	@ zero_extendqisi2
 3729 00c2 10F80A20 		ldrb	r2, [r0, r10]	@ zero_extendqisi2
 3730              	.LVL507:
 3731 00c6 42EA0B22 		orr	r2, r2, fp, lsl #8
 3732              	.LVL508:
 3733              	.LBE256:
 3734              	.LBE255:
 3735              		.loc 1 1685 0
 3736 00ca BCF1000F 		cmp	ip, #0
 3737 00ce 23D0     		beq	.L367
 3738              		.loc 1 1686 0
 3739 00d0 BEF1FE0F 		cmp	lr, #254
 3740 00d4 15D8     		bhi	.L383
 3741              	.LVL509:
 3742              		.loc 1 1687 0
 3743 00d6 21F81E20 		strh	r2, [r1, lr, lsl #1]	@ movhi
 3744              	.LBB258:
 3745              	.LBB257:
 3746              		.loc 1 607 0
 3747 00da 9446     		mov	ip, r2
 3748              	.LBE257:
 3749              	.LBE258:
 3750              		.loc 1 1687 0
 3751 00dc 0EF1010E 		add	lr, lr, #1
 3752              	.LVL510:
 3753              	.L368:
 3754              		.loc 1 1683 0
 3755 00e0 0133     		adds	r3, r3, #1
 3756              	.LVL511:
 3757 00e2 0D2B     		cmp	r3, #13
 3758 00e4 E7D1     		bne	.L369
 3759              		.loc 1 1693 0
 3760 00e6 0378     		ldrb	r3, [r0]	@ zero_extendqisi2
 3761              	.LVL512:
 3762 00e8 5B06     		lsls	r3, r3, #25
ARM GAS  C:\cygwin64\tmp\cc6eY66b.s 			page 67


 3763 00ea 05D5     		bpl	.L370
 3764              		.loc 1 1694 0
 3765 00ec BEF1FE0F 		cmp	lr, #254
 3766 00f0 07D8     		bhi	.L383
 3767              		.loc 1 1695 0
 3768 00f2 0023     		movs	r3, #0
 3769 00f4 21F81E30 		strh	r3, [r1, lr, lsl #1]	@ movhi
 3770              	.L370:
 3771              	.LVL513:
 3772              	.LBE261:
 3773              	.LBE265:
 3774              		.loc 1 2135 0
 3775 00f8 013C     		subs	r4, r4, #1
 3776              	.LVL514:
 3777 00fa E4B2     		uxtb	r4, r4
 3778 00fc 02E0     		b	.L362
 3779              	.LVL515:
 3780              	.L365:
 3781 00fe A342     		cmp	r3, r4
 3782 0100 C5D0     		beq	.L366
 3783              	.LVL516:
 3784              	.L383:
 3785 0102 FF24     		movs	r4, #255
 3786              	.LVL517:
 3787              	.L362:
 3788              		.loc 1 2149 0
 3789 0104 0021     		movs	r1, #0
 3790 0106 2846     		mov	r0, r5
 3791 0108 FFF7FEFF 		bl	dir_next
 3792              	.LVL518:
 3793              		.loc 1 2150 0
 3794 010c 8246     		mov	r10, r0
 3795 010e 0028     		cmp	r0, #0
 3796 0110 82D0     		beq	.L359
 3797              	.LVL519:
 3798              	.L360:
 3799              		.loc 1 2153 0
 3800 0112 0023     		movs	r3, #0
 3801 0114 2B63     		str	r3, [r5, #48]
 3802 0116 A2E7     		b	.L391
 3803              	.LVL520:
 3804              	.L367:
 3805              	.LBB266:
 3806              	.LBB262:
 3807              		.loc 1 1689 0
 3808 0118 4A45     		cmp	r2, r9
 3809 011a E1D0     		beq	.L368
 3810 011c F1E7     		b	.L383
 3811              	.LVL521:
 3812              	.L364:
 3813              	.LBE262:
 3814              	.LBE266:
 3815              		.loc 1 2137 0
 3816 011e 34B9     		cbnz	r4, .L371
 3817 0120 FFF7FEFF 		bl	sum_sfn
 3818              	.LVL522:
 3819 0124 B842     		cmp	r0, r7
ARM GAS  C:\cygwin64\tmp\cc6eY66b.s 			page 68


 3820 0126 02D1     		bne	.L371
 3821              	.L373:
 3822              		.loc 1 2105 0
 3823 0128 4FF0000A 		mov	r10, #0
 3824 012c 97E7     		b	.L391
 3825              	.L371:
 3826              		.loc 1 2138 0
 3827 012e 4FF0FF33 		mov	r3, #-1
 3828 0132 6B64     		str	r3, [r5, #68]
 3829 0134 93E7     		b	.L391
 3830              	.LVL523:
 3831              	.L374:
 3832              		.loc 1 2105 0
 3833 0136 4FF0040A 		mov	r10, #4
 3834 013a EAE7     		b	.L360
 3835              	.L393:
 3836              		.align	2
 3837              	.L392:
 3838 013c 00000000 		.word	.LANCHOR0
 3839              		.cfi_endproc
 3840              	.LFE330:
 3841              		.size	dir_read.constprop.12, .-dir_read.constprop.12
 3842              		.section	.text.dir_find,"ax",%progbits
 3843              		.align	1
 3844              		.syntax unified
 3845              		.thumb
 3846              		.thumb_func
 3847              		.fpu fpv4-sp-d16
 3848              		.type	dir_find, %function
 3849              	dir_find:
 3850              	.LFB287:
 3851              		.loc 1 2169 0
 3852              		.cfi_startproc
 3853              		@ args = 0, pretend = 0, frame = 16
 3854              		@ frame_needed = 0, uses_anonymous_args = 0
 3855              	.LVL524:
 3856 0000 2DE9F04F 		push	{r4, r5, r6, r7, r8, r9, r10, fp, lr}
 3857              		.cfi_def_cfa_offset 36
 3858              		.cfi_offset 4, -36
 3859              		.cfi_offset 5, -32
 3860              		.cfi_offset 6, -28
 3861              		.cfi_offset 7, -24
 3862              		.cfi_offset 8, -20
 3863              		.cfi_offset 9, -16
 3864              		.cfi_offset 10, -12
 3865              		.cfi_offset 11, -8
 3866              		.cfi_offset 14, -4
 3867              		.loc 1 2177 0
 3868 0004 0021     		movs	r1, #0
 3869              		.loc 1 2169 0
 3870 0006 85B0     		sub	sp, sp, #20
 3871              		.cfi_def_cfa_offset 56
 3872              		.loc 1 2169 0
 3873 0008 0546     		mov	r5, r0
 3874              		.loc 1 2171 0
 3875 000a D0F80080 		ldr	r8, [r0]
 3876              	.LVL525:
ARM GAS  C:\cygwin64\tmp\cc6eY66b.s 			page 69


 3877              		.loc 1 2177 0
 3878 000e FFF7FEFF 		bl	dir_sdi
 3879              	.LVL526:
 3880              		.loc 1 2178 0
 3881 0012 8246     		mov	r10, r0
 3882 0014 0028     		cmp	r0, #0
 3883 0016 40F0DC80 		bne	.L431
 3884              		.loc 1 2180 0
 3885 001a 98F80030 		ldrb	r3, [r8]	@ zero_extendqisi2
 3886 001e 042B     		cmp	r3, #4
 3887 0020 39D1     		bne	.L396
 3888              	.LBB280:
 3889              		.loc 1 2183 0
 3890 0022 D8F80C00 		ldr	r0, [r8, #12]
 3891              	.LVL527:
 3892 0026 FFF7FEFF 		bl	xname_sum
 3893              	.LVL528:
 3894 002a 0746     		mov	r7, r0
 3895              	.LVL529:
 3896              	.L398:
 3897              		.loc 1 2185 0
 3898 002c 2846     		mov	r0, r5
 3899 002e FFF7FEFF 		bl	dir_read.constprop.12
 3900              	.LVL530:
 3901 0032 08B1     		cbz	r0, .L404
 3902              	.LVL531:
 3903              	.L422:
 3904              	.LBE280:
 3905              		.loc 1 2201 0
 3906 0034 8246     		mov	r10, r0
 3907 0036 CCE0     		b	.L431
 3908              	.LVL532:
 3909              	.L404:
 3910              	.LBB285:
 3911              		.loc 1 2186 0
 3912 0038 D8F81030 		ldr	r3, [r8, #16]
 3913              	.LBB281:
 3914              	.LBB282:
 3915              		.loc 1 607 0
 3916 003c 93F82510 		ldrb	r1, [r3, #37]	@ zero_extendqisi2
 3917 0040 93F82420 		ldrb	r2, [r3, #36]	@ zero_extendqisi2
 3918              	.LBE282:
 3919              	.LBE281:
 3920              		.loc 1 2186 0
 3921 0044 42EA0122 		orr	r2, r2, r1, lsl #8
 3922 0048 9742     		cmp	r7, r2
 3923 004a EFD1     		bne	.L398
 3924              	.LVL533:
 3925 004c 93F82390 		ldrb	r9, [r3, #35]	@ zero_extendqisi2
 3926              		.loc 1 2187 0
 3927 0050 0446     		mov	r4, r0
 3928 0052 4026     		movs	r6, #64
 3929              	.LVL534:
 3930              	.L399:
 3931              		.loc 1 2187 0 is_stmt 0 discriminator 1
 3932 0054 4C45     		cmp	r4, r9
 3933 0056 06D1     		bne	.L402
ARM GAS  C:\cygwin64\tmp\cc6eY66b.s 			page 70


 3934              		.loc 1 2191 0 is_stmt 1
 3935 0058 D8F80C30 		ldr	r3, [r8, #12]
 3936 005c 33F81430 		ldrh	r3, [r3, r4, lsl #1]
 3937 0060 002B     		cmp	r3, #0
 3938 0062 E3D1     		bne	.L398
 3939 0064 B5E0     		b	.L431
 3940              	.L402:
 3941              		.loc 1 2188 0
 3942 0066 F106     		lsls	r1, r6, #27
 3943              		.loc 1 2189 0
 3944 0068 D8F81030 		ldr	r3, [r8, #16]
 3945              		.loc 1 2188 0
 3946 006c 08BF     		it	eq
 3947 006e 0236     		addeq	r6, r6, #2
 3948              	.LVL535:
 3949              		.loc 1 2189 0
 3950 0070 9A19     		adds	r2, r3, r6
 3951              	.LBB283:
 3952              	.LBB284:
 3953              		.loc 1 607 0
 3954 0072 9B5D     		ldrb	r3, [r3, r6]	@ zero_extendqisi2
 3955 0074 5078     		ldrb	r0, [r2, #1]	@ zero_extendqisi2
 3956              	.LBE284:
 3957              	.LBE283:
 3958              		.loc 1 2189 0
 3959 0076 43EA0020 		orr	r0, r3, r0, lsl #8
 3960 007a FFF7FEFF 		bl	ff_wtoupper
 3961              	.LVL536:
 3962 007e D8F80C30 		ldr	r3, [r8, #12]
 3963 0082 8346     		mov	fp, r0
 3964 0084 33F81400 		ldrh	r0, [r3, r4, lsl #1]
 3965 0088 FFF7FEFF 		bl	ff_wtoupper
 3966              	.LVL537:
 3967 008c 8345     		cmp	fp, r0
 3968 008e CDD1     		bne	.L398
 3969              	.LVL538:
 3970              		.loc 1 2187 0 discriminator 2
 3971 0090 0236     		adds	r6, r6, #2
 3972              	.LVL539:
 3973 0092 0134     		adds	r4, r4, #1
 3974              	.LVL540:
 3975 0094 DEE7     		b	.L399
 3976              	.LVL541:
 3977              	.L396:
 3978              	.LBE285:
 3979              		.loc 1 2198 0
 3980 0096 4FF0FF33 		mov	r3, #-1
 3981 009a 4FF0FF0B 		mov	fp, #255
 3982 009e 6B64     		str	r3, [r5, #68]
 3983 00a0 5E46     		mov	r6, fp
 3984              	.LVL542:
 3985              	.L421:
 3986              		.loc 1 2201 0
 3987 00a2 296B     		ldr	r1, [r5, #48]
 3988 00a4 4046     		mov	r0, r8
 3989              	.LVL543:
 3990 00a6 FFF7FEFF 		bl	move_window
ARM GAS  C:\cygwin64\tmp\cc6eY66b.s 			page 71


 3991              	.LVL544:
 3992              		.loc 1 2202 0
 3993 00aa 0028     		cmp	r0, #0
 3994 00ac C2D1     		bne	.L422
 3995              		.loc 1 2203 0
 3996 00ae 6C6B     		ldr	r4, [r5, #52]
 3997 00b0 2778     		ldrb	r7, [r4]	@ zero_extendqisi2
 3998              	.LVL545:
 3999              		.loc 1 2204 0
 4000 00b2 002F     		cmp	r7, #0
 4001 00b4 00F09380 		beq	.L423
 4002              		.loc 1 2206 0
 4003 00b8 E27A     		ldrb	r2, [r4, #11]	@ zero_extendqisi2
 4004              		.loc 1 2207 0
 4005 00ba E52F     		cmp	r7, #229
 4006              		.loc 1 2206 0
 4007 00bc 02F03F03 		and	r3, r2, #63
 4008              	.LVL546:
 4009 00c0 AB71     		strb	r3, [r5, #6]
 4010              		.loc 1 2207 0
 4011 00c2 03D0     		beq	.L417
 4012              		.loc 1 2207 0 is_stmt 0 discriminator 1
 4013 00c4 1207     		lsls	r2, r2, #28
 4014 00c6 05D5     		bpl	.L406
 4015              		.loc 1 2207 0 discriminator 2
 4016 00c8 0F2B     		cmp	r3, #15
 4017 00ca 05D0     		beq	.L407
 4018              	.LVL547:
 4019              	.L417:
 4020              		.loc 1 2223 0 is_stmt 1
 4021 00cc 4FF0FF33 		mov	r3, #-1
 4022 00d0 6B64     		str	r3, [r5, #68]
 4023 00d2 5AE0     		b	.L430
 4024              	.LVL548:
 4025              	.L406:
 4026              		.loc 1 2210 0
 4027 00d4 0F2B     		cmp	r3, #15
 4028 00d6 60D1     		bne	.L409
 4029              	.L407:
 4030              		.loc 1 2211 0
 4031 00d8 95F84330 		ldrb	r3, [r5, #67]	@ zero_extendqisi2
 4032              	.LVL549:
 4033 00dc 5806     		lsls	r0, r3, #25
 4034              	.LVL550:
 4035 00de 55D4     		bmi	.L408
 4036              		.loc 1 2212 0
 4037 00e0 7906     		lsls	r1, r7, #25
 4038 00e2 4AD5     		bpl	.L410
 4039              		.loc 1 2215 0
 4040 00e4 AB6A     		ldr	r3, [r5, #40]
 4041              		.loc 1 2213 0
 4042 00e6 627B     		ldrb	r2, [r4, #13]	@ zero_extendqisi2
 4043              	.LVL551:
 4044              		.loc 1 2215 0
 4045 00e8 6B64     		str	r3, [r5, #68]
 4046              		.loc 1 2214 0
 4047 00ea 07F0BF07 		and	r7, r7, #191
ARM GAS  C:\cygwin64\tmp\cc6eY66b.s 			page 72


 4048              	.LVL552:
 4049              	.L411:
 4050              		.loc 1 2218 0 discriminator 1
 4051 00ee 94F80DB0 		ldrb	fp, [r4, #13]	@ zero_extendqisi2
 4052 00f2 9345     		cmp	fp, r2
 4053 00f4 71D1     		bne	.L425
 4054              	.LVL553:
 4055              	.LBB286:
 4056              	.LBB287:
 4057              	.LBB288:
 4058              	.LBB289:
 4059              		.loc 1 607 0 discriminator 3
 4060 00f6 E37E     		ldrb	r3, [r4, #27]	@ zero_extendqisi2
 4061 00f8 A67E     		ldrb	r6, [r4, #26]	@ zero_extendqisi2
 4062 00fa 46EA0326 		orr	r6, r6, r3, lsl #8
 4063              	.LBE289:
 4064              	.LBE288:
 4065              		.loc 1 1643 0 discriminator 3
 4066 00fe 36B2     		sxth	r6, r6
 4067 0100 002E     		cmp	r6, #0
 4068 0102 42D1     		bne	.L430
 4069              		.loc 1 1645 0
 4070 0104 94F80090 		ldrb	r9, [r4]	@ zero_extendqisi2
 4071              	.LBE287:
 4072              	.LBE286:
 4073              		.loc 1 2218 0
 4074 0108 D8F80C30 		ldr	r3, [r8, #12]
 4075 010c 0093     		str	r3, [sp]
 4076              	.LBB298:
 4077              	.LBB296:
 4078              		.loc 1 1645 0
 4079 010e 09F03F09 		and	r9, r9, #63
 4080 0112 09F1FF33 		add	r3, r9, #-1
 4081 0116 4FF00D09 		mov	r9, #13
 4082 011a 09FB03F9 		mul	r9, r9, r3
 4083              	.LVL554:
 4084              		.loc 1 1647 0
 4085 011e 0121     		movs	r1, #1
 4086              	.LVL555:
 4087              	.L414:
 4088              		.loc 1 1648 0
 4089 0120 304B     		ldr	r3, .L458
 4090 0122 F25C     		ldrb	r2, [r6, r3]	@ zero_extendqisi2
 4091 0124 A318     		adds	r3, r4, r2
 4092              	.LVL556:
 4093              	.LBB290:
 4094              	.LBB291:
 4095              		.loc 1 607 0
 4096 0126 A25C     		ldrb	r2, [r4, r2]	@ zero_extendqisi2
 4097 0128 5B78     		ldrb	r3, [r3, #1]	@ zero_extendqisi2
 4098              	.LVL557:
 4099 012a 42EA0323 		orr	r3, r2, r3, lsl #8
 4100              	.LVL558:
 4101              	.LBE291:
 4102              	.LBE290:
 4103              		.loc 1 1649 0
 4104 012e 41B3     		cbz	r1, .L412
ARM GAS  C:\cygwin64\tmp\cc6eY66b.s 			page 73


 4105              		.loc 1 1650 0
 4106 0130 B9F1FE0F 		cmp	r9, #254
 4107 0134 29D8     		bhi	.L430
 4108 0136 1846     		mov	r0, r3
 4109 0138 0393     		str	r3, [sp, #12]
 4110 013a FFF7FEFF 		bl	ff_wtoupper
 4111              	.LVL559:
 4112 013e 009B     		ldr	r3, [sp]
 4113 0140 0290     		str	r0, [sp, #8]
 4114 0142 09F10102 		add	r2, r9, #1
 4115 0146 33F81900 		ldrh	r0, [r3, r9, lsl #1]
 4116 014a 0192     		str	r2, [sp, #4]
 4117              	.LVL560:
 4118 014c FFF7FEFF 		bl	ff_wtoupper
 4119              	.LVL561:
 4120 0150 0299     		ldr	r1, [sp, #8]
 4121 0152 8142     		cmp	r1, r0
 4122 0154 19D1     		bne	.L430
 4123              	.LVL562:
 4124              	.LBB294:
 4125              	.LBB292:
 4126              		.loc 1 607 0
 4127 0156 039B     		ldr	r3, [sp, #12]
 4128              	.LBE292:
 4129              	.LBE294:
 4130              		.loc 1 1650 0
 4131 0158 019A     		ldr	r2, [sp, #4]
 4132              	.LBB295:
 4133              	.LBB293:
 4134              		.loc 1 607 0
 4135 015a 1946     		mov	r1, r3
 4136              	.LBE293:
 4137              	.LBE295:
 4138              		.loc 1 1650 0
 4139 015c 9146     		mov	r9, r2
 4140              	.LVL563:
 4141              	.L413:
 4142              		.loc 1 1647 0
 4143 015e 0136     		adds	r6, r6, #1
 4144              	.LVL564:
 4145 0160 0D2E     		cmp	r6, #13
 4146 0162 DDD1     		bne	.L414
 4147              		.loc 1 1659 0
 4148 0164 2378     		ldrb	r3, [r4]	@ zero_extendqisi2
 4149 0166 5A06     		lsls	r2, r3, #25
 4150 0168 04D5     		bpl	.L415
 4151 016a 19B1     		cbz	r1, .L415
 4152 016c 009B     		ldr	r3, [sp]
 4153 016e 33F81930 		ldrh	r3, [r3, r9, lsl #1]
 4154 0172 53B9     		cbnz	r3, .L430
 4155              	.L415:
 4156              	.LVL565:
 4157              	.LBE296:
 4158              	.LBE298:
 4159              		.loc 1 2218 0
 4160 0174 013F     		subs	r7, r7, #1
 4161              	.LVL566:
ARM GAS  C:\cygwin64\tmp\cc6eY66b.s 			page 74


 4162 0176 FEB2     		uxtb	r6, r7
 4163 0178 08E0     		b	.L408
 4164              	.LVL567:
 4165              	.L410:
 4166 017a BE42     		cmp	r6, r7
 4167 017c 05D1     		bne	.L430
 4168 017e 5A46     		mov	r2, fp
 4169 0180 B5E7     		b	.L411
 4170              	.LVL568:
 4171              	.L412:
 4172              	.LBB299:
 4173              	.LBB297:
 4174              		.loc 1 1655 0
 4175 0182 4FF6FF72 		movw	r2, #65535
 4176 0186 9342     		cmp	r3, r2
 4177 0188 E9D0     		beq	.L413
 4178              	.LVL569:
 4179              	.L430:
 4180              	.LBE297:
 4181              	.LBE299:
 4182              		.loc 1 2218 0
 4183 018a FF26     		movs	r6, #255
 4184              	.L408:
 4185              	.LVL570:
 4186              		.loc 1 2230 0
 4187 018c 0021     		movs	r1, #0
 4188 018e 2846     		mov	r0, r5
 4189 0190 FFF7FEFF 		bl	dir_next
 4190              	.LVL571:
 4191              		.loc 1 2231 0
 4192 0194 0028     		cmp	r0, #0
 4193 0196 84D0     		beq	.L421
 4194 0198 4CE7     		b	.L422
 4195              	.LVL572:
 4196              	.L409:
 4197              		.loc 1 2221 0
 4198 019a 26B9     		cbnz	r6, .L416
 4199              		.loc 1 2221 0 is_stmt 0 discriminator 1
 4200 019c 2046     		mov	r0, r4
 4201              	.LVL573:
 4202 019e FFF7FEFF 		bl	sum_sfn
 4203              	.LVL574:
 4204 01a2 8345     		cmp	fp, r0
 4205 01a4 15D0     		beq	.L431
 4206              	.L416:
 4207              		.loc 1 2222 0 is_stmt 1
 4208 01a6 95F84330 		ldrb	r3, [r5, #67]	@ zero_extendqisi2
 4209 01aa DB07     		lsls	r3, r3, #31
 4210 01ac 8ED4     		bmi	.L417
 4211              	.LVL575:
 4212 01ae 04F10B01 		add	r1, r4, #11
 4213              	.LBB300:
 4214              	.LBB301:
 4215              		.loc 1 702 0 discriminator 1
 4216 01b2 05F13802 		add	r2, r5, #56
 4217              	.LVL576:
 4218              	.L419:
ARM GAS  C:\cygwin64\tmp\cc6eY66b.s 			page 75


 4219              		.loc 1 706 0
 4220 01b6 14F8013B 		ldrb	r3, [r4], #1	@ zero_extendqisi2
 4221              	.LVL577:
 4222 01ba 12F8010B 		ldrb	r0, [r2], #1	@ zero_extendqisi2
 4223              	.LVL578:
 4224              		.loc 1 707 0
 4225 01be 8C42     		cmp	r4, r1
 4226              		.loc 1 706 0
 4227 01c0 A3EB0003 		sub	r3, r3, r0
 4228              	.LVL579:
 4229              		.loc 1 707 0
 4230 01c4 02D0     		beq	.L418
 4231              	.LVL580:
 4232 01c6 002B     		cmp	r3, #0
 4233 01c8 F5D0     		beq	.L419
 4234 01ca 7FE7     		b	.L417
 4235              	.LVL581:
 4236              	.L418:
 4237              	.LBE301:
 4238              	.LBE300:
 4239              		.loc 1 2222 0
 4240 01cc 002B     		cmp	r3, #0
 4241 01ce 7FF47DAF 		bne	.L417
 4242              	.LVL582:
 4243              	.L431:
 4244              		.loc 1 2234 0
 4245 01d2 5046     		mov	r0, r10
 4246 01d4 05B0     		add	sp, sp, #20
 4247              		.cfi_remember_state
 4248              		.cfi_def_cfa_offset 36
 4249              		@ sp needed
 4250 01d6 BDE8F08F 		pop	{r4, r5, r6, r7, r8, r9, r10, fp, pc}
 4251              	.LVL583:
 4252              	.L425:
 4253              		.cfi_restore_state
 4254 01da 9346     		mov	fp, r2
 4255 01dc D5E7     		b	.L430
 4256              	.LVL584:
 4257              	.L423:
 4258              		.loc 1 2204 0
 4259 01de 4FF0040A 		mov	r10, #4
 4260 01e2 F6E7     		b	.L431
 4261              	.L459:
 4262              		.align	2
 4263              	.L458:
 4264 01e4 00000000 		.word	.LANCHOR0
 4265              		.cfi_endproc
 4266              	.LFE287:
 4267              		.size	dir_find, .-dir_find
 4268              		.section	.text.dir_register,"ax",%progbits
 4269              		.align	1
 4270              		.syntax unified
 4271              		.thumb
 4272              		.thumb_func
 4273              		.fpu fpv4-sp-d16
 4274              		.type	dir_register, %function
 4275              	dir_register:
ARM GAS  C:\cygwin64\tmp\cc6eY66b.s 			page 76


 4276              	.LFB288:
 4277              		.loc 1 2248 0
 4278              		.cfi_startproc
 4279              		@ args = 0, pretend = 0, frame = 88
 4280              		@ frame_needed = 0, uses_anonymous_args = 0
 4281              	.LVL585:
 4282 0000 2DE9F04F 		push	{r4, r5, r6, r7, r8, r9, r10, fp, lr}
 4283              		.cfi_def_cfa_offset 36
 4284              		.cfi_offset 4, -36
 4285              		.cfi_offset 5, -32
 4286              		.cfi_offset 6, -28
 4287              		.cfi_offset 7, -24
 4288              		.cfi_offset 8, -20
 4289              		.cfi_offset 9, -16
 4290              		.cfi_offset 10, -12
 4291              		.cfi_offset 11, -8
 4292              		.cfi_offset 14, -4
 4293              		.loc 1 2256 0
 4294 0004 90F84340 		ldrb	r4, [r0, #67]	@ zero_extendqisi2
 4295 0008 14F0A004 		ands	r4, r4, #160
 4296              		.loc 1 2248 0
 4297 000c 97B0     		sub	sp, sp, #92
 4298              		.cfi_def_cfa_offset 128
 4299              		.loc 1 2248 0
 4300 000e 0546     		mov	r5, r0
 4301              		.loc 1 2256 0
 4302 0010 40F0FB80 		bne	.L497
 4303              		.loc 1 2250 0 discriminator 1
 4304 0014 0668     		ldr	r6, [r0]
 4305              		.loc 1 2257 0 discriminator 1
 4306 0016 F268     		ldr	r2, [r6, #12]
 4307              	.L462:
 4308              	.LVL586:
 4309 0018 32F81430 		ldrh	r3, [r2, r4, lsl #1]
 4310 001c 002B     		cmp	r3, #0
 4311 001e 53D1     		bne	.L463
 4312              		.loc 1 2260 0
 4313 0020 3378     		ldrb	r3, [r6]	@ zero_extendqisi2
 4314 0022 042B     		cmp	r3, #4
 4315 0024 40F08380 		bne	.L464
 4316              	.LBB323:
 4317              		.loc 1 2263 0
 4318 0028 0F23     		movs	r3, #15
 4319 002a 0E34     		adds	r4, r4, #14
 4320              	.LVL587:
 4321              		.loc 1 2264 0
 4322 002c 2846     		mov	r0, r5
 4323              	.LVL588:
 4324              		.loc 1 2263 0
 4325 002e B4FBF3F4 		udiv	r4, r4, r3
 4326              	.LVL589:
 4327              		.loc 1 2264 0
 4328 0032 A11C     		adds	r1, r4, #2
 4329              	.LVL590:
 4330 0034 FFF7FEFF 		bl	dir_alloc
 4331              	.LVL591:
 4332              		.loc 1 2265 0
ARM GAS  C:\cygwin64\tmp\cc6eY66b.s 			page 77


 4333 0038 8246     		mov	r10, r0
 4334 003a 0028     		cmp	r0, #0
 4335 003c 40D1     		bne	.L505
 4336              		.loc 1 2266 0
 4337 003e AB6A     		ldr	r3, [r5, #40]
 4338 0040 04F10064 		add	r4, r4, #134217728
 4339              	.LVL592:
 4340 0044 0134     		adds	r4, r4, #1
 4341              	.LVL593:
 4342 0046 A3EB4414 		sub	r4, r3, r4, lsl #5
 4343              	.LVL594:
 4344              		.loc 1 2268 0
 4345 004a AB68     		ldr	r3, [r5, #8]
 4346              		.loc 1 2266 0
 4347 004c 6C64     		str	r4, [r5, #68]
 4348              		.loc 1 2268 0
 4349 004e 002B     		cmp	r3, #0
 4350 0050 3CD1     		bne	.L466
 4351              	.L468:
 4352              		.loc 1 2282 0
 4353 0052 3469     		ldr	r4, [r6, #16]
 4354 0054 F568     		ldr	r5, [r6, #12]
 4355              	.LVL595:
 4356              	.LBB324:
 4357              	.LBB325:
 4358              		.loc 1 2058 0
 4359 0056 4022     		movs	r2, #64
 4360 0058 0021     		movs	r1, #0
 4361 005a 2046     		mov	r0, r4
 4362              	.LVL596:
 4363 005c FFF7FEFF 		bl	mem_set
 4364              	.LVL597:
 4365              		.loc 1 2059 0
 4366 0060 8523     		movs	r3, #133
 4367 0062 2370     		strb	r3, [r4]
 4368              		.loc 1 2060 0
 4369 0064 C023     		movs	r3, #192
 4370 0066 84F82030 		strb	r3, [r4, #32]
 4371              		.loc 1 2061 0
 4372 006a 2846     		mov	r0, r5
 4373 006c FFF7FEFF 		bl	xname_sum
 4374              	.LVL598:
 4375              		.loc 1 2064 0
 4376 0070 0121     		movs	r1, #1
 4377              	.LBB326:
 4378              	.LBB327:
 4379              		.loc 1 645 0
 4380 0072 84F82400 		strb	r0, [r4, #36]
 4381              	.LVL599:
 4382              	.LBE327:
 4383              	.LBE326:
 4384              		.loc 1 2064 0
 4385 0076 0022     		movs	r2, #0
 4386              	.LBB329:
 4387              	.LBB328:
 4388              		.loc 1 645 0
 4389 0078 000A     		lsrs	r0, r0, #8
ARM GAS  C:\cygwin64\tmp\cc6eY66b.s 			page 78


 4390              	.LVL600:
 4391              		.loc 1 646 0
 4392 007a 84F82500 		strb	r0, [r4, #37]
 4393              	.LVL601:
 4394              	.LBE328:
 4395              	.LBE329:
 4396              		.loc 1 2063 0
 4397 007e 4023     		movs	r3, #64
 4398              		.loc 1 2064 0
 4399 0080 0846     		mov	r0, r1
 4400              		.loc 1 2066 0
 4401 0082 C127     		movs	r7, #193
 4402 0084 9646     		mov	lr, r2
 4403              	.LVL602:
 4404              	.L467:
 4405 0086 5E1C     		adds	r6, r3, #1
 4406              	.LVL603:
 4407 0088 E754     		strb	r7, [r4, r3]
 4408 008a 04F806E0 		strb	lr, [r4, r6]
 4409 008e 0233     		adds	r3, r3, #2
 4410              	.LVL604:
 4411              	.L470:
 4412              		.loc 1 2068 0
 4413 0090 21B1     		cbz	r1, .L469
 4414 0092 35F81210 		ldrh	r1, [r5, r2, lsl #1]
 4415              	.LVL605:
 4416 0096 09B1     		cbz	r1, .L469
 4417 0098 0132     		adds	r2, r2, #1
 4418              	.LVL606:
 4419 009a D2B2     		uxtb	r2, r2
 4420              	.LVL607:
 4421              	.L469:
 4422              	.LBB330:
 4423              	.LBB331:
 4424              		.loc 1 646 0
 4425 009c E618     		adds	r6, r4, r3
 4426              	.LVL608:
 4427              		.loc 1 645 0
 4428 009e E154     		strb	r1, [r4, r3]
 4429              	.LVL609:
 4430 00a0 4FEA112C 		lsr	ip, r1, #8
 4431              	.LBE331:
 4432              	.LBE330:
 4433              		.loc 1 2069 0
 4434 00a4 0233     		adds	r3, r3, #2
 4435              	.LVL610:
 4436              	.LBB333:
 4437              	.LBB332:
 4438              		.loc 1 646 0
 4439 00a6 86F801C0 		strb	ip, [r6, #1]
 4440              	.LVL611:
 4441              	.LBE332:
 4442              	.LBE333:
 4443              		.loc 1 2070 0
 4444 00aa DE06     		lsls	r6, r3, #27
 4445 00ac F0D1     		bne	.L470
 4446              		.loc 1 2072 0
ARM GAS  C:\cygwin64\tmp\cc6eY66b.s 			page 79


 4447 00ae 35F81260 		ldrh	r6, [r5, r2, lsl #1]
 4448              		.loc 1 2071 0
 4449 00b2 0130     		adds	r0, r0, #1
 4450              	.LVL612:
 4451 00b4 C0B2     		uxtb	r0, r0
 4452              	.LVL613:
 4453              		.loc 1 2072 0
 4454 00b6 002E     		cmp	r6, #0
 4455 00b8 E5D1     		bne	.L467
 4456              		.loc 1 2074 0
 4457 00ba 84F82320 		strb	r2, [r4, #35]
 4458              		.loc 1 2075 0
 4459 00be 6070     		strb	r0, [r4, #1]
 4460              	.LVL614:
 4461              	.L505:
 4462              	.LBE325:
 4463              	.LBE324:
 4464              	.LBE323:
 4465              		.loc 1 2336 0
 4466 00c0 5046     		mov	r0, r10
 4467 00c2 17B0     		add	sp, sp, #92
 4468              		.cfi_remember_state
 4469              		.cfi_def_cfa_offset 36
 4470              		@ sp needed
 4471 00c4 BDE8F08F 		pop	{r4, r5, r6, r7, r8, r9, r10, fp, pc}
 4472              	.LVL615:
 4473              	.L463:
 4474              		.cfi_restore_state
 4475              		.loc 1 2257 0 discriminator 3
 4476 00c8 0134     		adds	r4, r4, #1
 4477              	.LVL616:
 4478 00ca A5E7     		b	.L462
 4479              	.LVL617:
 4480              	.L466:
 4481              	.LBB334:
 4482              		.loc 1 2268 0 discriminator 1
 4483 00cc EB79     		ldrb	r3, [r5, #7]	@ zero_extendqisi2
 4484 00ce 5F07     		lsls	r7, r3, #29
 4485 00d0 BFD5     		bpl	.L468
 4486              		.loc 1 2269 0
 4487 00d2 03F00303 		and	r3, r3, #3
 4488 00d6 EB71     		strb	r3, [r5, #7]
 4489              		.loc 1 2270 0
 4490 00d8 D5E90423 		ldrd	r2, [r5, #16]
 4491 00dc 7089     		ldrh	r0, [r6, #10]
 4492              	.LVL618:
 4493 00de 4FF40071 		mov	r1, #512
 4494 00e2 E1FB0023 		umlal	r2, r3, r1, r0
 4495 00e6 C5E90423 		strd	r2, [r5, #16]
 4496              		.loc 1 2271 0
 4497 00ea 2846     		mov	r0, r5
 4498 00ec FFF7FEFF 		bl	fill_fat_chain
 4499              	.LVL619:
 4500              		.loc 1 2272 0
 4501 00f0 D8B9     		cbnz	r0, .L500
 4502              		.loc 1 2273 0
 4503 00f2 2946     		mov	r1, r5
ARM GAS  C:\cygwin64\tmp\cc6eY66b.s 			page 80


 4504 00f4 04A8     		add	r0, sp, #16
 4505              	.LVL620:
 4506 00f6 FFF7FEFF 		bl	load_obj_dir
 4507              	.LVL621:
 4508              		.loc 1 2274 0
 4509 00fa B0B9     		cbnz	r0, .L500
 4510              		.loc 1 2275 0
 4511 00fc 3069     		ldr	r0, [r6, #16]
 4512              	.LVL622:
 4513 00fe D5E90423 		ldrd	r2, [r5, #16]
 4514 0102 3830     		adds	r0, r0, #56
 4515 0104 FFF7FEFF 		bl	st_qword
 4516              	.LVL623:
 4517              		.loc 1 2276 0
 4518 0108 3069     		ldr	r0, [r6, #16]
 4519 010a D5E90423 		ldrd	r2, [r5, #16]
 4520 010e 2830     		adds	r0, r0, #40
 4521 0110 FFF7FEFF 		bl	st_qword
 4522              	.LVL624:
 4523              		.loc 1 2277 0
 4524 0114 EB79     		ldrb	r3, [r5, #7]	@ zero_extendqisi2
 4525 0116 3269     		ldr	r2, [r6, #16]
 4526 0118 43F00103 		orr	r3, r3, #1
 4527 011c 82F82130 		strb	r3, [r2, #33]
 4528              		.loc 1 2278 0
 4529 0120 04A8     		add	r0, sp, #16
 4530 0122 FFF7FEFF 		bl	store_xdir
 4531              	.LVL625:
 4532              		.loc 1 2279 0
 4533 0126 0028     		cmp	r0, #0
 4534 0128 93D0     		beq	.L468
 4535              	.L500:
 4536 012a 8246     		mov	r10, r0
 4537 012c C8E7     		b	.L505
 4538              	.LVL626:
 4539              	.L464:
 4540              	.LBE334:
 4541              		.loc 1 2287 0
 4542 012e 05F13807 		add	r7, r5, #56
 4543              	.LVL627:
 4544              	.LBB335:
 4545              	.LBB336:
 4546 0132 0C22     		movs	r2, #12
 4547 0134 3946     		mov	r1, r7
 4548 0136 04A8     		add	r0, sp, #16
 4549              	.LVL628:
 4550 0138 FFF7FEFF 		bl	mem_cpy.part.0
 4551              	.LVL629:
 4552              	.LBE336:
 4553              	.LBE335:
 4554              		.loc 1 2288 0
 4555 013c 9DF81B30 		ldrb	r3, [sp, #27]	@ zero_extendqisi2
 4556 0140 DB07     		lsls	r3, r3, #31
 4557 0142 6CD5     		bpl	.L471
 4558              		.loc 1 2289 0
 4559 0144 4023     		movs	r3, #64
 4560              	.LBB337:
ARM GAS  C:\cygwin64\tmp\cc6eY66b.s 			page 81


 4561              	.LBB338:
 4562              		.loc 1 1768 0
 4563 0146 DFF8EC81 		ldr	r8, .L534+4
 4564              	.LBE338:
 4565              	.LBE337:
 4566              		.loc 1 2289 0
 4567 014a 85F84330 		strb	r3, [r5, #67]
 4568              	.LVL630:
 4569              		.loc 1 2290 0
 4570 014e 4FF00109 		mov	r9, #1
 4571              	.LVL631:
 4572              	.L486:
 4573              	.LBB346:
 4574              	.LBB343:
 4575              	.LBB339:
 4576              	.LBB340:
 4577 0152 0B22     		movs	r2, #11
 4578 0154 04A9     		add	r1, sp, #16
 4579 0156 3846     		mov	r0, r7
 4580              	.LBE340:
 4581              	.LBE339:
 4582              	.LBE343:
 4583              	.LBE346:
 4584              		.loc 1 2291 0
 4585 0158 D6F80CA0 		ldr	r10, [r6, #12]
 4586              	.LVL632:
 4587              	.LBB347:
 4588              	.LBB344:
 4589              	.LBB342:
 4590              	.LBB341:
 4591 015c FFF7FEFF 		bl	mem_cpy.part.0
 4592              	.LVL633:
 4593              	.LBE341:
 4594              	.LBE342:
 4595              		.loc 1 1761 0
 4596 0160 B9F1050F 		cmp	r9, #5
 4597 0164 49D8     		bhi	.L472
 4598 0166 4B46     		mov	r3, r9
 4599              	.LVL634:
 4600              	.L473:
 4601              		.loc 1 1763 0
 4602 0168 0722     		movs	r2, #7
 4603              	.LVL635:
 4604              	.L479:
 4605              		.loc 1 1777 0
 4606 016a 03F00F00 		and	r0, r3, #15
 4607 016e 00F13001 		add	r1, r0, #48
 4608              	.LVL636:
 4609              		.loc 1 1778 0
 4610 0172 3929     		cmp	r1, #57
 4611 0174 88BF     		it	hi
 4612 0176 00F13701 		addhi	r1, r0, #55
 4613              	.LVL637:
 4614              		.loc 1 1779 0
 4615 017a 013A     		subs	r2, r2, #1
 4616              	.LVL638:
 4617 017c 02A8     		add	r0, sp, #8
ARM GAS  C:\cygwin64\tmp\cc6eY66b.s 			page 82


 4618 017e 1044     		add	r0, r0, r2
 4619              		.loc 1 1781 0
 4620 0180 1B09     		lsrs	r3, r3, #4
 4621              	.LVL639:
 4622              		.loc 1 1779 0
 4623 0182 4170     		strb	r1, [r0, #1]
 4624              		.loc 1 1781 0
 4625 0184 F1D1     		bne	.L479
 4626              		.loc 1 1782 0
 4627 0186 16A9     		add	r1, sp, #88
 4628              	.LVL640:
 4629 0188 1144     		add	r1, r1, r2
 4630 018a 7E20     		movs	r0, #126
 4631              	.LVL641:
 4632 018c 01F8500C 		strb	r0, [r1, #-80]
 4633              	.LVL642:
 4634              	.L480:
 4635              		.loc 1 1785 0
 4636 0190 9A42     		cmp	r2, r3
 4637 0192 38D0     		beq	.L501
 4638 0194 F95C     		ldrb	r1, [r7, r3]	@ zero_extendqisi2
 4639 0196 2029     		cmp	r1, #32
 4640 0198 33D1     		bne	.L482
 4641              	.LVL643:
 4642              	.L481:
 4643 019a 3B44     		add	r3, r3, r7
 4644              	.LVL644:
 4645              	.L484:
 4646              		.loc 1 1792 0
 4647 019c 072A     		cmp	r2, #7
 4648 019e 9BBF     		ittet	ls
 4649 01a0 16A9     		addls	r1, sp, #88
 4650 01a2 8918     		addls	r1, r1, r2
 4651 01a4 2021     		movhi	r1, #32
 4652 01a6 11F8501C 		ldrbls	r1, [r1, #-80]	@ zero_extendqisi2
 4653 01aa 03F8011B 		strb	r1, [r3], #1
 4654              		.loc 1 1793 0
 4655 01ae A3EB0701 		sub	r1, r3, r7
 4656              		.loc 1 1792 0
 4657 01b2 98BF     		it	ls
 4658 01b4 0132     		addls	r2, r2, #1
 4659              	.LVL645:
 4660              		.loc 1 1793 0
 4661 01b6 0729     		cmp	r1, #7
 4662 01b8 F0D9     		bls	.L484
 4663              	.LVL646:
 4664              	.LBE344:
 4665              	.LBE347:
 4666              		.loc 1 2292 0
 4667 01ba 2846     		mov	r0, r5
 4668 01bc FFF7FEFF 		bl	dir_find
 4669              	.LVL647:
 4670              		.loc 1 2293 0
 4671 01c0 8246     		mov	r10, r0
 4672 01c2 28BB     		cbnz	r0, .L485
 4673              		.loc 1 2290 0 discriminator 2
 4674 01c4 09F10109 		add	r9, r9, #1
ARM GAS  C:\cygwin64\tmp\cc6eY66b.s 			page 83


 4675              	.LVL648:
 4676 01c8 B9F1640F 		cmp	r9, #100
 4677 01cc C1D1     		bne	.L486
 4678              		.loc 1 2295 0
 4679 01ce 4FF0070A 		mov	r10, #7
 4680 01d2 75E7     		b	.L505
 4681              	.LVL649:
 4682              	.L477:
 4683              	.LBB348:
 4684              	.LBB345:
 4685              		.loc 1 1763 0
 4686 01d4 1020     		movs	r0, #16
 4687              	.L475:
 4688              	.LVL650:
 4689              		.loc 1 1766 0
 4690 01d6 02F0010E 		and	lr, r2, #1
 4691 01da 0EEB4303 		add	r3, lr, r3, lsl #1
 4692              	.LVL651:
 4693              		.loc 1 1768 0
 4694 01de 13F4803F 		tst	r3, #65536
 4695 01e2 18BF     		it	ne
 4696 01e4 83EA0803 		eorne	r3, r3, r8
 4697              	.LVL652:
 4698              		.loc 1 1765 0
 4699 01e8 0138     		subs	r0, r0, #1
 4700              	.LVL653:
 4701              		.loc 1 1767 0
 4702 01ea 4FEA5202 		lsr	r2, r2, #1
 4703              	.LVL654:
 4704              		.loc 1 1765 0
 4705 01ee F2D1     		bne	.L475
 4706              	.LVL655:
 4707              	.L476:
 4708              		.loc 1 1763 0
 4709 01f0 31F8022F 		ldrh	r2, [r1, #2]!
 4710              	.LVL656:
 4711 01f4 002A     		cmp	r2, #0
 4712 01f6 EDD1     		bne	.L477
 4713 01f8 B6E7     		b	.L473
 4714              	.LVL657:
 4715              	.L472:
 4716 01fa AAF10201 		sub	r1, r10, #2
 4717              		.loc 1 1761 0
 4718 01fe 4B46     		mov	r3, r9
 4719 0200 F6E7     		b	.L476
 4720              	.LVL658:
 4721              	.L482:
 4722              		.loc 1 1785 0
 4723 0202 0133     		adds	r3, r3, #1
 4724              	.LVL659:
 4725 0204 C4E7     		b	.L480
 4726              	.L501:
 4727 0206 1346     		mov	r3, r2
 4728              	.LVL660:
 4729 0208 C7E7     		b	.L481
 4730              	.LVL661:
 4731              	.L497:
ARM GAS  C:\cygwin64\tmp\cc6eY66b.s 			page 84


 4732              	.LBE345:
 4733              	.LBE348:
 4734              		.loc 1 2256 0
 4735 020a 4FF0060A 		mov	r10, #6
 4736 020e 57E7     		b	.L505
 4737              	.LVL662:
 4738              	.L485:
 4739              		.loc 1 2296 0
 4740 0210 0428     		cmp	r0, #4
 4741 0212 7FF455AF 		bne	.L505
 4742              		.loc 1 2297 0
 4743 0216 9DF81B30 		ldrb	r3, [sp, #27]	@ zero_extendqisi2
 4744 021a 85F84330 		strb	r3, [r5, #67]
 4745              	.LVL663:
 4746              	.L471:
 4747              		.loc 1 2301 0
 4748 021e 9DF81B30 		ldrb	r3, [sp, #27]	@ zero_extendqisi2
 4749 0222 9B07     		lsls	r3, r3, #30
 4750 0224 45BF     		ittet	mi
 4751 0226 0C34     		addmi	r4, r4, #12
 4752              	.LVL664:
 4753 0228 0D23     		movmi	r3, #13
 4754 022a 0124     		movpl	r4, #1
 4755 022c B4FBF3F4 		udivmi	r4, r4, r3
 4756 0230 48BF     		it	mi
 4757 0232 0134     		addmi	r4, r4, #1
 4758              	.LVL665:
 4759              		.loc 1 2302 0
 4760 0234 2146     		mov	r1, r4
 4761 0236 2846     		mov	r0, r5
 4762 0238 FFF7FEFF 		bl	dir_alloc
 4763              	.LVL666:
 4764              		.loc 1 2303 0
 4765 023c 8246     		mov	r10, r0
 4766 023e 0028     		cmp	r0, #0
 4767 0240 7FF43EAF 		bne	.L505
 4768              	.LVL667:
 4769              		.loc 1 2303 0 is_stmt 0 discriminator 1
 4770 0244 013C     		subs	r4, r4, #1
 4771              	.LVL668:
 4772 0246 58D0     		beq	.L488
 4773              		.loc 1 2304 0 is_stmt 1
 4774 0248 A96A     		ldr	r1, [r5, #40]
 4775 024a 2846     		mov	r0, r5
 4776              	.LVL669:
 4777 024c A1EB4411 		sub	r1, r1, r4, lsl #5
 4778 0250 FFF7FEFF 		bl	dir_sdi
 4779              	.LVL670:
 4780              		.loc 1 2305 0
 4781 0254 8246     		mov	r10, r0
 4782 0256 0028     		cmp	r0, #0
 4783 0258 7FF432AF 		bne	.L505
 4784              		.loc 1 2306 0
 4785 025c 3846     		mov	r0, r7
 4786              	.LVL671:
 4787 025e FFF7FEFF 		bl	sum_sfn
 4788              	.LVL672:
ARM GAS  C:\cygwin64\tmp\cc6eY66b.s 			page 85


 4789              	.LBB349:
 4790              	.LBB350:
 4791              		.loc 1 1727 0
 4792 0262 4FF6FF79 		movw	r9, #65535
 4793              	.LBE350:
 4794              	.LBE349:
 4795              		.loc 1 2306 0
 4796 0266 8046     		mov	r8, r0
 4797              	.LVL673:
 4798              	.L494:
 4799              		.loc 1 2308 0
 4800 0268 296B     		ldr	r1, [r5, #48]
 4801 026a 3046     		mov	r0, r6
 4802 026c FFF7FEFF 		bl	move_window
 4803              	.LVL674:
 4804 0270 8246     		mov	r10, r0
 4805              	.LVL675:
 4806              		.loc 1 2309 0
 4807 0272 0028     		cmp	r0, #0
 4808 0274 7FF424AF 		bne	.L505
 4809              		.loc 1 2310 0
 4810 0278 6B6B     		ldr	r3, [r5, #52]
 4811 027a D6F80CC0 		ldr	ip, [r6, #12]
 4812              	.LBB359:
 4813              	.LBB357:
 4814              		.loc 1 1719 0
 4815 027e 83F80D80 		strb	r8, [r3, #13]
 4816              		.loc 1 1720 0
 4817 0282 0F22     		movs	r2, #15
 4818              	.LBE357:
 4819              	.LBE359:
 4820              		.loc 1 2310 0
 4821 0284 E1B2     		uxtb	r1, r4
 4822              	.LVL676:
 4823              	.LBB360:
 4824              	.LBB358:
 4825              		.loc 1 1724 0
 4826 0286 4FF00D0E 		mov	lr, #13
 4827              		.loc 1 1720 0
 4828 028a DA72     		strb	r2, [r3, #11]
 4829              		.loc 1 1724 0
 4830 028c 4A1E     		subs	r2, r1, #1
 4831 028e 0EFB02F2 		mul	r2, lr, r2
 4832              		.loc 1 1721 0
 4833 0292 1873     		strb	r0, [r3, #12]
 4834              	.LVL677:
 4835              	.LBB351:
 4836              	.LBB352:
 4837              		.loc 1 645 0
 4838 0294 9876     		strb	r0, [r3, #26]
 4839              	.LVL678:
 4840              		.loc 1 646 0
 4841 0296 D876     		strb	r0, [r3, #27]
 4842              	.LVL679:
 4843              	.LBE352:
 4844              	.LBE351:
 4845              		.loc 1 1724 0
ARM GAS  C:\cygwin64\tmp\cc6eY66b.s 			page 86


 4846 0298 0192     		str	r2, [sp, #4]
 4847              	.LVL680:
 4848              		.loc 1 1725 0
 4849 029a 8646     		mov	lr, r0
 4850              	.LVL681:
 4851              	.L491:
 4852              		.loc 1 1727 0
 4853 029c 4845     		cmp	r0, r9
 4854              	.LVL682:
 4855 029e 1FBF     		itttt	ne
 4856 02a0 019A     		ldrne	r2, [sp, #4]
 4857 02a2 3CF81200 		ldrhne	r0, [ip, r2, lsl #1]
 4858 02a6 0132     		addne	r2, r2, #1
 4859 02a8 0192     		strne	r2, [sp, #4]
 4860              	.LVL683:
 4861              		.loc 1 1728 0
 4862 02aa 214A     		ldr	r2, .L534
 4863 02ac 1EF802A0 		ldrb	r10, [lr, r2]	@ zero_extendqisi2
 4864              		.loc 1 1730 0
 4865 02b0 0EF1010E 		add	lr, lr, #1
 4866              	.LVL684:
 4867              		.loc 1 1728 0
 4868 02b4 03EB0A0B 		add	fp, r3, r10
 4869              	.LVL685:
 4870              	.LBB353:
 4871              	.LBB354:
 4872              		.loc 1 645 0
 4873 02b8 03F80A00 		strb	r0, [r3, r10]
 4874              	.LVL686:
 4875 02bc 4FEA102A 		lsr	r10, r0, #8
 4876              	.LBE354:
 4877              	.LBE353:
 4878              		.loc 1 1729 0
 4879 02c0 0028     		cmp	r0, #0
 4880 02c2 08BF     		it	eq
 4881 02c4 4846     		moveq	r0, r9
 4882              		.loc 1 1730 0
 4883 02c6 BEF10D0F 		cmp	lr, #13
 4884              	.LBB356:
 4885              	.LBB355:
 4886              		.loc 1 646 0
 4887 02ca 8BF801A0 		strb	r10, [fp, #1]
 4888              	.LVL687:
 4889              	.LBE355:
 4890              	.LBE356:
 4891              		.loc 1 1730 0
 4892 02ce E5D1     		bne	.L491
 4893              		.loc 1 1731 0
 4894 02d0 4845     		cmp	r0, r9
 4895 02d2 03D0     		beq	.L492
 4896 02d4 019A     		ldr	r2, [sp, #4]
 4897 02d6 3CF81220 		ldrh	r2, [ip, r2, lsl #1]
 4898 02da 0AB9     		cbnz	r2, .L493
 4899              	.L492:
 4900 02dc 41F04001 		orr	r1, r1, #64
 4901              	.LVL688:
 4902              	.L493:
ARM GAS  C:\cygwin64\tmp\cc6eY66b.s 			page 87


 4903              		.loc 1 1732 0
 4904 02e0 1970     		strb	r1, [r3]
 4905              	.LVL689:
 4906              	.LBE358:
 4907              	.LBE360:
 4908              		.loc 1 2311 0
 4909 02e2 0123     		movs	r3, #1
 4910 02e4 F370     		strb	r3, [r6, #3]
 4911              		.loc 1 2312 0
 4912 02e6 0021     		movs	r1, #0
 4913 02e8 2846     		mov	r0, r5
 4914 02ea FFF7FEFF 		bl	dir_next
 4915              	.LVL690:
 4916              		.loc 1 2313 0
 4917 02ee 8246     		mov	r10, r0
 4918 02f0 0028     		cmp	r0, #0
 4919 02f2 7FF4E5AE 		bne	.L505
 4920              	.LVL691:
 4921              		.loc 1 2313 0 is_stmt 0 discriminator 1
 4922 02f6 013C     		subs	r4, r4, #1
 4923              	.LVL692:
 4924 02f8 B6D1     		bne	.L494
 4925              	.LVL693:
 4926              	.L488:
 4927              		.loc 1 2324 0 is_stmt 1
 4928 02fa 296B     		ldr	r1, [r5, #48]
 4929 02fc 3046     		mov	r0, r6
 4930 02fe FFF7FEFF 		bl	move_window
 4931              	.LVL694:
 4932              		.loc 1 2325 0
 4933 0302 8246     		mov	r10, r0
 4934 0304 0028     		cmp	r0, #0
 4935 0306 7FF4DBAE 		bne	.L505
 4936              		.loc 1 2326 0
 4937 030a 2022     		movs	r2, #32
 4938 030c 5146     		mov	r1, r10
 4939 030e 686B     		ldr	r0, [r5, #52]
 4940              	.LVL695:
 4941 0310 FFF7FEFF 		bl	mem_set
 4942              	.LVL696:
 4943              	.LBB361:
 4944              	.LBB362:
 4945 0314 0B22     		movs	r2, #11
 4946 0316 3946     		mov	r1, r7
 4947 0318 686B     		ldr	r0, [r5, #52]
 4948 031a FFF7FEFF 		bl	mem_cpy.part.0
 4949              	.LVL697:
 4950              	.LBE362:
 4951              	.LBE361:
 4952              		.loc 1 2329 0
 4953 031e 95F84330 		ldrb	r3, [r5, #67]	@ zero_extendqisi2
 4954 0322 6A6B     		ldr	r2, [r5, #52]
 4955 0324 03F01803 		and	r3, r3, #24
 4956 0328 1373     		strb	r3, [r2, #12]
 4957              		.loc 1 2331 0
 4958 032a 0123     		movs	r3, #1
 4959 032c F370     		strb	r3, [r6, #3]
ARM GAS  C:\cygwin64\tmp\cc6eY66b.s 			page 88


 4960 032e C7E6     		b	.L505
 4961              	.L535:
 4962              		.align	2
 4963              	.L534:
 4964 0330 00000000 		.word	.LANCHOR0
 4965 0334 21100100 		.word	69665
 4966              		.cfi_endproc
 4967              	.LFE288:
 4968              		.size	dir_register, .-dir_register
 4969              		.section	.text.check_fs,"ax",%progbits
 4970              		.align	1
 4971              		.syntax unified
 4972              		.thumb
 4973              		.thumb_func
 4974              		.fpu fpv4-sp-d16
 4975              		.type	check_fs, %function
 4976              	check_fs:
 4977              	.LFB294:
 4978              		.loc 1 2918 0
 4979              		.cfi_startproc
 4980              		@ args = 0, pretend = 0, frame = 0
 4981              		@ frame_needed = 0, uses_anonymous_args = 0
 4982              	.LVL698:
 4983              		.loc 1 2919 0
 4984 0000 0023     		movs	r3, #0
 4985              		.loc 1 2918 0
 4986 0002 10B5     		push	{r4, lr}
 4987              		.cfi_def_cfa_offset 8
 4988              		.cfi_offset 4, -8
 4989              		.cfi_offset 14, -4
 4990              		.loc 1 2919 0
 4991 0004 C370     		strb	r3, [r0, #3]
 4992 0006 4FF0FF33 		mov	r3, #-1
 4993 000a 8364     		str	r3, [r0, #72]
 4994              		.loc 1 2918 0
 4995 000c 0446     		mov	r4, r0
 4996              		.loc 1 2920 0
 4997 000e FFF7FEFF 		bl	move_window
 4998              	.LVL699:
 4999 0012 0028     		cmp	r0, #0
 5000 0014 38D1     		bne	.L542
 5001              	.LBB371:
 5002              	.LBB372:
 5003              		.loc 1 607 0
 5004 0016 94F84B22 		ldrb	r2, [r4, #587]	@ zero_extendqisi2
 5005 001a 94F84A32 		ldrb	r3, [r4, #586]	@ zero_extendqisi2
 5006 001e 43EA0223 		orr	r3, r3, r2, lsl #8
 5007              	.LBE372:
 5008              	.LBE371:
 5009              		.loc 1 2922 0
 5010 0022 4AF65522 		movw	r2, #43605
 5011 0026 9342     		cmp	r3, r2
 5012 0028 30D1     		bne	.L543
 5013              		.loc 1 2924 0
 5014 002a 94F84C30 		ldrb	r3, [r4, #76]	@ zero_extendqisi2
 5015 002e E92B     		cmp	r3, #233
 5016 0030 05D0     		beq	.L538
ARM GAS  C:\cygwin64\tmp\cc6eY66b.s 			page 89


 5017              		.loc 1 2924 0 is_stmt 0 discriminator 1
 5018 0032 E36C     		ldr	r3, [r4, #76]
 5019 0034 174A     		ldr	r2, .L553
 5020 0036 03F0FF13 		and	r3, r3, #16711935
 5021 003a 9342     		cmp	r3, r2
 5022 003c 0FD1     		bne	.L539
 5023              	.L538:
 5024              		.loc 1 2925 0 is_stmt 1
 5025 003e 04F18200 		add	r0, r4, #130
 5026 0042 FFF7FEFF 		bl	ld_dword
 5027              	.LVL700:
 5028 0046 144B     		ldr	r3, .L553+4
 5029 0048 20F07F40 		bic	r0, r0, #-16777216
 5030 004c 9842     		cmp	r0, r3
 5031 004e 1FD0     		beq	.L545
 5032              		.loc 1 2926 0
 5033 0050 04F19E00 		add	r0, r4, #158
 5034 0054 FFF7FEFF 		bl	ld_dword
 5035              	.LVL701:
 5036 0058 104B     		ldr	r3, .L553+8
 5037 005a 9842     		cmp	r0, r3
 5038 005c 18D0     		beq	.L545
 5039              	.L539:
 5040              	.LVL702:
 5041 005e 104A     		ldr	r2, .L553+12
 5042 0060 04F15701 		add	r1, r4, #87
 5043              	.LBB373:
 5044              	.LBB374:
 5045              	.LBB375:
 5046              	.LBB376:
 5047              		.loc 1 702 0
 5048 0064 4C34     		adds	r4, r4, #76
 5049              	.LVL703:
 5050              	.L541:
 5051              		.loc 1 706 0
 5052 0066 14F8013B 		ldrb	r3, [r4], #1	@ zero_extendqisi2
 5053              	.LVL704:
 5054 006a 12F8010F 		ldrb	r0, [r2, #1]!	@ zero_extendqisi2
 5055              		.loc 1 707 0
 5056 006e 8C42     		cmp	r4, r1
 5057              		.loc 1 706 0
 5058 0070 A3EB0003 		sub	r3, r3, r0
 5059              	.LVL705:
 5060              		.loc 1 707 0
 5061 0074 03D0     		beq	.L540
 5062              	.LVL706:
 5063 0076 002B     		cmp	r3, #0
 5064 0078 F5D0     		beq	.L541
 5065              	.LBE376:
 5066              	.LBE375:
 5067              		.loc 1 2931 0
 5068 007a 0220     		movs	r0, #2
 5069 007c 10BD     		pop	{r4, pc}
 5070              	.LVL707:
 5071              	.L540:
 5072              		.loc 1 2929 0
 5073 007e 002B     		cmp	r3, #0
ARM GAS  C:\cygwin64\tmp\cc6eY66b.s 			page 90


 5074 0080 14BF     		ite	ne
 5075 0082 0220     		movne	r0, #2
 5076 0084 0120     		moveq	r0, #1
 5077 0086 10BD     		pop	{r4, pc}
 5078              	.LVL708:
 5079              	.L542:
 5080              	.LBE374:
 5081              	.LBE373:
 5082              		.loc 1 2920 0
 5083 0088 0420     		movs	r0, #4
 5084 008a 10BD     		pop	{r4, pc}
 5085              	.LVL709:
 5086              	.L543:
 5087              		.loc 1 2922 0
 5088 008c 0320     		movs	r0, #3
 5089 008e 10BD     		pop	{r4, pc}
 5090              	.LVL710:
 5091              	.L545:
 5092              		.loc 1 2925 0
 5093 0090 0020     		movs	r0, #0
 5094              		.loc 1 2932 0
 5095 0092 10BD     		pop	{r4, pc}
 5096              	.LVL711:
 5097              	.L554:
 5098              		.align	2
 5099              	.L553:
 5100 0094 EB009000 		.word	9437419
 5101 0098 46415400 		.word	5521734
 5102 009c 46415433 		.word	861159750
 5103 00a0 FFFFFFFF 		.word	.LC0-1
 5104              		.cfi_endproc
 5105              	.LFE294:
 5106              		.size	check_fs, .-check_fs
 5107              		.section	.text.find_volume,"ax",%progbits
 5108              		.align	1
 5109              		.syntax unified
 5110              		.thumb
 5111              		.thumb_func
 5112              		.fpu fpv4-sp-d16
 5113              		.type	find_volume, %function
 5114              	find_volume:
 5115              	.LFB295:
 5116              		.loc 1 2947 0
 5117              		.cfi_startproc
 5118              		@ args = 0, pretend = 0, frame = 16
 5119              		@ frame_needed = 0, uses_anonymous_args = 0
 5120              	.LVL712:
 5121 0000 2DE9F043 		push	{r4, r5, r6, r7, r8, r9, lr}
 5122              		.cfi_def_cfa_offset 28
 5123              		.cfi_offset 4, -28
 5124              		.cfi_offset 5, -24
 5125              		.cfi_offset 6, -20
 5126              		.cfi_offset 7, -16
 5127              		.cfi_offset 8, -12
 5128              		.cfi_offset 9, -8
 5129              		.cfi_offset 14, -4
 5130              		.loc 1 2958 0
ARM GAS  C:\cygwin64\tmp\cc6eY66b.s 			page 91


 5131 0004 0023     		movs	r3, #0
 5132              		.loc 1 2947 0
 5133 0006 85B0     		sub	sp, sp, #20
 5134              		.cfi_def_cfa_offset 48
 5135              		.loc 1 2958 0
 5136 0008 0B60     		str	r3, [r1]
 5137              		.loc 1 2947 0
 5138 000a 0F46     		mov	r7, r1
 5139 000c 1546     		mov	r5, r2
 5140              		.loc 1 2959 0
 5141 000e FFF7FEFF 		bl	get_ldnumber
 5142              	.LVL713:
 5143              		.loc 1 2960 0
 5144 0012 061E     		subs	r6, r0, #0
 5145 0014 C0F2B781 		blt	.L588
 5146              		.loc 1 2963 0
 5147 0018 704B     		ldr	r3, .L630
 5148 001a 53F82640 		ldr	r4, [r3, r6, lsl #2]
 5149              	.LVL714:
 5150              		.loc 1 2964 0
 5151 001e 002C     		cmp	r4, #0
 5152 0020 00F0B381 		beq	.L589
 5153              	.LVL715:
 5154              	.LBB377:
 5155              	.LBB378:
 5156              		.loc 1 731 0
 5157 0024 6069     		ldr	r0, [r4, #20]
 5158              	.LVL716:
 5159 0026 FFF7FEFF 		bl	ff_req_grant
 5160              	.LVL717:
 5161              	.LBE378:
 5162              	.LBE377:
 5163              		.loc 1 2966 0
 5164 002a 0028     		cmp	r0, #0
 5165 002c 00F0AF81 		beq	.L590
 5166              		.loc 1 2967 0
 5167 0030 3C60     		str	r4, [r7]
 5168              		.loc 1 2970 0
 5169 0032 2378     		ldrb	r3, [r4]	@ zero_extendqisi2
 5170              		.loc 1 2969 0
 5171 0034 05F0FE05 		and	r5, r5, #254
 5172              	.LVL718:
 5173              		.loc 1 2970 0
 5174 0038 73B1     		cbz	r3, .L557
 5175              		.loc 1 2971 0
 5176 003a 6078     		ldrb	r0, [r4, #1]	@ zero_extendqisi2
 5177 003c FFF7FEFF 		bl	disk_status
 5178              	.LVL719:
 5179              		.loc 1 2972 0
 5180 0040 C107     		lsls	r1, r0, #31
 5181 0042 09D4     		bmi	.L557
 5182              		.loc 1 2973 0
 5183 0044 002D     		cmp	r5, #0
 5184 0046 00F0A481 		beq	.L591
 5185              		.loc 1 2973 0 is_stmt 0 discriminator 1
 5186 004a 10F00400 		ands	r0, r0, #4
 5187              	.LVL720:
ARM GAS  C:\cygwin64\tmp\cc6eY66b.s 			page 92


 5188 004e 00D0     		beq	.L627
 5189              	.L559:
 5190              		.loc 1 2974 0 is_stmt 1
 5191 0050 0A20     		movs	r0, #10
 5192              	.LVL721:
 5193              	.L627:
 5194              		.loc 1 3153 0
 5195 0052 05B0     		add	sp, sp, #20
 5196              		.cfi_remember_state
 5197              		.cfi_def_cfa_offset 28
 5198              		@ sp needed
 5199 0054 BDE8F083 		pop	{r4, r5, r6, r7, r8, r9, pc}
 5200              	.LVL722:
 5201              	.L557:
 5202              		.cfi_restore_state
 5203              		.loc 1 2983 0
 5204 0058 0023     		movs	r3, #0
 5205              		.loc 1 2984 0
 5206 005a F0B2     		uxtb	r0, r6
 5207              		.loc 1 2983 0
 5208 005c 2370     		strb	r3, [r4]
 5209              		.loc 1 2984 0
 5210 005e 6070     		strb	r0, [r4, #1]
 5211              		.loc 1 2985 0
 5212 0060 FFF7FEFF 		bl	disk_initialize
 5213              	.LVL723:
 5214              		.loc 1 2986 0
 5215 0064 C207     		lsls	r2, r0, #31
 5216 0066 00F19681 		bmi	.L593
 5217              		.loc 1 2989 0
 5218 006a 0DB1     		cbz	r5, .L558
 5219              		.loc 1 2989 0 is_stmt 0 discriminator 1
 5220 006c 4307     		lsls	r3, r0, #29
 5221 006e EFD4     		bmi	.L559
 5222              	.L558:
 5223              	.LVL724:
 5224              		.loc 1 2998 0 is_stmt 1
 5225 0070 0021     		movs	r1, #0
 5226 0072 2046     		mov	r0, r4
 5227              	.LVL725:
 5228 0074 FFF7FEFF 		bl	check_fs
 5229              	.LVL726:
 5230              		.loc 1 2999 0
 5231 0078 0228     		cmp	r0, #2
 5232 007a 40F0A580 		bne	.L560
 5233 007e 04F21225 		addw	r5, r4, #530
 5234              	.LVL727:
 5235 0082 0021     		movs	r1, #0
 5236              	.LVL728:
 5237              	.L562:
 5238              		.loc 1 3002 0
 5239 0084 15F8040C 		ldrb	r0, [r5, #-4]	@ zero_extendqisi2
 5240 0088 10B1     		cbz	r0, .L561
 5241              		.loc 1 3002 0 is_stmt 0 discriminator 1
 5242 008a 2846     		mov	r0, r5
 5243 008c FFF7FEFF 		bl	ld_dword
 5244              	.LVL729:
ARM GAS  C:\cygwin64\tmp\cc6eY66b.s 			page 93


 5245              	.L561:
 5246              		.loc 1 3002 0 discriminator 4
 5247 0090 4DF82100 		str	r0, [sp, r1, lsl #2]
 5248              		.loc 1 3000 0 is_stmt 1 discriminator 4
 5249 0094 0131     		adds	r1, r1, #1
 5250              	.LVL730:
 5251 0096 0429     		cmp	r1, #4
 5252 0098 05F11005 		add	r5, r5, #16
 5253              	.LVL731:
 5254 009c F2D1     		bne	.L562
 5255 009e 0026     		movs	r6, #0
 5256              	.LVL732:
 5257              	.L565:
 5258              		.loc 1 3007 0
 5259 00a0 5DF82650 		ldr	r5, [sp, r6, lsl #2]
 5260              	.LVL733:
 5261              		.loc 1 3008 0
 5262 00a4 002D     		cmp	r5, #0
 5263 00a6 00F08780 		beq	.L595
 5264              		.loc 1 3008 0 is_stmt 0 discriminator 1
 5265 00aa 2946     		mov	r1, r5
 5266 00ac 2046     		mov	r0, r4
 5267 00ae FFF7FEFF 		bl	check_fs
 5268              	.LVL734:
 5269              		.loc 1 3009 0 is_stmt 1 discriminator 1
 5270 00b2 0128     		cmp	r0, #1
 5271 00b4 00F28180 		bhi	.L563
 5272              	.LVL735:
 5273              	.L564:
 5274              		.loc 1 3017 0
 5275 00b8 0128     		cmp	r0, #1
 5276 00ba 40F09380 		bne	.L568
 5277 00be 04F15703 		add	r3, r4, #87
 5278 00c2 04F18C01 		add	r1, r4, #140
 5279              	.L569:
 5280              	.LBB379:
 5281              		.loc 1 3020 0 discriminator 3
 5282 00c6 13F8012B 		ldrb	r2, [r3], #1	@ zero_extendqisi2
 5283 00ca 002A     		cmp	r2, #0
 5284 00cc 40F08280 		bne	.L572
 5285              		.loc 1 3020 0 is_stmt 0 discriminator 4
 5286 00d0 9942     		cmp	r1, r3
 5287 00d2 F8D1     		bne	.L569
 5288              	.LBB380:
 5289              	.LBB381:
 5290              		.loc 1 607 0 is_stmt 1
 5291 00d4 94F8B520 		ldrb	r2, [r4, #181]	@ zero_extendqisi2
 5292 00d8 94F8B430 		ldrb	r3, [r4, #180]	@ zero_extendqisi2
 5293 00dc 43EA0223 		orr	r3, r3, r2, lsl #8
 5294              	.LBE381:
 5295              	.LBE380:
 5296              		.loc 1 3023 0
 5297 00e0 B3F5807F 		cmp	r3, #256
 5298 00e4 76D1     		bne	.L572
 5299              		.loc 1 3025 0
 5300 00e6 94F8B830 		ldrb	r3, [r4, #184]	@ zero_extendqisi2
 5301 00ea 092B     		cmp	r3, #9
ARM GAS  C:\cygwin64\tmp\cc6eY66b.s 			page 94


 5302 00ec 72D1     		bne	.L572
 5303              		.loc 1 3028 0
 5304 00ee 04F19400 		add	r0, r4, #148
 5305              	.LVL736:
 5306 00f2 FFF7FEFF 		bl	ld_qword
 5307              	.LVL737:
 5308 00f6 4619     		adds	r6, r0, r5
 5309 00f8 41F10007 		adc	r7, r1, #0
 5310              	.LVL738:
 5311              		.loc 1 3029 0
 5312 00fc 012F     		cmp	r7, #1
 5313 00fe 08BF     		it	eq
 5314 0100 002E     		cmpeq	r6, #0
 5315 0102 67D2     		bcs	.L572
 5316              		.loc 1 3031 0
 5317 0104 04F1A000 		add	r0, r4, #160
 5318 0108 FFF7FEFF 		bl	ld_dword
 5319              	.LVL739:
 5320              		.loc 1 3033 0
 5321 010c 94F8BA80 		ldrb	r8, [r4, #186]	@ zero_extendqisi2
 5322              		.loc 1 3031 0
 5323 0110 6063     		str	r0, [r4, #52]
 5324              		.loc 1 3034 0
 5325 0112 B8F1010F 		cmp	r8, #1
 5326              		.loc 1 3033 0
 5327 0116 84F80280 		strb	r8, [r4, #2]
 5328              		.loc 1 3034 0
 5329 011a 5BD1     		bne	.L572
 5330              		.loc 1 3036 0
 5331 011c 94F8B930 		ldrb	r3, [r4, #185]	@ zero_extendqisi2
 5332 0120 08FA03F9 		lsl	r9, r8, r3
 5333 0124 1FFA89F3 		uxth	r3, r9
 5334 0128 6381     		strh	r3, [r4, #10]	@ movhi
 5335              		.loc 1 3037 0
 5336 012a 002B     		cmp	r3, #0
 5337 012c 52D0     		beq	.L572
 5338              		.loc 1 3039 0
 5339 012e 04F1A800 		add	r0, r4, #168
 5340 0132 FFF7FEFF 		bl	ld_dword
 5341              	.LVL740:
 5342              		.loc 1 3040 0
 5343 0136 2A4B     		ldr	r3, .L630+4
 5344 0138 9842     		cmp	r0, r3
 5345              		.loc 1 3039 0
 5346 013a 8046     		mov	r8, r0
 5347              	.LVL741:
 5348              		.loc 1 3040 0
 5349 013c 4AD8     		bhi	.L572
 5350              		.loc 1 3041 0
 5351 013e 831C     		adds	r3, r0, #2
 5352 0140 2363     		str	r3, [r4, #48]
 5353              		.loc 1 3044 0
 5354 0142 A563     		str	r5, [r4, #56]
 5355              		.loc 1 3045 0
 5356 0144 04F1A400 		add	r0, r4, #164
 5357              	.LVL742:
 5358 0148 FFF7FEFF 		bl	ld_dword
ARM GAS  C:\cygwin64\tmp\cc6eY66b.s 			page 95


 5359              	.LVL743:
 5360 014c 2918     		adds	r1, r5, r0
 5361 014e 6164     		str	r1, [r4, #68]
 5362              		.loc 1 3046 0
 5363 0150 04F19C00 		add	r0, r4, #156
 5364 0154 FFF7FEFF 		bl	ld_dword
 5365              	.LVL744:
 5366              		.loc 1 3047 0
 5367 0158 1FFA89F3 		uxth	r3, r9
 5368 015c 08FB03F8 		mul	r8, r8, r3
 5369              	.LVL745:
 5370 0160 11EB0802 		adds	r2, r1, r8
 5371 0164 4FF00003 		mov	r3, #0
 5372 0168 43F10003 		adc	r3, r3, #0
 5373 016c 9F42     		cmp	r7, r3
 5374              		.loc 1 3046 0
 5375 016e 2844     		add	r0, r0, r5
 5376              		.loc 1 3047 0
 5377 0170 08BF     		it	eq
 5378 0172 9642     		cmpeq	r6, r2
 5379              		.loc 1 3046 0
 5380 0174 E063     		str	r0, [r4, #60]
 5381              		.loc 1 3047 0
 5382 0176 2DD3     		bcc	.L572
 5383              		.loc 1 3048 0
 5384 0178 04F1AC00 		add	r0, r4, #172
 5385 017c FFF7FEFF 		bl	ld_dword
 5386              	.LVL746:
 5387 0180 0146     		mov	r1, r0
 5388 0182 2064     		str	r0, [r4, #64]
 5389              		.loc 1 3051 0
 5390 0184 2046     		mov	r0, r4
 5391 0186 FFF7FEFF 		bl	clust2sect
 5392              	.LVL747:
 5393 018a 0146     		mov	r1, r0
 5394 018c 2046     		mov	r0, r4
 5395 018e FFF7FEFF 		bl	move_window
 5396              	.LVL748:
 5397 0192 D8B9     		cbnz	r0, .L573
 5398 0194 04F16001 		add	r1, r4, #96
 5399 0198 04F51875 		add	r5, r4, #608
 5400              	.L576:
 5401              		.loc 1 3053 0
 5402 019c 11F8143C 		ldrb	r3, [r1, #-20]	@ zero_extendqisi2
 5403 01a0 812B     		cmp	r3, #129
 5404 01a2 05D1     		bne	.L574
 5405              		.loc 1 3053 0 is_stmt 0 discriminator 1
 5406 01a4 0846     		mov	r0, r1
 5407 01a6 FFF7FEFF 		bl	ld_dword
 5408              	.LVL749:
 5409 01aa 0228     		cmp	r0, #2
 5410 01ac 00F0F580 		beq	.L575
 5411              	.L574:
 5412 01b0 2031     		adds	r1, r1, #32
 5413              		.loc 1 3052 0 is_stmt 1 discriminator 2
 5414 01b2 8D42     		cmp	r5, r1
 5415 01b4 F2D1     		bne	.L576
ARM GAS  C:\cygwin64\tmp\cc6eY66b.s 			page 96


 5416 01b6 0DE0     		b	.L572
 5417              	.LVL750:
 5418              	.L595:
 5419              	.LBE379:
 5420              		.loc 1 3008 0
 5421 01b8 0320     		movs	r0, #3
 5422              	.L563:
 5423              		.loc 1 3009 0 discriminator 1
 5424 01ba 0136     		adds	r6, r6, #1
 5425              	.LVL751:
 5426 01bc 042E     		cmp	r6, #4
 5427 01be 7FF46FAF 		bne	.L565
 5428              	.LVL752:
 5429              		.loc 1 3011 0
 5430 01c2 0428     		cmp	r0, #4
 5431 01c4 06D1     		bne	.L572
 5432 01c6 01E0     		b	.L573
 5433              	.LVL753:
 5434              	.L560:
 5435 01c8 0428     		cmp	r0, #4
 5436 01ca 01D1     		bne	.L567
 5437              	.LVL754:
 5438              	.L573:
 5439 01cc 0120     		movs	r0, #1
 5440 01ce 40E7     		b	.L627
 5441              	.LVL755:
 5442              	.L567:
 5443              		.loc 1 3012 0
 5444 01d0 0128     		cmp	r0, #1
 5445 01d2 01D9     		bls	.L596
 5446              	.LVL756:
 5447              	.L572:
 5448 01d4 0D20     		movs	r0, #13
 5449 01d6 3CE7     		b	.L627
 5450              	.LVL757:
 5451              	.L596:
 5452              		.loc 1 2997 0
 5453 01d8 0025     		movs	r5, #0
 5454              	.LVL758:
 5455 01da 6DE7     		b	.L564
 5456              	.L631:
 5457              		.align	2
 5458              	.L630:
 5459 01dc 00000000 		.word	.LANCHOR1
 5460 01e0 FDFFFF7F 		.word	2147483645
 5461              	.LVL759:
 5462              	.L568:
 5463              	.LBB382:
 5464              	.LBB383:
 5465              		.loc 1 607 0
 5466 01e4 94F85820 		ldrb	r2, [r4, #88]	@ zero_extendqisi2
 5467 01e8 94F85730 		ldrb	r3, [r4, #87]	@ zero_extendqisi2
 5468 01ec 43EA0223 		orr	r3, r3, r2, lsl #8
 5469              	.LBE383:
 5470              	.LBE382:
 5471              		.loc 1 3063 0
 5472 01f0 B3F5007F 		cmp	r3, #512
ARM GAS  C:\cygwin64\tmp\cc6eY66b.s 			page 97


 5473 01f4 EED1     		bne	.L572
 5474              	.LVL760:
 5475              	.LBB384:
 5476              	.LBB385:
 5477              		.loc 1 607 0
 5478 01f6 94F86330 		ldrb	r3, [r4, #99]	@ zero_extendqisi2
 5479 01fa 94F86260 		ldrb	r6, [r4, #98]	@ zero_extendqisi2
 5480              	.LVL761:
 5481              	.LBE385:
 5482              	.LBE384:
 5483              		.loc 1 3066 0
 5484 01fe 56EA0326 		orrs	r6, r6, r3, lsl #8
 5485              	.LVL762:
 5486 0202 04D1     		bne	.L578
 5487              		.loc 1 3066 0 is_stmt 0 discriminator 1
 5488 0204 04F17000 		add	r0, r4, #112
 5489              	.LVL763:
 5490 0208 FFF7FEFF 		bl	ld_dword
 5491              	.LVL764:
 5492 020c 0646     		mov	r6, r0
 5493              	.LVL765:
 5494              	.L578:
 5495              		.loc 1 3069 0 is_stmt 1
 5496 020e 94F85C80 		ldrb	r8, [r4, #92]	@ zero_extendqisi2
 5497              		.loc 1 3067 0
 5498 0212 6663     		str	r6, [r4, #52]
 5499              		.loc 1 3070 0
 5500 0214 08F1FF33 		add	r3, r8, #-1
 5501 0218 012B     		cmp	r3, #1
 5502              		.loc 1 3069 0
 5503 021a 84F80280 		strb	r8, [r4, #2]
 5504              		.loc 1 3070 0
 5505 021e D9D8     		bhi	.L572
 5506              		.loc 1 3073 0
 5507 0220 94F85970 		ldrb	r7, [r4, #89]	@ zero_extendqisi2
 5508              	.LVL766:
 5509 0224 BBB2     		uxth	r3, r7
 5510              		.loc 1 3071 0
 5511 0226 06FB08F8 		mul	r8, r6, r8
 5512              	.LVL767:
 5513              		.loc 1 3073 0
 5514 022a 6381     		strh	r3, [r4, #10]	@ movhi
 5515              		.loc 1 3074 0
 5516 022c 002B     		cmp	r3, #0
 5517 022e D1D0     		beq	.L572
 5518              		.loc 1 3074 0 is_stmt 0 discriminator 2
 5519 0230 7B1E     		subs	r3, r7, #1
 5520 0232 3B42     		tst	r3, r7
 5521 0234 CED1     		bne	.L572
 5522              	.LVL768:
 5523              	.LBB386:
 5524              	.LBB387:
 5525              		.loc 1 607 0 is_stmt 1
 5526 0236 94F85E30 		ldrb	r3, [r4, #94]	@ zero_extendqisi2
 5527 023a 94F85D90 		ldrb	r9, [r4, #93]	@ zero_extendqisi2
 5528 023e 49EA0329 		orr	r9, r9, r3, lsl #8
 5529              	.LVL769:
ARM GAS  C:\cygwin64\tmp\cc6eY66b.s 			page 98


 5530              	.LBE387:
 5531              	.LBE386:
 5532              		.loc 1 3077 0
 5533 0242 19F00F0F 		tst	r9, #15
 5534              		.loc 1 3076 0
 5535 0246 A4F80890 		strh	r9, [r4, #8]	@ movhi
 5536              		.loc 1 3077 0
 5537 024a C3D1     		bne	.L572
 5538              	.LVL770:
 5539              	.LBB388:
 5540              	.LBB389:
 5541              		.loc 1 607 0
 5542 024c 94F86010 		ldrb	r1, [r4, #96]	@ zero_extendqisi2
 5543 0250 94F85F00 		ldrb	r0, [r4, #95]	@ zero_extendqisi2
 5544              	.LVL771:
 5545              	.LBE389:
 5546              	.LBE388:
 5547              		.loc 1 3080 0
 5548 0254 50EA0120 		orrs	r0, r0, r1, lsl #8
 5549              	.LVL772:
 5550 0258 03D1     		bne	.L579
 5551              		.loc 1 3080 0 is_stmt 0 discriminator 1
 5552 025a 04F16C00 		add	r0, r4, #108
 5553              	.LVL773:
 5554 025e FFF7FEFF 		bl	ld_dword
 5555              	.LVL774:
 5556              	.L579:
 5557              	.LBB390:
 5558              	.LBB391:
 5559              		.loc 1 607 0 is_stmt 1
 5560 0262 94F85B20 		ldrb	r2, [r4, #91]	@ zero_extendqisi2
 5561 0266 94F85A30 		ldrb	r3, [r4, #90]	@ zero_extendqisi2
 5562              	.LBE391:
 5563              	.LBE390:
 5564              		.loc 1 3083 0
 5565 026a 53EA0223 		orrs	r3, r3, r2, lsl #8
 5566 026e B1D0     		beq	.L572
 5567              		.loc 1 3086 0
 5568 0270 03EB1912 		add	r2, r3, r9, lsr #4
 5569 0274 4244     		add	r2, r2, r8
 5570              	.LVL775:
 5571              		.loc 1 3087 0
 5572 0276 9042     		cmp	r0, r2
 5573 0278 ACD3     		bcc	.L572
 5574              		.loc 1 3088 0
 5575 027a 811A     		subs	r1, r0, r2
 5576 027c B1FBF7F1 		udiv	r1, r1, r7
 5577              	.LVL776:
 5578              		.loc 1 3089 0
 5579 0280 0029     		cmp	r1, #0
 5580 0282 A7D0     		beq	.L572
 5581              	.LVL777:
 5582              		.loc 1 3091 0
 5583 0284 4FF6F570 		movw	r0, #65525
 5584              	.LVL778:
 5585 0288 8142     		cmp	r1, r0
 5586 028a 67D8     		bhi	.L597
ARM GAS  C:\cygwin64\tmp\cc6eY66b.s 			page 99


 5587              	.LVL779:
 5588              		.loc 1 3092 0
 5589 028c 40F6F577 		movw	r7, #4085
 5590 0290 B942     		cmp	r1, r7
 5591 0292 8CBF     		ite	hi
 5592 0294 0227     		movhi	r7, #2
 5593 0296 0127     		movls	r7, #1
 5594              	.LVL780:
 5595              	.L580:
 5596              		.loc 1 3095 0
 5597 0298 0231     		adds	r1, r1, #2
 5598              	.LVL781:
 5599              		.loc 1 3097 0
 5600 029a 2B44     		add	r3, r3, r5
 5601              		.loc 1 3098 0
 5602 029c 2A44     		add	r2, r2, r5
 5603              	.LVL782:
 5604              		.loc 1 3099 0
 5605 029e 032F     		cmp	r7, #3
 5606              		.loc 1 3095 0
 5607 02a0 2163     		str	r1, [r4, #48]
 5608              		.loc 1 3096 0
 5609 02a2 A563     		str	r5, [r4, #56]
 5610              		.loc 1 3097 0
 5611 02a4 E363     		str	r3, [r4, #60]
 5612              		.loc 1 3098 0
 5613 02a6 6264     		str	r2, [r4, #68]
 5614              		.loc 1 3099 0
 5615 02a8 5AD1     		bne	.L581
 5616              	.LVL783:
 5617              	.LBB392:
 5618              	.LBB393:
 5619              		.loc 1 607 0
 5620 02aa 94F87720 		ldrb	r2, [r4, #119]	@ zero_extendqisi2
 5621 02ae 94F87630 		ldrb	r3, [r4, #118]	@ zero_extendqisi2
 5622              	.LBE393:
 5623              	.LBE392:
 5624              		.loc 1 3100 0
 5625 02b2 53EA0223 		orrs	r3, r3, r2, lsl #8
 5626 02b6 8DD1     		bne	.L572
 5627              		.loc 1 3101 0
 5628 02b8 B9F1000F 		cmp	r9, #0
 5629 02bc 8AD1     		bne	.L572
 5630              		.loc 1 3102 0
 5631 02be 04F17800 		add	r0, r4, #120
 5632 02c2 FFF7FEFF 		bl	ld_dword
 5633              	.LVL784:
 5634 02c6 2064     		str	r0, [r4, #64]
 5635              		.loc 1 3103 0
 5636 02c8 8900     		lsls	r1, r1, #2
 5637              	.LVL785:
 5638              	.L582:
 5639              		.loc 1 3110 0
 5640 02ca 01F2FF11 		addw	r1, r1, #511
 5641              	.LVL786:
 5642 02ce B6EB512F 		cmp	r6, r1, lsr #9
 5643 02d2 FFF47FAF 		bcc	.L572
ARM GAS  C:\cygwin64\tmp\cc6eY66b.s 			page 100


 5644              		.loc 1 3114 0
 5645 02d6 4FF0FF33 		mov	r3, #-1
 5646 02da E361     		str	r3, [r4, #28]
 5647 02dc A361     		str	r3, [r4, #24]
 5648              		.loc 1 3117 0
 5649 02de 032F     		cmp	r7, #3
 5650              		.loc 1 3115 0
 5651 02e0 4FF08003 		mov	r3, #128
 5652 02e4 2371     		strb	r3, [r4, #4]
 5653              		.loc 1 3117 0
 5654 02e6 2FD1     		bne	.L584
 5655              	.LBB394:
 5656              	.LBB395:
 5657              		.loc 1 607 0
 5658 02e8 94F87D20 		ldrb	r2, [r4, #125]	@ zero_extendqisi2
 5659 02ec 94F87C30 		ldrb	r3, [r4, #124]	@ zero_extendqisi2
 5660 02f0 43EA0223 		orr	r3, r3, r2, lsl #8
 5661              	.LBE395:
 5662              	.LBE394:
 5663              		.loc 1 3118 0
 5664 02f4 012B     		cmp	r3, #1
 5665 02f6 27D1     		bne	.L584
 5666              		.loc 1 3119 0
 5667 02f8 691C     		adds	r1, r5, #1
 5668              	.LVL787:
 5669 02fa 2046     		mov	r0, r4
 5670 02fc FFF7FEFF 		bl	move_window
 5671              	.LVL788:
 5672 0300 10BB     		cbnz	r0, .L584
 5673              	.LBB396:
 5674              	.LBB397:
 5675              		.loc 1 607 0
 5676 0302 94F84B22 		ldrb	r2, [r4, #587]	@ zero_extendqisi2
 5677 0306 94F84A32 		ldrb	r3, [r4, #586]	@ zero_extendqisi2
 5678              	.LBE397:
 5679              	.LBE396:
 5680              		.loc 1 3121 0
 5681 030a 2071     		strb	r0, [r4, #4]
 5682              	.LBB399:
 5683              	.LBB398:
 5684              		.loc 1 607 0
 5685 030c 43EA0223 		orr	r3, r3, r2, lsl #8
 5686              	.LBE398:
 5687              	.LBE399:
 5688              		.loc 1 3122 0
 5689 0310 4AF65522 		movw	r2, #43605
 5690 0314 9342     		cmp	r3, r2
 5691 0316 17D1     		bne	.L584
 5692              		.loc 1 3123 0
 5693 0318 04F14C00 		add	r0, r4, #76
 5694 031c FFF7FEFF 		bl	ld_dword
 5695              	.LVL789:
 5696 0320 214B     		ldr	r3, .L632
 5697 0322 9842     		cmp	r0, r3
 5698 0324 10D1     		bne	.L584
 5699              		.loc 1 3124 0
 5700 0326 04F50C70 		add	r0, r4, #560
ARM GAS  C:\cygwin64\tmp\cc6eY66b.s 			page 101


 5701 032a FFF7FEFF 		bl	ld_dword
 5702              	.LVL790:
 5703 032e 1F4B     		ldr	r3, .L632+4
 5704 0330 9842     		cmp	r0, r3
 5705 0332 09D1     		bne	.L584
 5706              		.loc 1 3127 0
 5707 0334 04F50D70 		add	r0, r4, #564
 5708 0338 FFF7FEFF 		bl	ld_dword
 5709              	.LVL791:
 5710 033c E061     		str	r0, [r4, #28]
 5711              		.loc 1 3130 0
 5712 033e 04F50E70 		add	r0, r4, #568
 5713 0342 FFF7FEFF 		bl	ld_dword
 5714              	.LVL792:
 5715 0346 A061     		str	r0, [r4, #24]
 5716              	.LVL793:
 5717              	.L584:
 5718              		.loc 1 3139 0
 5719 0348 194A     		ldr	r2, .L632+8
 5720              		.loc 1 3138 0
 5721 034a 2770     		strb	r7, [r4]
 5722              		.loc 1 3139 0
 5723 034c 1388     		ldrh	r3, [r2]
 5724 034e 0133     		adds	r3, r3, #1
 5725 0350 9BB2     		uxth	r3, r3
 5726              		.loc 1 3147 0
 5727 0352 0020     		movs	r0, #0
 5728              		.loc 1 3139 0
 5729 0354 1380     		strh	r3, [r2]	@ movhi
 5730 0356 E380     		strh	r3, [r4, #6]	@ movhi
 5731              		.loc 1 3147 0
 5732 0358 2062     		str	r0, [r4, #32]
 5733              		.loc 1 3152 0
 5734 035a 7AE6     		b	.L627
 5735              	.LVL794:
 5736              	.L597:
 5737              		.loc 1 3090 0
 5738 035c 0327     		movs	r7, #3
 5739 035e 9BE7     		b	.L580
 5740              	.LVL795:
 5741              	.L581:
 5742              		.loc 1 3105 0
 5743 0360 B9F1000F 		cmp	r9, #0
 5744 0364 3FF436AF 		beq	.L572
 5745              		.loc 1 3108 0
 5746 0368 022F     		cmp	r7, #2
 5747 036a 4FEA4100 		lsl	r0, r1, #1
 5748 036e 18BF     		it	ne
 5749 0370 4018     		addne	r0, r0, r1
 5750              		.loc 1 3106 0
 5751 0372 4344     		add	r3, r3, r8
 5752              		.loc 1 3108 0
 5753 0374 18BF     		it	ne
 5754 0376 01F00101 		andne	r1, r1, #1
 5755              	.LVL796:
 5756              		.loc 1 3106 0
 5757 037a 2364     		str	r3, [r4, #64]
ARM GAS  C:\cygwin64\tmp\cc6eY66b.s 			page 102


 5758              		.loc 1 3108 0
 5759 037c 0CBF     		ite	eq
 5760 037e 0146     		moveq	r1, r0
 5761 0380 01EB5001 		addne	r1, r1, r0, lsr #1
 5762 0384 A1E7     		b	.L582
 5763              	.LVL797:
 5764              	.L588:
 5765              		.loc 1 2960 0
 5766 0386 0B20     		movs	r0, #11
 5767              	.LVL798:
 5768 0388 63E6     		b	.L627
 5769              	.LVL799:
 5770              	.L589:
 5771              		.loc 1 2964 0
 5772 038a 0C20     		movs	r0, #12
 5773              	.LVL800:
 5774 038c 61E6     		b	.L627
 5775              	.LVL801:
 5776              	.L590:
 5777              		.loc 1 2966 0
 5778 038e 0F20     		movs	r0, #15
 5779 0390 5FE6     		b	.L627
 5780              	.LVL802:
 5781              	.L591:
 5782              		.loc 1 2976 0
 5783 0392 2846     		mov	r0, r5
 5784              	.LVL803:
 5785 0394 5DE6     		b	.L627
 5786              	.LVL804:
 5787              	.L593:
 5788              		.loc 1 2987 0
 5789 0396 0320     		movs	r0, #3
 5790              	.LVL805:
 5791 0398 5BE6     		b	.L627
 5792              	.LVL806:
 5793              	.L575:
 5794              	.LBB400:
 5795              		.loc 1 3057 0
 5796 039a 4FF0FF33 		mov	r3, #-1
 5797 039e E361     		str	r3, [r4, #28]
 5798 03a0 A361     		str	r3, [r4, #24]
 5799              	.LVL807:
 5800              		.loc 1 3059 0
 5801 03a2 0427     		movs	r7, #4
 5802              	.LBE400:
 5803 03a4 D0E7     		b	.L584
 5804              	.L633:
 5805 03a6 00BF     		.align	2
 5806              	.L632:
 5807 03a8 52526141 		.word	1096897106
 5808 03ac 72724161 		.word	1631679090
 5809 03b0 00000000 		.word	.LANCHOR2
 5810              		.cfi_endproc
 5811              	.LFE295:
 5812              		.size	find_volume, .-find_volume
 5813              		.section	.text.follow_path,"ax",%progbits
 5814              		.align	1
ARM GAS  C:\cygwin64\tmp\cc6eY66b.s 			page 103


 5815              		.syntax unified
 5816              		.thumb
 5817              		.thumb_func
 5818              		.fpu fpv4-sp-d16
 5819              		.type	follow_path, %function
 5820              	follow_path:
 5821              	.LFB292:
 5822              		.loc 1 2769 0
 5823              		.cfi_startproc
 5824              		@ args = 0, pretend = 0, frame = 80
 5825              		@ frame_needed = 0, uses_anonymous_args = 0
 5826              	.LVL808:
 5827 0000 2DE9F04F 		push	{r4, r5, r6, r7, r8, r9, r10, fp, lr}
 5828              		.cfi_def_cfa_offset 36
 5829              		.cfi_offset 4, -36
 5830              		.cfi_offset 5, -32
 5831              		.cfi_offset 6, -28
 5832              		.cfi_offset 7, -24
 5833              		.cfi_offset 8, -20
 5834              		.cfi_offset 9, -16
 5835              		.cfi_offset 10, -12
 5836              		.cfi_offset 11, -8
 5837              		.cfi_offset 14, -4
 5838              		.loc 1 2777 0
 5839 0004 0B78     		ldrb	r3, [r1]	@ zero_extendqisi2
 5840              		.loc 1 2773 0
 5841 0006 D0F800A0 		ldr	r10, [r0]
 5842              	.LVL809:
 5843              		.loc 1 2777 0
 5844 000a 2F2B     		cmp	r3, #47
 5845              		.loc 1 2769 0
 5846 000c 95B0     		sub	sp, sp, #84
 5847              		.cfi_def_cfa_offset 120
 5848              		.loc 1 2769 0
 5849 000e 0446     		mov	r4, r0
 5850 0010 8846     		mov	r8, r1
 5851              		.loc 1 2777 0
 5852 0012 01D0     		beq	.L635
 5853              		.loc 1 2777 0 is_stmt 0 discriminator 1
 5854 0014 5C2B     		cmp	r3, #92
 5855 0016 0AD1     		bne	.L636
 5856              	.L635:
 5857 0018 4246     		mov	r2, r8
 5858              	.LVL810:
 5859              	.L637:
 5860              		.loc 1 2782 0 is_stmt 1 discriminator 1
 5861 001a 1378     		ldrb	r3, [r2]	@ zero_extendqisi2
 5862 001c 2F2B     		cmp	r3, #47
 5863 001e 9046     		mov	r8, r2
 5864              	.LVL811:
 5865 0020 02F10102 		add	r2, r2, #1
 5866              	.LVL812:
 5867 0024 F9D0     		beq	.L637
 5868              		.loc 1 2782 0 is_stmt 0 discriminator 3
 5869 0026 5C2B     		cmp	r3, #92
 5870 0028 F7D0     		beq	.L637
 5871              		.loc 1 2783 0 is_stmt 1
ARM GAS  C:\cygwin64\tmp\cc6eY66b.s 			page 104


 5872 002a 0023     		movs	r3, #0
 5873 002c 01E0     		b	.L783
 5874              	.LVL813:
 5875              	.L636:
 5876              		.loc 1 2778 0
 5877 002e DAF82030 		ldr	r3, [r10, #32]
 5878              	.LVL814:
 5879              	.L783:
 5880              		.loc 1 2783 0
 5881 0032 A360     		str	r3, [r4, #8]
 5882              		.loc 1 2786 0
 5883 0034 9AF80030 		ldrb	r3, [r10]	@ zero_extendqisi2
 5884 0038 042B     		cmp	r3, #4
 5885 003a 1DD1     		bne	.L640
 5886              		.loc 1 2786 0 is_stmt 0 discriminator 1
 5887 003c A368     		ldr	r3, [r4, #8]
 5888 003e DBB1     		cbz	r3, .L640
 5889              	.LBB408:
 5890              		.loc 1 2789 0 is_stmt 1
 5891 0040 DAF82430 		ldr	r3, [r10, #36]
 5892 0044 E361     		str	r3, [r4, #28]
 5893              		.loc 1 2790 0
 5894 0046 DAF82830 		ldr	r3, [r10, #40]
 5895 004a 2362     		str	r3, [r4, #32]
 5896              		.loc 1 2791 0
 5897 004c DAF82C30 		ldr	r3, [r10, #44]
 5898 0050 6362     		str	r3, [r4, #36]
 5899              		.loc 1 2792 0
 5900 0052 2146     		mov	r1, r4
 5901 0054 02A8     		add	r0, sp, #8
 5902              	.LVL815:
 5903 0056 FFF7FEFF 		bl	load_obj_dir
 5904              	.LVL816:
 5905 005a 0146     		mov	r1, r0
 5906              	.LVL817:
 5907              		.loc 1 2793 0
 5908 005c B8B9     		cbnz	r0, .L708
 5909              		.loc 1 2794 0
 5910 005e DAF81050 		ldr	r5, [r10, #16]
 5911 0062 05F13800 		add	r0, r5, #56
 5912              	.LVL818:
 5913 0066 FFF7FEFF 		bl	ld_dword
 5914              	.LVL819:
 5915 006a 2061     		str	r0, [r4, #16]
 5916 006c 6161     		str	r1, [r4, #20]
 5917              		.loc 1 2795 0
 5918 006e 95F82130 		ldrb	r3, [r5, #33]	@ zero_extendqisi2
 5919 0072 03F00203 		and	r3, r3, #2
 5920 0076 E371     		strb	r3, [r4, #7]
 5921              	.L640:
 5922              	.LBE408:
 5923              		.loc 1 2799 0
 5924 0078 98F80030 		ldrb	r3, [r8]	@ zero_extendqisi2
 5925 007c 1F2B     		cmp	r3, #31
 5926 007e 68D8     		bhi	.L644
 5927              		.loc 1 2800 0
 5928 0080 8023     		movs	r3, #128
ARM GAS  C:\cygwin64\tmp\cc6eY66b.s 			page 105


 5929 0082 84F84330 		strb	r3, [r4, #67]
 5930              		.loc 1 2801 0
 5931 0086 0021     		movs	r1, #0
 5932 0088 2046     		mov	r0, r4
 5933 008a FFF7FEFF 		bl	dir_sdi
 5934              	.LVL820:
 5935              	.L708:
 5936              		.loc 1 2843 0
 5937 008e 15B0     		add	sp, sp, #84
 5938              		.cfi_remember_state
 5939              		.cfi_def_cfa_offset 36
 5940              		@ sp needed
 5941 0090 BDE8F08F 		pop	{r4, r5, r6, r7, r8, r9, r10, fp, pc}
 5942              	.LVL821:
 5943              	.L646:
 5944              		.cfi_restore_state
 5945              	.LBB409:
 5946              	.LBB410:
 5947              		.loc 1 2586 0
 5948 0094 5C28     		cmp	r0, #92
 5949 0096 6CD0     		beq	.L648
 5950              		.loc 1 2590 0
 5951 0098 B5F5807F 		cmp	r5, #256
 5952 009c 0BD0     		beq	.L651
 5953              		.loc 1 2598 0
 5954 009e 0121     		movs	r1, #1
 5955 00a0 FFF7FEFF 		bl	ff_convert
 5956              	.LVL822:
 5957              		.loc 1 2599 0
 5958 00a4 38B1     		cbz	r0, .L651
 5959              		.loc 1 2601 0
 5960 00a6 7F28     		cmp	r0, #127
 5961 00a8 07D8     		bhi	.L652
 5962 00aa A34A     		ldr	r2, .L785
 5963              	.L653:
 5964              	.LVL823:
 5965              	.LBB411:
 5966              	.LBB412:
 5967              		.loc 1 715 0
 5968 00ac 12F8013F 		ldrb	r3, [r2, #1]!	@ zero_extendqisi2
 5969              	.LVL824:
 5970 00b0 1BB1     		cbz	r3, .L652
 5971 00b2 9842     		cmp	r0, r3
 5972 00b4 FAD1     		bne	.L653
 5973              	.LVL825:
 5974              	.L651:
 5975              	.LBE412:
 5976              	.LBE411:
 5977              	.LBE410:
 5978              	.LBE409:
 5979              		.loc 1 2816 0
 5980 00b6 0620     		movs	r0, #6
 5981 00b8 E9E7     		b	.L708
 5982              	.LVL826:
 5983              	.L652:
 5984              	.LBB418:
 5985              	.LBB415:
ARM GAS  C:\cygwin64\tmp\cc6eY66b.s 			page 106


 5986              		.loc 1 2602 0
 5987 00ba 27F8020F 		strh	r0, [r7, #2]!	@ movhi
 5988 00be 2E46     		mov	r6, r5
 5989 00c0 4FE0     		b	.L654
 5990              	.LVL827:
 5991              	.L656:
 5992              		.loc 1 2607 0
 5993 00c2 022E     		cmp	r6, #2
 5994 00c4 6AD1     		bne	.L659
 5995              		.loc 1 2608 0
 5996 00c6 B9F80230 		ldrh	r3, [r9, #2]
 5997 00ca 2E2B     		cmp	r3, #46
 5998 00cc 66D1     		bne	.L659
 5999 00ce 61E0     		b	.L784
 6000              	.L657:
 6001              		.loc 1 2609 0
 6002 00d0 0023     		movs	r3, #0
 6003 00d2 29F81630 		strh	r3, [r9, r6, lsl #1]	@ movhi
 6004              	.LVL828:
 6005 00d6 04F13802 		add	r2, r4, #56
 6006              	.LVL829:
 6007              	.L661:
 6008              		.loc 1 2611 0
 6009 00da 9E42     		cmp	r6, r3
 6010 00dc 94BF     		ite	ls
 6011 00de 2021     		movls	r1, #32
 6012 00e0 2E21     		movhi	r1, #46
 6013              		.loc 1 2610 0
 6014 00e2 0133     		adds	r3, r3, #1
 6015              	.LVL830:
 6016 00e4 0B2B     		cmp	r3, #11
 6017              		.loc 1 2611 0
 6018 00e6 02F8011B 		strb	r1, [r2], #1
 6019              		.loc 1 2610 0
 6020 00ea F6D1     		bne	.L661
 6021              		.loc 1 2612 0
 6022 00ec 45F02005 		orr	r5, r5, #32
 6023              	.LVL831:
 6024              	.L693:
 6025              		.loc 1 2688 0
 6026 00f0 84F84350 		strb	r5, [r4, #67]
 6027              	.LVL832:
 6028              	.LBE415:
 6029              	.LBE418:
 6030              		.loc 1 2807 0
 6031 00f4 2046     		mov	r0, r4
 6032 00f6 FFF7FEFF 		bl	dir_find
 6033              	.LVL833:
 6034              		.loc 1 2808 0
 6035 00fa 94F84330 		ldrb	r3, [r4, #67]	@ zero_extendqisi2
 6036              	.LVL834:
 6037              		.loc 1 2809 0
 6038 00fe 0028     		cmp	r0, #0
 6039 0100 40F0C380 		bne	.L698
 6040              		.loc 1 2821 0
 6041 0104 5A07     		lsls	r2, r3, #29
 6042 0106 C2D4     		bmi	.L708
ARM GAS  C:\cygwin64\tmp\cc6eY66b.s 			page 107


 6043              		.loc 1 2823 0
 6044 0108 A379     		ldrb	r3, [r4, #6]	@ zero_extendqisi2
 6045              	.LVL835:
 6046 010a DB06     		lsls	r3, r3, #27
 6047 010c 40F1DB80 		bpl	.L707
 6048              		.loc 1 2827 0
 6049 0110 9AF80000 		ldrb	r0, [r10]	@ zero_extendqisi2
 6050              	.LVL836:
 6051 0114 0428     		cmp	r0, #4
 6052 0116 40F0CC80 		bne	.L697
 6053              		.loc 1 2828 0
 6054 011a A368     		ldr	r3, [r4, #8]
 6055 011c E361     		str	r3, [r4, #28]
 6056              		.loc 1 2829 0
 6057 011e 2369     		ldr	r3, [r4, #16]
 6058 0120 E279     		ldrb	r2, [r4, #7]	@ zero_extendqisi2
 6059              		.loc 1 2831 0
 6060 0122 DAF81010 		ldr	r1, [r10, #16]
 6061              		.loc 1 2829 0
 6062 0126 23F0FF03 		bic	r3, r3, #255
 6063 012a 1343     		orrs	r3, r3, r2
 6064 012c 2362     		str	r3, [r4, #32]
 6065              		.loc 1 2830 0
 6066 012e 636C     		ldr	r3, [r4, #68]
 6067 0130 6362     		str	r3, [r4, #36]
 6068              		.loc 1 2831 0
 6069 0132 01F13400 		add	r0, r1, #52
 6070 0136 FFF7FEFF 		bl	ld_dword
 6071              	.LVL837:
 6072 013a A060     		str	r0, [r4, #8]
 6073              		.loc 1 2832 0
 6074 013c 91F82130 		ldrb	r3, [r1, #33]	@ zero_extendqisi2
 6075 0140 03F00203 		and	r3, r3, #2
 6076 0144 E371     		strb	r3, [r4, #7]
 6077              		.loc 1 2833 0
 6078 0146 01F13800 		add	r0, r1, #56
 6079 014a FFF7FEFF 		bl	ld_qword
 6080              	.LVL838:
 6081 014e C4E90401 		strd	r0, [r4, #16]
 6082              	.L644:
 6083              	.LVL839:
 6084              	.LBB419:
 6085              	.LBB416:
 6086              		.loc 1 2582 0
 6087 0152 2368     		ldr	r3, [r4]
 6088 0154 D3F80C90 		ldr	r9, [r3, #12]
 6089              	.LVL840:
 6090 0158 08F1FF3B 		add	fp, r8, #-1
 6091 015c A9F10207 		sub	r7, r9, #2
 6092 0160 0026     		movs	r6, #0
 6093              	.LVL841:
 6094              	.L654:
 6095              		.loc 1 2584 0
 6096 0162 1BF8010F 		ldrb	r0, [fp, #1]!	@ zero_extendqisi2
 6097              		.loc 1 2585 0
 6098 0166 1F28     		cmp	r0, #31
 6099              		.loc 1 2584 0
ARM GAS  C:\cygwin64\tmp\cc6eY66b.s 			page 108


 6100 0168 06F10105 		add	r5, r6, #1
 6101              	.LVL842:
 6102              		.loc 1 2585 0
 6103 016c 0BD9     		bls	.L645
 6104              		.loc 1 2586 0
 6105 016e 2F28     		cmp	r0, #47
 6106 0170 90D1     		bne	.L646
 6107              	.L648:
 6108 0172 08EB0503 		add	r3, r8, r5
 6109              	.L647:
 6110 0176 A3EB0805 		sub	r5, r3, r8
 6111              	.LVL843:
 6112              		.loc 1 2587 0
 6113 017a 13F8012B 		ldrb	r2, [r3], #1	@ zero_extendqisi2
 6114 017e 2F2A     		cmp	r2, #47
 6115 0180 F9D0     		beq	.L647
 6116 0182 5C2A     		cmp	r2, #92
 6117 0184 F7D0     		beq	.L647
 6118              	.L645:
 6119              		.loc 1 2605 0
 6120 0186 1F28     		cmp	r0, #31
 6121              		.loc 1 2604 0
 6122 0188 A844     		add	r8, r8, r5
 6123              	.LVL844:
 6124              		.loc 1 2605 0
 6125 018a 8CBF     		ite	hi
 6126 018c 0025     		movhi	r5, #0
 6127              	.LVL845:
 6128 018e 0425     		movls	r5, #4
 6129              	.LVL846:
 6130              		.loc 1 2607 0
 6131 0190 012E     		cmp	r6, #1
 6132 0192 96D1     		bne	.L656
 6133              	.L784:
 6134 0194 B9F80030 		ldrh	r3, [r9]
 6135 0198 2E2B     		cmp	r3, #46
 6136 019a 99D0     		beq	.L657
 6137              	.L659:
 6138 019c 09EB4603 		add	r3, r9, r6, lsl #1
 6139              	.LVL847:
 6140              	.L658:
 6141              		.loc 1 2616 0
 6142 01a0 7EBB     		cbnz	r6, .L665
 6143              	.L664:
 6144              		.loc 1 2621 0
 6145 01a2 0027     		movs	r7, #0
 6146 01a4 09EB4603 		add	r3, r9, r6, lsl #1
 6147 01a8 29F81670 		strh	r7, [r9, r6, lsl #1]	@ movhi
 6148              		.loc 1 2622 0
 6149 01ac 002E     		cmp	r6, #0
 6150 01ae 82D0     		beq	.L651
 6151              		.loc 1 2625 0
 6152 01b0 2021     		movs	r1, #32
 6153 01b2 0B22     		movs	r2, #11
 6154 01b4 04F13800 		add	r0, r4, #56
 6155 01b8 FFF7FEFF 		bl	mem_set
 6156              	.LVL848:
ARM GAS  C:\cygwin64\tmp\cc6eY66b.s 			page 109


 6157              		.loc 1 2626 0
 6158 01bc 3946     		mov	r1, r7
 6159              	.LVL849:
 6160              	.L666:
 6161 01be 39F81120 		ldrh	r2, [r9, r1, lsl #1]
 6162 01c2 202A     		cmp	r2, #32
 6163 01c4 25D0     		beq	.L667
 6164 01c6 2E2A     		cmp	r2, #46
 6165 01c8 23D0     		beq	.L667
 6166              		.loc 1 2627 0
 6167 01ca 09B1     		cbz	r1, .L669
 6168 01cc 45F00305 		orr	r5, r5, #3
 6169              	.LVL850:
 6170              	.L669:
 6171              		.loc 1 2628 0
 6172 01d0 33F8022D 		ldrh	r2, [r3, #-2]!
 6173 01d4 2E2A     		cmp	r2, #46
 6174 01d6 01D0     		beq	.L672
 6175              	.LVL851:
 6176 01d8 013E     		subs	r6, r6, #1
 6177              	.LVL852:
 6178 01da F9D1     		bne	.L669
 6179              	.L672:
 6180              		.loc 1 2676 0
 6181 01dc 4FF0000B 		mov	fp, #0
 6182 01e0 0823     		movs	r3, #8
 6183 01e2 5F46     		mov	r7, fp
 6184              	.LVL853:
 6185              	.L670:
 6186              		.loc 1 2632 0
 6187 01e4 39F81100 		ldrh	r0, [r9, r1, lsl #1]
 6188 01e8 4A1C     		adds	r2, r1, #1
 6189              	.LVL854:
 6190              		.loc 1 2633 0
 6191 01ea 0028     		cmp	r0, #0
 6192 01ec 74D0     		beq	.L673
 6193              		.loc 1 2634 0
 6194 01ee 2028     		cmp	r0, #32
 6195 01f0 03D0     		beq	.L674
 6196 01f2 2E28     		cmp	r0, #46
 6197 01f4 0FD1     		bne	.L675
 6198 01f6 9642     		cmp	r6, r2
 6199 01f8 67D0     		beq	.L676
 6200              	.L674:
 6201              		.loc 1 2635 0
 6202 01fa 45F00305 		orr	r5, r5, #3
 6203              	.LVL855:
 6204              	.L677:
 6205              		.loc 1 2676 0
 6206 01fe 1146     		mov	r1, r2
 6207 0200 F0E7     		b	.L670
 6208              	.LVL856:
 6209              	.L665:
 6210              		.loc 1 2617 0
 6211 0202 33F8022D 		ldrh	r2, [r3, #-2]!
 6212              	.LVL857:
 6213              		.loc 1 2618 0
ARM GAS  C:\cygwin64\tmp\cc6eY66b.s 			page 110


 6214 0206 202A     		cmp	r2, #32
 6215 0208 01D0     		beq	.L663
 6216 020a 2E2A     		cmp	r2, #46
 6217 020c C9D1     		bne	.L664
 6218              	.L663:
 6219              		.loc 1 2619 0
 6220 020e 013E     		subs	r6, r6, #1
 6221              	.LVL858:
 6222 0210 C6E7     		b	.L658
 6223              	.LVL859:
 6224              	.L667:
 6225              		.loc 1 2626 0
 6226 0212 0131     		adds	r1, r1, #1
 6227              	.LVL860:
 6228 0214 D3E7     		b	.L666
 6229              	.LVL861:
 6230              	.L675:
 6231              		.loc 1 2638 0
 6232 0216 9B45     		cmp	fp, r3
 6233 0218 59D2     		bcs	.L678
 6234 021a 9642     		cmp	r6, r2
 6235 021c 0ED1     		bne	.L780
 6236              	.L679:
 6237              		.loc 1 2639 0
 6238 021e 0B2B     		cmp	r3, #11
 6239 0220 05D1     		bne	.L682
 6240 0222 56E0     		b	.L700
 6241              	.L681:
 6242              		.loc 1 2642 0
 6243 0224 9642     		cmp	r6, r2
 6244 0226 02D0     		beq	.L682
 6245 0228 45F00305 		orr	r5, r5, #3
 6246              	.LVL862:
 6247              		.loc 1 2643 0
 6248 022c 54D3     		bcc	.L673
 6249              	.L682:
 6250              	.LVL863:
 6251              		.loc 1 2645 0
 6252 022e BF00     		lsls	r7, r7, #2
 6253              	.LVL864:
 6254 0230 FFB2     		uxtb	r7, r7
 6255              	.LVL865:
 6256 0232 3246     		mov	r2, r6
 6257              		.loc 1 2644 0
 6258 0234 0B23     		movs	r3, #11
 6259 0236 4FF0080B 		mov	fp, #8
 6260 023a E0E7     		b	.L677
 6261              	.LVL866:
 6262              	.L780:
 6263              		.loc 1 2648 0
 6264 023c 7F28     		cmp	r0, #127
 6265 023e 0FD9     		bls	.L683
 6266              		.loc 1 2650 0
 6267 0240 0021     		movs	r1, #0
 6268 0242 8DE80C00 		stm	sp, {r2, r3}
 6269 0246 FFF7FEFF 		bl	ff_convert
 6270              	.LVL867:
ARM GAS  C:\cygwin64\tmp\cc6eY66b.s 			page 111


 6271              		.loc 1 2651 0
 6272 024a 9DE80C00 		ldm	sp, {r2, r3}
 6273 024e 18B1     		cbz	r0, .L684
 6274 0250 3A49     		ldr	r1, .L785+4
 6275 0252 0844     		add	r0, r0, r1
 6276              	.LVL868:
 6277 0254 10F8800C 		ldrb	r0, [r0, #-128]	@ zero_extendqisi2
 6278              	.LVL869:
 6279              	.L684:
 6280 0258 80B2     		uxth	r0, r0
 6281              	.LVL870:
 6282              		.loc 1 2655 0
 6283 025a 45F00205 		orr	r5, r5, #2
 6284              	.LVL871:
 6285              		.loc 1 2664 0
 6286 025e 38B1     		cbz	r0, .L685
 6287              	.LVL872:
 6288              	.L683:
 6289 0260 DFF8DCE0 		ldr	lr, .L785+8
 6290              	.LVL873:
 6291              	.L687:
 6292              	.LBB413:
 6293              	.LBB414:
 6294              		.loc 1 715 0
 6295 0264 1EF8011F 		ldrb	r1, [lr, #1]!	@ zero_extendqisi2
 6296              	.LVL874:
 6297 0268 0029     		cmp	r1, #0
 6298 026a 58D0     		beq	.L686
 6299 026c 8142     		cmp	r1, r0
 6300 026e F9D1     		bne	.L687
 6301              	.LVL875:
 6302              	.L685:
 6303              	.LBE414:
 6304              	.LBE413:
 6305              		.loc 1 2665 0
 6306 0270 45F00305 		orr	r5, r5, #3
 6307              	.LVL876:
 6308 0274 5F20     		movs	r0, #95
 6309              	.LVL877:
 6310              	.L688:
 6311              		.loc 1 2676 0
 6312 0276 04EB0B01 		add	r1, r4, fp
 6313 027a 0BF1010B 		add	fp, fp, #1
 6314              	.LVL878:
 6315 027e 81F83800 		strb	r0, [r1, #56]
 6316 0282 BCE7     		b	.L677
 6317              	.L701:
 6318              		.loc 1 2668 0
 6319 0284 47F00207 		orr	r7, r7, #2
 6320              	.LVL879:
 6321 0288 F5E7     		b	.L688
 6322              	.LVL880:
 6323              	.L698:
 6324              	.LBE416:
 6325              	.LBE419:
 6326              		.loc 1 2810 0
 6327 028a 0428     		cmp	r0, #4
ARM GAS  C:\cygwin64\tmp\cc6eY66b.s 			page 112


 6328 028c 7FF4FFAE 		bne	.L708
 6329              		.loc 1 2811 0
 6330 0290 13F0200F 		tst	r3, #32
 6331 0294 03F00403 		and	r3, r3, #4
 6332              	.LVL881:
 6333 0298 07D0     		beq	.L695
 6334              		.loc 1 2812 0
 6335 029a 002B     		cmp	r3, #0
 6336 029c 3FF459AF 		beq	.L644
 6337              		.loc 1 2813 0
 6338 02a0 8023     		movs	r3, #128
 6339 02a2 84F84330 		strb	r3, [r4, #67]
 6340              	.LVL882:
 6341              		.loc 1 2814 0
 6342 02a6 0020     		movs	r0, #0
 6343 02a8 F1E6     		b	.L708
 6344              	.LVL883:
 6345              	.L695:
 6346              		.loc 1 2816 0
 6347 02aa 002B     		cmp	r3, #0
 6348 02ac 08BF     		it	eq
 6349 02ae 0520     		moveq	r0, #5
 6350              	.LVL884:
 6351 02b0 EDE6     		b	.L708
 6352              	.L697:
 6353              		.loc 1 2837 0
 6354 02b2 A36A     		ldr	r3, [r4, #40]
 6355 02b4 0AF14C01 		add	r1, r10, #76
 6356 02b8 C3F30803 		ubfx	r3, r3, #0, #9
 6357 02bc 1944     		add	r1, r1, r3
 6358 02be FFF7FEFF 		bl	ld_clust.isra.1
 6359              	.LVL885:
 6360 02c2 A060     		str	r0, [r4, #8]
 6361 02c4 45E7     		b	.L644
 6362              	.LVL886:
 6363              	.L707:
 6364              		.loc 1 2816 0
 6365 02c6 0520     		movs	r0, #5
 6366              	.LVL887:
 6367 02c8 E1E6     		b	.L708
 6368              	.LVL888:
 6369              	.L676:
 6370              	.LBB420:
 6371              	.LBB417:
 6372              		.loc 1 2638 0
 6373 02ca 9B45     		cmp	fp, r3
 6374 02cc A7D3     		bcc	.L679
 6375              	.L678:
 6376              		.loc 1 2639 0
 6377 02ce 0B2B     		cmp	r3, #11
 6378 02d0 A8D1     		bne	.L681
 6379              	.L700:
 6380              		.loc 1 2640 0
 6381 02d2 45F00305 		orr	r5, r5, #3
 6382              	.LVL889:
 6383 02d6 0B23     		movs	r3, #11
 6384              	.LVL890:
ARM GAS  C:\cygwin64\tmp\cc6eY66b.s 			page 113


 6385              	.L673:
 6386              		.loc 1 2679 0
 6387 02d8 94F83820 		ldrb	r2, [r4, #56]	@ zero_extendqisi2
 6388              	.LVL891:
 6389 02dc E52A     		cmp	r2, #229
 6390 02de 04BF     		itt	eq
 6391 02e0 0522     		moveq	r2, #5
 6392 02e2 84F83820 		strbeq	r2, [r4, #56]
 6393              		.loc 1 2681 0
 6394 02e6 082B     		cmp	r3, #8
 6395 02e8 04BF     		itt	eq
 6396 02ea BF00     		lsleq	r7, r7, #2
 6397              	.LVL892:
 6398 02ec FFB2     		uxtbeq	r7, r7
 6399              	.LVL893:
 6400 02ee 07F00C03 		and	r3, r7, #12
 6401              		.loc 1 2682 0
 6402 02f2 0C2B     		cmp	r3, #12
 6403 02f4 03D0     		beq	.L691
 6404 02f6 07F00302 		and	r2, r7, #3
 6405 02fa 032A     		cmp	r2, #3
 6406 02fc 01D1     		bne	.L692
 6407              	.L691:
 6408 02fe 45F00205 		orr	r5, r5, #2
 6409              	.LVL894:
 6410              	.L692:
 6411              		.loc 1 2683 0
 6412 0302 A907     		lsls	r1, r5, #30
 6413              	.LVL895:
 6414 0304 3FF5F4AE 		bmi	.L693
 6415              		.loc 1 2684 0
 6416 0308 07F00307 		and	r7, r7, #3
 6417              	.LVL896:
 6418 030c 012F     		cmp	r7, #1
 6419 030e 08BF     		it	eq
 6420 0310 45F01005 		orreq	r5, r5, #16
 6421              	.LVL897:
 6422              		.loc 1 2685 0
 6423 0314 042B     		cmp	r3, #4
 6424 0316 08BF     		it	eq
 6425 0318 45F00805 		orreq	r5, r5, #8
 6426              	.LVL898:
 6427 031c E8E6     		b	.L693
 6428              	.LVL899:
 6429              	.L686:
 6430              		.loc 1 2667 0
 6431 031e A0F14101 		sub	r1, r0, #65
 6432 0322 1929     		cmp	r1, #25
 6433 0324 AED9     		bls	.L701
 6434              		.loc 1 2670 0
 6435 0326 A0F16101 		sub	r1, r0, #97
 6436 032a 1929     		cmp	r1, #25
 6437              		.loc 1 2671 0
 6438 032c 9EBF     		ittt	ls
 6439 032e 2038     		subls	r0, r0, #32
 6440              	.LVL900:
 6441 0330 47F00107 		orrls	r7, r7, #1
ARM GAS  C:\cygwin64\tmp\cc6eY66b.s 			page 114


 6442              	.LVL901:
 6443 0334 80B2     		uxthls	r0, r0
 6444              	.LVL902:
 6445 0336 9EE7     		b	.L688
 6446              	.L786:
 6447              		.align	2
 6448              	.L785:
 6449 0338 FFFFFFFF 		.word	.LC1-1
 6450 033c 00000000 		.word	.LANCHOR3
 6451 0340 FFFFFFFF 		.word	.LC2-1
 6452              	.LBE417:
 6453              	.LBE420:
 6454              		.cfi_endproc
 6455              	.LFE292:
 6456              		.size	follow_path, .-follow_path
 6457              		.section	.text.f_mount,"ax",%progbits
 6458              		.align	1
 6459              		.global	f_mount
 6460              		.syntax unified
 6461              		.thumb
 6462              		.thumb_func
 6463              		.fpu fpv4-sp-d16
 6464              		.type	f_mount, %function
 6465              	f_mount:
 6466              	.LFB297:
 6467              		.loc 1 3202 0
 6468              		.cfi_startproc
 6469              		@ args = 0, pretend = 0, frame = 16
 6470              		@ frame_needed = 0, uses_anonymous_args = 0
 6471              	.LVL903:
 6472 0000 F0B5     		push	{r4, r5, r6, r7, lr}
 6473              		.cfi_def_cfa_offset 20
 6474              		.cfi_offset 4, -20
 6475              		.cfi_offset 5, -16
 6476              		.cfi_offset 6, -12
 6477              		.cfi_offset 7, -8
 6478              		.cfi_offset 14, -4
 6479 0002 85B0     		sub	sp, sp, #20
 6480              		.cfi_def_cfa_offset 40
 6481              		.loc 1 3202 0
 6482 0004 1646     		mov	r6, r2
 6483 0006 0190     		str	r0, [sp, #4]
 6484              		.loc 1 3206 0
 6485 0008 04A8     		add	r0, sp, #16
 6486              	.LVL904:
 6487              		.loc 1 3202 0
 6488 000a 0091     		str	r1, [sp]
 6489              		.loc 1 3206 0
 6490 000c 40F8041D 		str	r1, [r0, #-4]!
 6491              		.loc 1 3210 0
 6492 0010 FFF7FEFF 		bl	get_ldnumber
 6493              	.LVL905:
 6494              		.loc 1 3211 0
 6495 0014 051E     		subs	r5, r0, #0
 6496 0016 2ADB     		blt	.L795
 6497              		.loc 1 3212 0
 6498 0018 174F     		ldr	r7, .L805
ARM GAS  C:\cygwin64\tmp\cc6eY66b.s 			page 115


 6499 001a 57F82540 		ldr	r4, [r7, r5, lsl #2]
 6500              	.LVL906:
 6501              		.loc 1 3214 0
 6502 001e 4CB1     		cbz	r4, .L789
 6503              		.loc 1 3219 0
 6504 0020 6069     		ldr	r0, [r4, #20]
 6505              	.LVL907:
 6506 0022 FFF7FEFF 		bl	ff_del_syncobj
 6507              	.LVL908:
 6508 0026 18B9     		cbnz	r0, .L790
 6509              	.L793:
 6510 0028 0224     		movs	r4, #2
 6511              	.LVL909:
 6512              	.L788:
 6513              		.loc 1 3236 0
 6514 002a 2046     		mov	r0, r4
 6515 002c 05B0     		add	sp, sp, #20
 6516              		.cfi_remember_state
 6517              		.cfi_def_cfa_offset 20
 6518              		@ sp needed
 6519 002e F0BD     		pop	{r4, r5, r6, r7, pc}
 6520              	.LVL910:
 6521              	.L790:
 6522              		.cfi_restore_state
 6523              		.loc 1 3221 0
 6524 0030 0023     		movs	r3, #0
 6525 0032 2370     		strb	r3, [r4]
 6526              	.L789:
 6527              		.loc 1 3224 0
 6528 0034 0199     		ldr	r1, [sp, #4]
 6529 0036 89B9     		cbnz	r1, .L791
 6530              	.L794:
 6531              		.loc 1 3230 0
 6532 0038 019C     		ldr	r4, [sp, #4]
 6533              	.LVL911:
 6534 003a 47F82540 		str	r4, [r7, r5, lsl #2]
 6535              		.loc 1 3232 0
 6536 003e 002C     		cmp	r4, #0
 6537 0040 F3D0     		beq	.L788
 6538              		.loc 1 3232 0 is_stmt 0 discriminator 2
 6539 0042 012E     		cmp	r6, #1
 6540 0044 15D1     		bne	.L797
 6541              		.loc 1 3234 0 is_stmt 1
 6542 0046 01A9     		add	r1, sp, #4
 6543 0048 0022     		movs	r2, #0
 6544 004a 6846     		mov	r0, sp
 6545 004c FFF7FEFF 		bl	find_volume
 6546              	.LVL912:
 6547 0050 0446     		mov	r4, r0
 6548              	.LVL913:
 6549              		.loc 1 3235 0
 6550 0052 0146     		mov	r1, r0
 6551 0054 0198     		ldr	r0, [sp, #4]
 6552              	.LVL914:
 6553 0056 FFF7FEFF 		bl	unlock_fs
 6554              	.LVL915:
 6555 005a E6E7     		b	.L788
ARM GAS  C:\cygwin64\tmp\cc6eY66b.s 			page 116


 6556              	.LVL916:
 6557              	.L791:
 6558              		.loc 1 3225 0
 6559 005c 0023     		movs	r3, #0
 6560 005e 01F8143B 		strb	r3, [r1], #20
 6561              		.loc 1 3227 0
 6562 0062 E8B2     		uxtb	r0, r5
 6563 0064 FFF7FEFF 		bl	ff_cre_syncobj
 6564              	.LVL917:
 6565 0068 0028     		cmp	r0, #0
 6566 006a DDD0     		beq	.L793
 6567 006c E4E7     		b	.L794
 6568              	.LVL918:
 6569              	.L795:
 6570              		.loc 1 3211 0
 6571 006e 0B24     		movs	r4, #11
 6572 0070 DBE7     		b	.L788
 6573              	.LVL919:
 6574              	.L797:
 6575              		.loc 1 3232 0
 6576 0072 0024     		movs	r4, #0
 6577 0074 D9E7     		b	.L788
 6578              	.L806:
 6579 0076 00BF     		.align	2
 6580              	.L805:
 6581 0078 00000000 		.word	.LANCHOR1
 6582              		.cfi_endproc
 6583              	.LFE297:
 6584              		.size	f_mount, .-f_mount
 6585              		.section	.text.f_open,"ax",%progbits
 6586              		.align	1
 6587              		.global	f_open
 6588              		.syntax unified
 6589              		.thumb
 6590              		.thumb_func
 6591              		.fpu fpv4-sp-d16
 6592              		.type	f_open, %function
 6593              	f_open:
 6594              	.LFB298:
 6595              		.loc 1 3250 0
 6596              		.cfi_startproc
 6597              		@ args = 0, pretend = 0, frame = 88
 6598              		@ frame_needed = 0, uses_anonymous_args = 0
 6599              	.LVL920:
 6600 0000 2DE9F04F 		push	{r4, r5, r6, r7, r8, r9, r10, fp, lr}
 6601              		.cfi_def_cfa_offset 36
 6602              		.cfi_offset 4, -36
 6603              		.cfi_offset 5, -32
 6604              		.cfi_offset 6, -28
 6605              		.cfi_offset 7, -24
 6606              		.cfi_offset 8, -20
 6607              		.cfi_offset 9, -16
 6608              		.cfi_offset 10, -12
 6609              		.cfi_offset 11, -8
 6610              		.cfi_offset 14, -4
 6611 0004 97B0     		sub	sp, sp, #92
 6612              		.cfi_def_cfa_offset 128
ARM GAS  C:\cygwin64\tmp\cc6eY66b.s 			page 117


 6613              		.loc 1 3250 0
 6614 0006 1746     		mov	r7, r2
 6615 0008 0191     		str	r1, [sp, #4]
 6616              		.loc 1 3261 0
 6617 000a 0546     		mov	r5, r0
 6618 000c 0028     		cmp	r0, #0
 6619 000e 00F09F81 		beq	.L830
 6620              		.loc 1 3264 0
 6621 0012 02F03F06 		and	r6, r2, #63
 6622              	.LVL921:
 6623              		.loc 1 3265 0
 6624 0016 3246     		mov	r2, r6
 6625 0018 03A9     		add	r1, sp, #12
 6626              	.LVL922:
 6627 001a 01A8     		add	r0, sp, #4
 6628              	.LVL923:
 6629 001c FFF7FEFF 		bl	find_volume
 6630              	.LVL924:
 6631              		.loc 1 3266 0
 6632 0020 0028     		cmp	r0, #0
 6633 0022 40F09381 		bne	.L831
 6634              		.loc 1 3267 0
 6635 0026 039B     		ldr	r3, [sp, #12]
 6636 0028 0493     		str	r3, [sp, #16]
 6637              		.loc 1 3268 0
 6638 002a 4FF48C60 		mov	r0, #1120
 6639              	.LVL925:
 6640 002e FFF7FEFF 		bl	ff_memalloc
 6641              	.LVL926:
 6642 0032 8246     		mov	r10, r0
 6643 0034 40B9     		cbnz	r0, .L810
 6644              		.loc 1 3268 0 is_stmt 0 discriminator 1
 6645 0036 1121     		movs	r1, #17
 6646 0038 0398     		ldr	r0, [sp, #12]
 6647              	.LVL927:
 6648 003a FFF7FEFF 		bl	unlock_fs
 6649              	.LVL928:
 6650 003e 1124     		movs	r4, #17
 6651              	.LVL929:
 6652              	.L808:
 6653              		.loc 1 3437 0 is_stmt 1
 6654 0040 2046     		mov	r0, r4
 6655 0042 17B0     		add	sp, sp, #92
 6656              		.cfi_remember_state
 6657              		.cfi_def_cfa_offset 36
 6658              		@ sp needed
 6659 0044 BDE8F08F 		pop	{r4, r5, r6, r7, r8, r9, r10, fp, pc}
 6660              	.LVL930:
 6661              	.L810:
 6662              		.cfi_restore_state
 6663              		.loc 1 3268 0 discriminator 2
 6664 0048 039B     		ldr	r3, [sp, #12]
 6665              		.loc 1 3269 0 discriminator 2
 6666 004a 0199     		ldr	r1, [sp, #4]
 6667              		.loc 1 3268 0 discriminator 2
 6668 004c D860     		str	r0, [r3, #12]
 6669 004e 00F50072 		add	r2, r0, #512
ARM GAS  C:\cygwin64\tmp\cc6eY66b.s 			page 118


 6670 0052 1A61     		str	r2, [r3, #16]
 6671              		.loc 1 3269 0 discriminator 2
 6672 0054 04A8     		add	r0, sp, #16
 6673              	.LVL931:
 6674 0056 FFF7FEFF 		bl	follow_path
 6675              	.LVL932:
 6676              		.loc 1 3271 0 discriminator 2
 6677 005a 0446     		mov	r4, r0
 6678 005c 20B9     		cbnz	r0, .L811
 6679              		.loc 1 3272 0
 6680 005e 9DF95330 		ldrsb	r3, [sp, #83]
 6681              		.loc 1 3273 0
 6682 0062 002B     		cmp	r3, #0
 6683 0064 B8BF     		it	lt
 6684 0066 0624     		movlt	r4, #6
 6685              	.L811:
 6686              	.LVL933:
 6687              		.loc 1 3282 0
 6688 0068 17F01C0F 		tst	r7, #28
 6689 006c 00F0C980 		beq	.L812
 6690              		.loc 1 3283 0
 6691 0070 9CB1     		cbz	r4, .L813
 6692              		.loc 1 3284 0
 6693 0072 042C     		cmp	r4, #4
 6694 0074 03D1     		bne	.L814
 6695              		.loc 1 3288 0
 6696 0076 04A8     		add	r0, sp, #16
 6697 0078 FFF7FEFF 		bl	dir_register
