ARM GAS  C:\cygwin64\tmp\ccaTerrx.s 			page 1


   1              		.cpu cortex-m4
   2              		.eabi_attribute 27, 1
   3              		.eabi_attribute 28, 1
   4              		.eabi_attribute 20, 1
   5              		.eabi_attribute 21, 1
   6              		.eabi_attribute 23, 3
   7              		.eabi_attribute 24, 1
   8              		.eabi_attribute 25, 1
   9              		.eabi_attribute 26, 1
  10              		.eabi_attribute 30, 4
  11              		.eabi_attribute 34, 1
  12              		.eabi_attribute 18, 4
  13              		.file	"flash.c"
  14              		.text
  15              	.Ltext0:
  16              		.cfi_sections	.debug_frame
  17              		.section	.text.stm32_flash_wait_idle,"ax",%progbits
  18              		.align	1
  19              		.syntax unified
  20              		.thumb
  21              		.thumb_func
  22              		.fpu fpv4-sp-d16
  23              		.type	stm32_flash_wait_idle, %function
  24              	stm32_flash_wait_idle:
  25              	.LFB281:
  26              		.file 1 "../../libraries/AP_HAL_ChibiOS/hwdef/common/flash.c"
  27              		.loc 1 153 0
  28              		.cfi_startproc
  29              		@ args = 0, pretend = 0, frame = 0
  30              		@ frame_needed = 0, uses_anonymous_args = 0
  31              		@ link register save eliminated.
  32              	.LBB36:
  33              	.LBB37:
  34              		.file 2 "../../modules/ChibiOS/os/common/ext/CMSIS/include/cmsis_gcc.h"
  35              		.loc 2 429 0
  36              		.syntax unified
  37              	@ 429 "../../modules/ChibiOS/os/common/ext/CMSIS/include/cmsis_gcc.h" 1
  38 0000 BFF34F8F 		dsb 0xF
  39              	@ 0 "" 2
  40              		.thumb
  41              		.syntax unified
  42              	.LBE37:
  43              	.LBE36:
  44              		.loc 1 155 0
  45 0004 024A     		ldr	r2, .L4
  46              	.L2:
  47              		.loc 1 155 0 is_stmt 0 discriminator 1
  48 0006 D368     		ldr	r3, [r2, #12]
  49 0008 DB03     		lsls	r3, r3, #15
  50 000a FCD4     		bmi	.L2
  51              		.loc 1 158 0 is_stmt 1
  52 000c 7047     		bx	lr
  53              	.L5:
  54 000e 00BF     		.align	2
  55              	.L4:
  56 0010 003C0240 		.word	1073888256
  57              		.cfi_endproc
ARM GAS  C:\cygwin64\tmp\ccaTerrx.s 			page 2


  58              	.LFE281:
  59              		.size	stm32_flash_wait_idle, .-stm32_flash_wait_idle
  60              		.section	.text.stm32_flash_unlock,"ax",%progbits
  61              		.align	1
  62              		.syntax unified
  63              		.thumb
  64              		.thumb_func
  65              		.fpu fpv4-sp-d16
  66              		.type	stm32_flash_unlock, %function
  67              	stm32_flash_unlock:
  68              	.LFB282:
  69              		.loc 1 161 0
  70              		.cfi_startproc
  71              		@ args = 0, pretend = 0, frame = 0
  72              		@ frame_needed = 0, uses_anonymous_args = 0
  73 0000 08B5     		push	{r3, lr}
  74              		.cfi_def_cfa_offset 8
  75              		.cfi_offset 3, -8
  76              		.cfi_offset 14, -4
  77              		.loc 1 162 0
  78 0002 094B     		ldr	r3, .L9
  79 0004 1B78     		ldrb	r3, [r3]	@ zero_extendqisi2
  80 0006 73B9     		cbnz	r3, .L6
  81              	.LBB40:
  82              	.LBB41:
  83              		.loc 1 165 0
  84 0008 FFF7FEFF 		bl	stm32_flash_wait_idle
  85              	.LVL0:
  86              		.loc 1 167 0
  87 000c 074B     		ldr	r3, .L9+4
  88 000e 1A69     		ldr	r2, [r3, #16]
  89 0010 002A     		cmp	r2, #0
  90              		.loc 1 169 0
  91 0012 BFBF     		itttt	lt
  92 0014 064A     		ldrlt	r2, .L9+8
  93 0016 5A60     		strlt	r2, [r3, #4]
  94              		.loc 1 170 0
  95 0018 02F18832 		addlt	r2, r2, #-2004318072
  96 001c 5A60     		strlt	r2, [r3, #4]
  97              		.loc 1 175 0
  98 001e 1A68     		ldr	r2, [r3]
  99 0020 22F48062 		bic	r2, r2, #1024
 100 0024 1A60     		str	r2, [r3]
 101              	.L6:
 102 0026 08BD     		pop	{r3, pc}
 103              	.L10:
 104              		.align	2
 105              	.L9:
 106 0028 00000000 		.word	.LANCHOR0
 107 002c 003C0240 		.word	1073888256
 108 0030 23016745 		.word	1164378403
 109              	.LBE41:
 110              	.LBE40:
 111              		.cfi_endproc
 112              	.LFE282:
 113              		.size	stm32_flash_unlock, .-stm32_flash_unlock
 114              		.section	.text.stm32_flash_lock,"ax",%progbits
ARM GAS  C:\cygwin64\tmp\ccaTerrx.s 			page 3


 115              		.align	1
 116              		.global	stm32_flash_lock
 117              		.syntax unified
 118              		.thumb
 119              		.thumb_func
 120              		.fpu fpv4-sp-d16
 121              		.type	stm32_flash_lock, %function
 122              	stm32_flash_lock:
 123              	.LFB283:
 124              		.loc 1 180 0
 125              		.cfi_startproc
 126              		@ args = 0, pretend = 0, frame = 0
 127              		@ frame_needed = 0, uses_anonymous_args = 0
 128 0000 08B5     		push	{r3, lr}
 129              		.cfi_def_cfa_offset 8
 130              		.cfi_offset 3, -8
 131              		.cfi_offset 14, -4
 132              		.loc 1 181 0
 133 0002 0B4B     		ldr	r3, .L13
 134 0004 1B78     		ldrb	r3, [r3]	@ zero_extendqisi2
 135 0006 93B9     		cbnz	r3, .L11
 136              	.LBB44:
 137              	.LBB45:
 138              		.loc 1 184 0
 139 0008 FFF7FEFF 		bl	stm32_flash_wait_idle
 140              	.LVL1:
 141              		.loc 1 185 0
 142 000c 094B     		ldr	r3, .L13+4
 143 000e 1A69     		ldr	r2, [r3, #16]
 144 0010 42F00042 		orr	r2, r2, #-2147483648
 145 0014 1A61     		str	r2, [r3, #16]
 146              		.loc 1 189 0
 147 0016 1A68     		ldr	r2, [r3]
 148 0018 42F48052 		orr	r2, r2, #4096
 149 001c 1A60     		str	r2, [r3]
 150              		.loc 1 190 0
 151 001e 1A68     		ldr	r2, [r3]
 152 0020 22F48052 		bic	r2, r2, #4096
 153 0024 1A60     		str	r2, [r3]
 154              		.loc 1 191 0
 155 0026 1A68     		ldr	r2, [r3]
 156 0028 42F48062 		orr	r2, r2, #1024
 157 002c 1A60     		str	r2, [r3]
 158              	.L11:
 159 002e 08BD     		pop	{r3, pc}
 160              	.L14:
 161              		.align	2
 162              	.L13:
 163 0030 00000000 		.word	.LANCHOR0
 164 0034 003C0240 		.word	1073888256
 165              	.LBE45:
 166              	.LBE44:
 167              		.cfi_endproc
 168              	.LFE283:
 169              		.size	stm32_flash_lock, .-stm32_flash_lock
 170              		.section	.text.stm32_flash_getpageaddr,"ax",%progbits
 171              		.align	1
ARM GAS  C:\cygwin64\tmp\ccaTerrx.s 			page 4


 172              		.global	stm32_flash_getpageaddr
 173              		.syntax unified
 174              		.thumb
 175              		.thumb_func
 176              		.fpu fpv4-sp-d16
 177              		.type	stm32_flash_getpageaddr, %function
 178              	stm32_flash_getpageaddr:
 179              	.LFB284:
 180              		.loc 1 201 0
 181              		.cfi_startproc
 182              		@ args = 0, pretend = 0, frame = 0
 183              		@ frame_needed = 0, uses_anonymous_args = 0
 184              	.LVL2:
 185              		.loc 1 202 0
 186 0000 1728     		cmp	r0, #23
 187              		.loc 1 201 0
 188 0002 70B5     		push	{r4, r5, r6, lr}
 189              		.cfi_def_cfa_offset 16
 190              		.cfi_offset 4, -16
 191              		.cfi_offset 5, -12
 192              		.cfi_offset 6, -8
 193              		.cfi_offset 14, -4
 194              		.loc 1 202 0
 195 0004 13D8     		bhi	.L19
 196              	.LVL3:
 197              	.LBB51:
 198              	.LBB52:
 199              		.loc 1 206 0
 200 0006 0B4A     		ldr	r2, .L21
 201 0008 0B4C     		ldr	r4, .L21+4
 202 000a 1378     		ldrb	r3, [r2]	@ zero_extendqisi2
 203 000c 63B9     		cbnz	r3, .L17
 204              	.LBB53:
 205              	.LBB54:
 206              	.LBB55:
 207              		.loc 1 225 0
 208 000e 0B4E     		ldr	r6, .L21+8
 209              	.LBE55:
 210              	.LBE54:
 211              	.LBE53:
 212              		.loc 1 206 0
 213 0010 4FF00061 		mov	r1, #134217728
 214              	.L18:
 215              	.LVL4:
 216              	.LBB56:
 217              		.loc 1 211 0
 218 0014 44F82310 		str	r1, [r4, r3, lsl #2]
 219              		.loc 1 212 0
 220 0018 56F82350 		ldr	r5, [r6, r3, lsl #2]
 221 001c 0133     		adds	r3, r3, #1
 222              	.LVL5:
 223              		.loc 1 210 0
 224 001e 182B     		cmp	r3, #24
 225              		.loc 1 212 0
 226 0020 2944     		add	r1, r1, r5
 227              	.LVL6:
 228              		.loc 1 210 0
ARM GAS  C:\cygwin64\tmp\ccaTerrx.s 			page 5


 229 0022 F7D1     		bne	.L18
 230              		.loc 1 214 0
 231 0024 0123     		movs	r3, #1
 232 0026 1370     		strb	r3, [r2]
 233              	.LVL7:
 234              	.L17:
 235              	.LBE56:
 236              		.loc 1 217 0
 237 0028 54F82000 		ldr	r0, [r4, r0, lsl #2]
 238              	.LVL8:
 239 002c 70BD     		pop	{r4, r5, r6, pc}
 240              	.LVL9:
 241              	.L19:
 242              	.LBE52:
 243              	.LBE51:
 244              		.loc 1 203 0
 245 002e 0020     		movs	r0, #0
 246              	.LVL10:
 247              		.loc 1 218 0
 248 0030 70BD     		pop	{r4, r5, r6, pc}
 249              	.L22:
 250 0032 00BF     		.align	2
 251              	.L21:
 252 0034 00000000 		.word	.LANCHOR1
 253 0038 00000000 		.word	.LANCHOR2
 254 003c 00000000 		.word	.LANCHOR3
 255              		.cfi_endproc
 256              	.LFE284:
 257              		.size	stm32_flash_getpageaddr, .-stm32_flash_getpageaddr
 258              		.section	.text.stm32_flash_getpagesize,"ax",%progbits
 259              		.align	1
 260              		.global	stm32_flash_getpagesize
 261              		.syntax unified
 262              		.thumb
 263              		.thumb_func
 264              		.fpu fpv4-sp-d16
 265              		.type	stm32_flash_getpagesize, %function
 266              	stm32_flash_getpagesize:
 267              	.LFB285:
 268              		.loc 1 224 0
 269              		.cfi_startproc
 270              		@ args = 0, pretend = 0, frame = 0
 271              		@ frame_needed = 0, uses_anonymous_args = 0
 272              		@ link register save eliminated.
 273              	.LVL11:
 274              		.loc 1 226 0
 275 0000 014B     		ldr	r3, .L24
 276 0002 53F82000 		ldr	r0, [r3, r0, lsl #2]
 277              	.LVL12:
 278 0006 7047     		bx	lr
 279              	.L25:
 280              		.align	2
 281              	.L24:
 282 0008 00000000 		.word	.LANCHOR3
 283              		.cfi_endproc
 284              	.LFE285:
 285              		.size	stm32_flash_getpagesize, .-stm32_flash_getpagesize
ARM GAS  C:\cygwin64\tmp\ccaTerrx.s 			page 6


 286              		.section	.text.stm32_flash_getnumpages,"ax",%progbits
 287              		.align	1
 288              		.global	stm32_flash_getnumpages
 289              		.syntax unified
 290              		.thumb
 291              		.thumb_func
 292              		.fpu fpv4-sp-d16
 293              		.type	stm32_flash_getnumpages, %function
 294              	stm32_flash_getnumpages:
 295              	.LFB286:
 296              		.loc 1 232 0
 297              		.cfi_startproc
 298              		@ args = 0, pretend = 0, frame = 0
 299              		@ frame_needed = 0, uses_anonymous_args = 0
 300              		@ link register save eliminated.
 301              		.loc 1 234 0
 302 0000 1820     		movs	r0, #24
 303 0002 7047     		bx	lr
 304              		.cfi_endproc
 305              	.LFE286:
 306              		.size	stm32_flash_getnumpages, .-stm32_flash_getnumpages
 307              		.section	.text.stm32_flash_ispageerased,"ax",%progbits
 308              		.align	1
 309              		.global	stm32_flash_ispageerased
 310              		.syntax unified
 311              		.thumb
 312              		.thumb_func
 313              		.fpu fpv4-sp-d16
 314              		.type	stm32_flash_ispageerased, %function
 315              	stm32_flash_ispageerased:
 316              	.LFB287:
 317              		.loc 1 237 0
 318              		.cfi_startproc
 319              		@ args = 0, pretend = 0, frame = 0
 320              		@ frame_needed = 0, uses_anonymous_args = 0
 321              	.LVL13:
 322              		.loc 1 241 0
 323 0000 1728     		cmp	r0, #23
 324              		.loc 1 237 0
 325 0002 10B5     		push	{r4, lr}
 326              		.cfi_def_cfa_offset 8
 327              		.cfi_offset 4, -8
 328              		.cfi_offset 14, -4
 329              		.loc 1 237 0
 330 0004 0446     		mov	r4, r0
 331              		.loc 1 241 0
 332 0006 01D9     		bls	.L28
 333              	.LVL14:
 334              	.L31:
 335              		.loc 1 242 0
 336 0008 0020     		movs	r0, #0
 337 000a 10BD     		pop	{r4, pc}
 338              	.LVL15:
 339              	.L28:
 340              	.LBB64:
 341              	.LBB65:
 342              		.loc 1 245 0
ARM GAS  C:\cygwin64\tmp\ccaTerrx.s 			page 7


 343 000c FFF7FEFF 		bl	stm32_flash_getpageaddr
 344              	.LVL16:
 345              	.LBB66:
 346              	.LBB67:
 347              		.loc 1 225 0
 348 0010 064B     		ldr	r3, .L33
 349 0012 53F82430 		ldr	r3, [r3, r4, lsl #2]
 350              	.LVL17:
 351 0016 1844     		add	r0, r0, r3
 352              	.LVL18:
 353              	.L30:
 354 0018 C21A     		subs	r2, r0, r3
 355              	.LVL19:
 356              	.LBE67:
 357              	.LBE66:
 358              		.loc 1 245 0
 359 001a 0BB9     		cbnz	r3, .L32
 360              		.loc 1 253 0
 361 001c 0120     		movs	r0, #1
 362              	.LBE65:
 363              	.LBE64:
 364              		.loc 1 254 0
 365 001e 10BD     		pop	{r4, pc}
 366              	.LVL20:
 367              	.L32:
 368              	.LBB72:
 369              	.LBB71:
 370              	.LBB68:
 371              	.LBB69:
 372              	.LBB70:
 373              		.loc 1 142 0
 374              		.syntax unified
 375              	@ 142 "../../libraries/AP_HAL_ChibiOS/hwdef/common/flash.c" 1
 376 0020 1268     			ldr r2, [r2]
 377              		
 378              	@ 0 "" 2
 379              	.LVL21:
 380              		.thumb
 381              		.syntax unified
 382              	.LBE70:
 383              	.LBE69:
 384              		.loc 1 248 0
 385 0022 0132     		adds	r2, r2, #1
 386 0024 F0D1     		bne	.L31
 387              	.LBE68:
 388              		.loc 1 246 0
 389 0026 043B     		subs	r3, r3, #4
 390              	.LVL22:
 391 0028 F6E7     		b	.L30
 392              	.L34:
 393 002a 00BF     		.align	2
 394              	.L33:
 395 002c 00000000 		.word	.LANCHOR3
 396              	.LBE71:
 397              	.LBE72:
 398              		.cfi_endproc
 399              	.LFE287:
ARM GAS  C:\cygwin64\tmp\ccaTerrx.s 			page 8


 400              		.size	stm32_flash_ispageerased, .-stm32_flash_ispageerased
 401              		.section	.text.stm32_flash_erasepage,"ax",%progbits
 402              		.align	1
 403              		.global	stm32_flash_erasepage
 404              		.syntax unified
 405              		.thumb
 406              		.thumb_func
 407              		.fpu fpv4-sp-d16
 408              		.type	stm32_flash_erasepage, %function
 409              	stm32_flash_erasepage:
 410              	.LFB288:
 411              		.loc 1 260 0
 412              		.cfi_startproc
 413              		@ args = 0, pretend = 0, frame = 0
 414              		@ frame_needed = 0, uses_anonymous_args = 0
 415              	.LVL23:
 416              		.loc 1 261 0
 417 0000 1728     		cmp	r0, #23
 418              		.loc 1 260 0
 419 0002 10B5     		push	{r4, lr}
 420              		.cfi_def_cfa_offset 8
 421              		.cfi_offset 4, -8
 422              		.cfi_offset 14, -4
 423              		.loc 1 261 0
 424 0004 22D8     		bhi	.L36
 425              		.loc 1 268 0
 426 0006 FFF7FEFF 		bl	stm32_flash_wait_idle
 427              	.LVL24:
 428              		.loc 1 269 0
 429 000a FFF7FEFF 		bl	stm32_flash_unlock
 430              	.LVL25:
 431              		.loc 1 272 0
 432 000e 1049     		ldr	r1, .L37
 433 0010 F323     		movs	r3, #243
 434 0012 CB60     		str	r3, [r1, #12]
 435              		.loc 1 274 0
 436 0014 FFF7FEFF 		bl	stm32_flash_wait_idle
 437              	.LVL26:
 438              		.loc 1 277 0
 439 0018 0C23     		movs	r3, #12
 440 001a B0FBF3F2 		udiv	r2, r0, r3
 441 001e 03FB1204 		mls	r4, r3, r2, r0
 442 0022 D301     		lsls	r3, r2, #7
 443 0024 43EAC403 		orr	r3, r3, r4, lsl #3
 444              		.loc 1 280 0
 445 0028 DBB2     		uxtb	r3, r3
 446 002a 43F40073 		orr	r3, r3, #512
 447 002e 43F00203 		orr	r3, r3, #2
 448 0032 0B61     		str	r3, [r1, #16]
 449              		.loc 1 281 0
 450 0034 0B69     		ldr	r3, [r1, #16]
 451 0036 43F48033 		orr	r3, r3, #65536
 452 003a 0B61     		str	r3, [r1, #16]
 453              		.loc 1 283 0
 454 003c FFF7FEFF 		bl	stm32_flash_wait_idle
 455              	.LVL27:
 456              		.loc 1 289 0
ARM GAS  C:\cygwin64\tmp\ccaTerrx.s 			page 9


 457 0040 FFF7FEFF 		bl	stm32_flash_lock
 458              	.LVL28:
 459              		.loc 1 294 0
 460 0044 BDE81040 		pop	{r4, lr}
 461              		.cfi_remember_state
 462              		.cfi_restore 14
 463              		.cfi_restore 4
 464              		.cfi_def_cfa_offset 0
 465              		.loc 1 293 0
 466 0048 FFF7FEBF 		b	stm32_flash_ispageerased
 467              	.LVL29:
 468              	.L36:
 469              		.cfi_restore_state
 470              		.loc 1 294 0
 471 004c 0020     		movs	r0, #0
 472              	.LVL30:
 473 004e 10BD     		pop	{r4, pc}
 474              	.L38:
 475              		.align	2
 476              	.L37:
 477 0050 003C0240 		.word	1073888256
 478              		.cfi_endproc
 479              	.LFE288:
 480              		.size	stm32_flash_erasepage, .-stm32_flash_erasepage
 481              		.section	.text.stm32_flash_write,"ax",%progbits
 482              		.align	1
 483              		.global	stm32_flash_write
 484              		.syntax unified
 485              		.thumb
 486              		.thumb_func
 487              		.fpu fpv4-sp-d16
 488              		.type	stm32_flash_write, %function
 489              	stm32_flash_write:
 490              	.LFB289:
 491              		.loc 1 298 0
 492              		.cfi_startproc
 493              		@ args = 0, pretend = 0, frame = 0
 494              		@ frame_needed = 0, uses_anonymous_args = 0
 495              	.LVL31:
 496 0000 2DE9F047 		push	{r4, r5, r6, r7, r8, r9, r10, lr}
 497              		.cfi_def_cfa_offset 32
 498              		.cfi_offset 4, -32
 499              		.cfi_offset 5, -28
 500              		.cfi_offset 6, -24
 501              		.cfi_offset 7, -20
 502              		.cfi_offset 8, -16
 503              		.cfi_offset 9, -12
 504              		.cfi_offset 10, -8
 505              		.cfi_offset 14, -4
 506              		.loc 1 303 0
 507 0004 D407     		lsls	r4, r2, #31
 508              		.loc 1 298 0
 509 0006 1546     		mov	r5, r2
 510              		.loc 1 303 0
 511 0008 4DD4     		bmi	.L52
 512              		.loc 1 307 0
 513 000a 1318     		adds	r3, r2, r0
ARM GAS  C:\cygwin64\tmp\ccaTerrx.s 			page 10


 514 000c B3F1026F 		cmp	r3, #136314880
 515 0010 49D2     		bcs	.L52
 516              		.loc 1 313 0
 517 0012 324B     		ldr	r3, .L55
 518 0014 1B68     		ldr	r3, [r3]
 519 0016 DA07     		lsls	r2, r3, #31
 520              	.LVL32:
 521 0018 45D5     		bpl	.L52
 522              		.loc 1 324 0
 523 001a 314C     		ldr	r4, .L55+4
 524              		.loc 1 321 0
 525 001c FFF7FEFF 		bl	stm32_flash_unlock
 526              	.LVL33:
 527              		.loc 1 324 0
 528 0020 F323     		movs	r3, #243
 529 0022 E360     		str	r3, [r4, #12]
 530              		.loc 1 326 0
 531 0024 FFF7FEFF 		bl	stm32_flash_wait_idle
 532              	.LVL34:
 533              		.loc 1 329 0
 534 0028 2F46     		mov	r7, r5
 535 002a 401A     		subs	r0, r0, r1
 536              	.LVL35:
 537              		.loc 1 331 0
 538 002c 40F20129 		movw	r9, #513
 539              	.LVL36:
 540              	.L41:
 541              		.loc 1 329 0
 542 0030 032F     		cmp	r7, #3
 543 0032 8846     		mov	r8, r1
 544 0034 01EB0006 		add	r6, r1, r0
 545              	.LVL37:
 546 0038 18D8     		bhi	.L45
 547              	.L48:
 548 003a 294C     		ldr	r4, .L55+4
 549              		.loc 1 360 0
 550 003c 40F20119 		movw	r9, #257
 551              	.LVL38:
 552              	.L46:
 553 0040 7B1A     		subs	r3, r7, r1
 554 0042 4344     		add	r3, r3, r8
 555              		.loc 1 358 0
 556 0044 012B     		cmp	r3, #1
 557 0046 01EB0006 		add	r6, r1, r0
 558              	.LVL39:
 559              		.loc 1 359 0
 560 004a 2369     		ldr	r3, [r4, #16]
 561              		.loc 1 358 0
 562 004c 2FD8     		bhi	.L49
 563              		.loc 1 379 0
 564 004e 23F00103 		bic	r3, r3, #1
 565 0052 2361     		str	r3, [r4, #16]
 566              		.loc 1 381 0
 567 0054 FFF7FEFF 		bl	stm32_flash_lock
 568              	.LVL40:
 569              		.loc 1 385 0
 570 0058 2846     		mov	r0, r5
ARM GAS  C:\cygwin64\tmp\ccaTerrx.s 			page 11


 571 005a BDE8F087 		pop	{r4, r5, r6, r7, r8, r9, r10, pc}
 572              	.LVL41:
 573              	.L42:
 574              	.LBB73:
 575              	.LBB74:
 576              		.loc 1 142 0
 577              		.syntax unified
 578              	@ 142 "../../libraries/AP_HAL_ChibiOS/hwdef/common/flash.c" 1
 579 005e 3668     			ldr r6, [r6]
 580              		
 581              	@ 0 "" 2
 582              	.LVL42:
 583              		.thumb
 584              		.syntax unified
 585              	.LBE74:
 586              	.LBE73:
 587              		.loc 1 347 0
 588 0060 51F8043C 		ldr	r3, [r1, #-4]
 589 0064 B342     		cmp	r3, r6
 590 0066 18D1     		bne	.L54
 591              		.loc 1 352 0
 592 0068 043F     		subs	r7, r7, #4
 593              	.LVL43:
 594 006a E1E7     		b	.L41
 595              	.LVL44:
 596              	.L45:
 597              		.loc 1 329 0 discriminator 1
 598 006c B307     		lsls	r3, r6, #30
 599 006e E4D1     		bne	.L48
 600              		.loc 1 330 0
 601 0070 2369     		ldr	r3, [r4, #16]
 602 0072 23F44073 		bic	r3, r3, #768
 603 0076 2361     		str	r3, [r4, #16]
 604              		.loc 1 331 0
 605 0078 2369     		ldr	r3, [r4, #16]
 606 007a 43EA0903 		orr	r3, r3, r9
 607 007e 2361     		str	r3, [r4, #16]
 608 0080 0431     		adds	r1, r1, #4
 609              	.LVL45:
 610              	.LBB75:
 611              	.LBB76:
 612              		.loc 1 149 0
 613 0082 D8F80030 		ldr	r3, [r8]
 614              		.syntax unified
 615              	@ 149 "../../libraries/AP_HAL_ChibiOS/hwdef/common/flash.c" 1
 616 0086 3360     			str r3, [r6]
 617              		
 618              	@ 0 "" 2
 619              	.LVL46:
 620              		.thumb
 621              		.syntax unified
 622              	.LBE76:
 623              	.LBE75:
 624              	.LBB77:
 625              	.LBB78:
 626              		.loc 2 429 0
 627              		.syntax unified
ARM GAS  C:\cygwin64\tmp\ccaTerrx.s 			page 12


 628              	@ 429 "../../modules/ChibiOS/os/common/ext/CMSIS/include/cmsis_gcc.h" 1
 629 0088 BFF34F8F 		dsb 0xF
 630              	@ 0 "" 2
 631              		.thumb
 632              		.syntax unified
 633              	.LBE78:
 634              	.LBE77:
 635              		.loc 1 338 0
 636 008c FFF7FEFF 		bl	stm32_flash_wait_idle
 637              	.LVL47:
 638              		.loc 1 340 0
 639 0090 E368     		ldr	r3, [r4, #12]
 640 0092 002B     		cmp	r3, #0
 641 0094 E3D0     		beq	.L42
 642              		.loc 1 342 0
 643 0096 F323     		movs	r3, #243
 644 0098 E360     		str	r3, [r4, #12]
 645              	.LVL48:
 646              	.L54:
 647              	.L43:
 648              		.loc 1 370 0
 649 009a 2369     		ldr	r3, [r4, #16]
 650 009c 23F00103 		bic	r3, r3, #1
 651 00a0 2361     		str	r3, [r4, #16]
 652              		.loc 1 388 0
 653 00a2 FFF7FEFF 		bl	stm32_flash_lock
 654              	.LVL49:
 655              	.L52:
 656              		.loc 1 304 0
 657 00a6 4FF0FF30 		mov	r0, #-1
 658              		.loc 1 393 0
 659 00aa BDE8F087 		pop	{r4, r5, r6, r7, r8, r9, r10, pc}
 660              	.LVL50:
 661              	.L49:
 662              		.loc 1 359 0
 663 00ae 23F44073 		bic	r3, r3, #768
 664 00b2 2361     		str	r3, [r4, #16]
 665              		.loc 1 360 0
 666 00b4 2369     		ldr	r3, [r4, #16]
 667 00b6 43EA0903 		orr	r3, r3, r9
 668 00ba 2361     		str	r3, [r4, #16]
 669 00bc 8A46     		mov	r10, r1
 670              	.LVL51:
 671              	.LBB79:
 672              	.LBB80:
 673              		.loc 1 135 0
 674 00be 31F8023B 		ldrh	r3, [r1], #2
 675              	.LVL52:
 676              		.syntax unified
 677              	@ 135 "../../libraries/AP_HAL_ChibiOS/hwdef/common/flash.c" 1
 678 00c2 3380     			strh r3, [r6]
 679              		
 680              	@ 0 "" 2
 681              	.LVL53:
 682              		.thumb
 683              		.syntax unified
 684              	.LBE80:
ARM GAS  C:\cygwin64\tmp\ccaTerrx.s 			page 13


 685              	.LBE79:
 686              	.LBB81:
 687              	.LBB82:
 688              		.loc 2 429 0
 689              		.syntax unified
 690              	@ 429 "../../modules/ChibiOS/os/common/ext/CMSIS/include/cmsis_gcc.h" 1
 691 00c4 BFF34F8F 		dsb 0xF
 692              	@ 0 "" 2
 693              		.thumb
 694              		.syntax unified
 695              	.LBE82:
 696              	.LBE81:
 697              		.loc 1 367 0
 698 00c8 FFF7FEFF 		bl	stm32_flash_wait_idle
 699              	.LVL54:
 700              	.LBB83:
 701              	.LBB84:
 702              		.loc 1 128 0
 703              		.syntax unified
 704              	@ 128 "../../libraries/AP_HAL_ChibiOS/hwdef/common/flash.c" 1
 705 00cc 3688     			ldrh r6, [r6]
 706              		
 707              	@ 0 "" 2
 708              	.LVL55:
 709              		.thumb
 710              		.syntax unified
 711              	.LBE84:
 712              	.LBE83:
 713              		.loc 1 369 0
 714 00ce BAF80030 		ldrh	r3, [r10]
 715              	.LBB86:
 716              	.LBB85:
 717              		.loc 1 128 0
 718 00d2 B6B2     		uxth	r6, r6
 719              	.LVL56:
 720              	.LBE85:
 721              	.LBE86:
 722              		.loc 1 369 0
 723 00d4 B342     		cmp	r3, r6
 724 00d6 B3D0     		beq	.L46
 725 00d8 DFE7     		b	.L54
 726              	.L56:
 727 00da 00BF     		.align	2
 728              	.L55:
 729 00dc 00380240 		.word	1073887232
 730 00e0 003C0240 		.word	1073888256
 731              		.cfi_endproc
 732              	.LFE289:
 733              		.size	stm32_flash_write, .-stm32_flash_write
 734              		.section	.text.stm32_flash_keep_unlocked,"ax",%progbits
 735              		.align	1
 736              		.global	stm32_flash_keep_unlocked
 737              		.syntax unified
 738              		.thumb
 739              		.thumb_func
 740              		.fpu fpv4-sp-d16
 741              		.type	stm32_flash_keep_unlocked, %function
ARM GAS  C:\cygwin64\tmp\ccaTerrx.s 			page 14


 742              	stm32_flash_keep_unlocked:
 743              	.LFB290:
 744              		.loc 1 396 0
 745              		.cfi_startproc
 746              		@ args = 0, pretend = 0, frame = 0
 747              		@ frame_needed = 0, uses_anonymous_args = 0
 748              	.LVL57:
 749 0000 0849     		ldr	r1, .L63
 750 0002 08B5     		push	{r3, lr}
 751              		.cfi_def_cfa_offset 8
 752              		.cfi_offset 3, -8
 753              		.cfi_offset 14, -4
 754              		.loc 1 397 0
 755 0004 0B78     		ldrb	r3, [r1]	@ zero_extendqisi2
 756 0006 28B1     		cbz	r0, .L58
 757              		.loc 1 397 0 is_stmt 0 discriminator 1
 758 0008 53B9     		cbnz	r3, .L57
 759              		.loc 1 398 0 is_stmt 1
 760 000a FFF7FEFF 		bl	stm32_flash_unlock
 761              	.LVL58:
 762              		.loc 1 399 0
 763 000e 0123     		movs	r3, #1
 764 0010 0B70     		strb	r3, [r1]
 765 0012 08BD     		pop	{r3, pc}
 766              	.L58:
 767              		.loc 1 400 0 discriminator 1
 768 0014 23B1     		cbz	r3, .L57
 769              		.loc 1 404 0
 770 0016 BDE80840 		pop	{r3, lr}
 771              		.cfi_remember_state
 772              		.cfi_restore 14
 773              		.cfi_restore 3
 774              		.cfi_def_cfa_offset 0
 775              		.loc 1 401 0
 776 001a 0870     		strb	r0, [r1]
 777              		.loc 1 402 0
 778 001c FFF7FEBF 		b	stm32_flash_lock
 779              	.LVL59:
 780              	.L57:
 781              		.cfi_restore_state
 782 0020 08BD     		pop	{r3, pc}
 783              	.L64:
 784 0022 00BF     		.align	2
 785              	.L63:
 786 0024 00000000 		.word	.LANCHOR0
 787              		.cfi_endproc
 788              	.LFE290:
 789              		.size	stm32_flash_keep_unlocked, .-stm32_flash_keep_unlocked
 790              		.section	.bss.flash_keep_unlocked,"aw",%nobits
 791              		.set	.LANCHOR0,. + 0
 792              		.type	flash_keep_unlocked, %object
 793              		.size	flash_keep_unlocked, 1
 794              	flash_keep_unlocked:
 795 0000 00       		.space	1
 796              		.section	.bss.flash_pageaddr,"aw",%nobits
 797              		.align	2
 798              		.set	.LANCHOR2,. + 0
ARM GAS  C:\cygwin64\tmp\ccaTerrx.s 			page 15


 799              		.type	flash_pageaddr, %object
 800              		.size	flash_pageaddr, 96
 801              	flash_pageaddr:
 802 0000 00000000 		.space	96
 802      00000000 
 802      00000000 
 802      00000000 
 802      00000000 
 803              		.section	.bss.flash_pageaddr_initialised,"aw",%nobits
 804              		.set	.LANCHOR1,. + 0
 805              		.type	flash_pageaddr_initialised, %object
 806              		.size	flash_pageaddr_initialised, 1
 807              	flash_pageaddr_initialised:
 808 0000 00       		.space	1
 809              		.section	.rodata.flash_memmap,"a",%progbits
 810              		.align	2
 811              		.set	.LANCHOR3,. + 0
 812              		.type	flash_memmap, %object
 813              		.size	flash_memmap, 96
 814              	flash_memmap:
 815 0000 00400000 		.word	16384
 816 0004 00400000 		.word	16384
 817 0008 00400000 		.word	16384
 818 000c 00400000 		.word	16384
 819 0010 00000100 		.word	65536
 820 0014 00000200 		.word	131072
 821 0018 00000200 		.word	131072
 822 001c 00000200 		.word	131072
 823 0020 00000200 		.word	131072
 824 0024 00000200 		.word	131072
 825 0028 00000200 		.word	131072
 826 002c 00000200 		.word	131072
 827 0030 00400000 		.word	16384
 828 0034 00400000 		.word	16384
 829 0038 00400000 		.word	16384
 830 003c 00400000 		.word	16384
 831 0040 00000100 		.word	65536
 832 0044 00000200 		.word	131072
 833 0048 00000200 		.word	131072
 834 004c 00000200 		.word	131072
 835 0050 00000200 		.word	131072
 836 0054 00000200 		.word	131072
 837 0058 00000200 		.word	131072
 838 005c 00000200 		.word	131072
 839              		.text
 840              	.Letext0:
 841              		.file 3 "c:\\program files (x86)\\gnu tools arm embedded\\6 2017-q2-update\\lib\\gcc\\arm-none-eab
 842              		.file 4 "c:\\program files (x86)\\gnu tools arm embedded\\6 2017-q2-update\\arm-none-eabi\\include
 843              		.file 5 "c:\\program files (x86)\\gnu tools arm embedded\\6 2017-q2-update\\arm-none-eabi\\include
 844              		.file 6 "../../modules/ChibiOS/os/common/ports/ARMCMx/compilers/GCC/chtypes.h"
 845              		.file 7 "../../modules/ChibiOS/os/rt/include/chsystypes.h"
 846              		.file 8 "../../modules/ChibiOS/os/rt/include/chschd.h"
 847              		.file 9 "../../modules/ChibiOS/os/common/ext/CMSIS/include/core_cm4.h"
 848              		.file 10 "../../modules/ChibiOS/os/common/ext/CMSIS/ST/STM32F4xx/system_stm32f4xx.h"
 849              		.file 11 "../../modules/ChibiOS/os/common/ext/CMSIS/ST/STM32F4xx/stm32f427xx.h"
 850              		.file 12 "../../modules/ChibiOS/os/common/ports/ARMCMx/chcore.h"
 851              		.file 13 "../../modules/ChibiOS/os/common/ports/ARMCMx/chcore_v7m.h"
ARM GAS  C:\cygwin64\tmp\ccaTerrx.s 			page 16


 852              		.file 14 "../../modules/ChibiOS/os/hal/ports/STM32/LLD/TIMv1/stm32_tim.h"
 853              		.file 15 "../../modules/ChibiOS/os/rt/include/chtm.h"
 854              		.file 16 "../../modules/ChibiOS/os/rt/include/chstats.h"
 855              		.file 17 "../../modules/ChibiOS/os/rt/include/chsem.h"
 856              		.file 18 "../../modules/ChibiOS/os/rt/include/chmtx.h"
 857              		.file 19 "../../modules/ChibiOS/os/rt/include/chsys.h"
 858              		.file 20 "../../modules/ChibiOS/os/rt/include/chregistry.h"
 859              		.file 21 "../../modules/ChibiOS/os/rt/include/chevents.h"
 860              		.file 22 "../../modules/ChibiOS/os/hal/ports/STM32/LLD/DMAv2/stm32_dma.h"
 861              		.file 23 "../../modules/ChibiOS/os/hal/include/hal_ioblock.h"
 862              		.file 24 "../../modules/ChibiOS/os/hal/include/hal_queues.h"
 863              		.file 25 "../../modules/ChibiOS/os/hal/ports/STM32/LLD/GPIOv2/hal_pal_lld.h"
 864              		.file 26 "../../modules/ChibiOS/os/hal/include/hal_adc.h"
 865              		.file 27 "../../modules/ChibiOS/os/hal/ports/STM32/LLD/ADCv2/hal_adc_lld.h"
 866              		.file 28 "../../modules/ChibiOS/os/hal/include/hal_ext.h"
 867              		.file 29 "../../modules/ChibiOS/os/hal/ports/STM32/LLD/EXTIv1/hal_ext_lld.h"
 868              		.file 30 "../../modules/ChibiOS/os/hal/include/hal_i2c.h"
 869              		.file 31 "../../modules/ChibiOS/os/hal/ports/STM32/LLD/I2Cv1/hal_i2c_lld.h"
 870              		.file 32 "../../modules/ChibiOS/os/hal/include/hal_pwm.h"
 871              		.file 33 "../../modules/ChibiOS/os/hal/ports/STM32/LLD/TIMv1/hal_pwm_lld.h"
 872              		.file 34 "../../modules/ChibiOS/os/hal/include/hal_serial.h"
 873              		.file 35 "../../modules/ChibiOS/os/hal/ports/STM32/LLD/USARTv1/hal_serial_lld.h"
 874              		.file 36 "../../modules/ChibiOS/os/hal/include/hal_sdc.h"
 875              		.file 37 "../../modules/ChibiOS/os/hal/ports/STM32/LLD/SDIOv1/hal_sdc_lld.h"
 876              		.file 38 "../../modules/ChibiOS/os/hal/include/hal_spi.h"
 877              		.file 39 "../../modules/ChibiOS/os/hal/ports/STM32/LLD/SPIv1/hal_spi_lld.h"
 878              		.file 40 "../../modules/ChibiOS/os/hal/include/hal_usb.h"
 879              		.file 41 "../../modules/ChibiOS/os/hal/ports/STM32/LLD/OTGv1/hal_usb_lld.h"
 880              		.file 42 "../../modules/ChibiOS/os/hal/ports/STM32/LLD/OTGv1/stm32_otg.h"