ARM GAS  C:\cygwin64\tmp\ccyLDXnL.s 			page 1


   1              		.cpu cortex-m4
   2              		.eabi_attribute 27, 1
   3              		.eabi_attribute 28, 1
   4              		.eabi_attribute 20, 1
   5              		.eabi_attribute 21, 1
   6              		.eabi_attribute 23, 3
   7              		.eabi_attribute 24, 1
   8              		.eabi_attribute 25, 1
   9              		.eabi_attribute 26, 1
  10              		.eabi_attribute 30, 4
  11              		.eabi_attribute 34, 1
  12              		.eabi_attribute 18, 4
  13              		.file	"hal_serial_lld.c"
  14              		.text
  15              	.Ltext0:
  16              		.cfi_sections	.debug_frame
  17              		.section	.text.notify2,"ax",%progbits
  18              		.align	1
  19              		.syntax unified
  20              		.thumb
  21              		.thumb_func
  22              		.fpu fpv4-sp-d16
  23              		.type	notify2, %function
  24              	notify2:
  25              	.LFB281:
  26              		.file 1 "../../modules/ChibiOS/os/hal/ports/STM32/LLD/USARTv1/hal_serial_lld.c"
  27              		.loc 1 238 0
  28              		.cfi_startproc
  29              		@ args = 0, pretend = 0, frame = 0
  30              		@ frame_needed = 0, uses_anonymous_args = 0
  31              		@ link register save eliminated.
  32              	.LVL0:
  33              		.loc 1 241 0
  34 0000 024A     		ldr	r2, .L2
  35 0002 D368     		ldr	r3, [r2, #12]
  36 0004 43F08003 		orr	r3, r3, #128
  37 0008 D360     		str	r3, [r2, #12]
  38 000a 7047     		bx	lr
  39              	.L3:
  40              		.align	2
  41              	.L2:
  42 000c 00440040 		.word	1073759232
  43              		.cfi_endproc
  44              	.LFE281:
  45              		.size	notify2, .-notify2
  46              		.section	.text.notify3,"ax",%progbits
  47              		.align	1
  48              		.syntax unified
  49              		.thumb
  50              		.thumb_func
  51              		.fpu fpv4-sp-d16
  52              		.type	notify3, %function
  53              	notify3:
  54              	.LFB282:
  55              		.loc 1 246 0
  56              		.cfi_startproc
  57              		@ args = 0, pretend = 0, frame = 0
ARM GAS  C:\cygwin64\tmp\ccyLDXnL.s 			page 2


  58              		@ frame_needed = 0, uses_anonymous_args = 0
  59              		@ link register save eliminated.
  60              	.LVL1:
  61              		.loc 1 249 0
  62 0000 024A     		ldr	r2, .L5
  63 0002 D368     		ldr	r3, [r2, #12]
  64 0004 43F08003 		orr	r3, r3, #128
  65 0008 D360     		str	r3, [r2, #12]
  66 000a 7047     		bx	lr
  67              	.L6:
  68              		.align	2
  69              	.L5:
  70 000c 00480040 		.word	1073760256
  71              		.cfi_endproc
  72              	.LFE282:
  73              		.size	notify3, .-notify3
  74              		.section	.text.notify4,"ax",%progbits
  75              		.align	1
  76              		.syntax unified
  77              		.thumb
  78              		.thumb_func
  79              		.fpu fpv4-sp-d16
  80              		.type	notify4, %function
  81              	notify4:
  82              	.LFB283:
  83              		.loc 1 254 0
  84              		.cfi_startproc
  85              		@ args = 0, pretend = 0, frame = 0
  86              		@ frame_needed = 0, uses_anonymous_args = 0
  87              		@ link register save eliminated.
  88              	.LVL2:
  89              		.loc 1 257 0
  90 0000 024A     		ldr	r2, .L8
  91 0002 D368     		ldr	r3, [r2, #12]
  92 0004 43F08003 		orr	r3, r3, #128
  93 0008 D360     		str	r3, [r2, #12]
  94 000a 7047     		bx	lr
  95              	.L9:
  96              		.align	2
  97              	.L8:
  98 000c 004C0040 		.word	1073761280
  99              		.cfi_endproc
 100              	.LFE283:
 101              		.size	notify4, .-notify4
 102              		.section	.text.notify6,"ax",%progbits
 103              		.align	1
 104              		.syntax unified
 105              		.thumb
 106              		.thumb_func
 107              		.fpu fpv4-sp-d16
 108              		.type	notify6, %function
 109              	notify6:
 110              	.LFB284:
 111              		.loc 1 270 0
 112              		.cfi_startproc
 113              		@ args = 0, pretend = 0, frame = 0
 114              		@ frame_needed = 0, uses_anonymous_args = 0
ARM GAS  C:\cygwin64\tmp\ccyLDXnL.s 			page 3


 115              		@ link register save eliminated.
 116              	.LVL3:
 117              		.loc 1 273 0
 118 0000 024A     		ldr	r2, .L11
 119 0002 D368     		ldr	r3, [r2, #12]
 120 0004 43F08003 		orr	r3, r3, #128
 121 0008 D360     		str	r3, [r2, #12]
 122 000a 7047     		bx	lr
 123              	.L12:
 124              		.align	2
 125              	.L11:
 126 000c 00140140 		.word	1073812480
 127              		.cfi_endproc
 128              	.LFE284:
 129              		.size	notify6, .-notify6
 130              		.section	.text.notify7,"ax",%progbits
 131              		.align	1
 132              		.syntax unified
 133              		.thumb
 134              		.thumb_func
 135              		.fpu fpv4-sp-d16
 136              		.type	notify7, %function
 137              	notify7:
 138              	.LFB285:
 139              		.loc 1 278 0
 140              		.cfi_startproc
 141              		@ args = 0, pretend = 0, frame = 0
 142              		@ frame_needed = 0, uses_anonymous_args = 0
 143              		@ link register save eliminated.
 144              	.LVL4:
 145              		.loc 1 281 0
 146 0000 024A     		ldr	r2, .L14
 147 0002 D368     		ldr	r3, [r2, #12]
 148 0004 43F08003 		orr	r3, r3, #128
 149 0008 D360     		str	r3, [r2, #12]
 150 000a 7047     		bx	lr
 151              	.L15:
 152              		.align	2
 153              	.L14:
 154 000c 00780040 		.word	1073772544
 155              		.cfi_endproc
 156              	.LFE285:
 157              		.size	notify7, .-notify7
 158              		.section	.text.notify8,"ax",%progbits
 159              		.align	1
 160              		.syntax unified
 161              		.thumb
 162              		.thumb_func
 163              		.fpu fpv4-sp-d16
 164              		.type	notify8, %function
 165              	notify8:
 166              	.LFB286:
 167              		.loc 1 286 0
 168              		.cfi_startproc
 169              		@ args = 0, pretend = 0, frame = 0
 170              		@ frame_needed = 0, uses_anonymous_args = 0
 171              		@ link register save eliminated.
ARM GAS  C:\cygwin64\tmp\ccyLDXnL.s 			page 4


 172              	.LVL5:
 173              		.loc 1 289 0
 174 0000 024A     		ldr	r2, .L17
 175 0002 D368     		ldr	r3, [r2, #12]
 176 0004 43F08003 		orr	r3, r3, #128
 177 0008 D360     		str	r3, [r2, #12]
 178 000a 7047     		bx	lr
 179              	.L18:
 180              		.align	2
 181              	.L17:
 182 000c 007C0040 		.word	1073773568
 183              		.cfi_endproc
 184              	.LFE286:
 185              		.size	notify8, .-notify8
 186              		.section	.text.serve_interrupt,"ax",%progbits
 187              		.align	1
 188              		.syntax unified
 189              		.thumb
 190              		.thumb_func
 191              		.fpu fpv4-sp-d16
 192              		.type	serve_interrupt, %function
 193              	serve_interrupt:
 194              	.LFB280:
 195              		.loc 1 174 0
 196              		.cfi_startproc
 197              		@ args = 0, pretend = 0, frame = 0
 198              		@ frame_needed = 0, uses_anonymous_args = 0
 199              	.LVL6:
 200 0000 2DE9F047 		push	{r4, r5, r6, r7, r8, r9, r10, lr}
 201              		.cfi_def_cfa_offset 32
 202              		.cfi_offset 4, -32
 203              		.cfi_offset 5, -28
 204              		.cfi_offset 6, -24
 205              		.cfi_offset 7, -20
 206              		.cfi_offset 8, -16
 207              		.cfi_offset 9, -12
 208              		.cfi_offset 10, -8
 209              		.cfi_offset 14, -4
 210              		.loc 1 175 0
 211 0004 D0F85464 		ldr	r6, [r0, #1108]
 212              	.LVL7:
 213              		.loc 1 176 0
 214 0008 F768     		ldr	r7, [r6, #12]
 215              	.LVL8:
 216              		.loc 1 177 0
 217 000a 3368     		ldr	r3, [r6]
 218              		.loc 1 180 0
 219 000c DA05     		lsls	r2, r3, #23
 220              		.loc 1 174 0
 221 000e 0546     		mov	r5, r0
 222              		.loc 1 177 0
 223 0010 9CB2     		uxth	r4, r3
 224              	.LVL9:
 225              		.loc 1 180 0
 226 0012 11D5     		bpl	.L20
 227              	.LVL10:
 228              	.LBB128:
ARM GAS  C:\cygwin64\tmp\ccyLDXnL.s 			page 5


 229              	.LBB129:
 230              	.LBB130:
 231              	.LBB131:
 232              	.LBB132:
 233              	.LBB133:
 234              	.LBB134:
 235              		.file 2 "../../modules/ChibiOS/os/common/ext/CMSIS/include/cmsis_gcc.h"
 236              		.loc 2 264 0
 237 0014 2023     		movs	r3, #32
 238              		.syntax unified
 239              	@ 264 "../../modules/ChibiOS/os/common/ext/CMSIS/include/cmsis_gcc.h" 1
 240 0016 83F31188 		MSR basepri, r3
 241              	@ 0 "" 2
 242              	.LVL11:
 243              		.thumb
 244              		.syntax unified
 245              	.LBE134:
 246              	.LBE133:
 247              	.LBE132:
 248              	.LBE131:
 249              		.file 3 "../../modules/ChibiOS/os/rt/include/chsys.h"
 250              		.loc 3 417 0
 251 001a FFF7FEFF 		bl	_stats_start_measure_crit_isr
 252              	.LVL12:
 253              	.LBE130:
 254              	.LBE129:
 255              	.LBE128:
 256              	.LBB135:
 257              	.LBB136:
 258              		.file 4 "../../modules/ChibiOS/os/hal/osal/rt/osal.h"
 259              		.loc 4 844 0
 260 001e 4FF40071 		mov	r1, #512
 261 0022 281D     		adds	r0, r5, #4
 262              	.LVL13:
 263 0024 FFF7FEFF 		bl	chEvtBroadcastFlagsI
 264              	.LVL14:
 265              	.LBE136:
 266              	.LBE135:
 267              		.loc 1 183 0
 268 0028 6FF48073 		mvn	r3, #256
 269 002c 3360     		str	r3, [r6]
 270              	.LBB137:
 271              	.LBB138:
 272              	.LBB139:
 273              		.loc 3 437 0
 274 002e FFF7FEFF 		bl	_stats_stop_measure_crit_isr
 275              	.LVL15:
 276              	.LBB140:
 277              	.LBB141:
 278              	.LBB142:
 279              	.LBB143:
 280              		.loc 2 264 0
 281 0032 0023     		movs	r3, #0
 282              		.syntax unified
 283              	@ 264 "../../modules/ChibiOS/os/common/ext/CMSIS/include/cmsis_gcc.h" 1
 284 0034 83F31188 		MSR basepri, r3
 285              	@ 0 "" 2
ARM GAS  C:\cygwin64\tmp\ccyLDXnL.s 			page 6


 286              	.LVL16:
 287              		.thumb
 288              		.syntax unified
 289              	.L20:
 290              	.LBE143:
 291              	.LBE142:
 292              	.LBE141:
 293              	.LBE140:
 294              	.LBE139:
 295              	.LBE138:
 296              	.LBE137:
 297              	.LBB144:
 298              	.LBB145:
 299              	.LBB146:
 300              	.LBB147:
 301              	.LBB148:
 302              	.LBB149:
 303              	.LBB150:
 304 0038 2023     		movs	r3, #32
 305              		.syntax unified
 306              	@ 264 "../../modules/ChibiOS/os/common/ext/CMSIS/include/cmsis_gcc.h" 1
 307 003a 83F31188 		MSR basepri, r3
 308              	@ 0 "" 2
 309              	.LVL17:
 310              		.thumb
 311              		.syntax unified
 312              	.LBE150:
 313              	.LBE149:
 314              	.LBE148:
 315              	.LBE147:
 316              		.loc 3 417 0
 317 003e FFF7FEFF 		bl	_stats_start_measure_crit_isr
 318              	.LVL18:
 319              	.LBE146:
 320              	.LBE145:
 321              	.LBE144:
 322              	.LBB151:
 323              	.LBB152:
 324              	.LBB153:
 325              		.loc 1 166 0
 326 0042 05F10409 		add	r9, r5, #4
 327              	.L21:
 328              	.LBE153:
 329              	.LBE152:
 330              	.LBE151:
 331              		.loc 1 189 0
 332 0046 14F02F08 		ands	r8, r4, #47
 333 004a 44D1     		bne	.L28
 334              	.LBB158:
 335              	.LBB159:
 336              	.LBB160:
 337              		.loc 3 437 0
 338 004c FFF7FEFF 		bl	_stats_stop_measure_crit_isr
 339              	.LVL19:
 340              	.LBB161:
 341              	.LBB162:
 342              	.LBB163:
ARM GAS  C:\cygwin64\tmp\ccyLDXnL.s 			page 7


 343              	.LBB164:
 344              		.loc 2 264 0
 345              		.syntax unified
 346              	@ 264 "../../modules/ChibiOS/os/common/ext/CMSIS/include/cmsis_gcc.h" 1
 347 0050 88F31188 		MSR basepri, r8
 348              	@ 0 "" 2
 349              	.LVL20:
 350              		.thumb
 351              		.syntax unified
 352              	.LBE164:
 353              	.LBE163:
 354              	.LBE162:
 355              	.LBE161:
 356              	.LBE160:
 357              	.LBE159:
 358              	.LBE158:
 359              		.loc 1 204 0
 360 0054 3906     		lsls	r1, r7, #24
 361 0056 1BD5     		bpl	.L29
 362              		.loc 1 204 0 is_stmt 0 discriminator 1
 363 0058 2206     		lsls	r2, r4, #24
 364 005a 19D5     		bpl	.L29
 365              	.LVL21:
 366              	.LBB165:
 367              	.LBB166:
 368              	.LBB167:
 369              	.LBB168:
 370              	.LBB169:
 371              	.LBB170:
 372              	.LBB171:
 373              	.LBB172:
 374              		.loc 2 264 0 is_stmt 1
 375 005c 2023     		movs	r3, #32
 376              		.syntax unified
 377              	@ 264 "../../modules/ChibiOS/os/common/ext/CMSIS/include/cmsis_gcc.h" 1
 378 005e 83F31188 		MSR basepri, r3
 379              	@ 0 "" 2
 380              	.LVL22:
 381              		.thumb
 382              		.syntax unified
 383              	.LBE172:
 384              	.LBE171:
 385              	.LBE170:
 386              	.LBE169:
 387              		.loc 3 417 0
 388 0062 FFF7FEFF 		bl	_stats_start_measure_crit_isr
 389              	.LVL23:
 390              	.LBE168:
 391              	.LBE167:
 392              	.LBE166:
 393              		.loc 1 207 0
 394 0066 05F13000 		add	r0, r5, #48
 395 006a FFF7FEFF 		bl	oqGetI
 396              	.LVL24:
 397              		.loc 1 208 0
 398 006e 0028     		cmp	r0, #0
 399 0070 53DA     		bge	.L30
ARM GAS  C:\cygwin64\tmp\ccyLDXnL.s 			page 8


 400              	.LVL25:
 401              	.LBB173:
 402              	.LBB174:
 403              		.loc 4 844 0
 404 0072 0821     		movs	r1, #8
 405 0074 281D     		adds	r0, r5, #4
 406              	.LVL26:
 407 0076 FFF7FEFF 		bl	chEvtBroadcastFlagsI
 408              	.LVL27:
 409              	.LBE174:
 410              	.LBE173:
 411              		.loc 1 210 0
 412 007a 4FF63F73 		movw	r3, #65343
 413 007e 3B40     		ands	r3, r3, r7
 414 0080 43F04003 		orr	r3, r3, #64
 415 0084 F360     		str	r3, [r6, #12]
 416              	.L31:
 417              	.LBB175:
 418              	.LBB176:
 419              	.LBB177:
 420              		.loc 3 437 0
 421 0086 FFF7FEFF 		bl	_stats_stop_measure_crit_isr
 422              	.LVL28:
 423              	.LBB178:
 424              	.LBB179:
 425              	.LBB180:
 426              	.LBB181:
 427              		.loc 2 264 0
 428 008a 0023     		movs	r3, #0
 429              		.syntax unified
 430              	@ 264 "../../modules/ChibiOS/os/common/ext/CMSIS/include/cmsis_gcc.h" 1
 431 008c 83F31188 		MSR basepri, r3
 432              	@ 0 "" 2
 433              	.LVL29:
 434              		.thumb
 435              		.syntax unified
 436              	.L29:
 437              	.LBE181:
 438              	.LBE180:
 439              	.LBE179:
 440              	.LBE178:
 441              	.LBE177:
 442              	.LBE176:
 443              	.LBE175:
 444              	.LBE165:
 445              		.loc 1 218 0
 446 0090 6306     		lsls	r3, r4, #25
 447 0092 18D5     		bpl	.L32
 448              	.LVL30:
 449              	.LBB182:
 450              	.LBB183:
 451              	.LBB184:
 452              	.LBB185:
 453              	.LBB186:
 454              	.LBB187:
 455              	.LBB188:
 456              		.loc 2 264 0
ARM GAS  C:\cygwin64\tmp\ccyLDXnL.s 			page 9


 457 0094 2023     		movs	r3, #32
 458              		.syntax unified
 459              	@ 264 "../../modules/ChibiOS/os/common/ext/CMSIS/include/cmsis_gcc.h" 1
 460 0096 83F31188 		MSR basepri, r3
 461              	@ 0 "" 2
 462              	.LVL31:
 463              		.thumb
 464              		.syntax unified
 465              	.LBE188:
 466              	.LBE187:
 467              	.LBE186:
 468              	.LBE185:
 469              		.loc 3 417 0
 470 009a FFF7FEFF 		bl	_stats_start_measure_crit_isr
 471              	.LVL32:
 472              	.LBE184:
 473              	.LBE183:
 474              	.LBE182:
 475              		.loc 1 220 0
 476 009e 6A6C     		ldr	r2, [r5, #68]
 477 00a0 AB6C     		ldr	r3, [r5, #72]
 478 00a2 9A42     		cmp	r2, r3
 479 00a4 02D1     		bne	.L33
 480              		.loc 1 220 0 is_stmt 0 discriminator 1
 481 00a6 AB6B     		ldr	r3, [r5, #56]
 482 00a8 002B     		cmp	r3, #0
 483 00aa 38D1     		bne	.L34
 484              	.L33:
 485              		.loc 1 222 0 is_stmt 1
 486 00ac 27F04007 		bic	r7, r7, #64
 487              	.LVL33:
 488 00b0 3F04     		lsls	r7, r7, #16
 489              		.loc 1 223 0
 490 00b2 6FF04003 		mvn	r3, #64
 491              		.loc 1 222 0
 492 00b6 3F0C     		lsrs	r7, r7, #16
 493 00b8 F760     		str	r7, [r6, #12]
 494              		.loc 1 223 0
 495 00ba 3360     		str	r3, [r6]
 496              	.LBB189:
 497              	.LBB190:
 498              	.LBB191:
 499              		.loc 3 437 0
 500 00bc FFF7FEFF 		bl	_stats_stop_measure_crit_isr
 501              	.LVL34:
 502              	.LBB192:
 503              	.LBB193:
 504              	.LBB194:
 505              	.LBB195:
 506              		.loc 2 264 0
 507 00c0 0023     		movs	r3, #0
 508              		.syntax unified
 509              	@ 264 "../../modules/ChibiOS/os/common/ext/CMSIS/include/cmsis_gcc.h" 1
 510 00c2 83F31188 		MSR basepri, r3
 511              	@ 0 "" 2
 512              	.LVL35:
 513              		.thumb
ARM GAS  C:\cygwin64\tmp\ccyLDXnL.s 			page 10


 514              		.syntax unified
 515              	.L32:
 516              	.LBE195:
 517              	.LBE194:
 518              	.LBE193:
 519              	.LBE192:
 520              	.LBE191:
 521              	.LBE190:
 522              	.LBE189:
 523              		.loc 1 226 0
 524 00c6 D5F85C24 		ldr	r2, [r5, #1116]
 525 00ca D368     		ldr	r3, [r2, #12]
 526 00cc 63B3     		cbz	r3, .L19
 527              		.loc 1 226 0 is_stmt 0 discriminator 1
 528 00ce 1069     		ldr	r0, [r2, #16]
 529              		.loc 1 227 0 is_stmt 1 discriminator 1
 530 00d0 BDE8F047 		pop	{r4, r5, r6, r7, r8, r9, r10, lr}
 531              		.cfi_remember_state
 532              		.cfi_restore 14
 533              		.cfi_restore 10
 534              		.cfi_restore 9
 535              		.cfi_restore 8
 536              		.cfi_restore 7
 537              		.cfi_restore 6
 538              		.cfi_restore 5
 539              		.cfi_restore 4
 540              		.cfi_def_cfa_offset 0
 541              	.LVL36:
 542              		.loc 1 226 0 discriminator 1
 543 00d4 1847     		bx	r3	@ indirect register sibling call
 544              	.LVL37:
 545              	.L28:
 546              		.cfi_restore_state
 547              	.LBB196:
 548              		.loc 1 194 0
 549 00d6 2307     		lsls	r3, r4, #28
 550 00d8 13D0     		beq	.L22
 551              	.LVL38:
 552              	.LBB157:
 553              	.LBB156:
 554              		.loc 1 159 0
 555 00da 14F0080F 		tst	r4, #8
 556 00de 0CBF     		ite	eq
 557 00e0 0021     		moveq	r1, #0
 558 00e2 8021     		movne	r1, #128
 559              	.LVL39:
 560              		.loc 1 160 0
 561 00e4 E007     		lsls	r0, r4, #31
 562              		.loc 1 161 0
 563 00e6 48BF     		it	mi
 564 00e8 41F02001 		orrmi	r1, r1, #32
 565              	.LVL40:
 566              		.loc 1 162 0
 567 00ec A207     		lsls	r2, r4, #30
 568              		.loc 1 163 0
 569 00ee 48BF     		it	mi
 570 00f0 41F04001 		orrmi	r1, r1, #64
ARM GAS  C:\cygwin64\tmp\ccyLDXnL.s 			page 11


 571              	.LVL41:
 572              		.loc 1 164 0
 573 00f4 6307     		lsls	r3, r4, #29
 574              		.loc 1 165 0
 575 00f6 48BF     		it	mi
 576 00f8 41F48071 		orrmi	r1, r1, #256
 577              	.LVL42:
 578              	.LBB154:
 579              	.LBB155:
 580              		.loc 4 844 0
 581 00fc 4846     		mov	r0, r9
 582 00fe FFF7FEFF 		bl	chEvtBroadcastFlagsI
 583              	.LVL43:
 584              	.L22:
 585              	.LBE155:
 586              	.LBE154:
 587              	.LBE156:
 588              	.LBE157:
 589              		.loc 1 197 0
 590 0102 A006     		lsls	r0, r4, #26
 591              		.loc 1 196 0
 592 0104 7368     		ldr	r3, [r6, #4]
 593              	.LVL44:
 594              		.loc 1 197 0
 595 0106 05D5     		bpl	.L27
 596              		.loc 1 196 0
 597 0108 95F85814 		ldrb	r1, [r5, #1112]	@ zero_extendqisi2
 598              		.loc 1 198 0
 599 010c 2846     		mov	r0, r5
 600 010e 1940     		ands	r1, r1, r3
 601 0110 FFF7FEFF 		bl	sdIncomingDataI
 602              	.LVL45:
 603              	.L27:
 604              		.loc 1 199 0
 605 0114 3468     		ldr	r4, [r6]
 606              	.LVL46:
 607 0116 A4B2     		uxth	r4, r4
 608              	.LVL47:
 609 0118 95E7     		b	.L21
 610              	.LVL48:
 611              	.L30:
 612              	.LBE196:
 613              	.LBB197:
 614              		.loc 1 213 0
 615 011a 7060     		str	r0, [r6, #4]
 616 011c B3E7     		b	.L31
 617              	.LVL49:
 618              	.L34:
 619              	.LBE197:
 620              	.LBB198:
 621              	.LBB199:
 622              		.loc 4 844 0
 623 011e 1021     		movs	r1, #16
 624 0120 281D     		adds	r0, r5, #4
 625              	.LVL50:
 626 0122 FFF7FEFF 		bl	chEvtBroadcastFlagsI
 627              	.LVL51:
ARM GAS  C:\cygwin64\tmp\ccyLDXnL.s 			page 12


 628 0126 C1E7     		b	.L33
 629              	.LVL52:
 630              	.L19:
 631 0128 BDE8F087 		pop	{r4, r5, r6, r7, r8, r9, r10, pc}
 632              	.LBE199:
 633              	.LBE198:
 634              		.cfi_endproc
 635              	.LFE280:
 636              		.size	serve_interrupt, .-serve_interrupt
 637              		.section	.text.VectorD8,"ax",%progbits
 638              		.align	1
 639              		.global	VectorD8
 640              		.syntax unified
 641              		.thumb
 642              		.thumb_func
 643              		.fpu fpv4-sp-d16
 644              		.type	VectorD8, %function
 645              	VectorD8:
 646              	.LFB287:
 647              		.loc 1 325 0
 648              		.cfi_startproc
 649              		@ args = 0, pretend = 0, frame = 0
 650              		@ frame_needed = 0, uses_anonymous_args = 0
 651 0000 08B5     		push	{r3, lr}
 652              		.cfi_def_cfa_offset 8
 653              		.cfi_offset 3, -8
 654              		.cfi_offset 14, -4
 655              		.loc 1 327 0
 656 0002 FFF7FEFF 		bl	_stats_increase_irq
 657              	.LVL53:
 658              		.loc 1 329 0
 659 0006 0348     		ldr	r0, .L65
 660 0008 FFF7FEFF 		bl	serve_interrupt
 661              	.LVL54:
 662              		.loc 1 332 0
 663 000c BDE80840 		pop	{r3, lr}
 664              		.cfi_restore 14
 665              		.cfi_restore 3
 666              		.cfi_def_cfa_offset 0
 667              		.loc 1 331 0
 668 0010 FFF7FEBF 		b	_port_irq_epilogue
 669              	.LVL55:
 670              	.L66:
 671              		.align	2
 672              	.L65:
 673 0014 00000000 		.word	.LANCHOR0
 674              		.cfi_endproc
 675              	.LFE287:
 676              		.size	VectorD8, .-VectorD8
 677              		.section	.text.VectorDC,"ax",%progbits
 678              		.align	1
 679              		.global	VectorDC
 680              		.syntax unified
 681              		.thumb
 682              		.thumb_func
 683              		.fpu fpv4-sp-d16
 684              		.type	VectorDC, %function
ARM GAS  C:\cygwin64\tmp\ccyLDXnL.s 			page 13


 685              	VectorDC:
 686              	.LFB288:
 687              		.loc 1 344 0
 688              		.cfi_startproc
 689              		@ args = 0, pretend = 0, frame = 0
 690              		@ frame_needed = 0, uses_anonymous_args = 0
 691 0000 08B5     		push	{r3, lr}
 692              		.cfi_def_cfa_offset 8
 693              		.cfi_offset 3, -8
 694              		.cfi_offset 14, -4
 695              		.loc 1 346 0
 696 0002 FFF7FEFF 		bl	_stats_increase_irq
 697              	.LVL56:
 698              		.loc 1 348 0
 699 0006 0348     		ldr	r0, .L68
 700 0008 FFF7FEFF 		bl	serve_interrupt
 701              	.LVL57:
 702              		.loc 1 351 0
 703 000c BDE80840 		pop	{r3, lr}
 704              		.cfi_restore 14
 705              		.cfi_restore 3
 706              		.cfi_def_cfa_offset 0
 707              		.loc 1 350 0
 708 0010 FFF7FEBF 		b	_port_irq_epilogue
 709              	.LVL58:
 710              	.L69:
 711              		.align	2
 712              	.L68:
 713 0014 00000000 		.word	.LANCHOR1
 714              		.cfi_endproc
 715              	.LFE288:
 716              		.size	VectorDC, .-VectorDC
 717              		.section	.text.Vector110,"ax",%progbits
 718              		.align	1
 719              		.global	Vector110
 720              		.syntax unified
 721              		.thumb
 722              		.thumb_func
 723              		.fpu fpv4-sp-d16
 724              		.type	Vector110, %function
 725              	Vector110:
 726              	.LFB289:
 727              		.loc 1 363 0
 728              		.cfi_startproc
 729              		@ args = 0, pretend = 0, frame = 0
 730              		@ frame_needed = 0, uses_anonymous_args = 0
 731 0000 08B5     		push	{r3, lr}
 732              		.cfi_def_cfa_offset 8
 733              		.cfi_offset 3, -8
 734              		.cfi_offset 14, -4
 735              		.loc 1 365 0
 736 0002 FFF7FEFF 		bl	_stats_increase_irq
 737              	.LVL59:
 738              		.loc 1 367 0
 739 0006 0348     		ldr	r0, .L71
 740 0008 FFF7FEFF 		bl	serve_interrupt
 741              	.LVL60:
ARM GAS  C:\cygwin64\tmp\ccyLDXnL.s 			page 14


 742              		.loc 1 370 0
 743 000c BDE80840 		pop	{r3, lr}
 744              		.cfi_restore 14
 745              		.cfi_restore 3
 746              		.cfi_def_cfa_offset 0
 747              		.loc 1 369 0
 748 0010 FFF7FEBF 		b	_port_irq_epilogue
 749              	.LVL61:
 750              	.L72:
 751              		.align	2
 752              	.L71:
 753 0014 00000000 		.word	.LANCHOR2
 754              		.cfi_endproc
 755              	.LFE289:
 756              		.size	Vector110, .-Vector110
 757              		.section	.text.Vector15C,"ax",%progbits
 758              		.align	1
 759              		.global	Vector15C
 760              		.syntax unified
 761              		.thumb
 762              		.thumb_func
 763              		.fpu fpv4-sp-d16
 764              		.type	Vector15C, %function
 765              	Vector15C:
 766              	.LFB290:
 767              		.loc 1 401 0
 768              		.cfi_startproc
 769              		@ args = 0, pretend = 0, frame = 0
 770              		@ frame_needed = 0, uses_anonymous_args = 0
 771 0000 08B5     		push	{r3, lr}
 772              		.cfi_def_cfa_offset 8
 773              		.cfi_offset 3, -8
 774              		.cfi_offset 14, -4
 775              		.loc 1 403 0
 776 0002 FFF7FEFF 		bl	_stats_increase_irq
 777              	.LVL62:
 778              		.loc 1 405 0
 779 0006 0348     		ldr	r0, .L74
 780 0008 FFF7FEFF 		bl	serve_interrupt
 781              	.LVL63:
 782              		.loc 1 408 0
 783 000c BDE80840 		pop	{r3, lr}
 784              		.cfi_restore 14
 785              		.cfi_restore 3
 786              		.cfi_def_cfa_offset 0
 787              		.loc 1 407 0
 788 0010 FFF7FEBF 		b	_port_irq_epilogue
 789              	.LVL64:
 790              	.L75:
 791              		.align	2
 792              	.L74:
 793 0014 00000000 		.word	.LANCHOR3
 794              		.cfi_endproc
 795              	.LFE290:
 796              		.size	Vector15C, .-Vector15C
 797              		.section	.text.Vector188,"ax",%progbits
 798              		.align	1
ARM GAS  C:\cygwin64\tmp\ccyLDXnL.s 			page 15


 799              		.global	Vector188
 800              		.syntax unified
 801              		.thumb
 802              		.thumb_func
 803              		.fpu fpv4-sp-d16
 804              		.type	Vector188, %function
 805              	Vector188:
 806              	.LFB291:
 807              		.loc 1 420 0
 808              		.cfi_startproc
 809              		@ args = 0, pretend = 0, frame = 0
 810              		@ frame_needed = 0, uses_anonymous_args = 0
 811 0000 08B5     		push	{r3, lr}
 812              		.cfi_def_cfa_offset 8
 813              		.cfi_offset 3, -8
 814              		.cfi_offset 14, -4
 815              		.loc 1 422 0
 816 0002 FFF7FEFF 		bl	_stats_increase_irq
 817              	.LVL65:
 818              		.loc 1 424 0
 819 0006 0348     		ldr	r0, .L77
 820 0008 FFF7FEFF 		bl	serve_interrupt
 821              	.LVL66:
 822              		.loc 1 427 0
 823 000c BDE80840 		pop	{r3, lr}
 824              		.cfi_restore 14
 825              		.cfi_restore 3
 826              		.cfi_def_cfa_offset 0
 827              		.loc 1 426 0
 828 0010 FFF7FEBF 		b	_port_irq_epilogue
 829              	.LVL67:
 830              	.L78:
 831              		.align	2
 832              	.L77:
 833 0014 00000000 		.word	.LANCHOR4
 834              		.cfi_endproc
 835              	.LFE291:
 836              		.size	Vector188, .-Vector188
 837              		.section	.text.Vector18C,"ax",%progbits
 838              		.align	1
 839              		.global	Vector18C
 840              		.syntax unified
 841              		.thumb
 842              		.thumb_func
 843              		.fpu fpv4-sp-d16
 844              		.type	Vector18C, %function
 845              	Vector18C:
 846              	.LFB292:
 847              		.loc 1 439 0
 848              		.cfi_startproc
 849              		@ args = 0, pretend = 0, frame = 0
 850              		@ frame_needed = 0, uses_anonymous_args = 0
 851 0000 08B5     		push	{r3, lr}
 852              		.cfi_def_cfa_offset 8
 853              		.cfi_offset 3, -8
 854              		.cfi_offset 14, -4
 855              		.loc 1 441 0
ARM GAS  C:\cygwin64\tmp\ccyLDXnL.s 			page 16


 856 0002 FFF7FEFF 		bl	_stats_increase_irq
 857              	.LVL68:
 858              		.loc 1 443 0
 859 0006 0348     		ldr	r0, .L80
 860 0008 FFF7FEFF 		bl	serve_interrupt
 861              	.LVL69:
 862              		.loc 1 446 0
 863 000c BDE80840 		pop	{r3, lr}
 864              		.cfi_restore 14
 865              		.cfi_restore 3
 866              		.cfi_def_cfa_offset 0
 867              		.loc 1 445 0
 868 0010 FFF7FEBF 		b	_port_irq_epilogue
 869              	.LVL70:
 870              	.L81:
 871              		.align	2
 872              	.L80:
 873 0014 00000000 		.word	.LANCHOR5
 874              		.cfi_endproc
 875              	.LFE292:
 876              		.size	Vector18C, .-Vector18C
 877              		.section	.text.sd_lld_init,"ax",%progbits
 878              		.align	1
 879              		.global	sd_lld_init
 880              		.syntax unified
 881              		.thumb
 882              		.thumb_func
 883              		.fpu fpv4-sp-d16
 884              		.type	sd_lld_init, %function
 885              	sd_lld_init:
 886              	.LFB293:
 887              		.loc 1 458 0
 888              		.cfi_startproc
 889              		@ args = 0, pretend = 0, frame = 0
 890              		@ frame_needed = 0, uses_anonymous_args = 0
 891 0000 10B5     		push	{r4, lr}
 892              		.cfi_def_cfa_offset 8
 893              		.cfi_offset 4, -8
 894              		.cfi_offset 14, -4
 895              		.loc 1 466 0
 896 0002 1B4C     		ldr	r4, .L83
 897 0004 1B4A     		ldr	r2, .L83+4
 898 0006 2046     		mov	r0, r4
 899 0008 0021     		movs	r1, #0
 900 000a FFF7FEFF 		bl	sdObjectInit
 901              	.LVL71:
 902              		.loc 1 467 0
 903 000e 1A4B     		ldr	r3, .L83+8
 904 0010 C4F85434 		str	r3, [r4, #1108]
 905              		.loc 1 471 0
 906 0014 194C     		ldr	r4, .L83+12
 907 0016 1A4A     		ldr	r2, .L83+16
 908 0018 2046     		mov	r0, r4
 909 001a 0021     		movs	r1, #0
 910 001c FFF7FEFF 		bl	sdObjectInit
 911              	.LVL72:
 912              		.loc 1 472 0
ARM GAS  C:\cygwin64\tmp\ccyLDXnL.s 			page 17


 913 0020 184B     		ldr	r3, .L83+20
 914 0022 C4F85434 		str	r3, [r4, #1108]
 915              		.loc 1 476 0
 916 0026 184C     		ldr	r4, .L83+24
 917 0028 184A     		ldr	r2, .L83+28
 918 002a 2046     		mov	r0, r4
 919 002c 0021     		movs	r1, #0
 920 002e FFF7FEFF 		bl	sdObjectInit
 921              	.LVL73:
 922              		.loc 1 477 0
 923 0032 174B     		ldr	r3, .L83+32
 924 0034 C4F85434 		str	r3, [r4, #1108]
 925              		.loc 1 486 0
 926 0038 164C     		ldr	r4, .L83+36
 927 003a 174A     		ldr	r2, .L83+40
 928 003c 2046     		mov	r0, r4
 929 003e 0021     		movs	r1, #0
 930 0040 FFF7FEFF 		bl	sdObjectInit
 931              	.LVL74:
 932              		.loc 1 487 0
 933 0044 154B     		ldr	r3, .L83+44
 934 0046 C4F85434 		str	r3, [r4, #1108]
 935              		.loc 1 491 0
 936 004a 154C     		ldr	r4, .L83+48
 937 004c 154A     		ldr	r2, .L83+52
 938 004e 2046     		mov	r0, r4
 939 0050 0021     		movs	r1, #0
 940 0052 FFF7FEFF 		bl	sdObjectInit
 941              	.LVL75:
 942              		.loc 1 492 0
 943 0056 144B     		ldr	r3, .L83+56
 944 0058 C4F85434 		str	r3, [r4, #1108]
 945              		.loc 1 496 0
 946 005c 134C     		ldr	r4, .L83+60
 947 005e 144A     		ldr	r2, .L83+64
 948 0060 0021     		movs	r1, #0
 949 0062 2046     		mov	r0, r4
 950 0064 FFF7FEFF 		bl	sdObjectInit
 951              	.LVL76:
 952              		.loc 1 497 0
 953 0068 124B     		ldr	r3, .L83+68
 954 006a C4F85434 		str	r3, [r4, #1108]
 955 006e 10BD     		pop	{r4, pc}
 956              	.L84:
 957              		.align	2
 958              	.L83:
 959 0070 00000000 		.word	.LANCHOR0
 960 0074 00000000 		.word	notify2
 961 0078 00440040 		.word	1073759232
 962 007c 00000000 		.word	.LANCHOR1
 963 0080 00000000 		.word	notify3
 964 0084 00480040 		.word	1073760256
 965 0088 00000000 		.word	.LANCHOR2
 966 008c 00000000 		.word	notify4
 967 0090 004C0040 		.word	1073761280
 968 0094 00000000 		.word	.LANCHOR3
 969 0098 00000000 		.word	notify6
ARM GAS  C:\cygwin64\tmp\ccyLDXnL.s 			page 18


 970 009c 00140140 		.word	1073812480
 971 00a0 00000000 		.word	.LANCHOR4
 972 00a4 00000000 		.word	notify7
 973 00a8 00780040 		.word	1073772544
 974 00ac 00000000 		.word	.LANCHOR5
 975 00b0 00000000 		.word	notify8
 976 00b4 007C0040 		.word	1073773568
 977              		.cfi_endproc
 978              	.LFE293:
 979              		.size	sd_lld_init, .-sd_lld_init
 980              		.section	.text.sd_lld_start,"ax",%progbits
 981              		.align	1
 982              		.global	sd_lld_start
 983              		.syntax unified
 984              		.thumb
 985              		.thumb_func
 986              		.fpu fpv4-sp-d16
 987              		.type	sd_lld_start, %function
 988              	sd_lld_start:
 989              	.LFB294:
 990              		.loc 1 511 0
 991              		.cfi_startproc
 992              		@ args = 0, pretend = 0, frame = 0
 993              		@ frame_needed = 0, uses_anonymous_args = 0
 994              	.LVL77:
 995 0000 38B5     		push	{r3, r4, r5, lr}
 996              		.cfi_def_cfa_offset 16
 997              		.cfi_offset 3, -16
 998              		.cfi_offset 4, -12
 999              		.cfi_offset 5, -8
 1000              		.cfi_offset 14, -4
 1001              		.loc 1 514 0
 1002 0002 3F4D     		ldr	r5, .L104
 1003              		.loc 1 518 0
 1004 0004 037A     		ldrb	r3, [r0, #8]	@ zero_extendqisi2
 1005              		.loc 1 514 0
 1006 0006 0029     		cmp	r1, #0
 1007 0008 18BF     		it	ne
 1008 000a 0D46     		movne	r5, r1
 1009              	.LVL78:
 1010              		.loc 1 518 0
 1011 000c 012B     		cmp	r3, #1
 1012              		.loc 1 511 0
 1013 000e 0446     		mov	r4, r0
 1014              		.loc 1 516 0
 1015 0010 C0F85C54 		str	r5, [r0, #1116]
 1016              		.loc 1 518 0
 1017 0014 2DD1     		bne	.L88
 1018              		.loc 1 526 0
 1019 0016 3B4B     		ldr	r3, .L104+4
 1020 0018 9842     		cmp	r0, r3
 1021 001a 13D1     		bne	.L89
 1022              		.loc 1 527 0
 1023 001c 3A4A     		ldr	r2, .L104+8
 1024 001e 136C     		ldr	r3, [r2, #64]
 1025 0020 43F40033 		orr	r3, r3, #131072
 1026 0024 1364     		str	r3, [r2, #64]
ARM GAS  C:\cygwin64\tmp\ccyLDXnL.s 			page 19


 1027              		.loc 1 528 0
 1028 0026 0B21     		movs	r1, #11
 1029 0028 2620     		movs	r0, #38
 1030              	.LVL79:
 1031              	.L100:
 1032              		.loc 1 534 0
 1033 002a FFF7FEFF 		bl	nvicEnableVector
 1034              	.LVL80:
 1035              	.L90:
 1036              		.loc 1 562 0
 1037 002e 374B     		ldr	r3, .L104+12
 1038 0030 9C42     		cmp	r4, r3
 1039 0032 1ED1     		bne	.L88
 1040              		.loc 1 563 0
 1041 0034 344A     		ldr	r2, .L104+8
 1042 0036 136C     		ldr	r3, [r2, #64]
 1043 0038 43F00043 		orr	r3, r3, #-2147483648
 1044 003c 1364     		str	r3, [r2, #64]
 1045              		.loc 1 564 0
 1046 003e 0B21     		movs	r1, #11
 1047 0040 5320     		movs	r0, #83
 1048 0042 14E0     		b	.L101
 1049              	.LVL81:
 1050              	.L89:
 1051              		.loc 1 532 0
 1052 0044 324B     		ldr	r3, .L104+16
 1053 0046 9842     		cmp	r0, r3
 1054 0048 07D1     		bne	.L91
 1055              		.loc 1 533 0
 1056 004a 2F4A     		ldr	r2, .L104+8
 1057 004c 136C     		ldr	r3, [r2, #64]
 1058 004e 43F48023 		orr	r3, r3, #262144
 1059 0052 1364     		str	r3, [r2, #64]
 1060              		.loc 1 534 0
 1061 0054 0B21     		movs	r1, #11
 1062 0056 2720     		movs	r0, #39
 1063              	.LVL82:
 1064 0058 E7E7     		b	.L100
 1065              	.LVL83:
 1066              	.L91:
 1067              		.loc 1 538 0
 1068 005a 2E4B     		ldr	r3, .L104+20
 1069 005c 9842     		cmp	r0, r3
 1070 005e 36D1     		bne	.L92
 1071              		.loc 1 539 0
 1072 0060 294A     		ldr	r2, .L104+8
 1073 0062 136C     		ldr	r3, [r2, #64]
 1074 0064 43F40023 		orr	r3, r3, #524288
 1075 0068 1364     		str	r3, [r2, #64]
 1076              		.loc 1 540 0
 1077 006a 0B21     		movs	r1, #11
 1078 006c 3420     		movs	r0, #52
 1079              	.LVL84:
 1080              	.L101:
 1081              		.loc 1 564 0
 1082 006e FFF7FEFF 		bl	nvicEnableVector
 1083              	.LVL85:
ARM GAS  C:\cygwin64\tmp\ccyLDXnL.s 			page 20


 1084              	.L88:
 1085              	.LBB202:
 1086              	.LBB203:
 1087              		.loc 1 104 0
 1088 0072 D4F85434 		ldr	r3, [r4, #1108]
 1089              	.LVL86:
 1090              		.loc 1 108 0
 1091 0076 284A     		ldr	r2, .L104+24
 1092 0078 2968     		ldr	r1, [r5]
 1093 007a 9342     		cmp	r3, r2
 1094 007c 03D0     		beq	.L95
 1095 007e 02F58062 		add	r2, r2, #1024
 1096 0082 9342     		cmp	r3, r2
 1097 0084 39D1     		bne	.L96
 1098              	.L95:
 1099              		.loc 1 112 0
 1100 0086 254A     		ldr	r2, .L104+28
 1101              	.L102:
 1102              		.loc 1 114 0
 1103 0088 02EB5102 		add	r2, r2, r1, lsr #1
 1104 008c B2FBF1F2 		udiv	r2, r2, r1
 1105 0090 9A60     		str	r2, [r3, #8]
 1106              		.loc 1 117 0
 1107 0092 EA88     		ldrh	r2, [r5, #6]
 1108 0094 42F04002 		orr	r2, r2, #64
 1109 0098 92B2     		uxth	r2, r2
 1110 009a 1A61     		str	r2, [r3, #16]
 1111              		.loc 1 118 0
 1112 009c 2A89     		ldrh	r2, [r5, #8]
 1113 009e 42F00102 		orr	r2, r2, #1
 1114 00a2 92B2     		uxth	r2, r2
 1115 00a4 5A61     		str	r2, [r3, #20]
 1116              		.loc 1 119 0
 1117 00a6 AA88     		ldrh	r2, [r5, #4]
 1118              		.loc 1 120 0
 1119 00a8 42F40451 		orr	r1, r2, #8448
 1120 00ac 41F02C01 		orr	r1, r1, #44
 1121              		.loc 1 119 0
 1122 00b0 D960     		str	r1, [r3, #12]
 1123              		.loc 1 128 0
 1124 00b2 02F4A052 		and	r2, r2, #5120
 1125              		.loc 1 122 0
 1126 00b6 0021     		movs	r1, #0
 1127 00b8 1960     		str	r1, [r3]
 1128              		.loc 1 128 0
 1129 00ba B2F5806F 		cmp	r2, #1024
 1130              		.loc 1 123 0
 1131 00be 1968     		ldr	r1, [r3]
 1132              		.loc 1 124 0
 1133 00c0 5B68     		ldr	r3, [r3, #4]
 1134              	.LVL87:
 1135              		.loc 1 129 0
 1136 00c2 0CBF     		ite	eq
 1137 00c4 7F23     		moveq	r3, #127
 1138              		.loc 1 132 0
 1139 00c6 FF23     		movne	r3, #255
 1140 00c8 84F85834 		strb	r3, [r4, #1112]
ARM GAS  C:\cygwin64\tmp\ccyLDXnL.s 			page 21


 1141              	.LVL88:
 1142 00cc 38BD     		pop	{r3, r4, r5, pc}
 1143              	.LVL89:
 1144              	.L92:
 1145              	.LBE203:
 1146              	.LBE202:
 1147              		.loc 1 550 0
 1148 00ce 144B     		ldr	r3, .L104+32
 1149 00d0 9842     		cmp	r0, r3
 1150 00d2 07D1     		bne	.L94
 1151              		.loc 1 551 0
 1152 00d4 0C4A     		ldr	r2, .L104+8
 1153 00d6 536C     		ldr	r3, [r2, #68]
 1154 00d8 43F02003 		orr	r3, r3, #32
 1155 00dc 5364     		str	r3, [r2, #68]
 1156              		.loc 1 552 0
 1157 00de 0B21     		movs	r1, #11
 1158 00e0 4720     		movs	r0, #71
 1159              	.LVL90:
 1160 00e2 C4E7     		b	.L101
 1161              	.LVL91:
 1162              	.L94:
 1163              		.loc 1 556 0
 1164 00e4 0F4B     		ldr	r3, .L104+36
 1165 00e6 9842     		cmp	r0, r3
 1166 00e8 A1D1     		bne	.L90
 1167              		.loc 1 557 0
 1168 00ea 074A     		ldr	r2, .L104+8
 1169 00ec 136C     		ldr	r3, [r2, #64]
 1170 00ee 43F08043 		orr	r3, r3, #1073741824
 1171 00f2 1364     		str	r3, [r2, #64]
 1172              		.loc 1 558 0
 1173 00f4 0B21     		movs	r1, #11
 1174 00f6 5220     		movs	r0, #82
 1175              	.LVL92:
 1176 00f8 B9E7     		b	.L101
 1177              	.LVL93:
 1178              	.L96:
 1179              	.LBB205:
 1180              	.LBB204:
 1181              		.loc 1 114 0
 1182 00fa 0B4A     		ldr	r2, .L104+40
 1183 00fc C4E7     		b	.L102
 1184              	.L105:
 1185 00fe 00BF     		.align	2
 1186              	.L104:
 1187 0100 00000000 		.word	.LANCHOR6
 1188 0104 00000000 		.word	.LANCHOR0
 1189 0108 00380240 		.word	1073887232
 1190 010c 00000000 		.word	.LANCHOR5
 1191 0110 00000000 		.word	.LANCHOR1
 1192 0114 00000000 		.word	.LANCHOR2
 1193 0118 00100140 		.word	1073811456
 1194 011c 00BD0105 		.word	84000000
 1195 0120 00000000 		.word	.LANCHOR3
 1196 0124 00000000 		.word	.LANCHOR4
 1197 0128 80DE8002 		.word	42000000
ARM GAS  C:\cygwin64\tmp\ccyLDXnL.s 			page 22


 1198              	.LBE204:
 1199              	.LBE205:
 1200              		.cfi_endproc
 1201              	.LFE294:
 1202              		.size	sd_lld_start, .-sd_lld_start
 1203              		.section	.text.sd_lld_stop,"ax",%progbits
 1204              		.align	1
 1205              		.global	sd_lld_stop
 1206              		.syntax unified
 1207              		.thumb
 1208              		.thumb_func
 1209              		.fpu fpv4-sp-d16
 1210              		.type	sd_lld_stop, %function
 1211              	sd_lld_stop:
 1212              	.LFB295:
 1213              		.loc 1 580 0
 1214              		.cfi_startproc
 1215              		@ args = 0, pretend = 0, frame = 0
 1216              		@ frame_needed = 0, uses_anonymous_args = 0
 1217              		@ link register save eliminated.
 1218              	.LVL94:
 1219              		.loc 1 582 0
 1220 0000 037A     		ldrb	r3, [r0, #8]	@ zero_extendqisi2
 1221 0002 022B     		cmp	r3, #2
 1222 0004 42D1     		bne	.L106
 1223              		.loc 1 583 0
 1224 0006 D0F85434 		ldr	r3, [r0, #1108]
 1225              	.LVL95:
 1226              	.LBB206:
 1227              	.LBB207:
 1228              		.loc 1 144 0
 1229 000a 0022     		movs	r2, #0
 1230 000c DA60     		str	r2, [r3, #12]
 1231              		.loc 1 145 0
 1232 000e 1A61     		str	r2, [r3, #16]
 1233              		.loc 1 146 0
 1234 0010 5A61     		str	r2, [r3, #20]
 1235              	.LVL96:
 1236              	.LBE207:
 1237              	.LBE206:
 1238              		.loc 1 592 0
 1239 0012 1F4B     		ldr	r3, .L116
 1240 0014 9842     		cmp	r0, r3
 1241 0016 07D1     		bne	.L109
 1242              		.loc 1 593 0
 1243 0018 1E4A     		ldr	r2, .L116+4
 1244 001a 136C     		ldr	r3, [r2, #64]
 1245 001c 23F40033 		bic	r3, r3, #131072
 1246 0020 1364     		str	r3, [r2, #64]
 1247              		.loc 1 594 0
 1248 0022 2620     		movs	r0, #38
 1249              	.LVL97:
 1250              	.L115:
 1251              		.loc 1 636 0
 1252 0024 FFF7FEBF 		b	nvicDisableVector
 1253              	.LVL98:
 1254              	.L109:
ARM GAS  C:\cygwin64\tmp\ccyLDXnL.s 			page 23


 1255              		.loc 1 599 0
 1256 0028 1B4B     		ldr	r3, .L116+8
 1257 002a 9842     		cmp	r0, r3
 1258 002c 06D1     		bne	.L110
 1259              		.loc 1 600 0
 1260 002e 194A     		ldr	r2, .L116+4
 1261 0030 136C     		ldr	r3, [r2, #64]
 1262 0032 23F48023 		bic	r3, r3, #262144
 1263 0036 1364     		str	r3, [r2, #64]
 1264              		.loc 1 601 0
 1265 0038 2720     		movs	r0, #39
 1266              	.LVL99:
 1267 003a F3E7     		b	.L115
 1268              	.LVL100:
 1269              	.L110:
 1270              		.loc 1 606 0
 1271 003c 174B     		ldr	r3, .L116+12
 1272 003e 9842     		cmp	r0, r3
 1273 0040 06D1     		bne	.L111
 1274              		.loc 1 607 0
 1275 0042 144A     		ldr	r2, .L116+4
 1276 0044 136C     		ldr	r3, [r2, #64]
 1277 0046 23F40023 		bic	r3, r3, #524288
 1278 004a 1364     		str	r3, [r2, #64]
 1279              		.loc 1 608 0
 1280 004c 3420     		movs	r0, #52
 1281              	.LVL101:
 1282 004e E9E7     		b	.L115
 1283              	.LVL102:
 1284              	.L111:
 1285              		.loc 1 620 0
 1286 0050 134B     		ldr	r3, .L116+16
 1287 0052 9842     		cmp	r0, r3
 1288 0054 06D1     		bne	.L112
 1289              		.loc 1 621 0
 1290 0056 0F4A     		ldr	r2, .L116+4
 1291 0058 536C     		ldr	r3, [r2, #68]
 1292 005a 23F02003 		bic	r3, r3, #32
 1293 005e 5364     		str	r3, [r2, #68]
 1294              		.loc 1 622 0
 1295 0060 4720     		movs	r0, #71
 1296              	.LVL103:
 1297 0062 DFE7     		b	.L115
 1298              	.LVL104:
 1299              	.L112:
 1300              		.loc 1 627 0
 1301 0064 0F4B     		ldr	r3, .L116+20
 1302 0066 9842     		cmp	r0, r3
 1303 0068 06D1     		bne	.L113
 1304              		.loc 1 628 0
 1305 006a 0A4A     		ldr	r2, .L116+4
 1306 006c 136C     		ldr	r3, [r2, #64]
 1307 006e 23F08043 		bic	r3, r3, #1073741824
 1308 0072 1364     		str	r3, [r2, #64]
 1309              		.loc 1 629 0
 1310 0074 5220     		movs	r0, #82
 1311              	.LVL105:
ARM GAS  C:\cygwin64\tmp\ccyLDXnL.s 			page 24


 1312 0076 D5E7     		b	.L115
 1313              	.LVL106:
 1314              	.L113:
 1315              		.loc 1 634 0
 1316 0078 0B4B     		ldr	r3, .L116+24
 1317 007a 9842     		cmp	r0, r3
 1318 007c 06D1     		bne	.L106
 1319              		.loc 1 635 0
 1320 007e 054A     		ldr	r2, .L116+4
 1321 0080 136C     		ldr	r3, [r2, #64]
 1322 0082 23F00043 		bic	r3, r3, #-2147483648
 1323 0086 1364     		str	r3, [r2, #64]
 1324              		.loc 1 636 0
 1325 0088 5320     		movs	r0, #83
 1326              	.LVL107:
 1327 008a CBE7     		b	.L115
 1328              	.LVL108:
 1329              	.L106:
 1330 008c 7047     		bx	lr
 1331              	.L117:
 1332 008e 00BF     		.align	2
 1333              	.L116:
 1334 0090 00000000 		.word	.LANCHOR0
 1335 0094 00380240 		.word	1073887232
 1336 0098 00000000 		.word	.LANCHOR1
 1337 009c 00000000 		.word	.LANCHOR2
 1338 00a0 00000000 		.word	.LANCHOR3
 1339 00a4 00000000 		.word	.LANCHOR4
 1340 00a8 00000000 		.word	.LANCHOR5
 1341              		.cfi_endproc
 1342              	.LFE295:
 1343              		.size	sd_lld_stop, .-sd_lld_stop
 1344              		.global	SD8
 1345              		.global	SD7
 1346              		.global	SD6
 1347              		.global	SD4
 1348              		.global	SD3
 1349              		.global	SD2
 1350              		.section	.bss.SD2,"aw",%nobits
 1351              		.align	2
 1352              		.set	.LANCHOR0,. + 0
 1353              		.type	SD2, %object
 1354              		.size	SD2, 1120
 1355              	SD2:
 1356 0000 00000000 		.space	1120
 1356      00000000 
 1356      00000000 
 1356      00000000 
 1356      00000000 
 1357              		.section	.bss.SD3,"aw",%nobits
 1358              		.align	2
 1359              		.set	.LANCHOR1,. + 0
 1360              		.type	SD3, %object
 1361              		.size	SD3, 1120
 1362              	SD3:
 1363 0000 00000000 		.space	1120
 1363      00000000 
ARM GAS  C:\cygwin64\tmp\ccyLDXnL.s 			page 25


 1363      00000000 
 1363      00000000 
 1363      00000000 
 1364              		.section	.bss.SD4,"aw",%nobits
 1365              		.align	2
 1366              		.set	.LANCHOR2,. + 0
 1367              		.type	SD4, %object
 1368              		.size	SD4, 1120
 1369              	SD4:
 1370 0000 00000000 		.space	1120
 1370      00000000 
 1370      00000000 
 1370      00000000 
 1370      00000000 
 1371              		.section	.bss.SD6,"aw",%nobits
 1372              		.align	2
 1373              		.set	.LANCHOR3,. + 0
 1374              		.type	SD6, %object
 1375              		.size	SD6, 1120
 1376              	SD6:
 1377 0000 00000000 		.space	1120
 1377      00000000 
 1377      00000000 
 1377      00000000 
 1377      00000000 
 1378              		.section	.bss.SD7,"aw",%nobits
 1379              		.align	2
 1380              		.set	.LANCHOR4,. + 0
 1381              		.type	SD7, %object
 1382              		.size	SD7, 1120
 1383              	SD7:
 1384 0000 00000000 		.space	1120
 1384      00000000 
 1384      00000000 
 1384      00000000 
 1384      00000000 
 1385              		.section	.bss.SD8,"aw",%nobits
 1386              		.align	2
 1387              		.set	.LANCHOR5,. + 0
 1388              		.type	SD8, %object
 1389              		.size	SD8, 1120
 1390              	SD8:
 1391 0000 00000000 		.space	1120
 1391      00000000 
 1391      00000000 
 1391      00000000 
 1391      00000000 
 1392              		.section	.rodata.default_config,"a",%progbits
 1393              		.align	2
 1394              		.set	.LANCHOR6,. + 0
 1395              		.type	default_config, %object
 1396              		.size	default_config, 20
 1397              	default_config:
 1398 0000 00960000 		.word	38400
 1399 0004 0000     		.short	0
 1400 0006 0000     		.short	0
 1401 0008 0000     		.short	0
ARM GAS  C:\cygwin64\tmp\ccyLDXnL.s 			page 26


 1402 000a 0000     		.space	2
 1403 000c 00000000 		.word	0
 1404 0010 00000000 		.word	0
 1405              		.text
 1406              	.Letext0:
 1407              		.file 5 "c:\\program files (x86)\\gnu tools arm embedded\\6 2017-q2-update\\lib\\gcc\\arm-none-eab
 1408              		.file 6 "c:\\program files (x86)\\gnu tools arm embedded\\6 2017-q2-update\\arm-none-eabi\\include
 1409              		.file 7 "c:\\program files (x86)\\gnu tools arm embedded\\6 2017-q2-update\\arm-none-eabi\\include
 1410              		.file 8 "../../modules/ChibiOS/os/common/ports/ARMCMx/compilers/GCC/chtypes.h"
 1411              		.file 9 "../../modules/ChibiOS/os/rt/include/chsystypes.h"
 1412              		.file 10 "../../modules/ChibiOS/os/rt/include/chschd.h"
 1413              		.file 11 "../../modules/ChibiOS/os/common/ext/CMSIS/include/core_cm4.h"
 1414              		.file 12 "../../modules/ChibiOS/os/common/ext/CMSIS/ST/STM32F4xx/system_stm32f4xx.h"
 1415              		.file 13 "../../modules/ChibiOS/os/common/ext/CMSIS/ST/STM32F4xx/stm32f427xx.h"
 1416              		.file 14 "../../modules/ChibiOS/os/common/ports/ARMCMx/chcore.h"
 1417              		.file 15 "../../modules/ChibiOS/os/common/ports/ARMCMx/chcore_v7m.h"
 1418              		.file 16 "../../modules/ChibiOS/os/hal/ports/STM32/LLD/TIMv1/stm32_tim.h"
 1419              		.file 17 "../../modules/ChibiOS/os/rt/include/chtm.h"
 1420              		.file 18 "../../modules/ChibiOS/os/rt/include/chstats.h"
 1421              		.file 19 "../../modules/ChibiOS/os/rt/include/chsem.h"
 1422              		.file 20 "../../modules/ChibiOS/os/rt/include/chmtx.h"
 1423              		.file 21 "../../modules/ChibiOS/os/rt/include/chregistry.h"
 1424              		.file 22 "../../modules/ChibiOS/os/rt/include/chevents.h"
 1425              		.file 23 "../../modules/ChibiOS/os/hal/ports/STM32/LLD/DMAv2/stm32_dma.h"
 1426              		.file 24 "../../modules/ChibiOS/os/hal/include/hal_ioblock.h"
 1427              		.file 25 "../../modules/ChibiOS/os/hal/include/hal_queues.h"
 1428              		.file 26 "../../modules/ChibiOS/os/hal/ports/STM32/LLD/GPIOv2/hal_pal_lld.h"
 1429              		.file 27 "../../modules/ChibiOS/os/hal/include/hal_adc.h"
 1430              		.file 28 "../../modules/ChibiOS/os/hal/ports/STM32/LLD/ADCv2/hal_adc_lld.h"
 1431              		.file 29 "../../modules/ChibiOS/os/hal/include/hal_ext.h"
 1432              		.file 30 "../../modules/ChibiOS/os/hal/ports/STM32/LLD/EXTIv1/hal_ext_lld.h"
 1433              		.file 31 "../../modules/ChibiOS/os/hal/include/hal_i2c.h"
 1434              		.file 32 "../../modules/ChibiOS/os/hal/ports/STM32/LLD/I2Cv1/hal_i2c_lld.h"
 1435              		.file 33 "../../modules/ChibiOS/os/hal/include/hal_pwm.h"
 1436              		.file 34 "../../modules/ChibiOS/os/hal/ports/STM32/LLD/TIMv1/hal_pwm_lld.h"
 1437              		.file 35 "../../modules/ChibiOS/os/hal/include/hal_serial.h"
 1438              		.file 36 "../../modules/ChibiOS/os/hal/ports/STM32/LLD/USARTv1/hal_serial_lld.h"
 1439              		.file 37 "../../modules/ChibiOS/os/hal/include/hal_sdc.h"
 1440              		.file 38 "../../modules/ChibiOS/os/hal/ports/STM32/LLD/SDIOv1/hal_sdc_lld.h"
 1441              		.file 39 "../../modules/ChibiOS/os/hal/include/hal_spi.h"
 1442              		.file 40 "../../modules/ChibiOS/os/hal/ports/STM32/LLD/SPIv1/hal_spi_lld.h"
 1443              		.file 41 "../../modules/ChibiOS/os/hal/include/hal_usb.h"
 1444              		.file 42 "../../modules/ChibiOS/os/hal/ports/STM32/LLD/OTGv1/hal_usb_lld.h"
 1445              		.file 43 "../../modules/ChibiOS/os/hal/ports/STM32/LLD/OTGv1/stm32_otg.h"
 1446              		.file 44 "../../modules/ChibiOS/os/hal/ports/common/ARMCMx/nvic.h"