ARM GAS  C:\cygwin64\tmp\ccHziLjt.s 			page 1


   1              		.cpu cortex-m4
   2              		.eabi_attribute 27, 1
   3              		.eabi_attribute 28, 1
   4              		.eabi_attribute 20, 1
   5              		.eabi_attribute 21, 1
   6              		.eabi_attribute 23, 3
   7              		.eabi_attribute 24, 1
   8              		.eabi_attribute 25, 1
   9              		.eabi_attribute 26, 1
  10              		.eabi_attribute 30, 4
  11              		.eabi_attribute 34, 1
  12              		.eabi_attribute 18, 4
  13              		.file	"hal_i2c_lld.c"
  14              		.text
  15              	.Ltext0:
  16              		.cfi_sections	.debug_frame
  17              		.section	.text.i2c_lld_serve_event_interrupt,"ax",%progbits
  18              		.align	1
  19              		.syntax unified
  20              		.thumb
  21              		.thumb_func
  22              		.fpu fpv4-sp-d16
  23              		.type	i2c_lld_serve_event_interrupt, %function
  24              	i2c_lld_serve_event_interrupt:
  25              	.LFB281:
  26              		.file 1 "../../modules/ChibiOS/os/hal/ports/STM32/LLD/I2Cv1/hal_i2c_lld.c"
  27              		.loc 1 299 0
  28              		.cfi_startproc
  29              		@ args = 0, pretend = 0, frame = 0
  30              		@ frame_needed = 0, uses_anonymous_args = 0
  31              	.LVL0:
  32 0000 F8B5     		push	{r3, r4, r5, r6, r7, lr}
  33              		.cfi_def_cfa_offset 24
  34              		.cfi_offset 3, -24
  35              		.cfi_offset 4, -20
  36              		.cfi_offset 5, -16
  37              		.cfi_offset 6, -12
  38              		.cfi_offset 7, -8
  39              		.cfi_offset 14, -4
  40              		.loc 1 300 0
  41 0002 446B     		ldr	r4, [r0, #52]
  42              	.LVL1:
  43              		.loc 1 308 0
  44 0004 3D4A     		ldr	r2, .L31
  45              		.loc 1 301 0
  46 0006 A369     		ldr	r3, [r4, #24]
  47              	.LVL2:
  48              		.loc 1 302 0
  49 0008 6669     		ldr	r6, [r4, #20]
  50              	.LVL3:
  51              		.loc 1 308 0
  52 000a 46EA0343 		orr	r3, r6, r3, lsl #16
  53              	.LVL4:
  54 000e 23F07F43 		bic	r3, r3, #-16777216
  55 0012 9342     		cmp	r3, r2
  56              		.loc 1 299 0
  57 0014 0546     		mov	r5, r0
ARM GAS  C:\cygwin64\tmp\ccHziLjt.s 			page 2


  58              		.loc 1 308 0
  59 0016 35D0     		beq	.L3
  60 0018 10D8     		bhi	.L4
  61 001a 073A     		subs	r2, r2, #7
  62 001c 9342     		cmp	r3, r2
  63 001e 21D0     		beq	.L5
  64 0020 0132     		adds	r2, r2, #1
  65 0022 9342     		cmp	r3, r2
  66 0024 32D0     		beq	.L6
  67              	.L2:
  68              		.loc 1 345 0
  69 0026 3106     		lsls	r1, r6, #24
  70              		.loc 1 346 0
  71 0028 44BF     		itt	mi
  72 002a 0023     		movmi	r3, #0
  73 002c 2361     		strmi	r3, [r4, #16]
  74              		.loc 1 347 0
  75 002e 7207     		lsls	r2, r6, #29
  76              		.loc 1 348 0
  77 0030 48BF     		it	mi
  78 0032 2369     		ldrmi	r3, [r4, #16]
  79              		.loc 1 349 0
  80 0034 F306     		lsls	r3, r6, #27
  81 0036 20D5     		bpl	.L10
  82              		.loc 1 350 0
  83 0038 2368     		ldr	r3, [r4]
  84 003a 3BE0     		b	.L30
  85              	.L4:
  86              		.loc 1 308 0
  87 003c 304A     		ldr	r2, .L31+4
  88 003e 9342     		cmp	r3, r2
  89 0040 3AD0     		beq	.L7
  90 0042 0232     		adds	r2, r2, #2
  91 0044 9342     		cmp	r3, r2
  92 0046 EED1     		bne	.L2
  93              		.loc 1 334 0
  94 0048 C36A     		ldr	r3, [r0, #44]
  95 004a 1B68     		ldr	r3, [r3]
  96 004c 5F68     		ldr	r7, [r3, #4]
  97 004e 002F     		cmp	r7, #0
  98 0050 3DD0     		beq	.L12
  99              		.loc 1 336 0
 100 0052 038C     		ldrh	r3, [r0, #32]
 101 0054 43F00103 		orr	r3, r3, #1
 102 0058 0384     		strh	r3, [r0, #32]	@ movhi
 103              		.loc 1 337 0
 104 005a 2368     		ldr	r3, [r4]
 105 005c 43F4A063 		orr	r3, r3, #1280
 106 0060 2360     		str	r3, [r4]
 107              		.loc 1 338 0
 108 0062 F8BD     		pop	{r3, r4, r5, r6, r7, pc}
 109              	.LVL5:
 110              	.L5:
 111              		.loc 1 310 0
 112 0064 038C     		ldrh	r3, [r0, #32]
 113 0066 1A0A     		lsrs	r2, r3, #8
 114 0068 06D0     		beq	.L29
ARM GAS  C:\cygwin64\tmp\ccHziLjt.s 			page 3


 115              		.loc 1 312 0
 116 006a 03F00103 		and	r3, r3, #1
 117 006e 43F0F003 		orr	r3, r3, #240
 118 0072 02F00602 		and	r2, r2, #6
 119 0076 1343     		orrs	r3, r3, r2
 120              	.L29:
 121              		.loc 1 319 0
 122 0078 2361     		str	r3, [r4, #16]
 123              	.LVL6:
 124              	.L10:
 125              		.loc 1 354 0
 126 007a 16F00A0F 		tst	r6, #10
 127              		.loc 1 355 0
 128 007e 18BF     		it	ne
 129 0080 A369     		ldrne	r3, [r4, #24]
 130 0082 F8BD     		pop	{r3, r4, r5, r6, r7, pc}
 131              	.LVL7:
 132              	.L3:
 133              		.loc 1 319 0
 134 0084 038C     		ldrh	r3, [r0, #32]
 135 0086 C3F34703 		ubfx	r3, r3, #1, #8
 136 008a F5E7     		b	.L29
 137              	.L6:
 138              		.loc 1 322 0
 139 008c 6368     		ldr	r3, [r4, #4]
 140 008e 23F40073 		bic	r3, r3, #512
 141 0092 6360     		str	r3, [r4, #4]
 142              		.loc 1 323 0
 143 0094 C36A     		ldr	r3, [r0, #44]
 144 0096 1B68     		ldr	r3, [r3]
 145 0098 1A68     		ldr	r2, [r3]
 146 009a 42F00102 		orr	r2, r2, #1
 147 009e 1A60     		str	r2, [r3]
 148              		.loc 1 324 0
 149 00a0 6268     		ldr	r2, [r4, #4]
 150 00a2 42F48052 		orr	r2, r2, #4096
 151 00a6 6260     		str	r2, [r4, #4]
 152              		.loc 1 325 0
 153 00a8 5B68     		ldr	r3, [r3, #4]
 154 00aa 012B     		cmp	r3, #1
 155 00ac E5D8     		bhi	.L10
 156              		.loc 1 326 0
 157 00ae 2368     		ldr	r3, [r4]
 158 00b0 23F48063 		bic	r3, r3, #1024
 159              	.L30:
 160              		.loc 1 350 0
 161 00b4 2360     		str	r3, [r4]
 162 00b6 E0E7     		b	.L10
 163              	.L7:
 164              		.loc 1 329 0
 165 00b8 6368     		ldr	r3, [r4, #4]
 166 00ba 23F40073 		bic	r3, r3, #512
 167 00be 6360     		str	r3, [r4, #4]
 168              		.loc 1 330 0
 169 00c0 036B     		ldr	r3, [r0, #48]
 170 00c2 1A68     		ldr	r2, [r3]
 171 00c4 1368     		ldr	r3, [r2]
ARM GAS  C:\cygwin64\tmp\ccHziLjt.s 			page 4


 172 00c6 43F00103 		orr	r3, r3, #1
 173 00ca 1360     		str	r3, [r2]
 174              		.loc 1 331 0
 175 00cc D5E7     		b	.L10
 176              	.L12:
 177              		.loc 1 340 0
 178 00ce 6368     		ldr	r3, [r4, #4]
 179 00d0 23F40073 		bic	r3, r3, #512
 180 00d4 6360     		str	r3, [r4, #4]
 181              		.loc 1 341 0
 182 00d6 2368     		ldr	r3, [r4]
 183 00d8 43F40073 		orr	r3, r3, #512
 184 00dc 2360     		str	r3, [r4]
 185              	.LVL8:
 186              	.LBB88:
 187              	.LBB89:
 188              	.LBB90:
 189              	.LBB91:
 190              	.LBB92:
 191              	.LBB93:
 192              	.LBB94:
 193              		.file 2 "../../modules/ChibiOS/os/common/ext/CMSIS/include/cmsis_gcc.h"
 194              		.loc 2 264 0
 195 00de 2023     		movs	r3, #32
 196              		.syntax unified
 197              	@ 264 "../../modules/ChibiOS/os/common/ext/CMSIS/include/cmsis_gcc.h" 1
 198 00e0 83F31188 		MSR basepri, r3
 199              	@ 0 "" 2
 200              	.LVL9:
 201              		.thumb
 202              		.syntax unified
 203              	.LBE94:
 204              	.LBE93:
 205              	.LBE92:
 206              	.LBE91:
 207              		.file 3 "../../modules/ChibiOS/os/rt/include/chsys.h"
 208              		.loc 3 417 0
 209 00e4 FFF7FEFF 		bl	_stats_start_measure_crit_isr
 210              	.LVL10:
 211              	.LBE90:
 212              	.LBE89:
 213              	.LBE88:
 214              	.LBB95:
 215              	.LBB96:
 216              		.file 4 "../../modules/ChibiOS/os/hal/osal/rt/osal.h"
 217              		.loc 4 728 0
 218 00e8 3946     		mov	r1, r7
 219 00ea 05F11C00 		add	r0, r5, #28
 220              	.LVL11:
 221 00ee FFF7FEFF 		bl	chThdResumeI
 222              	.LVL12:
 223              	.LBE96:
 224              	.LBE95:
 225              	.LBB97:
 226              	.LBB98:
 227              	.LBB99:
 228              		.loc 3 437 0
ARM GAS  C:\cygwin64\tmp\ccHziLjt.s 			page 5


 229 00f2 FFF7FEFF 		bl	_stats_stop_measure_crit_isr
 230              	.LVL13:
 231              	.LBB100:
 232              	.LBB101:
 233              	.LBB102:
 234              	.LBB103:
 235              		.loc 2 264 0
 236              		.syntax unified
 237              	@ 264 "../../modules/ChibiOS/os/common/ext/CMSIS/include/cmsis_gcc.h" 1
 238 00f6 87F31188 		MSR basepri, r7
 239              	@ 0 "" 2
 240              	.LVL14:
 241              		.thumb
 242              		.syntax unified
 243 00fa BEE7     		b	.L10
 244              	.L32:
 245              		.align	2
 246              	.L31:
 247 00fc 08000300 		.word	196616
 248 0100 82000700 		.word	458882
 249              	.LBE103:
 250              	.LBE102:
 251              	.LBE101:
 252              	.LBE100:
 253              	.LBE99:
 254              	.LBE98:
 255              	.LBE97:
 256              		.cfi_endproc
 257              	.LFE281:
 258              		.size	i2c_lld_serve_event_interrupt, .-i2c_lld_serve_event_interrupt
 259              		.section	.text.i2c_lld_serve_tx_end_irq,"ax",%progbits
 260              		.align	1
 261              		.syntax unified
 262              		.thumb
 263              		.thumb_func
 264              		.fpu fpv4-sp-d16
 265              		.type	i2c_lld_serve_tx_end_irq, %function
 266              	i2c_lld_serve_tx_end_irq:
 267              	.LFB283:
 268              		.loc 1 519 0
 269              		.cfi_startproc
 270              		@ args = 0, pretend = 0, frame = 0
 271              		@ frame_needed = 0, uses_anonymous_args = 0
 272              	.LVL15:
 273              		.loc 1 524 0
 274 0000 11F00C0F 		tst	r1, #12
 275              		.loc 1 519 0
 276 0004 38B5     		push	{r3, r4, r5, lr}
 277              		.cfi_def_cfa_offset 16
 278              		.cfi_offset 3, -16
 279              		.cfi_offset 4, -12
 280              		.cfi_offset 5, -8
 281              		.cfi_offset 14, -4
 282              		.loc 1 519 0
 283 0006 0546     		mov	r5, r0
 284              		.loc 1 520 0
 285 0008 446B     		ldr	r4, [r0, #52]
ARM GAS  C:\cygwin64\tmp\ccHziLjt.s 			page 6


 286              	.LVL16:
 287              		.loc 1 524 0
 288 000a 02D0     		beq	.L34
 289              	.LVL17:
 290              	.LBB104:
 291              	.LBB105:
 292              		.loc 4 462 0
 293 000c 0A48     		ldr	r0, .L40
 294              	.LVL18:
 295 000e FFF7FEFF 		bl	chSysHalt
 296              	.LVL19:
 297              	.L34:
 298              	.LBE105:
 299              	.LBE104:
 300              		.loc 1 531 0
 301 0012 2B6B     		ldr	r3, [r5, #48]
 302 0014 1A68     		ldr	r2, [r3]
 303 0016 1168     		ldr	r1, [r2]
 304 0018 21F01F01 		bic	r1, r1, #31
 305 001c 1160     		str	r1, [r2]
 306              	.L35:
 307              		.loc 1 531 0 is_stmt 0 discriminator 2
 308 001e 1168     		ldr	r1, [r2]
 309 0020 C907     		lsls	r1, r1, #31
 310 0022 FCD4     		bmi	.L35
 311              		.loc 1 531 0 discriminator 3
 312 0024 197A     		ldrb	r1, [r3, #8]	@ zero_extendqisi2
 313 0026 5A68     		ldr	r2, [r3, #4]
 314 0028 3D23     		movs	r3, #61
 315 002a 8B40     		lsls	r3, r3, r1
 316 002c 1360     		str	r3, [r2]
 317              		.loc 1 535 0 is_stmt 1 discriminator 3
 318 002e 6368     		ldr	r3, [r4, #4]
 319 0030 43F40073 		orr	r3, r3, #512
 320 0034 6360     		str	r3, [r4, #4]
 321 0036 38BD     		pop	{r3, r4, r5, pc}
 322              	.LVL20:
 323              	.L41:
 324              		.align	2
 325              	.L40:
 326 0038 00000000 		.word	.LC0
 327              		.cfi_endproc
 328              	.LFE283:
 329              		.size	i2c_lld_serve_tx_end_irq, .-i2c_lld_serve_tx_end_irq
 330              		.section	.text.i2c_lld_serve_rx_end_irq,"ax",%progbits
 331              		.align	1
 332              		.syntax unified
 333              		.thumb
 334              		.thumb_func
 335              		.fpu fpv4-sp-d16
 336              		.type	i2c_lld_serve_rx_end_irq, %function
 337              	i2c_lld_serve_rx_end_irq:
 338              	.LFB282:
 339              		.loc 1 492 0
 340              		.cfi_startproc
 341              		@ args = 0, pretend = 0, frame = 0
 342              		@ frame_needed = 0, uses_anonymous_args = 0
ARM GAS  C:\cygwin64\tmp\ccHziLjt.s 			page 7


 343              	.LVL21:
 344              		.loc 1 497 0
 345 0000 11F00C0F 		tst	r1, #12
 346              		.loc 1 492 0
 347 0004 70B5     		push	{r4, r5, r6, lr}
 348              		.cfi_def_cfa_offset 16
 349              		.cfi_offset 4, -16
 350              		.cfi_offset 5, -12
 351              		.cfi_offset 6, -8
 352              		.cfi_offset 14, -4
 353              		.loc 1 492 0
 354 0006 0646     		mov	r6, r0
 355              		.loc 1 493 0
 356 0008 446B     		ldr	r4, [r0, #52]
 357              	.LVL22:
 358              		.loc 1 497 0
 359 000a 02D0     		beq	.L43
 360              	.LVL23:
 361              	.LBB126:
 362              	.LBB127:
 363              		.loc 4 462 0
 364 000c 1648     		ldr	r0, .L49
 365              	.LVL24:
 366 000e FFF7FEFF 		bl	chSysHalt
 367              	.LVL25:
 368              	.L43:
 369              	.LBE127:
 370              	.LBE126:
 371              		.loc 1 504 0
 372 0012 F36A     		ldr	r3, [r6, #44]
 373 0014 1A68     		ldr	r2, [r3]
 374 0016 1168     		ldr	r1, [r2]
 375 0018 21F01F01 		bic	r1, r1, #31
 376 001c 1160     		str	r1, [r2]
 377              	.L44:
 378              		.loc 1 504 0 is_stmt 0 discriminator 2
 379 001e 1568     		ldr	r5, [r2]
 380 0020 15F00105 		ands	r5, r5, #1
 381 0024 FBD1     		bne	.L44
 382              		.loc 1 504 0 discriminator 3
 383 0026 197A     		ldrb	r1, [r3, #8]	@ zero_extendqisi2
 384 0028 5A68     		ldr	r2, [r3, #4]
 385 002a 3D23     		movs	r3, #61
 386 002c 8B40     		lsls	r3, r3, r1
 387 002e 1360     		str	r3, [r2]
 388              		.loc 1 506 0 is_stmt 1 discriminator 3
 389 0030 6368     		ldr	r3, [r4, #4]
 390 0032 23F48053 		bic	r3, r3, #4096
 391 0036 6360     		str	r3, [r4, #4]
 392              		.loc 1 507 0 discriminator 3
 393 0038 2368     		ldr	r3, [r4]
 394 003a 23F48063 		bic	r3, r3, #1024
 395 003e 2360     		str	r3, [r4]
 396              		.loc 1 508 0 discriminator 3
 397 0040 2368     		ldr	r3, [r4]
 398 0042 43F40073 		orr	r3, r3, #512
 399 0046 2360     		str	r3, [r4]
ARM GAS  C:\cygwin64\tmp\ccHziLjt.s 			page 8


 400              	.LVL26:
 401              	.LBB128:
 402              	.LBB129:
 403              	.LBB130:
 404              	.LBB131:
 405              	.LBB132:
 406              	.LBB133:
 407              	.LBB134:
 408              		.loc 2 264 0 discriminator 3
 409 0048 2023     		movs	r3, #32
 410              		.syntax unified
 411              	@ 264 "../../modules/ChibiOS/os/common/ext/CMSIS/include/cmsis_gcc.h" 1
 412 004a 83F31188 		MSR basepri, r3
 413              	@ 0 "" 2
 414              	.LVL27:
 415              		.thumb
 416              		.syntax unified
 417              	.LBE134:
 418              	.LBE133:
 419              	.LBE132:
 420              	.LBE131:
 421              		.loc 3 417 0 discriminator 3
 422 004e FFF7FEFF 		bl	_stats_start_measure_crit_isr
 423              	.LVL28:
 424              	.LBE130:
 425              	.LBE129:
 426              	.LBE128:
 427              	.LBB135:
 428              	.LBB136:
 429              		.loc 4 728 0 discriminator 3
 430 0052 2946     		mov	r1, r5
 431 0054 06F11C00 		add	r0, r6, #28
 432              	.LVL29:
 433 0058 FFF7FEFF 		bl	chThdResumeI
 434              	.LVL30:
 435              	.LBE136:
 436              	.LBE135:
 437              	.LBB137:
 438              	.LBB138:
 439              	.LBB139:
 440              		.loc 3 437 0 discriminator 3
 441 005c FFF7FEFF 		bl	_stats_stop_measure_crit_isr
 442              	.LVL31:
 443              	.LBB140:
 444              	.LBB141:
 445              	.LBB142:
 446              	.LBB143:
 447              		.loc 2 264 0 discriminator 3
 448              		.syntax unified
 449              	@ 264 "../../modules/ChibiOS/os/common/ext/CMSIS/include/cmsis_gcc.h" 1
 450 0060 85F31188 		MSR basepri, r5
 451              	@ 0 "" 2
 452              	.LVL32:
 453              		.thumb
 454              		.syntax unified
 455 0064 70BD     		pop	{r4, r5, r6, pc}
 456              	.LVL33:
ARM GAS  C:\cygwin64\tmp\ccHziLjt.s 			page 9


 457              	.L50:
 458 0066 00BF     		.align	2
 459              	.L49:
 460 0068 00000000 		.word	.LC0
 461              	.LBE143:
 462              	.LBE142:
 463              	.LBE141:
 464              	.LBE140:
 465              	.LBE139:
 466              	.LBE138:
 467              	.LBE137:
 468              		.cfi_endproc
 469              	.LFE282:
 470              		.size	i2c_lld_serve_rx_end_irq, .-i2c_lld_serve_rx_end_irq
 471              		.section	.text.i2c_lld_serve_error_interrupt,"ax",%progbits
 472              		.align	1
 473              		.syntax unified
 474              		.thumb
 475              		.thumb_func
 476              		.fpu fpv4-sp-d16
 477              		.type	i2c_lld_serve_error_interrupt, %function
 478              	i2c_lld_serve_error_interrupt:
 479              	.LFB284:
 480              		.loc 1 547 0
 481              		.cfi_startproc
 482              		@ args = 0, pretend = 0, frame = 0
 483              		@ frame_needed = 0, uses_anonymous_args = 0
 484              	.LVL34:
 485              		.loc 1 551 0
 486 0000 036B     		ldr	r3, [r0, #48]
 487 0002 1A68     		ldr	r2, [r3]
 488              		.loc 1 547 0
 489 0004 10B5     		push	{r4, lr}
 490              		.cfi_def_cfa_offset 8
 491              		.cfi_offset 4, -8
 492              		.cfi_offset 14, -4
 493              		.loc 1 547 0
 494 0006 0446     		mov	r4, r0
 495              		.loc 1 551 0
 496 0008 1068     		ldr	r0, [r2]
 497              	.LVL35:
 498 000a 20F01F00 		bic	r0, r0, #31
 499 000e 1060     		str	r0, [r2]
 500              	.L52:
 501              		.loc 1 551 0 is_stmt 0 discriminator 2
 502 0010 1068     		ldr	r0, [r2]
 503 0012 C007     		lsls	r0, r0, #31
 504 0014 FCD4     		bmi	.L52
 505              		.loc 1 551 0 discriminator 3
 506 0016 187A     		ldrb	r0, [r3, #8]	@ zero_extendqisi2
 507 0018 5A68     		ldr	r2, [r3, #4]
 508 001a 3D23     		movs	r3, #61
 509 001c 8340     		lsls	r3, r3, r0
 510 001e 1360     		str	r3, [r2]
 511              		.loc 1 552 0 is_stmt 1 discriminator 3
 512 0020 E36A     		ldr	r3, [r4, #44]
 513 0022 1A68     		ldr	r2, [r3]
ARM GAS  C:\cygwin64\tmp\ccHziLjt.s 			page 10


 514 0024 1068     		ldr	r0, [r2]
 515 0026 20F01F00 		bic	r0, r0, #31
 516 002a 1060     		str	r0, [r2]
 517              	.L53:
 518              		.loc 1 552 0 is_stmt 0 discriminator 2
 519 002c 1068     		ldr	r0, [r2]
 520 002e C007     		lsls	r0, r0, #31
 521 0030 FCD4     		bmi	.L53
 522              		.loc 1 552 0 discriminator 3
 523 0032 187A     		ldrb	r0, [r3, #8]	@ zero_extendqisi2
 524 0034 5A68     		ldr	r2, [r3, #4]
 525 0036 3D23     		movs	r3, #61
 526 0038 8340     		lsls	r3, r3, r0
 527 003a 1360     		str	r3, [r2]
 528              		.loc 1 557 0 is_stmt 1 discriminator 3
 529 003c 11F48073 		ands	r3, r1, #256
 530              		.loc 1 558 0 discriminator 3
 531 0040 18BF     		it	ne
 532 0042 0123     		movne	r3, #1
 533 0044 A360     		str	r3, [r4, #8]
 534              		.loc 1 560 0 discriminator 3
 535 0046 8805     		lsls	r0, r1, #22
 536              		.loc 1 561 0 discriminator 3
 537 0048 42BF     		ittt	mi
 538 004a A368     		ldrmi	r3, [r4, #8]
 539 004c 43F00203 		orrmi	r3, r3, #2
 540 0050 A360     		strmi	r3, [r4, #8]
 541              		.loc 1 563 0 discriminator 3
 542 0052 4A05     		lsls	r2, r1, #21
 543 0054 0CD5     		bpl	.L57
 544              		.loc 1 564 0
 545 0056 636B     		ldr	r3, [r4, #52]
 546 0058 5A68     		ldr	r2, [r3, #4]
 547 005a 22F40072 		bic	r2, r2, #512
 548 005e 5A60     		str	r2, [r3, #4]
 549              		.loc 1 565 0
 550 0060 1A68     		ldr	r2, [r3]
 551 0062 42F40072 		orr	r2, r2, #512
 552 0066 1A60     		str	r2, [r3]
 553              		.loc 1 566 0
 554 0068 A368     		ldr	r3, [r4, #8]
 555 006a 43F00403 		orr	r3, r3, #4
 556 006e A360     		str	r3, [r4, #8]
 557              	.L57:
 558              		.loc 1 569 0
 559 0070 0B05     		lsls	r3, r1, #20
 560              		.loc 1 570 0
 561 0072 42BF     		ittt	mi
 562 0074 A368     		ldrmi	r3, [r4, #8]
 563 0076 43F00803 		orrmi	r3, r3, #8
 564 007a A360     		strmi	r3, [r4, #8]
 565              		.loc 1 572 0
 566 007c 4804     		lsls	r0, r1, #17
 567              		.loc 1 573 0
 568 007e 42BF     		ittt	mi
 569 0080 A368     		ldrmi	r3, [r4, #8]
 570 0082 43F02003 		orrmi	r3, r3, #32
ARM GAS  C:\cygwin64\tmp\ccHziLjt.s 			page 11


 571 0086 A360     		strmi	r3, [r4, #8]
 572              		.loc 1 575 0
 573 0088 CA04     		lsls	r2, r1, #19
 574              		.loc 1 576 0
 575 008a 42BF     		ittt	mi
 576 008c A368     		ldrmi	r3, [r4, #8]
 577 008e 43F01003 		orrmi	r3, r3, #16
 578 0092 A360     		strmi	r3, [r4, #8]
 579              		.loc 1 578 0
 580 0094 0B04     		lsls	r3, r1, #16
 581              		.loc 1 579 0
 582 0096 42BF     		ittt	mi
 583 0098 A368     		ldrmi	r3, [r4, #8]
 584 009a 43F04003 		orrmi	r3, r3, #64
 585 009e A360     		strmi	r3, [r4, #8]
 586              		.loc 1 582 0
 587 00a0 A368     		ldr	r3, [r4, #8]
 588 00a2 7BB1     		cbz	r3, .L51
 589              	.LVL36:
 590              	.LBB162:
 591              	.LBB163:
 592              	.LBB164:
 593              	.LBB165:
 594              	.LBB166:
 595              	.LBB167:
 596              	.LBB168:
 597              		.loc 2 264 0
 598 00a4 2023     		movs	r3, #32
 599              		.syntax unified
 600              	@ 264 "../../modules/ChibiOS/os/common/ext/CMSIS/include/cmsis_gcc.h" 1
 601 00a6 83F31188 		MSR basepri, r3
 602              	@ 0 "" 2
 603              	.LVL37:
 604              		.thumb
 605              		.syntax unified
 606              	.LBE168:
 607              	.LBE167:
 608              	.LBE166:
 609              	.LBE165:
 610              		.loc 3 417 0
 611 00aa FFF7FEFF 		bl	_stats_start_measure_crit_isr
 612              	.LVL38:
 613              	.LBE164:
 614              	.LBE163:
 615              	.LBE162:
 616              	.LBB169:
 617              	.LBB170:
 618              		.loc 4 728 0
 619 00ae 6FF00101 		mvn	r1, #1
 620 00b2 04F11C00 		add	r0, r4, #28
 621              	.LVL39:
 622 00b6 FFF7FEFF 		bl	chThdResumeI
 623              	.LVL40:
 624              	.LBE170:
 625              	.LBE169:
 626              	.LBB171:
 627              	.LBB172:
ARM GAS  C:\cygwin64\tmp\ccHziLjt.s 			page 12


 628              	.LBB173:
 629              		.loc 3 437 0
 630 00ba FFF7FEFF 		bl	_stats_stop_measure_crit_isr
 631              	.LVL41:
 632              	.LBB174:
 633              	.LBB175:
 634              	.LBB176:
 635              	.LBB177:
 636              		.loc 2 264 0
 637 00be 0023     		movs	r3, #0
 638              		.syntax unified
 639              	@ 264 "../../modules/ChibiOS/os/common/ext/CMSIS/include/cmsis_gcc.h" 1
 640 00c0 83F31188 		MSR basepri, r3
 641              	@ 0 "" 2
 642              	.LVL42:
 643              		.thumb
 644              		.syntax unified
 645              	.L51:
 646 00c4 10BD     		pop	{r4, pc}
 647              	.LBE177:
 648              	.LBE176:
 649              	.LBE175:
 650              	.LBE174:
 651              	.LBE173:
 652              	.LBE172:
 653              	.LBE171:
 654              		.cfi_endproc
 655              	.LFE284:
 656              		.size	i2c_lld_serve_error_interrupt, .-i2c_lld_serve_error_interrupt
 657              		.section	.text.VectorBC,"ax",%progbits
 658              		.align	1
 659              		.global	VectorBC
 660              		.syntax unified
 661              		.thumb
 662              		.thumb_func
 663              		.fpu fpv4-sp-d16
 664              		.type	VectorBC, %function
 665              	VectorBC:
 666              	.LFB285:
 667              		.loc 1 596 0
 668              		.cfi_startproc
 669              		@ args = 0, pretend = 0, frame = 0
 670              		@ frame_needed = 0, uses_anonymous_args = 0
 671 0000 08B5     		push	{r3, lr}
 672              		.cfi_def_cfa_offset 8
 673              		.cfi_offset 3, -8
 674              		.cfi_offset 14, -4
 675              		.loc 1 598 0
 676 0002 FFF7FEFF 		bl	_stats_increase_irq
 677              	.LVL43:
 678              		.loc 1 600 0
 679 0006 0348     		ldr	r0, .L85
 680 0008 FFF7FEFF 		bl	i2c_lld_serve_event_interrupt
 681              	.LVL44:
 682              		.loc 1 603 0
 683 000c BDE80840 		pop	{r3, lr}
 684              		.cfi_restore 14
ARM GAS  C:\cygwin64\tmp\ccHziLjt.s 			page 13


 685              		.cfi_restore 3
 686              		.cfi_def_cfa_offset 0
 687              		.loc 1 602 0
 688 0010 FFF7FEBF 		b	_port_irq_epilogue
 689              	.LVL45:
 690              	.L86:
 691              		.align	2
 692              	.L85:
 693 0014 00000000 		.word	.LANCHOR0
 694              		.cfi_endproc
 695              	.LFE285:
 696              		.size	VectorBC, .-VectorBC
 697              		.section	.text.VectorC0,"ax",%progbits
 698              		.align	1
 699              		.global	VectorC0
 700              		.syntax unified
 701              		.thumb
 702              		.thumb_func
 703              		.fpu fpv4-sp-d16
 704              		.type	VectorC0, %function
 705              	VectorC0:
 706              	.LFB286:
 707              		.loc 1 608 0
 708              		.cfi_startproc
 709              		@ args = 0, pretend = 0, frame = 0
 710              		@ frame_needed = 0, uses_anonymous_args = 0
 711 0000 38B5     		push	{r3, r4, r5, lr}
 712              		.cfi_def_cfa_offset 16
 713              		.cfi_offset 3, -16
 714              		.cfi_offset 4, -12
 715              		.cfi_offset 5, -8
 716              		.cfi_offset 14, -4
 717              		.loc 1 609 0
 718 0002 094C     		ldr	r4, .L88
 719 0004 636B     		ldr	r3, [r4, #52]
 720 0006 5D69     		ldr	r5, [r3, #20]
 721              	.LVL46:
 722              		.loc 1 611 0
 723 0008 FFF7FEFF 		bl	_stats_increase_irq
 724              	.LVL47:
 725              		.loc 1 613 0
 726 000c 626B     		ldr	r2, [r4, #52]
 727 000e 05F45F43 		and	r3, r5, #57088
 728 0012 DB43     		mvns	r3, r3
 729 0014 5361     		str	r3, [r2, #20]
 730              		.loc 1 614 0
 731 0016 A9B2     		uxth	r1, r5
 732 0018 2046     		mov	r0, r4
 733 001a FFF7FEFF 		bl	i2c_lld_serve_error_interrupt
 734              	.LVL48:
 735              		.loc 1 617 0
 736 001e BDE83840 		pop	{r3, r4, r5, lr}
 737              		.cfi_restore 14
 738              		.cfi_restore 5
 739              		.cfi_restore 4
 740              		.cfi_restore 3
 741              		.cfi_def_cfa_offset 0
ARM GAS  C:\cygwin64\tmp\ccHziLjt.s 			page 14


 742              	.LVL49:
 743              		.loc 1 616 0
 744 0022 FFF7FEBF 		b	_port_irq_epilogue
 745              	.LVL50:
 746              	.L89:
 747 0026 00BF     		.align	2
 748              	.L88:
 749 0028 00000000 		.word	.LANCHOR0
 750              		.cfi_endproc
 751              	.LFE286:
 752              		.size	VectorC0, .-VectorC0
 753              		.section	.text.VectorC4,"ax",%progbits
 754              		.align	1
 755              		.global	VectorC4
 756              		.syntax unified
 757              		.thumb
 758              		.thumb_func
 759              		.fpu fpv4-sp-d16
 760              		.type	VectorC4, %function
 761              	VectorC4:
 762              	.LFB287:
 763              		.loc 1 626 0
 764              		.cfi_startproc
 765              		@ args = 0, pretend = 0, frame = 0
 766              		@ frame_needed = 0, uses_anonymous_args = 0
 767 0000 08B5     		push	{r3, lr}
 768              		.cfi_def_cfa_offset 8
 769              		.cfi_offset 3, -8
 770              		.cfi_offset 14, -4
 771              		.loc 1 628 0
 772 0002 FFF7FEFF 		bl	_stats_increase_irq
 773              	.LVL51:
 774              		.loc 1 630 0
 775 0006 0348     		ldr	r0, .L91
 776 0008 FFF7FEFF 		bl	i2c_lld_serve_event_interrupt
 777              	.LVL52:
 778              		.loc 1 633 0
 779 000c BDE80840 		pop	{r3, lr}
 780              		.cfi_restore 14
 781              		.cfi_restore 3
 782              		.cfi_def_cfa_offset 0
 783              		.loc 1 632 0
 784 0010 FFF7FEBF 		b	_port_irq_epilogue
 785              	.LVL53:
 786              	.L92:
 787              		.align	2
 788              	.L91:
 789 0014 00000000 		.word	.LANCHOR1
 790              		.cfi_endproc
 791              	.LFE287:
 792              		.size	VectorC4, .-VectorC4
 793              		.section	.text.VectorC8,"ax",%progbits
 794              		.align	1
 795              		.global	VectorC8
 796              		.syntax unified
 797              		.thumb
 798              		.thumb_func
ARM GAS  C:\cygwin64\tmp\ccHziLjt.s 			page 15


 799              		.fpu fpv4-sp-d16
 800              		.type	VectorC8, %function
 801              	VectorC8:
 802              	.LFB288:
 803              		.loc 1 640 0
 804              		.cfi_startproc
 805              		@ args = 0, pretend = 0, frame = 0
 806              		@ frame_needed = 0, uses_anonymous_args = 0
 807 0000 38B5     		push	{r3, r4, r5, lr}
 808              		.cfi_def_cfa_offset 16
 809              		.cfi_offset 3, -16
 810              		.cfi_offset 4, -12
 811              		.cfi_offset 5, -8
 812              		.cfi_offset 14, -4
 813              		.loc 1 641 0
 814 0002 094C     		ldr	r4, .L94
 815 0004 636B     		ldr	r3, [r4, #52]
 816 0006 5D69     		ldr	r5, [r3, #20]
 817              	.LVL54:
 818              		.loc 1 643 0
 819 0008 FFF7FEFF 		bl	_stats_increase_irq
 820              	.LVL55:
 821              		.loc 1 645 0
 822 000c 626B     		ldr	r2, [r4, #52]
 823 000e 05F45F43 		and	r3, r5, #57088
 824 0012 DB43     		mvns	r3, r3
 825 0014 5361     		str	r3, [r2, #20]
 826              		.loc 1 646 0
 827 0016 A9B2     		uxth	r1, r5
 828 0018 2046     		mov	r0, r4
 829 001a FFF7FEFF 		bl	i2c_lld_serve_error_interrupt
 830              	.LVL56:
 831              		.loc 1 649 0
 832 001e BDE83840 		pop	{r3, r4, r5, lr}
 833              		.cfi_restore 14
 834              		.cfi_restore 5
 835              		.cfi_restore 4
 836              		.cfi_restore 3
 837              		.cfi_def_cfa_offset 0
 838              	.LVL57:
 839              		.loc 1 648 0
 840 0022 FFF7FEBF 		b	_port_irq_epilogue
 841              	.LVL58:
 842              	.L95:
 843 0026 00BF     		.align	2
 844              	.L94:
 845 0028 00000000 		.word	.LANCHOR1
 846              		.cfi_endproc
 847              	.LFE288:
 848              		.size	VectorC8, .-VectorC8
 849              		.section	.text.i2c_lld_init,"ax",%progbits
 850              		.align	1
 851              		.global	i2c_lld_init
 852              		.syntax unified
 853              		.thumb
 854              		.thumb_func
 855              		.fpu fpv4-sp-d16
ARM GAS  C:\cygwin64\tmp\ccHziLjt.s 			page 16


 856              		.type	i2c_lld_init, %function
 857              	i2c_lld_init:
 858              	.LFB289:
 859              		.loc 1 693 0
 860              		.cfi_startproc
 861              		@ args = 0, pretend = 0, frame = 0
 862              		@ frame_needed = 0, uses_anonymous_args = 0
 863 0000 70B5     		push	{r4, r5, r6, lr}
 864              		.cfi_def_cfa_offset 16
 865              		.cfi_offset 4, -16
 866              		.cfi_offset 5, -12
 867              		.cfi_offset 6, -8
 868              		.cfi_offset 14, -4
 869              		.loc 1 696 0
 870 0002 0D4D     		ldr	r5, .L97
 871              		.loc 1 700 0
 872 0004 0D4C     		ldr	r4, .L97+4
 873              		.loc 1 696 0
 874 0006 2846     		mov	r0, r5
 875 0008 FFF7FEFF 		bl	i2cObjectInit
 876              	.LVL59:
 877              		.loc 1 698 0
 878 000c 0C4B     		ldr	r3, .L97+8
 879 000e 6B63     		str	r3, [r5, #52]
 880              		.loc 1 697 0
 881 0010 0026     		movs	r6, #0
 882              		.loc 1 701 0
 883 0012 04F14803 		add	r3, r4, #72
 884              		.loc 1 700 0
 885 0016 EC62     		str	r4, [r5, #44]
 886              		.loc 1 701 0
 887 0018 2B63     		str	r3, [r5, #48]
 888              		.loc 1 697 0
 889 001a EE61     		str	r6, [r5, #28]
 890              		.loc 1 706 0
 891 001c 094D     		ldr	r5, .L97+12
 892 001e 2846     		mov	r0, r5
 893 0020 FFF7FEFF 		bl	i2cObjectInit
 894              	.LVL60:
 895              		.loc 1 708 0
 896 0024 084B     		ldr	r3, .L97+16
 897 0026 6B63     		str	r3, [r5, #52]
 898              		.loc 1 710 0
 899 0028 04F12403 		add	r3, r4, #36
 900              		.loc 1 711 0
 901 002c 5434     		adds	r4, r4, #84
 902              		.loc 1 707 0
 903 002e EE61     		str	r6, [r5, #28]
 904              		.loc 1 710 0
 905 0030 EB62     		str	r3, [r5, #44]
 906              		.loc 1 711 0
 907 0032 2C63     		str	r4, [r5, #48]
 908 0034 70BD     		pop	{r4, r5, r6, pc}
 909              	.L98:
 910 0036 00BF     		.align	2
 911              	.L97:
 912 0038 00000000 		.word	.LANCHOR0
ARM GAS  C:\cygwin64\tmp\ccHziLjt.s 			page 17


 913 003c 00000000 		.word	_stm32_dma_streams
 914 0040 00540040 		.word	1073763328
 915 0044 00000000 		.word	.LANCHOR1
 916 0048 00580040 		.word	1073764352
 917              		.cfi_endproc
 918              	.LFE289:
 919              		.size	i2c_lld_init, .-i2c_lld_init
 920              		.section	.text.i2c_lld_start,"ax",%progbits
 921              		.align	1
 922              		.global	i2c_lld_start
 923              		.syntax unified
 924              		.thumb
 925              		.thumb_func
 926              		.fpu fpv4-sp-d16
 927              		.type	i2c_lld_start, %function
 928              	i2c_lld_start:
 929              	.LFB290:
 930              		.loc 1 733 0
 931              		.cfi_startproc
 932              		@ args = 0, pretend = 0, frame = 0
 933              		@ frame_needed = 0, uses_anonymous_args = 0
 934              	.LVL61:
 935              		.loc 1 737 0
 936 0000 0378     		ldrb	r3, [r0]	@ zero_extendqisi2
 937 0002 012B     		cmp	r3, #1
 938              		.loc 1 733 0
 939 0004 70B5     		push	{r4, r5, r6, lr}
 940              		.cfi_def_cfa_offset 16
 941              		.cfi_offset 4, -16
 942              		.cfi_offset 5, -12
 943              		.cfi_offset 6, -8
 944              		.cfi_offset 14, -4
 945              		.loc 1 733 0
 946 0006 0446     		mov	r4, r0
 947              		.loc 1 734 0
 948 0008 456B     		ldr	r5, [r0, #52]
 949              	.LVL62:
 950              		.loc 1 737 0
 951 000a 2ED1     		bne	.L101
 952              		.loc 1 740 0
 953 000c 40F25643 		movw	r3, #1110
 954 0010 8362     		str	r3, [r0, #40]
 955              		.loc 1 744 0
 956 0012 40F21643 		movw	r3, #1046
 957 0016 4362     		str	r3, [r0, #36]
 958              		.loc 1 751 0
 959 0018 594B     		ldr	r3, .L116
 960 001a 9842     		cmp	r0, r3
 961 001c 63D1     		bne	.L102
 962              	.LBB186:
 963              		.loc 1 755 0
 964 001e 594E     		ldr	r6, .L116+4
 965              		.loc 1 756 0
 966 0020 594A     		ldr	r2, .L116+8
 967              		.loc 1 755 0
 968 0022 336A     		ldr	r3, [r6, #32]
 969 0024 43F40013 		orr	r3, r3, #2097152
ARM GAS  C:\cygwin64\tmp\ccHziLjt.s 			page 18


 970 0028 3362     		str	r3, [r6, #32]
 971 002a 0023     		movs	r3, #0
 972 002c 3362     		str	r3, [r6, #32]
 973              		.loc 1 756 0
 974 002e 0521     		movs	r1, #5
 975 0030 0346     		mov	r3, r0
 976 0032 C06A     		ldr	r0, [r0, #44]
 977              	.LVL63:
 978 0034 FFF7FEFF 		bl	dmaStreamAllocate
 979              	.LVL64:
 980              		.loc 1 761 0
 981 0038 544A     		ldr	r2, .L116+12
 982 003a 206B     		ldr	r0, [r4, #48]
 983 003c 2346     		mov	r3, r4
 984 003e 0521     		movs	r1, #5
 985 0040 FFF7FEFF 		bl	dmaStreamAllocate
 986              	.LVL65:
 987              		.loc 1 767 0
 988 0044 336C     		ldr	r3, [r6, #64]
 989 0046 43F40013 		orr	r3, r3, #2097152
 990 004a 3364     		str	r3, [r6, #64]
 991              		.loc 1 768 0
 992 004c 0521     		movs	r1, #5
 993 004e 1F20     		movs	r0, #31
 994 0050 FFF7FEFF 		bl	nvicEnableVector
 995              	.LVL66:
 996              		.loc 1 769 0
 997 0054 0521     		movs	r1, #5
 998 0056 2020     		movs	r0, #32
 999 0058 FFF7FEFF 		bl	nvicEnableVector
 1000              	.LVL67:
 1001              		.loc 1 772 0
 1002 005c 626A     		ldr	r2, [r4, #36]
 1003 005e 4C49     		ldr	r1, .L116+16
 1004              	.L114:
 1005              	.LBE186:
 1006              	.LBB187:
 1007              		.loc 1 804 0
 1008 0060 A36A     		ldr	r3, [r4, #40]
 1009              		.loc 1 802 0
 1010 0062 0A43     		orrs	r2, r2, r1
 1011              		.loc 1 804 0
 1012 0064 0B43     		orrs	r3, r3, r1
 1013              		.loc 1 802 0
 1014 0066 6262     		str	r2, [r4, #36]
 1015              		.loc 1 804 0
 1016 0068 A362     		str	r3, [r4, #40]
 1017              	.L101:
 1018              	.LBE187:
 1019              		.loc 1 843 0
 1020 006a E36A     		ldr	r3, [r4, #44]
 1021              	.LBB188:
 1022              	.LBB189:
 1023              		.loc 1 162 0
 1024 006c 616B     		ldr	r1, [r4, #52]
 1025              	.LBE189:
 1026              	.LBE188:
ARM GAS  C:\cygwin64\tmp\ccHziLjt.s 			page 19


 1027              		.loc 1 843 0
 1028 006e 1A68     		ldr	r2, [r3]
 1029              	.LBB194:
 1030              	.LBB190:
 1031              		.loc 1 164 0
 1032 0070 6068     		ldr	r0, [r4, #4]
 1033              	.LBE190:
 1034              	.LBE194:
 1035              		.loc 1 843 0
 1036 0072 05F11003 		add	r3, r5, #16
 1037 0076 9360     		str	r3, [r2, #8]
 1038              		.loc 1 844 0
 1039 0078 226B     		ldr	r2, [r4, #48]
 1040              	.LBB195:
 1041              	.LBB191:
 1042              		.loc 1 165 0
 1043 007a 067A     		ldrb	r6, [r0, #8]	@ zero_extendqisi2
 1044              	.LBE191:
 1045              	.LBE195:
 1046              		.loc 1 844 0
 1047 007c 1268     		ldr	r2, [r2]
 1048 007e 9360     		str	r3, [r2, #8]
 1049              		.loc 1 848 0
 1050 0080 4FF40043 		mov	r3, #32768
 1051 0084 2B60     		str	r3, [r5]
 1052              		.loc 1 851 0
 1053 0086 4FF41062 		mov	r2, #2304
 1054              		.loc 1 849 0
 1055 008a 0023     		movs	r3, #0
 1056 008c 2B60     		str	r3, [r5]
 1057              		.loc 1 851 0
 1058 008e 6A60     		str	r2, [r5, #4]
 1059              	.LVL68:
 1060              	.LBB196:
 1061              	.LBB192:
 1062              		.loc 1 172 0
 1063 0090 4C68     		ldr	r4, [r1, #4]
 1064              	.LVL69:
 1065              		.loc 1 164 0
 1066 0092 4268     		ldr	r2, [r0, #4]
 1067              	.LVL70:
 1068              		.loc 1 172 0
 1069 0094 24F03F04 		bic	r4, r4, #63
 1070 0098 2404     		lsls	r4, r4, #16
 1071 009a 240C     		lsrs	r4, r4, #16
 1072 009c 4C60     		str	r4, [r1, #4]
 1073              		.loc 1 173 0
 1074 009e 4C68     		ldr	r4, [r1, #4]
 1075 00a0 44F02A04 		orr	r4, r4, #42
 1076 00a4 4C60     		str	r4, [r1, #4]
 1077              	.LVL71:
 1078              		.loc 1 179 0
 1079 00a6 3B4C     		ldr	r4, .L116+20
 1080 00a8 A242     		cmp	r2, r4
 1081 00aa 41DC     		bgt	.L104
 1082              	.LVL72:
 1083              		.loc 1 186 0
ARM GAS  C:\cygwin64\tmp\ccHziLjt.s 			page 20


 1084 00ac 5200     		lsls	r2, r2, #1
 1085              	.LVL73:
 1086 00ae 3A4B     		ldr	r3, .L116+24
 1087 00b0 B3FBF2F3 		udiv	r3, r3, r2
 1088              		.loc 1 193 0
 1089 00b4 2B22     		movs	r2, #43
 1090              		.loc 1 190 0
 1091 00b6 C3F30B03 		ubfx	r3, r3, #0, #12
 1092              	.LVL74:
 1093              	.L115:
 1094              		.loc 1 220 0
 1095 00ba 0A62     		str	r2, [r1, #32]
 1096              	.LVL75:
 1097              	.L105:
 1098              		.loc 1 225 0
 1099 00bc CB61     		str	r3, [r1, #28]
 1100              	.LVL76:
 1101              	.LBE192:
 1102              	.LBE196:
 1103              	.LBB197:
 1104              	.LBB198:
 1105              		.loc 1 261 0
 1106 00be 1F23     		movs	r3, #31
 1107 00c0 4B62     		str	r3, [r1, #36]
 1108              	.LVL77:
 1109              	.LBE198:
 1110              	.LBE197:
 1111              	.LBB199:
 1112              	.LBB200:
 1113              		.loc 1 277 0
 1114 00c2 0278     		ldrb	r2, [r0]	@ zero_extendqisi2
 1115              		.loc 1 276 0
 1116 00c4 0B68     		ldr	r3, [r1]
 1117              		.loc 1 277 0
 1118 00c6 022A     		cmp	r2, #2
 1119              		.loc 1 276 0
 1120 00c8 9BB2     		uxth	r3, r3
 1121              	.LVL78:
 1122              		.loc 1 277 0
 1123 00ca 4FD0     		beq	.L109
 1124 00cc 032A     		cmp	r2, #3
 1125 00ce 53D0     		beq	.L110
 1126 00d0 012A     		cmp	r2, #1
 1127 00d2 02D1     		bne	.L108
 1128              		.loc 1 279 0
 1129 00d4 23F00A03 		bic	r3, r3, #10
 1130              	.LVL79:
 1131 00d8 9BB2     		uxth	r3, r3
 1132              	.LVL80:
 1133              	.L108:
 1134              		.loc 1 289 0
 1135 00da 0B60     		str	r3, [r1]
 1136              	.LVL81:
 1137              	.LBE200:
 1138              	.LBE199:
 1139              		.loc 1 862 0
 1140 00dc 2B68     		ldr	r3, [r5]
ARM GAS  C:\cygwin64\tmp\ccHziLjt.s 			page 21


 1141 00de 43F00103 		orr	r3, r3, #1
 1142 00e2 2B60     		str	r3, [r5]
 1143 00e4 70BD     		pop	{r4, r5, r6, pc}
 1144              	.LVL82:
 1145              	.L102:
 1146              		.loc 1 781 0
 1147 00e6 2D4B     		ldr	r3, .L116+28
 1148 00e8 9842     		cmp	r0, r3
 1149 00ea BED1     		bne	.L101
 1150              	.LBB202:
 1151              		.loc 1 785 0
 1152 00ec 254E     		ldr	r6, .L116+4
 1153              		.loc 1 786 0
 1154 00ee 264A     		ldr	r2, .L116+8
 1155              		.loc 1 785 0
 1156 00f0 336A     		ldr	r3, [r6, #32]
 1157 00f2 43F48003 		orr	r3, r3, #4194304
 1158 00f6 3362     		str	r3, [r6, #32]
 1159 00f8 0023     		movs	r3, #0
 1160 00fa 3362     		str	r3, [r6, #32]
 1161              		.loc 1 786 0
 1162 00fc 0521     		movs	r1, #5
 1163 00fe 0346     		mov	r3, r0
 1164 0100 C06A     		ldr	r0, [r0, #44]
 1165              	.LVL83:
 1166 0102 FFF7FEFF 		bl	dmaStreamAllocate
 1167              	.LVL84:
 1168              		.loc 1 791 0
 1169 0106 214A     		ldr	r2, .L116+12
 1170 0108 206B     		ldr	r0, [r4, #48]
 1171 010a 2346     		mov	r3, r4
 1172 010c 0521     		movs	r1, #5
 1173 010e FFF7FEFF 		bl	dmaStreamAllocate
 1174              	.LVL85:
 1175              		.loc 1 797 0
 1176 0112 336C     		ldr	r3, [r6, #64]
 1177 0114 43F48003 		orr	r3, r3, #4194304
 1178 0118 3364     		str	r3, [r6, #64]
 1179              		.loc 1 798 0
 1180 011a 0521     		movs	r1, #5
 1181 011c 2120     		movs	r0, #33
 1182 011e FFF7FEFF 		bl	nvicEnableVector
 1183              	.LVL86:
 1184              		.loc 1 799 0
 1185 0122 0521     		movs	r1, #5
 1186 0124 2220     		movs	r0, #34
 1187 0126 FFF7FEFF 		bl	nvicEnableVector
 1188              	.LVL87:
 1189              		.loc 1 802 0
 1190 012a 626A     		ldr	r2, [r4, #36]
 1191 012c 1C49     		ldr	r1, .L116+32
 1192 012e 97E7     		b	.L114
 1193              	.LVL88:
 1194              	.L104:
 1195              	.LBE202:
 1196              	.LBB203:
 1197              	.LBB193:
ARM GAS  C:\cygwin64\tmp\ccHziLjt.s 			page 22


 1198              		.loc 1 195 0
 1199 0130 1C4C     		ldr	r4, .L116+36
 1200 0132 A242     		cmp	r2, r4
 1201 0134 C2DC     		bgt	.L105
 1202              		.loc 1 201 0
 1203 0136 022E     		cmp	r6, #2
 1204 0138 0AD1     		bne	.L106
 1205              		.loc 1 205 0
 1206 013a 02EB4204 		add	r4, r2, r2, lsl #1
 1207 013e 164A     		ldr	r2, .L116+24
 1208              	.LVL89:
 1209 0140 B2FBF4F2 		udiv	r2, r2, r4
 1210 0144 92B2     		uxth	r2, r2
 1211              	.LVL90:
 1212              	.L107:
 1213              		.loc 1 217 0
 1214 0146 1A43     		orrs	r2, r2, r3
 1215              	.LVL91:
 1216 0148 42F40043 		orr	r3, r2, #32768
 1217              	.LVL92:
 1218              		.loc 1 220 0
 1219 014c 0D22     		movs	r2, #13
 1220 014e B4E7     		b	.L115
 1221              	.LVL93:
 1222              	.L106:
 1223              		.loc 1 207 0
 1224 0150 032E     		cmp	r6, #3
 1225              		.loc 1 211 0
 1226 0152 01BF     		itttt	eq
 1227 0154 1923     		moveq	r3, #25
 1228 0156 5343     		muleq	r3, r3, r2
 1229 0158 0F4A     		ldreq	r2, .L116+24
 1230              	.LVL94:
 1231 015a B2FBF3F2 		udiveq	r2, r2, r3
 1232              		.loc 1 177 0
 1233 015e 12BF     		itee	ne
 1234 0160 40F6FF72 		movwne	r2, #4095
 1235              		.loc 1 211 0
 1236 0164 92B2     		uxtheq	r2, r2
 1237              	.LVL95:
 1238              		.loc 1 212 0
 1239 0166 4FF48043 		moveq	r3, #16384
 1240 016a ECE7     		b	.L107
 1241              	.LVL96:
 1242              	.L109:
 1243 016c 23F00803 		bic	r3, r3, #8
 1244              	.LVL97:
 1245 0170 9BB2     		uxth	r3, r3
 1246              	.LBE193:
 1247              	.LBE203:
 1248              	.LBB204:
 1249              	.LBB201:
 1250              		.loc 1 283 0
 1251 0172 43F00203 		orr	r3, r3, #2
 1252              	.LVL98:
 1253 0176 B0E7     		b	.L108
 1254              	.L110:
ARM GAS  C:\cygwin64\tmp\ccHziLjt.s 			page 23


 1255              		.loc 1 286 0
 1256 0178 43F00A03 		orr	r3, r3, #10
 1257              	.LVL99:
 1258 017c ADE7     		b	.L108
 1259              	.L117:
 1260 017e 00BF     		.align	2
 1261              	.L116:
 1262 0180 00000000 		.word	.LANCHOR0
 1263 0184 00380240 		.word	1073887232
 1264 0188 00000000 		.word	i2c_lld_serve_rx_end_irq
 1265 018c 00000000 		.word	i2c_lld_serve_tx_end_irq
 1266 0190 00000302 		.word	33751040
 1267 0194 A0860100 		.word	100000
 1268 0198 80DE8002 		.word	42000000
 1269 019c 00000000 		.word	.LANCHOR1
 1270 01a0 0000030E 		.word	235077632
 1271 01a4 801A0600 		.word	400000
 1272              	.LBE201:
 1273              	.LBE204:
 1274              		.cfi_endproc
 1275              	.LFE290:
 1276              		.size	i2c_lld_start, .-i2c_lld_start
 1277              		.section	.text.i2c_lld_stop,"ax",%progbits
 1278              		.align	1
 1279              		.global	i2c_lld_stop
 1280              		.syntax unified
 1281              		.thumb
 1282              		.thumb_func
 1283              		.fpu fpv4-sp-d16
 1284              		.type	i2c_lld_stop, %function
 1285              	i2c_lld_stop:
 1286              	.LFB291:
 1287              		.loc 1 872 0
 1288              		.cfi_startproc
 1289              		@ args = 0, pretend = 0, frame = 0
 1290              		@ frame_needed = 0, uses_anonymous_args = 0
 1291              	.LVL100:
 1292              		.loc 1 875 0
 1293 0000 0378     		ldrb	r3, [r0]	@ zero_extendqisi2
 1294 0002 012B     		cmp	r3, #1
 1295              		.loc 1 872 0
 1296 0004 10B5     		push	{r4, lr}
 1297              		.cfi_def_cfa_offset 8
 1298              		.cfi_offset 4, -8
 1299              		.cfi_offset 14, -4
 1300              		.loc 1 872 0
 1301 0006 0446     		mov	r4, r0
 1302              		.loc 1 875 0
 1303 0008 36D0     		beq	.L118
 1304              	.LVL101:
 1305              	.LBB207:
 1306              	.LBB208:
 1307              		.loc 1 139 0
 1308 000a 436B     		ldr	r3, [r0, #52]
 1309              	.LVL102:
 1310              		.loc 1 149 0
 1311 000c 006B     		ldr	r0, [r0, #48]
ARM GAS  C:\cygwin64\tmp\ccHziLjt.s 			page 24


 1312              	.LVL103:
 1313              		.loc 1 142 0
 1314 000e 4FF40042 		mov	r2, #32768
 1315 0012 1A60     		str	r2, [r3]
 1316              		.loc 1 143 0
 1317 0014 0022     		movs	r2, #0
 1318 0016 1A60     		str	r2, [r3]
 1319              		.loc 1 144 0
 1320 0018 5A60     		str	r2, [r3, #4]
 1321              		.loc 1 145 0
 1322 001a 5A61     		str	r2, [r3, #20]
 1323              		.loc 1 149 0
 1324 001c 0368     		ldr	r3, [r0]
 1325              	.LVL104:
 1326 001e 1A68     		ldr	r2, [r3]
 1327 0020 22F01F02 		bic	r2, r2, #31
 1328 0024 1A60     		str	r2, [r3]
 1329              	.L121:
 1330 0026 1A68     		ldr	r2, [r3]
 1331 0028 D207     		lsls	r2, r2, #31
 1332 002a FCD4     		bmi	.L121
 1333 002c 017A     		ldrb	r1, [r0, #8]	@ zero_extendqisi2
 1334 002e 4268     		ldr	r2, [r0, #4]
 1335 0030 3D23     		movs	r3, #61
 1336 0032 8B40     		lsls	r3, r3, r1
 1337 0034 1360     		str	r3, [r2]
 1338              		.loc 1 150 0
 1339 0036 E36A     		ldr	r3, [r4, #44]
 1340 0038 1A68     		ldr	r2, [r3]
 1341 003a 1168     		ldr	r1, [r2]
 1342 003c 21F01F01 		bic	r1, r1, #31
 1343 0040 1160     		str	r1, [r2]
 1344              	.L122:
 1345 0042 1168     		ldr	r1, [r2]
 1346 0044 C907     		lsls	r1, r1, #31
 1347 0046 FCD4     		bmi	.L122
 1348 0048 197A     		ldrb	r1, [r3, #8]	@ zero_extendqisi2
 1349 004a 5A68     		ldr	r2, [r3, #4]
 1350 004c 3D23     		movs	r3, #61
 1351 004e 8B40     		lsls	r3, r3, r1
 1352 0050 1360     		str	r3, [r2]
 1353              	.LVL105:
 1354              	.LBE208:
 1355              	.LBE207:
 1356              		.loc 1 880 0
 1357 0052 FFF7FEFF 		bl	dmaStreamRelease
 1358              	.LVL106:
 1359              		.loc 1 881 0
 1360 0056 E06A     		ldr	r0, [r4, #44]
 1361 0058 FFF7FEFF 		bl	dmaStreamRelease
 1362              	.LVL107:
 1363              		.loc 1 885 0
 1364 005c 0E4B     		ldr	r3, .L128
 1365 005e 9C42     		cmp	r4, r3
 1366 0060 0BD1     		bne	.L123
 1367              		.loc 1 886 0
 1368 0062 1F20     		movs	r0, #31
ARM GAS  C:\cygwin64\tmp\ccHziLjt.s 			page 25


 1369 0064 FFF7FEFF 		bl	nvicDisableVector
 1370              	.LVL108:
 1371              		.loc 1 887 0
 1372 0068 2020     		movs	r0, #32
 1373 006a FFF7FEFF 		bl	nvicDisableVector
 1374              	.LVL109:
 1375              		.loc 1 888 0
 1376 006e 0B4A     		ldr	r2, .L128+4
 1377 0070 136C     		ldr	r3, [r2, #64]
 1378 0072 23F40013 		bic	r3, r3, #2097152
 1379              	.L127:
 1380              		.loc 1 896 0
 1381 0076 1364     		str	r3, [r2, #64]
 1382              	.L118:
 1383 0078 10BD     		pop	{r4, pc}
 1384              	.LVL110:
 1385              	.L123:
 1386              		.loc 1 893 0
 1387 007a 094B     		ldr	r3, .L128+8
 1388 007c 9C42     		cmp	r4, r3
 1389 007e FBD1     		bne	.L118
 1390              		.loc 1 894 0
 1391 0080 2120     		movs	r0, #33
 1392 0082 FFF7FEFF 		bl	nvicDisableVector
 1393              	.LVL111:
 1394              		.loc 1 895 0
 1395 0086 2220     		movs	r0, #34
 1396 0088 FFF7FEFF 		bl	nvicDisableVector
 1397              	.LVL112:
 1398              		.loc 1 896 0
 1399 008c 034A     		ldr	r2, .L128+4
 1400 008e 136C     		ldr	r3, [r2, #64]
 1401 0090 23F48003 		bic	r3, r3, #4194304
 1402 0094 EFE7     		b	.L127
 1403              	.L129:
 1404 0096 00BF     		.align	2
 1405              	.L128:
 1406 0098 00000000 		.word	.LANCHOR0
 1407 009c 00380240 		.word	1073887232
 1408 00a0 00000000 		.word	.LANCHOR1
 1409              		.cfi_endproc
 1410              	.LFE291:
 1411              		.size	i2c_lld_stop, .-i2c_lld_stop
 1412              		.section	.text.i2c_lld_master_receive_timeout,"ax",%progbits
 1413              		.align	1
 1414              		.global	i2c_lld_master_receive_timeout
 1415              		.syntax unified
 1416              		.thumb
 1417              		.thumb_func
 1418              		.fpu fpv4-sp-d16
 1419              		.type	i2c_lld_master_receive_timeout, %function
 1420              	i2c_lld_master_receive_timeout:
 1421              	.LFB292:
 1422              		.loc 1 935 0
 1423              		.cfi_startproc
 1424              		@ args = 4, pretend = 0, frame = 0
 1425              		@ frame_needed = 0, uses_anonymous_args = 0
ARM GAS  C:\cygwin64\tmp\ccHziLjt.s 			page 26


 1426              	.LVL113:
 1427              		.loc 1 946 0
 1428 0000 4900     		lsls	r1, r1, #1
 1429              	.LVL114:
 1430              		.loc 1 935 0
 1431 0002 2DE9F843 		push	{r3, r4, r5, r6, r7, r8, r9, lr}
 1432              		.cfi_def_cfa_offset 32
 1433              		.cfi_offset 3, -32
 1434              		.cfi_offset 4, -28
 1435              		.cfi_offset 5, -24
 1436              		.cfi_offset 6, -20
 1437              		.cfi_offset 7, -16
 1438              		.cfi_offset 8, -12
 1439              		.cfi_offset 9, -8
 1440              		.cfi_offset 14, -4
 1441              		.loc 1 946 0
 1442 0006 41F00101 		orr	r1, r1, #1
 1443              		.loc 1 943 0
 1444 000a 0026     		movs	r6, #0
 1445 000c 8660     		str	r6, [r0, #8]
 1446              		.loc 1 946 0
 1447 000e 0184     		strh	r1, [r0, #32]	@ movhi
 1448              		.loc 1 935 0
 1449 0010 0446     		mov	r4, r0
 1450 0012 9146     		mov	r9, r2
 1451 0014 9846     		mov	r8, r3
 1452 0016 089F     		ldr	r7, [sp, #32]
 1453              		.loc 1 936 0
 1454 0018 456B     		ldr	r5, [r0, #52]
 1455              	.LVL115:
 1456              	.LBB225:
 1457              	.LBB226:
 1458              	.LBB227:
 1459              		.loc 3 389 0
 1460 001a FFF7FEFF 		bl	_stats_stop_measure_crit_thd
 1461              	.LVL116:
 1462              	.LBB228:
 1463              	.LBB229:
 1464              	.LBB230:
 1465              		.loc 2 264 0
 1466              		.syntax unified
 1467              	@ 264 "../../modules/ChibiOS/os/common/ext/CMSIS/include/cmsis_gcc.h" 1
 1468 001e 86F31188 		MSR basepri, r6
 1469              	@ 0 "" 2
 1470              	.LVL117:
 1471              		.thumb
 1472              		.syntax unified
 1473              	.LBE230:
 1474              	.LBE229:
 1475              	.LBE228:
 1476              	.LBE227:
 1477              	.LBE226:
 1478              	.LBE225:
 1479              		.loc 1 953 0
 1480 0022 E36A     		ldr	r3, [r4, #44]
 1481 0024 1968     		ldr	r1, [r3]
 1482 0026 636A     		ldr	r3, [r4, #36]
ARM GAS  C:\cygwin64\tmp\ccHziLjt.s 			page 27


 1483 0028 0B60     		str	r3, [r1]
 1484              		.loc 1 954 0
 1485 002a C1F80C90 		str	r9, [r1, #12]
 1486              	.LBB231:
 1487              	.LBB232:
 1488              	.LBB233:
 1489              	.LBB234:
 1490              	.LBB235:
 1491              	.LBB236:
 1492              		.loc 2 264 0
 1493 002e 2023     		movs	r3, #32
 1494              	.LBE236:
 1495              	.LBE235:
 1496              	.LBE234:
 1497              	.LBE233:
 1498              	.LBE232:
 1499              	.LBE231:
 1500              		.loc 1 955 0
 1501 0030 C1F80480 		str	r8, [r1, #4]
 1502              	.LVL118:
 1503              	.LBB242:
 1504              	.LBB241:
 1505              	.LBB240:
 1506              	.LBB239:
 1507              	.LBB238:
 1508              	.LBB237:
 1509              		.loc 2 264 0
 1510              		.syntax unified
 1511              	@ 264 "../../modules/ChibiOS/os/common/ext/CMSIS/include/cmsis_gcc.h" 1
 1512 0034 83F31188 		MSR basepri, r3
 1513              	@ 0 "" 2
 1514              	.LVL119:
 1515              		.thumb
 1516              		.syntax unified
 1517              	.LBE237:
 1518              	.LBE238:
 1519              	.LBE239:
 1520              		.loc 3 377 0
 1521 0038 FFF7FEFF 		bl	_stats_start_measure_crit_thd
 1522              	.LVL120:
 1523              	.LBE240:
 1524              	.LBE241:
 1525              	.LBE242:
 1526              		.loc 1 966 0
 1527 003c AB69     		ldr	r3, [r5, #24]
 1528 003e 9A07     		lsls	r2, r3, #30
 1529 0040 11D4     		bmi	.L130
 1530              		.loc 1 966 0 is_stmt 0 discriminator 1
 1531 0042 2B68     		ldr	r3, [r5]
 1532 0044 9B05     		lsls	r3, r3, #22
 1533 0046 0ED4     		bmi	.L130
 1534              		.loc 1 971 0 is_stmt 1
 1535 0048 6B68     		ldr	r3, [r5, #4]
 1536 004a 43F40073 		orr	r3, r3, #512
 1537 004e 6B60     		str	r3, [r5, #4]
 1538              		.loc 1 972 0
 1539 0050 2B68     		ldr	r3, [r5]
ARM GAS  C:\cygwin64\tmp\ccHziLjt.s 			page 28


 1540 0052 43F4A063 		orr	r3, r3, #1280
 1541 0056 2B60     		str	r3, [r5]
 1542              	.LVL121:
 1543              	.LBB243:
 1544              	.LBB244:
 1545              		.loc 4 713 0
 1546 0058 3946     		mov	r1, r7
 1547 005a 04F11C00 		add	r0, r4, #28
 1548              	.LVL122:
 1549              	.LBE244:
 1550              	.LBE243:
 1551              		.loc 1 976 0
 1552 005e BDE8F843 		pop	{r3, r4, r5, r6, r7, r8, r9, lr}
 1553              		.cfi_remember_state
 1554              		.cfi_restore 14
 1555              		.cfi_restore 9
 1556              		.cfi_restore 8
 1557              		.cfi_restore 7
 1558              		.cfi_restore 6
 1559              		.cfi_restore 5
 1560              		.cfi_restore 4
 1561              		.cfi_restore 3
 1562              		.cfi_def_cfa_offset 0
 1563              	.LVL123:
 1564              	.LBB246:
 1565              	.LBB245:
 1566              		.loc 4 713 0
 1567 0062 FFF7FEBF 		b	chThdSuspendTimeoutS
 1568              	.LVL124:
 1569              	.L130:
 1570              		.cfi_restore_state
 1571              	.LBE245:
 1572              	.LBE246:
 1573              		.loc 1 976 0
 1574 0066 4FF0FF30 		mov	r0, #-1
 1575 006a BDE8F883 		pop	{r3, r4, r5, r6, r7, r8, r9, pc}
 1576              		.cfi_endproc
 1577              	.LFE292:
 1578              		.size	i2c_lld_master_receive_timeout, .-i2c_lld_master_receive_timeout
 1579              		.section	.text.i2c_lld_master_transmit_timeout,"ax",%progbits
 1580              		.align	1
 1581              		.global	i2c_lld_master_transmit_timeout
 1582              		.syntax unified
 1583              		.thumb
 1584              		.thumb_func
 1585              		.fpu fpv4-sp-d16
 1586              		.type	i2c_lld_master_transmit_timeout, %function
 1587              	i2c_lld_master_transmit_timeout:
 1588              	.LFB293:
 1589              		.loc 1 1006 0
 1590              		.cfi_startproc
 1591              		@ args = 12, pretend = 0, frame = 0
 1592              		@ frame_needed = 0, uses_anonymous_args = 0
 1593              	.LVL125:
 1594 0000 2DE9F84F 		push	{r3, r4, r5, r6, r7, r8, r9, r10, fp, lr}
 1595              		.cfi_def_cfa_offset 40
 1596              		.cfi_offset 3, -40
ARM GAS  C:\cygwin64\tmp\ccHziLjt.s 			page 29


 1597              		.cfi_offset 4, -36
 1598              		.cfi_offset 5, -32
 1599              		.cfi_offset 6, -28
 1600              		.cfi_offset 7, -24
 1601              		.cfi_offset 8, -20
 1602              		.cfi_offset 9, -16
 1603              		.cfi_offset 10, -12
 1604              		.cfi_offset 11, -8
 1605              		.cfi_offset 14, -4
 1606              		.loc 1 1017 0
 1607 0004 4900     		lsls	r1, r1, #1
 1608              	.LVL126:
 1609              		.loc 1 1014 0
 1610 0006 0026     		movs	r6, #0
 1611 0008 8660     		str	r6, [r0, #8]
 1612              		.loc 1 1017 0
 1613 000a 0184     		strh	r1, [r0, #32]	@ movhi
 1614              		.loc 1 1006 0
 1615 000c 0446     		mov	r4, r0
 1616 000e 9346     		mov	fp, r2
 1617 0010 9A46     		mov	r10, r3
 1618 0012 DDF82890 		ldr	r9, [sp, #40]
 1619 0016 DDF82C80 		ldr	r8, [sp, #44]
 1620 001a 0C9F     		ldr	r7, [sp, #48]
 1621              		.loc 1 1007 0
 1622 001c 456B     		ldr	r5, [r0, #52]
 1623              	.LVL127:
 1624              	.LBB263:
 1625              	.LBB264:
 1626              	.LBB265:
 1627              		.loc 3 389 0
 1628 001e FFF7FEFF 		bl	_stats_stop_measure_crit_thd
 1629              	.LVL128:
 1630              	.LBB266:
 1631              	.LBB267:
 1632              	.LBB268:
 1633              		.loc 2 264 0
 1634              		.syntax unified
 1635              	@ 264 "../../modules/ChibiOS/os/common/ext/CMSIS/include/cmsis_gcc.h" 1
 1636 0022 86F31188 		MSR basepri, r6
 1637              	@ 0 "" 2
 1638              	.LVL129:
 1639              		.thumb
 1640              		.syntax unified
 1641              	.LBE268:
 1642              	.LBE267:
 1643              	.LBE266:
 1644              	.LBE265:
 1645              	.LBE264:
 1646              	.LBE263:
 1647              		.loc 1 1024 0
 1648 0026 236B     		ldr	r3, [r4, #48]
 1649              		.loc 1 1029 0
 1650 0028 626A     		ldr	r2, [r4, #36]
 1651              		.loc 1 1024 0
 1652 002a 1968     		ldr	r1, [r3]
 1653 002c A36A     		ldr	r3, [r4, #40]
ARM GAS  C:\cygwin64\tmp\ccHziLjt.s 			page 30


 1654 002e 0B60     		str	r3, [r1]
 1655              		.loc 1 1029 0
 1656 0030 E36A     		ldr	r3, [r4, #44]
 1657              		.loc 1 1025 0
 1658 0032 C1F80CB0 		str	fp, [r1, #12]
 1659              		.loc 1 1029 0
 1660 0036 1B68     		ldr	r3, [r3]
 1661              		.loc 1 1026 0
 1662 0038 C1F804A0 		str	r10, [r1, #4]
 1663              		.loc 1 1029 0
 1664 003c 1A60     		str	r2, [r3]
 1665              		.loc 1 1030 0
 1666 003e C3F80C90 		str	r9, [r3, #12]
 1667              		.loc 1 1031 0
 1668 0042 C3F80480 		str	r8, [r3, #4]
 1669              	.LVL130:
 1670              	.LBB269:
 1671              	.LBB270:
 1672              	.LBB271:
 1673              	.LBB272:
 1674              	.LBB273:
 1675              	.LBB274:
 1676              		.loc 2 264 0
 1677 0046 2023     		movs	r3, #32
 1678              		.syntax unified
 1679              	@ 264 "../../modules/ChibiOS/os/common/ext/CMSIS/include/cmsis_gcc.h" 1
 1680 0048 83F31188 		MSR basepri, r3
 1681              	@ 0 "" 2
 1682              	.LVL131:
 1683              		.thumb
 1684              		.syntax unified
 1685              	.LBE274:
 1686              	.LBE273:
 1687              	.LBE272:
 1688              		.loc 3 377 0
 1689 004c FFF7FEFF 		bl	_stats_start_measure_crit_thd
 1690              	.LVL132:
 1691              	.LBE271:
 1692              	.LBE270:
 1693              	.LBE269:
 1694              		.loc 1 1044 0
 1695 0050 AB69     		ldr	r3, [r5, #24]
 1696 0052 9A07     		lsls	r2, r3, #30
 1697 0054 11D4     		bmi	.L134
 1698              		.loc 1 1044 0 is_stmt 0 discriminator 1
 1699 0056 2B68     		ldr	r3, [r5]
 1700 0058 9B05     		lsls	r3, r3, #22
 1701 005a 0ED4     		bmi	.L134
 1702              		.loc 1 1049 0 is_stmt 1
 1703 005c 6B68     		ldr	r3, [r5, #4]
 1704 005e 43F40073 		orr	r3, r3, #512
 1705 0062 6B60     		str	r3, [r5, #4]
 1706              		.loc 1 1050 0
 1707 0064 2B68     		ldr	r3, [r5]
 1708 0066 43F48073 		orr	r3, r3, #256
 1709 006a 2B60     		str	r3, [r5]
 1710              	.LVL133:
ARM GAS  C:\cygwin64\tmp\ccHziLjt.s 			page 31


 1711              	.LBB275:
 1712              	.LBB276:
 1713              		.loc 4 713 0
 1714 006c 3946     		mov	r1, r7
 1715 006e 04F11C00 		add	r0, r4, #28
 1716              	.LVL134:
 1717              	.LBE276:
 1718              	.LBE275:
 1719              		.loc 1 1054 0
 1720 0072 BDE8F84F 		pop	{r3, r4, r5, r6, r7, r8, r9, r10, fp, lr}
 1721              		.cfi_remember_state
 1722              		.cfi_restore 14
 1723              		.cfi_restore 11
 1724              		.cfi_restore 10
 1725              		.cfi_restore 9
 1726              		.cfi_restore 8
 1727              		.cfi_restore 7
 1728              		.cfi_restore 6
 1729              		.cfi_restore 5
 1730              		.cfi_restore 4
 1731              		.cfi_restore 3
 1732              		.cfi_def_cfa_offset 0
 1733              	.LVL135:
 1734              	.LBB278:
 1735              	.LBB277:
 1736              		.loc 4 713 0
 1737 0076 FFF7FEBF 		b	chThdSuspendTimeoutS
 1738              	.LVL136:
 1739              	.L134:
 1740              		.cfi_restore_state
 1741              	.LBE277:
 1742              	.LBE278:
 1743              		.loc 1 1054 0
 1744 007a 4FF0FF30 		mov	r0, #-1
 1745 007e BDE8F88F 		pop	{r3, r4, r5, r6, r7, r8, r9, r10, fp, pc}
 1746              		.cfi_endproc
 1747              	.LFE293:
 1748              		.size	i2c_lld_master_transmit_timeout, .-i2c_lld_master_transmit_timeout
 1749              		.global	I2CD2
 1750              		.global	I2CD1
 1751              		.section	.bss.I2CD1,"aw",%nobits
 1752              		.align	2
 1753              		.set	.LANCHOR0,. + 0
 1754              		.type	I2CD1, %object
 1755              		.size	I2CD1, 56
 1756              	I2CD1:
 1757 0000 00000000 		.space	56
 1757      00000000 
 1757      00000000 
 1757      00000000 
 1757      00000000 
 1758              		.section	.bss.I2CD2,"aw",%nobits
 1759              		.align	2
 1760              		.set	.LANCHOR1,. + 0
 1761              		.type	I2CD2, %object
 1762              		.size	I2CD2, 56
 1763              	I2CD2:
ARM GAS  C:\cygwin64\tmp\ccHziLjt.s 			page 32


 1764 0000 00000000 		.space	56
 1764      00000000 
 1764      00000000 
 1764      00000000 
 1764      00000000 
 1765              		.section	.rodata.i2c_lld_serve_tx_end_irq.str1.1,"aMS",%progbits,1
 1766              	.LC0:
 1767 0000 444D4120 		.ascii	"DMA failure\000"
 1767      6661696C 
 1767      75726500 
 1768              		.text
 1769              	.Letext0:
 1770              		.file 5 "c:\\program files (x86)\\gnu tools arm embedded\\6 2017-q2-update\\lib\\gcc\\arm-none-eab
 1771              		.file 6 "c:\\program files (x86)\\gnu tools arm embedded\\6 2017-q2-update\\arm-none-eabi\\include
 1772              		.file 7 "c:\\program files (x86)\\gnu tools arm embedded\\6 2017-q2-update\\arm-none-eabi\\include
 1773              		.file 8 "../../modules/ChibiOS/os/common/ports/ARMCMx/compilers/GCC/chtypes.h"
 1774              		.file 9 "../../modules/ChibiOS/os/rt/include/chsystypes.h"
 1775              		.file 10 "../../modules/ChibiOS/os/rt/include/chschd.h"
 1776              		.file 11 "../../modules/ChibiOS/os/common/ext/CMSIS/include/core_cm4.h"
 1777              		.file 12 "../../modules/ChibiOS/os/common/ext/CMSIS/ST/STM32F4xx/system_stm32f4xx.h"
 1778              		.file 13 "../../modules/ChibiOS/os/common/ext/CMSIS/ST/STM32F4xx/stm32f427xx.h"
 1779              		.file 14 "../../modules/ChibiOS/os/common/ports/ARMCMx/chcore.h"
 1780              		.file 15 "../../modules/ChibiOS/os/common/ports/ARMCMx/chcore_v7m.h"
 1781              		.file 16 "../../modules/ChibiOS/os/hal/ports/STM32/LLD/TIMv1/stm32_tim.h"
 1782              		.file 17 "../../modules/ChibiOS/os/rt/include/chtm.h"
 1783              		.file 18 "../../modules/ChibiOS/os/rt/include/chstats.h"
 1784              		.file 19 "../../modules/ChibiOS/os/rt/include/chsem.h"
 1785              		.file 20 "../../modules/ChibiOS/os/rt/include/chmtx.h"
 1786              		.file 21 "../../modules/ChibiOS/os/rt/include/chregistry.h"
 1787              		.file 22 "../../modules/ChibiOS/os/rt/include/chevents.h"
 1788              		.file 23 "../../modules/ChibiOS/os/hal/ports/STM32/LLD/DMAv2/stm32_dma.h"
 1789              		.file 24 "../../modules/ChibiOS/os/hal/include/hal_ioblock.h"
 1790              		.file 25 "../../modules/ChibiOS/os/hal/include/hal_queues.h"
 1791              		.file 26 "../../modules/ChibiOS/os/hal/ports/STM32/LLD/GPIOv2/hal_pal_lld.h"
 1792              		.file 27 "../../modules/ChibiOS/os/hal/include/hal_adc.h"
 1793              		.file 28 "../../modules/ChibiOS/os/hal/ports/STM32/LLD/ADCv2/hal_adc_lld.h"
 1794              		.file 29 "../../modules/ChibiOS/os/hal/include/hal_ext.h"
 1795              		.file 30 "../../modules/ChibiOS/os/hal/ports/STM32/LLD/EXTIv1/hal_ext_lld.h"
 1796              		.file 31 "../../modules/ChibiOS/os/hal/include/hal_i2c.h"
 1797              		.file 32 "../../modules/ChibiOS/os/hal/ports/STM32/LLD/I2Cv1/hal_i2c_lld.h"
 1798              		.file 33 "../../modules/ChibiOS/os/hal/include/hal_pwm.h"
 1799              		.file 34 "../../modules/ChibiOS/os/hal/ports/STM32/LLD/TIMv1/hal_pwm_lld.h"
 1800              		.file 35 "../../modules/ChibiOS/os/hal/include/hal_serial.h"
 1801              		.file 36 "../../modules/ChibiOS/os/hal/ports/STM32/LLD/USARTv1/hal_serial_lld.h"
 1802              		.file 37 "../../modules/ChibiOS/os/hal/include/hal_sdc.h"
 1803              		.file 38 "../../modules/ChibiOS/os/hal/ports/STM32/LLD/SDIOv1/hal_sdc_lld.h"
 1804              		.file 39 "../../modules/ChibiOS/os/hal/include/hal_spi.h"
 1805              		.file 40 "../../modules/ChibiOS/os/hal/ports/STM32/LLD/SPIv1/hal_spi_lld.h"
 1806              		.file 41 "../../modules/ChibiOS/os/hal/include/hal_usb.h"
 1807              		.file 42 "../../modules/ChibiOS/os/hal/ports/STM32/LLD/OTGv1/hal_usb_lld.h"
 1808              		.file 43 "../../modules/ChibiOS/os/hal/ports/STM32/LLD/OTGv1/stm32_otg.h"
 1809              		.file 44 "../../modules/ChibiOS/os/rt/include/chthreads.h"
 1810              		.file 45 "../../modules/ChibiOS/os/hal/ports/common/ARMCMx/nvic.h"