ARM GAS  C:\cygwin64\tmp\ccYeH3hT.s 			page 1


   1              		.cpu cortex-m4
   2              		.eabi_attribute 27, 1
   3              		.eabi_attribute 28, 1
   4              		.eabi_attribute 20, 1
   5              		.eabi_attribute 21, 1
   6              		.eabi_attribute 23, 3
   7              		.eabi_attribute 24, 1
   8              		.eabi_attribute 25, 1
   9              		.eabi_attribute 26, 1
  10              		.eabi_attribute 30, 4
  11              		.eabi_attribute 34, 1
  12              		.eabi_attribute 18, 4
  13              		.file	"hal_spi_lld.c"
  14              		.text
  15              	.Ltext0:
  16              		.cfi_sections	.debug_frame
  17              		.section	.text.spi_lld_serve_tx_interrupt,"ax",%progbits
  18              		.align	1
  19              		.syntax unified
  20              		.thumb
  21              		.thumb_func
  22              		.fpu fpv4-sp-d16
  23              		.type	spi_lld_serve_tx_interrupt, %function
  24              	spi_lld_serve_tx_interrupt:
  25              	.LFB278:
  26              		.file 1 "../../modules/ChibiOS/os/hal/ports/STM32/LLD/SPIv1/hal_spi_lld.c"
  27              		.loc 1 158 0
  28              		.cfi_startproc
  29              		@ args = 0, pretend = 0, frame = 0
  30              		@ frame_needed = 0, uses_anonymous_args = 0
  31              		@ link register save eliminated.
  32              	.LVL0:
  33              		.loc 1 163 0
  34 0000 11F00C0F 		tst	r1, #12
  35 0004 02D0     		beq	.L1
  36              	.LVL1:
  37              	.LBB34:
  38              	.LBB35:
  39              		.file 2 "../../modules/ChibiOS/os/hal/osal/rt/osal.h"
  40              		.loc 2 462 0
  41 0006 0248     		ldr	r0, .L3
  42              	.LVL2:
  43 0008 FFF7FEBF 		b	chSysHalt
  44              	.LVL3:
  45              	.L1:
  46 000c 7047     		bx	lr
  47              	.L4:
  48 000e 00BF     		.align	2
  49              	.L3:
  50 0010 00000000 		.word	.LC0
  51              	.LBE35:
  52              	.LBE34:
  53              		.cfi_endproc
  54              	.LFE278:
  55              		.size	spi_lld_serve_tx_interrupt, .-spi_lld_serve_tx_interrupt
  56              		.section	.text.spi_lld_serve_rx_interrupt,"ax",%progbits
  57              		.align	1
ARM GAS  C:\cygwin64\tmp\ccYeH3hT.s 			page 2


  58              		.syntax unified
  59              		.thumb
  60              		.thumb_func
  61              		.fpu fpv4-sp-d16
  62              		.type	spi_lld_serve_rx_interrupt, %function
  63              	spi_lld_serve_rx_interrupt:
  64              	.LFB277:
  65              		.loc 1 132 0
  66              		.cfi_startproc
  67              		@ args = 0, pretend = 0, frame = 0
  68              		@ frame_needed = 0, uses_anonymous_args = 0
  69              	.LVL4:
  70              		.loc 1 136 0
  71 0000 11F00C0F 		tst	r1, #12
  72              		.loc 1 132 0
  73 0004 10B5     		push	{r4, lr}
  74              		.cfi_def_cfa_offset 8
  75              		.cfi_offset 4, -8
  76              		.cfi_offset 14, -4
  77              		.loc 1 132 0
  78 0006 0446     		mov	r4, r0
  79              		.loc 1 136 0
  80 0008 02D0     		beq	.L6
  81              	.LVL5:
  82              	.LBB56:
  83              	.LBB57:
  84              		.loc 2 462 0
  85 000a 1D48     		ldr	r0, .L19
  86              	.LVL6:
  87 000c FFF7FEFF 		bl	chSysHalt
  88              	.LVL7:
  89              	.L6:
  90              	.LBE57:
  91              	.LBE56:
  92              		.loc 1 144 0
  93 0010 636A     		ldr	r3, [r4, #36]
  94 0012 1A68     		ldr	r2, [r3]
  95 0014 1168     		ldr	r1, [r2]
  96 0016 21F01F01 		bic	r1, r1, #31
  97 001a 1160     		str	r1, [r2]
  98              	.L7:
  99              		.loc 1 144 0 is_stmt 0 discriminator 2
 100 001c 1168     		ldr	r1, [r2]
 101 001e C807     		lsls	r0, r1, #31
 102 0020 FCD4     		bmi	.L7
 103              		.loc 1 144 0 discriminator 3
 104 0022 197A     		ldrb	r1, [r3, #8]	@ zero_extendqisi2
 105 0024 5A68     		ldr	r2, [r3, #4]
 106 0026 3D23     		movs	r3, #61
 107 0028 8B40     		lsls	r3, r3, r1
 108 002a 1360     		str	r3, [r2]
 109              		.loc 1 145 0 is_stmt 1 discriminator 3
 110 002c 236A     		ldr	r3, [r4, #32]
 111 002e 1A68     		ldr	r2, [r3]
 112 0030 1168     		ldr	r1, [r2]
 113 0032 21F01F01 		bic	r1, r1, #31
 114 0036 1160     		str	r1, [r2]
ARM GAS  C:\cygwin64\tmp\ccYeH3hT.s 			page 3


 115              	.L8:
 116              		.loc 1 145 0 is_stmt 0 discriminator 2
 117 0038 1168     		ldr	r1, [r2]
 118 003a C907     		lsls	r1, r1, #31
 119 003c FCD4     		bmi	.L8
 120              		.loc 1 145 0 discriminator 3
 121 003e 197A     		ldrb	r1, [r3, #8]	@ zero_extendqisi2
 122 0040 5A68     		ldr	r2, [r3, #4]
 123 0042 3D23     		movs	r3, #61
 124 0044 8B40     		lsls	r3, r3, r1
 125 0046 1360     		str	r3, [r2]
 126              		.loc 1 149 0 is_stmt 1 discriminator 3
 127 0048 6368     		ldr	r3, [r4, #4]
 128 004a 1B68     		ldr	r3, [r3]
 129 004c 33B1     		cbz	r3, .L9
 130              		.loc 1 149 0 is_stmt 0 discriminator 1
 131 004e 0422     		movs	r2, #4
 132 0050 2270     		strb	r2, [r4]
 133 0052 2046     		mov	r0, r4
 134 0054 9847     		blx	r3
 135              	.LVL8:
 136 0056 2378     		ldrb	r3, [r4]	@ zero_extendqisi2
 137 0058 042B     		cmp	r3, #4
 138 005a 01D1     		bne	.L10
 139              	.L9:
 140              		.loc 1 149 0 discriminator 3
 141 005c 0223     		movs	r3, #2
 142 005e 2370     		strb	r3, [r4]
 143              	.L10:
 144              	.LVL9:
 145              	.LBB58:
 146              	.LBB59:
 147              	.LBB60:
 148              	.LBB61:
 149              	.LBB62:
 150              	.LBB63:
 151              	.LBB64:
 152              		.file 3 "../../modules/ChibiOS/os/common/ext/CMSIS/include/cmsis_gcc.h"
 153              		.loc 3 264 0 is_stmt 1 discriminator 4
 154 0060 2023     		movs	r3, #32
 155              		.syntax unified
 156              	@ 264 "../../modules/ChibiOS/os/common/ext/CMSIS/include/cmsis_gcc.h" 1
 157 0062 83F31188 		MSR basepri, r3
 158              	@ 0 "" 2
 159              	.LVL10:
 160              		.thumb
 161              		.syntax unified
 162              	.LBE64:
 163              	.LBE63:
 164              	.LBE62:
 165              	.LBE61:
 166              		.file 4 "../../modules/ChibiOS/os/rt/include/chsys.h"
 167              		.loc 4 417 0 discriminator 4
 168 0066 FFF7FEFF 		bl	_stats_start_measure_crit_isr
 169              	.LVL11:
 170              	.LBE60:
 171              	.LBE59:
ARM GAS  C:\cygwin64\tmp\ccYeH3hT.s 			page 4


 172              	.LBE58:
 173              	.LBB65:
 174              	.LBB66:
 175              		.loc 2 728 0 discriminator 4
 176 006a 0021     		movs	r1, #0
 177 006c 04F10800 		add	r0, r4, #8
 178              	.LVL12:
 179 0070 FFF7FEFF 		bl	chThdResumeI
 180              	.LVL13:
 181              	.LBE66:
 182              	.LBE65:
 183              	.LBB67:
 184              	.LBB68:
 185              	.LBB69:
 186              		.loc 4 437 0 discriminator 4
 187 0074 FFF7FEFF 		bl	_stats_stop_measure_crit_isr
 188              	.LVL14:
 189              	.LBB70:
 190              	.LBB71:
 191              	.LBB72:
 192              	.LBB73:
 193              		.loc 3 264 0 discriminator 4
 194 0078 0023     		movs	r3, #0
 195              		.syntax unified
 196              	@ 264 "../../modules/ChibiOS/os/common/ext/CMSIS/include/cmsis_gcc.h" 1
 197 007a 83F31188 		MSR basepri, r3
 198              	@ 0 "" 2
 199              	.LVL15:
 200              		.thumb
 201              		.syntax unified
 202 007e 10BD     		pop	{r4, pc}
 203              	.LVL16:
 204              	.L20:
 205              		.align	2
 206              	.L19:
 207 0080 00000000 		.word	.LC0
 208              	.LBE73:
 209              	.LBE72:
 210              	.LBE71:
 211              	.LBE70:
 212              	.LBE69:
 213              	.LBE68:
 214              	.LBE67:
 215              		.cfi_endproc
 216              	.LFE277:
 217              		.size	spi_lld_serve_rx_interrupt, .-spi_lld_serve_rx_interrupt
 218              		.section	.text.spi_lld_init,"ax",%progbits
 219              		.align	1
 220              		.global	spi_lld_init
 221              		.syntax unified
 222              		.thumb
 223              		.thumb_func
 224              		.fpu fpv4-sp-d16
 225              		.type	spi_lld_init, %function
 226              	spi_lld_init:
 227              	.LFB279:
 228              		.loc 1 185 0
ARM GAS  C:\cygwin64\tmp\ccYeH3hT.s 			page 5


 229              		.cfi_startproc
 230              		@ args = 0, pretend = 0, frame = 0
 231              		@ frame_needed = 0, uses_anonymous_args = 0
 232 0000 70B5     		push	{r4, r5, r6, lr}
 233              		.cfi_def_cfa_offset 16
 234              		.cfi_offset 4, -16
 235              		.cfi_offset 5, -12
 236              		.cfi_offset 6, -8
 237              		.cfi_offset 14, -4
 238              		.loc 1 188 0
 239 0002 174D     		ldr	r5, .L22
 240              		.loc 1 190 0
 241 0004 174C     		ldr	r4, .L22+4
 242              		.loc 1 188 0
 243 0006 2846     		mov	r0, r5
 244 0008 FFF7FEFF 		bl	spiObjectInit
 245              	.LVL17:
 246              		.loc 1 189 0
 247 000c 164B     		ldr	r3, .L22+8
 248 000e EB61     		str	r3, [r5, #28]
 249              		.loc 1 192 0
 250 0010 164B     		ldr	r3, .L22+12
 251 0012 AB62     		str	r3, [r5, #40]
 252              		.loc 1 191 0
 253 0014 04F12406 		add	r6, r4, #36
 254              		.loc 1 198 0
 255 0018 3033     		adds	r3, r3, #48
 256              		.loc 1 190 0
 257 001a 2C62     		str	r4, [r5, #32]
 258              		.loc 1 198 0
 259 001c EB62     		str	r3, [r5, #44]
 260              		.loc 1 191 0
 261 001e 6E62     		str	r6, [r5, #36]
 262              		.loc 1 206 0
 263 0020 134D     		ldr	r5, .L22+16
 264 0022 2846     		mov	r0, r5
 265 0024 FFF7FEFF 		bl	spiObjectInit
 266              	.LVL18:
 267              		.loc 1 207 0
 268 0028 124B     		ldr	r3, .L22+20
 269 002a EB61     		str	r3, [r5, #28]
 270              		.loc 1 208 0
 271 002c A4F13C03 		sub	r3, r4, #60
 272 0030 2B62     		str	r3, [r5, #32]
 273              		.loc 1 209 0
 274 0032 A4F13003 		sub	r3, r4, #48
 275 0036 6B62     		str	r3, [r5, #36]
 276              		.loc 1 210 0
 277 0038 0F4B     		ldr	r3, .L22+24
 278 003a AB62     		str	r3, [r5, #40]
 279              		.loc 1 216 0
 280 003c 3033     		adds	r3, r3, #48
 281 003e EB62     		str	r3, [r5, #44]
 282              		.loc 1 242 0
 283 0040 0E4D     		ldr	r5, .L22+28
 284 0042 2846     		mov	r0, r5
 285 0044 FFF7FEFF 		bl	spiObjectInit
ARM GAS  C:\cygwin64\tmp\ccYeH3hT.s 			page 6


 286              	.LVL19:
 287              		.loc 1 243 0
 288 0048 0D4B     		ldr	r3, .L22+32
 289 004a EB61     		str	r3, [r5, #28]
 290              		.loc 1 246 0
 291 004c 0D4B     		ldr	r3, .L22+36
 292 004e AB62     		str	r3, [r5, #40]
 293              		.loc 1 252 0
 294 0050 03F17E43 		add	r3, r3, #-33554432
 295              		.loc 1 245 0
 296 0054 0C34     		adds	r4, r4, #12
 297              		.loc 1 252 0
 298 0056 3033     		adds	r3, r3, #48
 299              		.loc 1 244 0
 300 0058 2E62     		str	r6, [r5, #32]
 301              		.loc 1 245 0
 302 005a 6C62     		str	r4, [r5, #36]
 303              		.loc 1 252 0
 304 005c EB62     		str	r3, [r5, #44]
 305 005e 70BD     		pop	{r4, r5, r6, pc}
 306              	.L23:
 307              		.align	2
 308              	.L22:
 309 0060 00000000 		.word	.LANCHOR0
 310 0064 60000000 		.word	_stm32_dma_streams+96
 311 0068 00300140 		.word	1073819648
 312 006c 16000106 		.word	100728854
 313 0070 00000000 		.word	.LANCHOR1
 314 0074 00380040 		.word	1073756160
 315 0078 16000100 		.word	65558
 316 007c 00000000 		.word	.LANCHOR2
 317 0080 00340140 		.word	1073820672
 318 0084 1600010A 		.word	167837718
 319              		.cfi_endproc
 320              	.LFE279:
 321              		.size	spi_lld_init, .-spi_lld_init
 322              		.section	.text.spi_lld_start,"ax",%progbits
 323              		.align	1
 324              		.global	spi_lld_start
 325              		.syntax unified
 326              		.thumb
 327              		.thumb_func
 328              		.fpu fpv4-sp-d16
 329              		.type	spi_lld_start, %function
 330              	spi_lld_start:
 331              	.LFB280:
 332              		.loc 1 303 0
 333              		.cfi_startproc
 334              		@ args = 0, pretend = 0, frame = 0
 335              		@ frame_needed = 0, uses_anonymous_args = 0
 336              	.LVL20:
 337              		.loc 1 306 0
 338 0000 0378     		ldrb	r3, [r0]	@ zero_extendqisi2
 339 0002 012B     		cmp	r3, #1
 340              		.loc 1 303 0
 341 0004 10B5     		push	{r4, lr}
 342              		.cfi_def_cfa_offset 8
ARM GAS  C:\cygwin64\tmp\ccYeH3hT.s 			page 7


 343              		.cfi_offset 4, -8
 344              		.cfi_offset 14, -4
 345              		.loc 1 303 0
 346 0006 0446     		mov	r4, r0
 347              		.loc 1 306 0
 348 0008 30D1     		bne	.L25
 349              		.loc 1 308 0
 350 000a 364B     		ldr	r3, .L33
 351 000c 9842     		cmp	r0, r3
 352 000e 11D1     		bne	.L26
 353              	.LBB74:
 354              		.loc 1 310 0
 355 0010 0346     		mov	r3, r0
 356 0012 354A     		ldr	r2, .L33+4
 357 0014 006A     		ldr	r0, [r0, #32]
 358              	.LVL21:
 359 0016 0A21     		movs	r1, #10
 360 0018 FFF7FEFF 		bl	dmaStreamAllocate
 361              	.LVL22:
 362              		.loc 1 315 0
 363 001c 2346     		mov	r3, r4
 364 001e 334A     		ldr	r2, .L33+8
 365 0020 606A     		ldr	r0, [r4, #36]
 366 0022 0A21     		movs	r1, #10
 367 0024 FFF7FEFF 		bl	dmaStreamAllocate
 368              	.LVL23:
 369              		.loc 1 320 0
 370 0028 314A     		ldr	r2, .L33+12
 371 002a 536C     		ldr	r3, [r2, #68]
 372 002c 43F48053 		orr	r3, r3, #4096
 373              	.L31:
 374              	.LBE74:
 375              	.LBB75:
 376              		.loc 1 368 0
 377 0030 5364     		str	r3, [r2, #68]
 378 0032 13E0     		b	.L27
 379              	.LVL24:
 380              	.L26:
 381              	.LBE75:
 382              		.loc 1 324 0
 383 0034 2F4B     		ldr	r3, .L33+16
 384 0036 9842     		cmp	r0, r3
 385 0038 3FD1     		bne	.L28
 386              	.LBB76:
 387              		.loc 1 326 0
 388 003a 0346     		mov	r3, r0
 389 003c 2A4A     		ldr	r2, .L33+4
 390 003e 006A     		ldr	r0, [r0, #32]
 391              	.LVL25:
 392 0040 0A21     		movs	r1, #10
 393 0042 FFF7FEFF 		bl	dmaStreamAllocate
 394              	.LVL26:
 395              		.loc 1 331 0
 396 0046 2346     		mov	r3, r4
 397 0048 284A     		ldr	r2, .L33+8
 398 004a 606A     		ldr	r0, [r4, #36]
 399 004c 0A21     		movs	r1, #10
ARM GAS  C:\cygwin64\tmp\ccYeH3hT.s 			page 8


 400 004e FFF7FEFF 		bl	dmaStreamAllocate
 401              	.LVL27:
 402              		.loc 1 336 0
 403 0052 274A     		ldr	r2, .L33+12
 404 0054 136C     		ldr	r3, [r2, #64]
 405 0056 43F48043 		orr	r3, r3, #16384
 406 005a 1364     		str	r3, [r2, #64]
 407              	.L27:
 408              	.LBE76:
 409              		.loc 1 405 0
 410 005c 236A     		ldr	r3, [r4, #32]
 411 005e 1A68     		ldr	r2, [r3]
 412 0060 E369     		ldr	r3, [r4, #28]
 413 0062 0C33     		adds	r3, r3, #12
 414 0064 9360     		str	r3, [r2, #8]
 415              		.loc 1 406 0
 416 0066 626A     		ldr	r2, [r4, #36]
 417 0068 1268     		ldr	r2, [r2]
 418 006a 9360     		str	r3, [r2, #8]
 419              	.L25:
 420              		.loc 1 410 0
 421 006c 6068     		ldr	r0, [r4, #4]
 422 006e E36A     		ldr	r3, [r4, #44]
 423 0070 4189     		ldrh	r1, [r0, #10]
 424 0072 A26A     		ldr	r2, [r4, #40]
 425 0074 11F4006F 		tst	r1, #2048
 426              		.loc 1 421 0
 427 0078 18BF     		it	ne
 428 007a 23F4F043 		bicne	r3, r3, #30720
 429              		.loc 1 413 0
 430 007e 22F4F042 		bic	r2, r2, #30720
 431              		.loc 1 415 0
 432 0082 0CBF     		ite	eq
 433 0084 23F4F043 		biceq	r3, r3, #30720
 434              		.loc 1 422 0
 435 0088 43F42053 		orrne	r3, r3, #10240
 436              		.loc 1 421 0
 437 008c E362     		str	r3, [r4, #44]
 438              		.loc 1 420 0
 439 008e 18BF     		it	ne
 440 0090 42F42052 		orrne	r2, r2, #10240
 441              		.loc 1 425 0
 442 0094 E369     		ldr	r3, [r4, #28]
 443              		.loc 1 412 0
 444 0096 0CBF     		ite	eq
 445 0098 A262     		streq	r2, [r4, #40]
 446              		.loc 1 419 0
 447 009a A262     		strne	r2, [r4, #40]
 448              		.loc 1 425 0
 449 009c 0022     		movs	r2, #0
 450 009e 1A60     		str	r2, [r3]
 451              		.loc 1 428 0
 452 00a0 8289     		ldrh	r2, [r0, #12]
 453 00a2 42F00702 		orr	r2, r2, #7
 454 00a6 92B2     		uxth	r2, r2
 455              		.loc 1 426 0
 456 00a8 41F44171 		orr	r1, r1, #772
ARM GAS  C:\cygwin64\tmp\ccYeH3hT.s 			page 9


 457 00ac 1960     		str	r1, [r3]
 458              		.loc 1 428 0
 459 00ae 5A60     		str	r2, [r3, #4]
 460              		.loc 1 430 0
 461 00b0 1A68     		ldr	r2, [r3]
 462 00b2 42F04002 		orr	r2, r2, #64
 463 00b6 1A60     		str	r2, [r3]
 464 00b8 10BD     		pop	{r4, pc}
 465              	.LVL28:
 466              	.L28:
 467              		.loc 1 356 0
 468 00ba 0F4B     		ldr	r3, .L33+20
 469 00bc 9842     		cmp	r0, r3
 470 00be CDD1     		bne	.L27
 471              	.LBB77:
 472              		.loc 1 358 0
 473 00c0 0346     		mov	r3, r0
 474 00c2 094A     		ldr	r2, .L33+4
 475 00c4 006A     		ldr	r0, [r0, #32]
 476              	.LVL29:
 477 00c6 0A21     		movs	r1, #10
 478 00c8 FFF7FEFF 		bl	dmaStreamAllocate
 479              	.LVL30:
 480              		.loc 1 363 0
 481 00cc 2346     		mov	r3, r4
 482 00ce 074A     		ldr	r2, .L33+8
 483 00d0 606A     		ldr	r0, [r4, #36]
 484 00d2 0A21     		movs	r1, #10
 485 00d4 FFF7FEFF 		bl	dmaStreamAllocate
 486              	.LVL31:
 487              		.loc 1 368 0
 488 00d8 054A     		ldr	r2, .L33+12
 489 00da 536C     		ldr	r3, [r2, #68]
 490 00dc 43F40053 		orr	r3, r3, #8192
 491 00e0 A6E7     		b	.L31
 492              	.L34:
 493 00e2 00BF     		.align	2
 494              	.L33:
 495 00e4 00000000 		.word	.LANCHOR0
 496 00e8 00000000 		.word	spi_lld_serve_rx_interrupt
 497 00ec 00000000 		.word	spi_lld_serve_tx_interrupt
 498 00f0 00380240 		.word	1073887232
 499 00f4 00000000 		.word	.LANCHOR1
 500 00f8 00000000 		.word	.LANCHOR2
 501              	.LBE77:
 502              		.cfi_endproc
 503              	.LFE280:
 504              		.size	spi_lld_start, .-spi_lld_start
 505              		.section	.text.spi_lld_stop,"ax",%progbits
 506              		.align	1
 507              		.global	spi_lld_stop
 508              		.syntax unified
 509              		.thumb
 510              		.thumb_func
 511              		.fpu fpv4-sp-d16
 512              		.type	spi_lld_stop, %function
 513              	spi_lld_stop:
ARM GAS  C:\cygwin64\tmp\ccYeH3hT.s 			page 10


 514              	.LFB281:
 515              		.loc 1 440 0
 516              		.cfi_startproc
 517              		@ args = 0, pretend = 0, frame = 0
 518              		@ frame_needed = 0, uses_anonymous_args = 0
 519              	.LVL32:
 520              		.loc 1 443 0
 521 0000 0378     		ldrb	r3, [r0]	@ zero_extendqisi2
 522 0002 022B     		cmp	r3, #2
 523              		.loc 1 440 0
 524 0004 10B5     		push	{r4, lr}
 525              		.cfi_def_cfa_offset 8
 526              		.cfi_offset 4, -8
 527              		.cfi_offset 14, -4
 528              		.loc 1 440 0
 529 0006 0446     		mov	r4, r0
 530              		.loc 1 443 0
 531 0008 11D1     		bne	.L35
 532              		.loc 1 446 0
 533 000a C369     		ldr	r3, [r0, #28]
 534              		.loc 1 448 0
 535 000c 006A     		ldr	r0, [r0, #32]
 536              	.LVL33:
 537              		.loc 1 446 0
 538 000e 0022     		movs	r2, #0
 539 0010 1A60     		str	r2, [r3]
 540              		.loc 1 447 0
 541 0012 5A60     		str	r2, [r3, #4]
 542              		.loc 1 448 0
 543 0014 FFF7FEFF 		bl	dmaStreamRelease
 544              	.LVL34:
 545              		.loc 1 449 0
 546 0018 606A     		ldr	r0, [r4, #36]
 547 001a FFF7FEFF 		bl	dmaStreamRelease
 548              	.LVL35:
 549              		.loc 1 452 0
 550 001e 0D4B     		ldr	r3, .L42
 551 0020 9C42     		cmp	r4, r3
 552 0022 05D1     		bne	.L38
 553              		.loc 1 453 0
 554 0024 0C4A     		ldr	r2, .L42+4
 555 0026 536C     		ldr	r3, [r2, #68]
 556 0028 23F48053 		bic	r3, r3, #4096
 557              	.L41:
 558              		.loc 1 465 0
 559 002c 5364     		str	r3, [r2, #68]
 560              	.L35:
 561 002e 10BD     		pop	{r4, pc}
 562              	.LVL36:
 563              	.L38:
 564              		.loc 1 456 0
 565 0030 0A4B     		ldr	r3, .L42+8
 566 0032 9C42     		cmp	r4, r3
 567 0034 05D1     		bne	.L39
 568              		.loc 1 457 0
 569 0036 084A     		ldr	r2, .L42+4
 570 0038 136C     		ldr	r3, [r2, #64]
ARM GAS  C:\cygwin64\tmp\ccYeH3hT.s 			page 11


 571 003a 23F48043 		bic	r3, r3, #16384
 572 003e 1364     		str	r3, [r2, #64]
 573 0040 10BD     		pop	{r4, pc}
 574              	.LVL37:
 575              	.L39:
 576              		.loc 1 464 0
 577 0042 074B     		ldr	r3, .L42+12
 578 0044 9C42     		cmp	r4, r3
 579 0046 F2D1     		bne	.L35
 580              		.loc 1 465 0
 581 0048 034A     		ldr	r2, .L42+4
 582 004a 536C     		ldr	r3, [r2, #68]
 583 004c 23F40053 		bic	r3, r3, #8192
 584 0050 ECE7     		b	.L41
 585              	.L43:
 586 0052 00BF     		.align	2
 587              	.L42:
 588 0054 00000000 		.word	.LANCHOR0
 589 0058 00380240 		.word	1073887232
 590 005c 00000000 		.word	.LANCHOR1
 591 0060 00000000 		.word	.LANCHOR2
 592              		.cfi_endproc
 593              	.LFE281:
 594              		.size	spi_lld_stop, .-spi_lld_stop
 595              		.section	.text.spi_lld_select,"ax",%progbits
 596              		.align	1
 597              		.global	spi_lld_select
 598              		.syntax unified
 599              		.thumb
 600              		.thumb_func
 601              		.fpu fpv4-sp-d16
 602              		.type	spi_lld_select, %function
 603              	spi_lld_select:
 604              	.LFB282:
 605              		.loc 1 485 0
 606              		.cfi_startproc
 607              		@ args = 0, pretend = 0, frame = 0
 608              		@ frame_needed = 0, uses_anonymous_args = 0
 609              		@ link register save eliminated.
 610              	.LVL38:
 611              		.loc 1 487 0
 612 0000 4368     		ldr	r3, [r0, #4]
 613 0002 1989     		ldrh	r1, [r3, #8]
 614 0004 5A68     		ldr	r2, [r3, #4]
 615 0006 0123     		movs	r3, #1
 616 0008 8B40     		lsls	r3, r3, r1
 617 000a 9BB2     		uxth	r3, r3
 618 000c 5383     		strh	r3, [r2, #26]	@ movhi
 619 000e 7047     		bx	lr
 620              		.cfi_endproc
 621              	.LFE282:
 622              		.size	spi_lld_select, .-spi_lld_select
 623              		.section	.text.spi_lld_unselect,"ax",%progbits
 624              		.align	1
 625              		.global	spi_lld_unselect
 626              		.syntax unified
 627              		.thumb
ARM GAS  C:\cygwin64\tmp\ccYeH3hT.s 			page 12


 628              		.thumb_func
 629              		.fpu fpv4-sp-d16
 630              		.type	spi_lld_unselect, %function
 631              	spi_lld_unselect:
 632              	.LFB283:
 633              		.loc 1 498 0
 634              		.cfi_startproc
 635              		@ args = 0, pretend = 0, frame = 0
 636              		@ frame_needed = 0, uses_anonymous_args = 0
 637              		@ link register save eliminated.
 638              	.LVL39:
 639              		.loc 1 500 0
 640 0000 4368     		ldr	r3, [r0, #4]
 641 0002 1989     		ldrh	r1, [r3, #8]
 642 0004 5A68     		ldr	r2, [r3, #4]
 643 0006 0123     		movs	r3, #1
 644 0008 8B40     		lsls	r3, r3, r1
 645 000a 9BB2     		uxth	r3, r3
 646 000c 1383     		strh	r3, [r2, #24]	@ movhi
 647 000e 7047     		bx	lr
 648              		.cfi_endproc
 649              	.LFE283:
 650              		.size	spi_lld_unselect, .-spi_lld_unselect
 651              		.section	.text.spi_lld_ignore,"ax",%progbits
 652              		.align	1
 653              		.global	spi_lld_ignore
 654              		.syntax unified
 655              		.thumb
 656              		.thumb_func
 657              		.fpu fpv4-sp-d16
 658              		.type	spi_lld_ignore, %function
 659              	spi_lld_ignore:
 660              	.LFB284:
 661              		.loc 1 514 0
 662              		.cfi_startproc
 663              		@ args = 0, pretend = 0, frame = 0
 664              		@ frame_needed = 0, uses_anonymous_args = 0
 665              	.LVL40:
 666              		.loc 1 518 0
 667 0000 036A     		ldr	r3, [r0, #32]
 668 0002 1A68     		ldr	r2, [r3]
 669 0004 0A4B     		ldr	r3, .L47
 670              		.loc 1 514 0
 671 0006 10B5     		push	{r4, lr}
 672              		.cfi_def_cfa_offset 8
 673              		.cfi_offset 4, -8
 674              		.cfi_offset 14, -4
 675              		.loc 1 518 0
 676 0008 D360     		str	r3, [r2, #12]
 677              		.loc 1 520 0
 678 000a 836A     		ldr	r3, [r0, #40]
 679              		.loc 1 519 0
 680 000c 5160     		str	r1, [r2, #4]
 681              		.loc 1 520 0
 682 000e 1360     		str	r3, [r2]
 683              		.loc 1 522 0
 684 0010 436A     		ldr	r3, [r0, #36]
ARM GAS  C:\cygwin64\tmp\ccYeH3hT.s 			page 13


 685 0012 084C     		ldr	r4, .L47+4
 686 0014 1B68     		ldr	r3, [r3]
 687 0016 DC60     		str	r4, [r3, #12]
 688              		.loc 1 523 0
 689 0018 5960     		str	r1, [r3, #4]
 690              		.loc 1 524 0
 691 001a C16A     		ldr	r1, [r0, #44]
 692              	.LVL41:
 693 001c 1960     		str	r1, [r3]
 694              	.LVL42:
 695              		.loc 1 526 0
 696 001e 1168     		ldr	r1, [r2]
 697 0020 41F00101 		orr	r1, r1, #1
 698 0024 1160     		str	r1, [r2]
 699              		.loc 1 527 0
 700 0026 1A68     		ldr	r2, [r3]
 701 0028 42F00102 		orr	r2, r2, #1
 702 002c 1A60     		str	r2, [r3]
 703 002e 10BD     		pop	{r4, pc}
 704              	.L48:
 705              		.align	2
 706              	.L47:
 707 0030 00000000 		.word	.LANCHOR3
 708 0034 00000000 		.word	.LANCHOR4
 709              		.cfi_endproc
 710              	.LFE284:
 711              		.size	spi_lld_ignore, .-spi_lld_ignore
 712              		.section	.text.spi_lld_exchange,"ax",%progbits
 713              		.align	1
 714              		.global	spi_lld_exchange
 715              		.syntax unified
 716              		.thumb
 717              		.thumb_func
 718              		.fpu fpv4-sp-d16
 719              		.type	spi_lld_exchange, %function
 720              	spi_lld_exchange:
 721              	.LFB285:
 722              		.loc 1 546 0
 723              		.cfi_startproc
 724              		@ args = 0, pretend = 0, frame = 0
 725              		@ frame_needed = 0, uses_anonymous_args = 0
 726              	.LVL43:
 727 0000 10B5     		push	{r4, lr}
 728              		.cfi_def_cfa_offset 8
 729              		.cfi_offset 4, -8
 730              		.cfi_offset 14, -4
 731              		.loc 1 550 0
 732 0002 046A     		ldr	r4, [r0, #32]
 733 0004 2468     		ldr	r4, [r4]
 734 0006 E360     		str	r3, [r4, #12]
 735              		.loc 1 552 0
 736 0008 836A     		ldr	r3, [r0, #40]
 737              	.LVL44:
 738              		.loc 1 551 0
 739 000a 6160     		str	r1, [r4, #4]
 740              	.LVL45:
 741              		.loc 1 552 0
ARM GAS  C:\cygwin64\tmp\ccYeH3hT.s 			page 14


 742 000c 43F48063 		orr	r3, r3, #1024
 743 0010 2360     		str	r3, [r4]
 744              		.loc 1 554 0
 745 0012 436A     		ldr	r3, [r0, #36]
 746 0014 1B68     		ldr	r3, [r3]
 747 0016 DA60     		str	r2, [r3, #12]
 748              		.loc 1 556 0
 749 0018 C26A     		ldr	r2, [r0, #44]
 750              	.LVL46:
 751              		.loc 1 555 0
 752 001a 5960     		str	r1, [r3, #4]
 753              	.LVL47:
 754              		.loc 1 556 0
 755 001c 42F48062 		orr	r2, r2, #1024
 756 0020 1A60     		str	r2, [r3]
 757              		.loc 1 558 0
 758 0022 2268     		ldr	r2, [r4]
 759 0024 42F00102 		orr	r2, r2, #1
 760 0028 2260     		str	r2, [r4]
 761              		.loc 1 559 0
 762 002a 1A68     		ldr	r2, [r3]
 763 002c 42F00102 		orr	r2, r2, #1
 764 0030 1A60     		str	r2, [r3]
 765 0032 10BD     		pop	{r4, pc}
 766              		.cfi_endproc
 767              	.LFE285:
 768              		.size	spi_lld_exchange, .-spi_lld_exchange
 769              		.section	.text.spi_lld_send,"ax",%progbits
 770              		.align	1
 771              		.global	spi_lld_send
 772              		.syntax unified
 773              		.thumb
 774              		.thumb_func
 775              		.fpu fpv4-sp-d16
 776              		.type	spi_lld_send, %function
 777              	spi_lld_send:
 778              	.LFB286:
 779              		.loc 1 575 0
 780              		.cfi_startproc
 781              		@ args = 0, pretend = 0, frame = 0
 782              		@ frame_needed = 0, uses_anonymous_args = 0
 783              	.LVL48:
 784              		.loc 1 579 0
 785 0000 036A     		ldr	r3, [r0, #32]
 786              		.loc 1 575 0
 787 0002 10B5     		push	{r4, lr}
 788              		.cfi_def_cfa_offset 8
 789              		.cfi_offset 4, -8
 790              		.cfi_offset 14, -4
 791              		.loc 1 579 0
 792 0004 1C68     		ldr	r4, [r3]
 793 0006 0B4B     		ldr	r3, .L51
 794 0008 E360     		str	r3, [r4, #12]
 795              		.loc 1 581 0
 796 000a 836A     		ldr	r3, [r0, #40]
 797              		.loc 1 580 0
 798 000c 6160     		str	r1, [r4, #4]
ARM GAS  C:\cygwin64\tmp\ccYeH3hT.s 			page 15


 799              		.loc 1 581 0
 800 000e 2360     		str	r3, [r4]
 801              		.loc 1 583 0
 802 0010 436A     		ldr	r3, [r0, #36]
 803 0012 1B68     		ldr	r3, [r3]
 804 0014 DA60     		str	r2, [r3, #12]
 805              		.loc 1 585 0
 806 0016 C26A     		ldr	r2, [r0, #44]
 807              	.LVL49:
 808              		.loc 1 584 0
 809 0018 5960     		str	r1, [r3, #4]
 810              	.LVL50:
 811              		.loc 1 585 0
 812 001a 42F48062 		orr	r2, r2, #1024
 813 001e 1A60     		str	r2, [r3]
 814              		.loc 1 587 0
 815 0020 2268     		ldr	r2, [r4]
 816 0022 42F00102 		orr	r2, r2, #1
 817 0026 2260     		str	r2, [r4]
 818              		.loc 1 588 0
 819 0028 1A68     		ldr	r2, [r3]
 820 002a 42F00102 		orr	r2, r2, #1
 821 002e 1A60     		str	r2, [r3]
 822 0030 10BD     		pop	{r4, pc}
 823              	.L52:
 824 0032 00BF     		.align	2
 825              	.L51:
 826 0034 00000000 		.word	.LANCHOR3
 827              		.cfi_endproc
 828              	.LFE286:
 829              		.size	spi_lld_send, .-spi_lld_send
 830              		.section	.text.spi_lld_receive,"ax",%progbits
 831              		.align	1
 832              		.global	spi_lld_receive
 833              		.syntax unified
 834              		.thumb
 835              		.thumb_func
 836              		.fpu fpv4-sp-d16
 837              		.type	spi_lld_receive, %function
 838              	spi_lld_receive:
 839              	.LFB287:
 840              		.loc 1 604 0
 841              		.cfi_startproc
 842              		@ args = 0, pretend = 0, frame = 0
 843              		@ frame_needed = 0, uses_anonymous_args = 0
 844              	.LVL51:
 845              		.loc 1 608 0
 846 0000 036A     		ldr	r3, [r0, #32]
 847              		.loc 1 604 0
 848 0002 10B5     		push	{r4, lr}
 849              		.cfi_def_cfa_offset 8
 850              		.cfi_offset 4, -8
 851              		.cfi_offset 14, -4
 852              		.loc 1 608 0
 853 0004 1C68     		ldr	r4, [r3]
 854              		.loc 1 610 0
 855 0006 836A     		ldr	r3, [r0, #40]
ARM GAS  C:\cygwin64\tmp\ccYeH3hT.s 			page 16


 856              		.loc 1 608 0
 857 0008 E260     		str	r2, [r4, #12]
 858              		.loc 1 610 0
 859 000a 43F48063 		orr	r3, r3, #1024
 860              		.loc 1 609 0
 861 000e 6160     		str	r1, [r4, #4]
 862              		.loc 1 610 0
 863 0010 2360     		str	r3, [r4]
 864              		.loc 1 612 0
 865 0012 436A     		ldr	r3, [r0, #36]
 866 0014 074A     		ldr	r2, .L54
 867              	.LVL52:
 868 0016 1B68     		ldr	r3, [r3]
 869 0018 DA60     		str	r2, [r3, #12]
 870              		.loc 1 614 0
 871 001a C26A     		ldr	r2, [r0, #44]
 872              		.loc 1 613 0
 873 001c 5960     		str	r1, [r3, #4]
 874              		.loc 1 614 0
 875 001e 1A60     		str	r2, [r3]
 876              		.loc 1 616 0
 877 0020 2268     		ldr	r2, [r4]
 878 0022 42F00102 		orr	r2, r2, #1
 879 0026 2260     		str	r2, [r4]
 880              		.loc 1 617 0
 881 0028 1A68     		ldr	r2, [r3]
 882 002a 42F00102 		orr	r2, r2, #1
 883 002e 1A60     		str	r2, [r3]
 884 0030 10BD     		pop	{r4, pc}
 885              	.L55:
 886 0032 00BF     		.align	2
 887              	.L54:
 888 0034 00000000 		.word	.LANCHOR4
 889              		.cfi_endproc
 890              	.LFE287:
 891              		.size	spi_lld_receive, .-spi_lld_receive
 892              		.section	.text.spi_lld_polled_exchange,"ax",%progbits
 893              		.align	1
 894              		.global	spi_lld_polled_exchange
 895              		.syntax unified
 896              		.thumb
 897              		.thumb_func
 898              		.fpu fpv4-sp-d16
 899              		.type	spi_lld_polled_exchange, %function
 900              	spi_lld_polled_exchange:
 901              	.LFB288:
 902              		.loc 1 632 0
 903              		.cfi_startproc
 904              		@ args = 0, pretend = 0, frame = 0
 905              		@ frame_needed = 0, uses_anonymous_args = 0
 906              		@ link register save eliminated.
 907              	.LVL53:
 908              		.loc 1 634 0
 909 0000 C369     		ldr	r3, [r0, #28]
 910 0002 D960     		str	r1, [r3, #12]
 911              	.L57:
 912              		.loc 1 635 0 discriminator 1
ARM GAS  C:\cygwin64\tmp\ccYeH3hT.s 			page 17


 913 0004 9A68     		ldr	r2, [r3, #8]
 914 0006 D207     		lsls	r2, r2, #31
 915 0008 FCD5     		bpl	.L57
 916              		.loc 1 637 0
 917 000a D868     		ldr	r0, [r3, #12]
 918              	.LVL54:
 919              		.loc 1 638 0
 920 000c 80B2     		uxth	r0, r0
 921 000e 7047     		bx	lr
 922              		.cfi_endproc
 923              	.LFE288:
 924              		.size	spi_lld_polled_exchange, .-spi_lld_polled_exchange
 925              		.global	SPID4
 926              		.global	SPID2
 927              		.global	SPID1
 928              		.section	.bss.SPID1,"aw",%nobits
 929              		.align	2
 930              		.set	.LANCHOR0,. + 0
 931              		.type	SPID1, %object
 932              		.size	SPID1, 48
 933              	SPID1:
 934 0000 00000000 		.space	48
 934      00000000 
 934      00000000 
 934      00000000 
 934      00000000 
 935              		.section	.bss.SPID2,"aw",%nobits
 936              		.align	2
 937              		.set	.LANCHOR1,. + 0
 938              		.type	SPID2, %object
 939              		.size	SPID2, 48
 940              	SPID2:
 941 0000 00000000 		.space	48
 941      00000000 
 941      00000000 
 941      00000000 
 941      00000000 
 942              		.section	.bss.SPID4,"aw",%nobits
 943              		.align	2
 944              		.set	.LANCHOR2,. + 0
 945              		.type	SPID4, %object
 946              		.size	SPID4, 48
 947              	SPID4:
 948 0000 00000000 		.space	48
 948      00000000 
 948      00000000 
 948      00000000 
 948      00000000 
 949              		.section	.bss.dummyrx,"aw",%nobits
 950              		.align	1
 951              		.set	.LANCHOR3,. + 0
 952              		.type	dummyrx, %object
 953              		.size	dummyrx, 2
 954              	dummyrx:
 955 0000 0000     		.space	2
 956              		.section	.rodata.dummytx,"a",%progbits
 957              		.align	1
ARM GAS  C:\cygwin64\tmp\ccYeH3hT.s 			page 18


 958              		.set	.LANCHOR4,. + 0
 959              		.type	dummytx, %object
 960              		.size	dummytx, 2
 961              	dummytx:
 962 0000 FFFF     		.short	-1
 963              		.section	.rodata.spi_lld_serve_tx_interrupt.str1.1,"aMS",%progbits,1
 964              	.LC0:
 965 0000 444D4120 		.ascii	"DMA failure\000"
 965      6661696C 
 965      75726500 
 966              		.text
 967              	.Letext0:
 968              		.file 5 "c:\\program files (x86)\\gnu tools arm embedded\\6 2017-q2-update\\lib\\gcc\\arm-none-eab
 969              		.file 6 "c:\\program files (x86)\\gnu tools arm embedded\\6 2017-q2-update\\arm-none-eabi\\include
 970              		.file 7 "c:\\program files (x86)\\gnu tools arm embedded\\6 2017-q2-update\\arm-none-eabi\\include
 971              		.file 8 "../../modules/ChibiOS/os/common/ports/ARMCMx/compilers/GCC/chtypes.h"
 972              		.file 9 "../../modules/ChibiOS/os/rt/include/chsystypes.h"
 973              		.file 10 "../../modules/ChibiOS/os/rt/include/chschd.h"
 974              		.file 11 "../../modules/ChibiOS/os/common/ext/CMSIS/include/core_cm4.h"
 975              		.file 12 "../../modules/ChibiOS/os/common/ext/CMSIS/ST/STM32F4xx/system_stm32f4xx.h"
 976              		.file 13 "../../modules/ChibiOS/os/common/ext/CMSIS/ST/STM32F4xx/stm32f427xx.h"
 977              		.file 14 "../../modules/ChibiOS/os/common/ports/ARMCMx/chcore.h"
 978              		.file 15 "../../modules/ChibiOS/os/common/ports/ARMCMx/chcore_v7m.h"
 979              		.file 16 "../../modules/ChibiOS/os/hal/ports/STM32/LLD/TIMv1/stm32_tim.h"
 980              		.file 17 "../../modules/ChibiOS/os/rt/include/chtm.h"
 981              		.file 18 "../../modules/ChibiOS/os/rt/include/chstats.h"
 982              		.file 19 "../../modules/ChibiOS/os/rt/include/chsem.h"
 983              		.file 20 "../../modules/ChibiOS/os/rt/include/chmtx.h"
 984              		.file 21 "../../modules/ChibiOS/os/rt/include/chregistry.h"
 985              		.file 22 "../../modules/ChibiOS/os/rt/include/chevents.h"
 986              		.file 23 "../../modules/ChibiOS/os/hal/ports/STM32/LLD/DMAv2/stm32_dma.h"
 987              		.file 24 "../../modules/ChibiOS/os/hal/include/hal_ioblock.h"
 988              		.file 25 "../../modules/ChibiOS/os/hal/include/hal_queues.h"
 989              		.file 26 "../../modules/ChibiOS/os/hal/ports/STM32/LLD/GPIOv2/hal_pal_lld.h"
 990              		.file 27 "../../modules/ChibiOS/os/hal/include/hal_adc.h"
 991              		.file 28 "../../modules/ChibiOS/os/hal/ports/STM32/LLD/ADCv2/hal_adc_lld.h"
 992              		.file 29 "../../modules/ChibiOS/os/hal/include/hal_ext.h"
 993              		.file 30 "../../modules/ChibiOS/os/hal/ports/STM32/LLD/EXTIv1/hal_ext_lld.h"
 994              		.file 31 "../../modules/ChibiOS/os/hal/include/hal_i2c.h"
 995              		.file 32 "../../modules/ChibiOS/os/hal/ports/STM32/LLD/I2Cv1/hal_i2c_lld.h"
 996              		.file 33 "../../modules/ChibiOS/os/hal/include/hal_pwm.h"
 997              		.file 34 "../../modules/ChibiOS/os/hal/ports/STM32/LLD/TIMv1/hal_pwm_lld.h"
 998              		.file 35 "../../modules/ChibiOS/os/hal/include/hal_serial.h"
 999              		.file 36 "../../modules/ChibiOS/os/hal/ports/STM32/LLD/USARTv1/hal_serial_lld.h"
 1000              		.file 37 "../../modules/ChibiOS/os/hal/include/hal_sdc.h"
 1001              		.file 38 "../../modules/ChibiOS/os/hal/ports/STM32/LLD/SDIOv1/hal_sdc_lld.h"
 1002              		.file 39 "../../modules/ChibiOS/os/hal/include/hal_spi.h"
 1003              		.file 40 "../../modules/ChibiOS/os/hal/ports/STM32/LLD/SPIv1/hal_spi_lld.h"
 1004              		.file 41 "../../modules/ChibiOS/os/hal/include/hal_usb.h"
 1005              		.file 42 "../../modules/ChibiOS/os/hal/ports/STM32/LLD/OTGv1/hal_usb_lld.h"
 1006              		.file 43 "../../modules/ChibiOS/os/hal/ports/STM32/LLD/OTGv1/stm32_otg.h"
 1007              		.file 44 "../../modules/ChibiOS/os/rt/include/chthreads.h"