ARM GAS  C:\cygwin64\tmp\ccAStf0n.s 			page 1


   1              		.cpu cortex-m4
   2              		.eabi_attribute 27, 1
   3              		.eabi_attribute 28, 1
   4              		.eabi_attribute 20, 1
   5              		.eabi_attribute 21, 1
   6              		.eabi_attribute 23, 3
   7              		.eabi_attribute 24, 1
   8              		.eabi_attribute 25, 1
   9              		.eabi_attribute 26, 1
  10              		.eabi_attribute 30, 4
  11              		.eabi_attribute 34, 1
  12              		.eabi_attribute 18, 4
  13              		.file	"hal_ext_lld.c"
  14              		.text
  15              	.Ltext0:
  16              		.cfi_sections	.debug_frame
  17              		.section	.text.ext_lld_init,"ax",%progbits
  18              		.align	1
  19              		.global	ext_lld_init
  20              		.syntax unified
  21              		.thumb
  22              		.thumb_func
  23              		.fpu fpv4-sp-d16
  24              		.type	ext_lld_init, %function
  25              	ext_lld_init:
  26              	.LFB277:
  27              		.file 1 "../../modules/ChibiOS/os/hal/ports/STM32/LLD/EXTIv1/hal_ext_lld.c"
  28              		.loc 1 72 0
  29              		.cfi_startproc
  30              		@ args = 0, pretend = 0, frame = 0
  31              		@ frame_needed = 0, uses_anonymous_args = 0
  32              		@ link register save eliminated.
  33              		.loc 1 75 0
  34 0000 0148     		ldr	r0, .L2
  35 0002 FFF7FEBF 		b	extObjectInit
  36              	.LVL0:
  37              	.L3:
  38 0006 00BF     		.align	2
  39              	.L2:
  40 0008 00000000 		.word	.LANCHOR0
  41              		.cfi_endproc
  42              	.LFE277:
  43              		.size	ext_lld_init, .-ext_lld_init
  44              		.section	.text.ext_lld_stop,"ax",%progbits
  45              		.align	1
  46              		.global	ext_lld_stop
  47              		.syntax unified
  48              		.thumb
  49              		.thumb_func
  50              		.fpu fpv4-sp-d16
  51              		.type	ext_lld_stop, %function
  52              	ext_lld_stop:
  53              	.LFB279:
  54              		.loc 1 106 0
  55              		.cfi_startproc
  56              		@ args = 0, pretend = 0, frame = 0
  57              		@ frame_needed = 0, uses_anonymous_args = 0
ARM GAS  C:\cygwin64\tmp\ccAStf0n.s 			page 2


  58              	.LVL1:
  59 0000 08B5     		push	{r3, lr}
  60              		.cfi_def_cfa_offset 8
  61              		.cfi_offset 3, -8
  62              		.cfi_offset 14, -4
  63              		.loc 1 108 0
  64 0002 0378     		ldrb	r3, [r0]	@ zero_extendqisi2
  65 0004 022B     		cmp	r3, #2
  66 0006 01D1     		bne	.L5
  67              		.loc 1 109 0
  68 0008 FFF7FEFF 		bl	ext_lld_exti_irq_disable
  69              	.LVL2:
  70              	.L5:
  71              		.loc 1 111 0
  72 000c 034B     		ldr	r3, .L6
  73 000e 0022     		movs	r2, #0
  74 0010 5A60     		str	r2, [r3, #4]
  75              		.loc 1 112 0
  76 0012 1A60     		str	r2, [r3]
  77              		.loc 1 113 0
  78 0014 4FF0FF32 		mov	r2, #-1
  79 0018 5A61     		str	r2, [r3, #20]
  80 001a 08BD     		pop	{r3, pc}
  81              	.L7:
  82              		.align	2
  83              	.L6:
  84 001c 003C0140 		.word	1073822720
  85              		.cfi_endproc
  86              	.LFE279:
  87              		.size	ext_lld_stop, .-ext_lld_stop
  88              		.section	.text.ext_lld_channel_enable,"ax",%progbits
  89              		.align	1
  90              		.global	ext_lld_channel_enable
  91              		.syntax unified
  92              		.thumb
  93              		.thumb_func
  94              		.fpu fpv4-sp-d16
  95              		.type	ext_lld_channel_enable, %function
  96              	ext_lld_channel_enable:
  97              	.LFB280:
  98              		.loc 1 128 0
  99              		.cfi_startproc
 100              		@ args = 0, pretend = 0, frame = 0
 101              		@ frame_needed = 0, uses_anonymous_args = 0
 102              	.LVL3:
 103              		.loc 1 129 0
 104 0000 01F01F03 		and	r3, r1, #31
 105 0004 0122     		movs	r2, #1
 106              		.loc 1 132 0
 107 0006 0F29     		cmp	r1, #15
 108              		.loc 1 128 0
 109 0008 F0B5     		push	{r4, r5, r6, r7, lr}
 110              		.cfi_def_cfa_offset 20
 111              		.cfi_offset 4, -20
 112              		.cfi_offset 5, -16
 113              		.cfi_offset 6, -12
 114              		.cfi_offset 7, -8
ARM GAS  C:\cygwin64\tmp\ccAStf0n.s 			page 3


 115              		.cfi_offset 14, -4
 116              		.loc 1 129 0
 117 000a 02FA03F3 		lsl	r3, r2, r3
 118              	.LVL4:
 119 000e 4568     		ldr	r5, [r0, #4]
 120              		.loc 1 132 0
 121 0010 15D8     		bhi	.L9
 122              	.LVL5:
 123 0012 21F00300 		bic	r0, r1, #3
 124              	.LVL6:
 125 0016 00F18040 		add	r0, r0, #1073741824
 126 001a 00F59C30 		add	r0, r0, #79872
 127              	.LBB2:
 128              		.loc 1 136 0
 129 001e 55F83120 		ldr	r2, [r5, r1, lsl #3]
 130              		.loc 1 142 0
 131 0022 8668     		ldr	r6, [r0, #8]
 132              		.loc 1 134 0
 133 0024 01F00304 		and	r4, r1, #3
 134 0028 A400     		lsls	r4, r4, #2
 135              	.LVL7:
 136              		.loc 1 136 0
 137 002a C2F30312 		ubfx	r2, r2, #4, #4
 138              		.loc 1 134 0
 139 002e 0F27     		movs	r7, #15
 140              		.loc 1 135 0
 141 0030 A240     		lsls	r2, r2, r4
 142              		.loc 1 134 0
 143 0032 07FA04F4 		lsl	r4, r7, r4
 144              	.LVL8:
 145              		.loc 1 142 0
 146 0036 26EA0404 		bic	r4, r6, r4
 147 003a 2243     		orrs	r2, r2, r4
 148 003c 8260     		str	r2, [r0, #8]
 149              	.LVL9:
 150              	.L9:
 151 003e 134A     		ldr	r2, .L18
 152 0040 05EBC104 		add	r4, r5, r1, lsl #3
 153              	.LBE2:
 154              		.loc 1 155 0
 155 0044 55F83150 		ldr	r5, [r5, r1, lsl #3]
 156              		.loc 1 156 0
 157 0048 9068     		ldr	r0, [r2, #8]
 158              		.loc 1 155 0
 159 004a 15F0010F 		tst	r5, #1
 160 004e 6FEA0301 		mvn	r1, r3
 161              	.LVL10:
 162              		.loc 1 156 0
 163 0052 14BF     		ite	ne
 164 0054 1843     		orrne	r0, r0, r3
 165              		.loc 1 158 0
 166 0056 0840     		andeq	r0, r0, r1
 167 0058 9060     		str	r0, [r2, #8]
 168 005a 0C4A     		ldr	r2, .L18
 169              		.loc 1 160 0
 170 005c D068     		ldr	r0, [r2, #12]
 171              		.loc 1 159 0
ARM GAS  C:\cygwin64\tmp\ccAStf0n.s 			page 4


 172 005e 15F0020F 		tst	r5, #2
 173              		.loc 1 160 0
 174 0062 14BF     		ite	ne
 175 0064 1843     		orrne	r0, r0, r3
 176              		.loc 1 162 0
 177 0066 0840     		andeq	r0, r0, r1
 178 0068 D060     		str	r0, [r2, #12]
 179              		.loc 1 165 0
 180 006a 6068     		ldr	r0, [r4, #4]
 181 006c 074A     		ldr	r2, .L18
 182 006e 30B1     		cbz	r0, .L14
 183              		.loc 1 166 0
 184 0070 1068     		ldr	r0, [r2]
 185 0072 0343     		orrs	r3, r3, r0
 186              	.LVL11:
 187 0074 1360     		str	r3, [r2]
 188              		.loc 1 167 0
 189 0076 5368     		ldr	r3, [r2, #4]
 190 0078 1940     		ands	r1, r1, r3
 191              	.LVL12:
 192 007a 5160     		str	r1, [r2, #4]
 193 007c F0BD     		pop	{r4, r5, r6, r7, pc}
 194              	.LVL13:
 195              	.L14:
 196              		.loc 1 170 0
 197 007e 5068     		ldr	r0, [r2, #4]
 198 0080 0343     		orrs	r3, r3, r0
 199              	.LVL14:
 200 0082 5360     		str	r3, [r2, #4]
 201              		.loc 1 171 0
 202 0084 1368     		ldr	r3, [r2]
 203 0086 1940     		ands	r1, r1, r3
 204              	.LVL15:
 205 0088 1160     		str	r1, [r2]
 206 008a F0BD     		pop	{r4, r5, r6, r7, pc}
 207              	.L19:
 208              		.align	2
 209              	.L18:
 210 008c 003C0140 		.word	1073822720
 211              		.cfi_endproc
 212              	.LFE280:
 213              		.size	ext_lld_channel_enable, .-ext_lld_channel_enable
 214              		.section	.text.ext_lld_channel_disable,"ax",%progbits
 215              		.align	1
 216              		.global	ext_lld_channel_disable
 217              		.syntax unified
 218              		.thumb
 219              		.thumb_func
 220              		.fpu fpv4-sp-d16
 221              		.type	ext_lld_channel_disable, %function
 222              	ext_lld_channel_disable:
 223              	.LFB281:
 224              		.loc 1 212 0
 225              		.cfi_startproc
 226              		@ args = 0, pretend = 0, frame = 0
 227              		@ frame_needed = 0, uses_anonymous_args = 0
 228              		@ link register save eliminated.
ARM GAS  C:\cygwin64\tmp\ccAStf0n.s 			page 5


 229              	.LVL16:
 230              		.loc 1 213 0
 231 0000 0123     		movs	r3, #1
 232 0002 01F01F01 		and	r1, r1, #31
 233              	.LVL17:
 234 0006 03FA01F1 		lsl	r1, r3, r1
 235              	.LVL18:
 236              		.loc 1 220 0
 237 000a 084B     		ldr	r3, .L21
 238 000c 1868     		ldr	r0, [r3]
 239              	.LVL19:
 240 000e CA43     		mvns	r2, r1
 241 0010 1040     		ands	r0, r0, r2
 242 0012 1860     		str	r0, [r3]
 243              		.loc 1 221 0
 244 0014 5868     		ldr	r0, [r3, #4]
 245 0016 1040     		ands	r0, r0, r2
 246 0018 5860     		str	r0, [r3, #4]
 247              		.loc 1 222 0
 248 001a 9868     		ldr	r0, [r3, #8]
 249 001c 1040     		ands	r0, r0, r2
 250 001e 9860     		str	r0, [r3, #8]
 251              		.loc 1 223 0
 252 0020 D868     		ldr	r0, [r3, #12]
 253 0022 0240     		ands	r2, r2, r0
 254 0024 DA60     		str	r2, [r3, #12]
 255              		.loc 1 224 0
 256 0026 5961     		str	r1, [r3, #20]
 257 0028 7047     		bx	lr
 258              	.L22:
 259 002a 00BF     		.align	2
 260              	.L21:
 261 002c 003C0140 		.word	1073822720
 262              		.cfi_endproc
 263              	.LFE281:
 264              		.size	ext_lld_channel_disable, .-ext_lld_channel_disable
 265              		.section	.text.ext_lld_start,"ax",%progbits
 266              		.align	1
 267              		.global	ext_lld_start
 268              		.syntax unified
 269              		.thumb
 270              		.thumb_func
 271              		.fpu fpv4-sp-d16
 272              		.type	ext_lld_start, %function
 273              	ext_lld_start:
 274              	.LFB278:
 275              		.loc 1 85 0
 276              		.cfi_startproc
 277              		@ args = 0, pretend = 0, frame = 0
 278              		@ frame_needed = 0, uses_anonymous_args = 0
 279              	.LVL20:
 280 0000 38B5     		push	{r3, r4, r5, lr}
 281              		.cfi_def_cfa_offset 16
 282              		.cfi_offset 3, -16
 283              		.cfi_offset 4, -12
 284              		.cfi_offset 5, -8
 285              		.cfi_offset 14, -4
ARM GAS  C:\cygwin64\tmp\ccAStf0n.s 			page 6


 286              		.loc 1 88 0
 287 0002 0378     		ldrb	r3, [r0]	@ zero_extendqisi2
 288 0004 012B     		cmp	r3, #1
 289              		.loc 1 85 0
 290 0006 0546     		mov	r5, r0
 291              		.loc 1 88 0
 292 0008 01D1     		bne	.L24
 293              		.loc 1 89 0
 294 000a FFF7FEFF 		bl	ext_lld_exti_irq_enable
 295              	.LVL21:
 296              	.L24:
 297              		.loc 1 85 0
 298 000e 0024     		movs	r4, #0
 299              	.L27:
 300              	.LVL22:
 301              		.loc 1 93 0
 302 0010 6B68     		ldr	r3, [r5, #4]
 303 0012 53F83430 		ldr	r3, [r3, r4, lsl #3]
 304 0016 5B07     		lsls	r3, r3, #29
 305              		.loc 1 94 0
 306 0018 2146     		mov	r1, r4
 307 001a 2846     		mov	r0, r5
 308              		.loc 1 93 0
 309 001c 05D5     		bpl	.L25
 310              	.LVL23:
 311              		.loc 1 94 0
 312 001e FFF7FEFF 		bl	ext_lld_channel_enable
 313              	.LVL24:
 314              	.L26:
 315              		.loc 1 92 0 discriminator 2
 316 0022 0134     		adds	r4, r4, #1
 317              	.LVL25:
 318 0024 172C     		cmp	r4, #23
 319 0026 F3D1     		bne	.L27
 320              		.loc 1 97 0
 321 0028 38BD     		pop	{r3, r4, r5, pc}
 322              	.LVL26:
 323              	.L25:
 324              		.loc 1 96 0
 325 002a FFF7FEFF 		bl	ext_lld_channel_disable
 326              	.LVL27:
 327 002e F8E7     		b	.L26
 328              		.cfi_endproc
 329              	.LFE278:
 330              		.size	ext_lld_start, .-ext_lld_start
 331              		.global	EXTD1
 332              		.section	.bss.EXTD1,"aw",%nobits
 333              		.align	2
 334              		.set	.LANCHOR0,. + 0
 335              		.type	EXTD1, %object
 336              		.size	EXTD1, 8
 337              	EXTD1:
 338 0000 00000000 		.space	8
 338      00000000 
 339              		.text
 340              	.Letext0:
 341              		.file 2 "c:\\program files (x86)\\gnu tools arm embedded\\6 2017-q2-update\\lib\\gcc\\arm-none-eab
ARM GAS  C:\cygwin64\tmp\ccAStf0n.s 			page 7


 342              		.file 3 "c:\\program files (x86)\\gnu tools arm embedded\\6 2017-q2-update\\arm-none-eabi\\include
 343              		.file 4 "c:\\program files (x86)\\gnu tools arm embedded\\6 2017-q2-update\\arm-none-eabi\\include
 344              		.file 5 "../../modules/ChibiOS/os/common/ports/ARMCMx/compilers/GCC/chtypes.h"
 345              		.file 6 "../../modules/ChibiOS/os/rt/include/chsystypes.h"
 346              		.file 7 "../../modules/ChibiOS/os/rt/include/chschd.h"
 347              		.file 8 "../../modules/ChibiOS/os/common/ext/CMSIS/include/core_cm4.h"
 348              		.file 9 "../../modules/ChibiOS/os/common/ext/CMSIS/ST/STM32F4xx/system_stm32f4xx.h"
 349              		.file 10 "../../modules/ChibiOS/os/common/ext/CMSIS/ST/STM32F4xx/stm32f427xx.h"
 350              		.file 11 "../../modules/ChibiOS/os/common/ports/ARMCMx/chcore.h"
 351              		.file 12 "../../modules/ChibiOS/os/common/ports/ARMCMx/chcore_v7m.h"
 352              		.file 13 "../../modules/ChibiOS/os/hal/ports/STM32/LLD/TIMv1/stm32_tim.h"
 353              		.file 14 "../../modules/ChibiOS/os/rt/include/chtm.h"
 354              		.file 15 "../../modules/ChibiOS/os/rt/include/chstats.h"
 355              		.file 16 "../../modules/ChibiOS/os/rt/include/chsem.h"
 356              		.file 17 "../../modules/ChibiOS/os/rt/include/chmtx.h"
 357              		.file 18 "../../modules/ChibiOS/os/rt/include/chsys.h"
 358              		.file 19 "../../modules/ChibiOS/os/rt/include/chregistry.h"
 359              		.file 20 "../../modules/ChibiOS/os/rt/include/chevents.h"
 360              		.file 21 "../../modules/ChibiOS/os/hal/ports/STM32/LLD/DMAv2/stm32_dma.h"
 361              		.file 22 "../../modules/ChibiOS/os/hal/include/hal_ioblock.h"
 362              		.file 23 "../../modules/ChibiOS/os/hal/include/hal_queues.h"
 363              		.file 24 "../../modules/ChibiOS/os/hal/ports/STM32/LLD/GPIOv2/hal_pal_lld.h"
 364              		.file 25 "../../modules/ChibiOS/os/hal/include/hal_adc.h"
 365              		.file 26 "../../modules/ChibiOS/os/hal/ports/STM32/LLD/ADCv2/hal_adc_lld.h"
 366              		.file 27 "../../modules/ChibiOS/os/hal/include/hal_ext.h"
 367              		.file 28 "../../modules/ChibiOS/os/hal/ports/STM32/LLD/EXTIv1/hal_ext_lld.h"
 368              		.file 29 "../../modules/ChibiOS/os/hal/include/hal_i2c.h"
 369              		.file 30 "../../modules/ChibiOS/os/hal/ports/STM32/LLD/I2Cv1/hal_i2c_lld.h"
 370              		.file 31 "../../modules/ChibiOS/os/hal/include/hal_pwm.h"
 371              		.file 32 "../../modules/ChibiOS/os/hal/ports/STM32/LLD/TIMv1/hal_pwm_lld.h"
 372              		.file 33 "../../modules/ChibiOS/os/hal/include/hal_serial.h"
 373              		.file 34 "../../modules/ChibiOS/os/hal/ports/STM32/LLD/USARTv1/hal_serial_lld.h"
 374              		.file 35 "../../modules/ChibiOS/os/hal/include/hal_sdc.h"
 375              		.file 36 "../../modules/ChibiOS/os/hal/ports/STM32/LLD/SDIOv1/hal_sdc_lld.h"
 376              		.file 37 "../../modules/ChibiOS/os/hal/include/hal_spi.h"
 377              		.file 38 "../../modules/ChibiOS/os/hal/ports/STM32/LLD/SPIv1/hal_spi_lld.h"
 378              		.file 39 "../../modules/ChibiOS/os/hal/include/hal_usb.h"
 379              		.file 40 "../../modules/ChibiOS/os/hal/ports/STM32/LLD/OTGv1/hal_usb_lld.h"
 380              		.file 41 "../../modules/ChibiOS/os/hal/ports/STM32/LLD/OTGv1/stm32_otg.h"
 381              		.file 42 "../../modules/ChibiOS/os/hal/ports/STM32/STM32F4xx/hal_ext_lld_isr.h"