ARM GAS  C:\cygwin64\tmp\ccbujZbE.s 			page 1


   1              		.cpu cortex-m4
   2              		.eabi_attribute 27, 1
   3              		.eabi_attribute 28, 1
   4              		.eabi_attribute 20, 1
   5              		.eabi_attribute 21, 1
   6              		.eabi_attribute 23, 3
   7              		.eabi_attribute 24, 1
   8              		.eabi_attribute 25, 1
   9              		.eabi_attribute 26, 1
  10              		.eabi_attribute 30, 4
  11              		.eabi_attribute 34, 1
  12              		.eabi_attribute 18, 4
  13              		.file	"hal_pwm_lld.c"
  14              		.text
  15              	.Ltext0:
  16              		.cfi_sections	.debug_frame
  17              		.section	.text.pwm_lld_init,"ax",%progbits
  18              		.align	1
  19              		.global	pwm_lld_init
  20              		.syntax unified
  21              		.thumb
  22              		.thumb_func
  23              		.fpu fpv4-sp-d16
  24              		.type	pwm_lld_init, %function
  25              	pwm_lld_init:
  26              	.LFB277:
  27              		.file 1 "../../modules/ChibiOS/os/hal/ports/STM32/LLD/TIMv1/hal_pwm_lld.c"
  28              		.loc 1 365 0
  29              		.cfi_startproc
  30              		@ args = 0, pretend = 0, frame = 0
  31              		@ frame_needed = 0, uses_anonymous_args = 0
  32 0000 38B5     		push	{r3, r4, r5, lr}
  33              		.cfi_def_cfa_offset 16
  34              		.cfi_offset 3, -16
  35              		.cfi_offset 4, -12
  36              		.cfi_offset 5, -8
  37              		.cfi_offset 14, -4
  38              		.loc 1 369 0
  39 0002 0C4C     		ldr	r4, .L2
  40 0004 2046     		mov	r0, r4
  41 0006 FFF7FEFF 		bl	pwmObjectInit
  42              	.LVL0:
  43              		.loc 1 370 0
  44 000a 0425     		movs	r5, #4
  45              		.loc 1 371 0
  46 000c 0A4B     		ldr	r3, .L2+4
  47 000e A361     		str	r3, [r4, #24]
  48              		.loc 1 370 0
  49 0010 2574     		strb	r5, [r4, #16]
  50              		.loc 1 376 0
  51 0012 0A4C     		ldr	r4, .L2+8
  52 0014 2046     		mov	r0, r4
  53 0016 FFF7FEFF 		bl	pwmObjectInit
  54              	.LVL1:
  55              		.loc 1 378 0
  56 001a 4FF08043 		mov	r3, #1073741824
  57 001e A361     		str	r3, [r4, #24]
ARM GAS  C:\cygwin64\tmp\ccbujZbE.s 			page 2


  58              		.loc 1 377 0
  59 0020 2574     		strb	r5, [r4, #16]
  60              		.loc 1 390 0
  61 0022 074C     		ldr	r4, .L2+12
  62 0024 2046     		mov	r0, r4
  63 0026 FFF7FEFF 		bl	pwmObjectInit
  64              	.LVL2:
  65              		.loc 1 392 0
  66 002a 064B     		ldr	r3, .L2+16
  67              		.loc 1 391 0
  68 002c 2574     		strb	r5, [r4, #16]
  69              		.loc 1 392 0
  70 002e A361     		str	r3, [r4, #24]
  71 0030 38BD     		pop	{r3, r4, r5, pc}
  72              	.L3:
  73 0032 00BF     		.align	2
  74              	.L2:
  75 0034 00000000 		.word	.LANCHOR0
  76 0038 00000140 		.word	1073807360
  77 003c 00000000 		.word	.LANCHOR1
  78 0040 00000000 		.word	.LANCHOR2
  79 0044 00080040 		.word	1073743872
  80              		.cfi_endproc
  81              	.LFE277:
  82              		.size	pwm_lld_init, .-pwm_lld_init
  83              		.section	.text.pwm_lld_start,"ax",%progbits
  84              		.align	1
  85              		.global	pwm_lld_start
  86              		.syntax unified
  87              		.thumb
  88              		.thumb_func
  89              		.fpu fpv4-sp-d16
  90              		.type	pwm_lld_start, %function
  91              	pwm_lld_start:
  92              	.LFB278:
  93              		.loc 1 440 0
  94              		.cfi_startproc
  95              		@ args = 0, pretend = 0, frame = 0
  96              		@ frame_needed = 0, uses_anonymous_args = 0
  97              	.LVL3:
  98              		.loc 1 444 0
  99 0000 0378     		ldrb	r3, [r0]	@ zero_extendqisi2
 100 0002 8269     		ldr	r2, [r0, #24]
 101 0004 012B     		cmp	r3, #1
 102              		.loc 1 440 0
 103 0006 10B5     		push	{r4, lr}
 104              		.cfi_def_cfa_offset 8
 105              		.cfi_offset 4, -8
 106              		.cfi_offset 14, -4
 107              		.loc 1 444 0
 108 0008 7AD1     		bne	.L5
 109              		.loc 1 447 0
 110 000a 434B     		ldr	r3, .L36
 111 000c 9842     		cmp	r0, r3
 112 000e 58D1     		bne	.L6
 113              		.loc 1 448 0
 114 0010 424B     		ldr	r3, .L36+4
ARM GAS  C:\cygwin64\tmp\ccbujZbE.s 			page 3


 115 0012 596C     		ldr	r1, [r3, #68]
 116 0014 41F00101 		orr	r1, r1, #1
 117 0018 5964     		str	r1, [r3, #68]
 118              		.loc 1 449 0
 119 001a 596A     		ldr	r1, [r3, #36]
 120 001c 41F00101 		orr	r1, r1, #1
 121 0020 5962     		str	r1, [r3, #36]
 122 0022 0021     		movs	r1, #0
 123 0024 5962     		str	r1, [r3, #36]
 124              		.loc 1 457 0
 125 0026 03F14A43 		add	r3, r3, #-905969664
 126 002a 03F5A133 		add	r3, r3, #82432
 127              	.L34:
 128              		.loc 1 502 0
 129 002e 4361     		str	r3, [r0, #20]
 130              	.L7:
 131              		.loc 1 585 0
 132 0030 46F66803 		movw	r3, #26728
 133 0034 9361     		str	r3, [r2, #24]
 134              		.loc 1 587 0
 135 0036 D361     		str	r3, [r2, #28]
 136              	.L9:
 137              		.loc 1 611 0
 138 0038 4168     		ldr	r1, [r0, #4]
 139 003a 4369     		ldr	r3, [r0, #20]
 140 003c 0C68     		ldr	r4, [r1]
 141 003e B3FBF4F3 		udiv	r3, r3, r4
 142 0042 013B     		subs	r3, r3, #1
 143              	.LVL4:
 144              		.loc 1 615 0
 145 0044 9362     		str	r3, [r2, #40]
 146              		.loc 1 616 0
 147 0046 8368     		ldr	r3, [r0, #8]
 148              	.LVL5:
 149 0048 013B     		subs	r3, r3, #1
 150 004a D362     		str	r3, [r2, #44]
 151              	.LVL6:
 152              		.loc 1 617 0
 153 004c CB6A     		ldr	r3, [r1, #44]
 154 004e 5360     		str	r3, [r2, #4]
 155              	.LVL7:
 156              		.loc 1 621 0
 157 0050 CB68     		ldr	r3, [r1, #12]
 158 0052 03F00F03 		and	r3, r3, #15
 159 0056 012B     		cmp	r3, #1
 160 0058 5AD0     		beq	.L23
 161 005a 022B     		cmp	r3, #2
 162 005c 5AD1     		bne	.L33
 163              	.L11:
 164              	.LVL8:
 165              		.loc 1 625 0
 166 005e 43F00103 		orr	r3, r3, #1
 167              	.LVL9:
 168              	.L10:
 169              		.loc 1 629 0
 170 0062 4869     		ldr	r0, [r1, #20]
 171              	.LVL10:
ARM GAS  C:\cygwin64\tmp\ccbujZbE.s 			page 4


 172 0064 00F00F00 		and	r0, r0, #15
 173 0068 0128     		cmp	r0, #1
 174 006a 03D0     		beq	.L14
 175 006c 0228     		cmp	r0, #2
 176 006e 03D1     		bne	.L13
 177              		.loc 1 631 0
 178 0070 43F02003 		orr	r3, r3, #32
 179              	.LVL11:
 180              	.L14:
 181              		.loc 1 633 0
 182 0074 43F01003 		orr	r3, r3, #16
 183              	.LVL12:
 184              	.L13:
 185              		.loc 1 637 0
 186 0078 C869     		ldr	r0, [r1, #28]
 187 007a 00F00F00 		and	r0, r0, #15
 188 007e 0128     		cmp	r0, #1
 189 0080 03D0     		beq	.L17
 190 0082 0228     		cmp	r0, #2
 191 0084 03D1     		bne	.L16
 192              		.loc 1 639 0
 193 0086 43F40073 		orr	r3, r3, #512
 194              	.LVL13:
 195              	.L17:
 196              		.loc 1 641 0
 197 008a 43F48073 		orr	r3, r3, #256
 198              	.LVL14:
 199              	.L16:
 200              		.loc 1 645 0
 201 008e 486A     		ldr	r0, [r1, #36]
 202 0090 00F00F00 		and	r0, r0, #15
 203 0094 0128     		cmp	r0, #1
 204 0096 03D0     		beq	.L20
 205 0098 0228     		cmp	r0, #2
 206 009a 03D1     		bne	.L19
 207              		.loc 1 647 0
 208 009c 43F40053 		orr	r3, r3, #8192
 209              	.LVL15:
 210              	.L20:
 211              		.loc 1 649 0
 212 00a0 43F48053 		orr	r3, r3, #4096
 213              	.LVL16:
 214              	.L19:
 215              		.loc 1 690 0
 216 00a4 1362     		str	r3, [r2, #32]
 217              		.loc 1 691 0
 218 00a6 0123     		movs	r3, #1
 219              	.LVL17:
 220 00a8 5361     		str	r3, [r2, #20]
 221              	.LVL18:
 222              		.loc 1 692 0
 223 00aa 0023     		movs	r3, #0
 224 00ac 1361     		str	r3, [r2, #16]
 225              		.loc 1 693 0
 226 00ae 0B6B     		ldr	r3, [r1, #48]
 227 00b0 23F0FF03 		bic	r3, r3, #255
 228 00b4 D360     		str	r3, [r2, #12]
ARM GAS  C:\cygwin64\tmp\ccbujZbE.s 			page 5


 229              		.loc 1 699 0
 230 00b6 4FF40043 		mov	r3, #32768
 231 00ba 5364     		str	r3, [r2, #68]
 232              		.loc 1 703 0
 233 00bc 8523     		movs	r3, #133
 234 00be 1360     		str	r3, [r2]
 235 00c0 10BD     		pop	{r4, pc}
 236              	.LVL19:
 237              	.L6:
 238              		.loc 1 463 0
 239 00c2 174B     		ldr	r3, .L36+8
 240 00c4 9842     		cmp	r0, r3
 241 00c6 0FD1     		bne	.L8
 242              		.loc 1 464 0
 243 00c8 144B     		ldr	r3, .L36+4
 244 00ca 196C     		ldr	r1, [r3, #64]
 245 00cc 41F00101 		orr	r1, r1, #1
 246 00d0 1964     		str	r1, [r3, #64]
 247              		.loc 1 465 0
 248 00d2 196A     		ldr	r1, [r3, #32]
 249 00d4 41F00101 		orr	r1, r1, #1
 250              	.L35:
 251              		.loc 1 495 0
 252 00d8 1962     		str	r1, [r3, #32]
 253 00da 0021     		movs	r1, #0
 254 00dc 1962     		str	r1, [r3, #32]
 255              		.loc 1 502 0
 256 00de 03F14543 		add	r3, r3, #-989855744
 257 00e2 A3F5F643 		sub	r3, r3, #31488
 258 00e6 A2E7     		b	.L34
 259              	.L8:
 260              		.loc 1 493 0
 261 00e8 0E4B     		ldr	r3, .L36+12
 262 00ea 9842     		cmp	r0, r3
 263 00ec A0D1     		bne	.L7
 264              		.loc 1 494 0
 265 00ee 0B4B     		ldr	r3, .L36+4
 266 00f0 196C     		ldr	r1, [r3, #64]
 267 00f2 41F00401 		orr	r1, r1, #4
 268 00f6 1964     		str	r1, [r3, #64]
 269              		.loc 1 495 0
 270 00f8 196A     		ldr	r1, [r3, #32]
 271 00fa 41F00401 		orr	r1, r1, #4
 272 00fe EBE7     		b	.L35
 273              	.L5:
 274              		.loc 1 596 0
 275 0100 0023     		movs	r3, #0
 276 0102 1360     		str	r3, [r2]
 277              		.loc 1 597 0
 278 0104 5363     		str	r3, [r2, #52]
 279              		.loc 1 598 0
 280 0106 9363     		str	r3, [r2, #56]
 281              		.loc 1 599 0
 282 0108 D363     		str	r3, [r2, #60]
 283              		.loc 1 600 0
 284 010a 1364     		str	r3, [r2, #64]
 285              		.loc 1 607 0
ARM GAS  C:\cygwin64\tmp\ccbujZbE.s 			page 6


 286 010c 5362     		str	r3, [r2, #36]
 287 010e 93E7     		b	.L9
 288              	.LVL20:
 289              	.L23:
 290              		.loc 1 620 0
 291 0110 0023     		movs	r3, #0
 292 0112 A4E7     		b	.L11
 293              	.L33:
 294 0114 0023     		movs	r3, #0
 295 0116 A4E7     		b	.L10
 296              	.L37:
 297              		.align	2
 298              	.L36:
 299 0118 00000000 		.word	.LANCHOR0
 300 011c 00380240 		.word	1073887232
 301 0120 00000000 		.word	.LANCHOR1
 302 0124 00000000 		.word	.LANCHOR2
 303              		.cfi_endproc
 304              	.LFE278:
 305              		.size	pwm_lld_start, .-pwm_lld_start
 306              		.section	.text.pwm_lld_stop,"ax",%progbits
 307              		.align	1
 308              		.global	pwm_lld_stop
 309              		.syntax unified
 310              		.thumb
 311              		.thumb_func
 312              		.fpu fpv4-sp-d16
 313              		.type	pwm_lld_stop, %function
 314              	pwm_lld_stop:
 315              	.LFB279:
 316              		.loc 1 714 0
 317              		.cfi_startproc
 318              		@ args = 0, pretend = 0, frame = 0
 319              		@ frame_needed = 0, uses_anonymous_args = 0
 320              		@ link register save eliminated.
 321              	.LVL21:
 322              		.loc 1 717 0
 323 0000 0378     		ldrb	r3, [r0]	@ zero_extendqisi2
 324 0002 022B     		cmp	r3, #2
 325 0004 16D1     		bne	.L38
 326              		.loc 1 718 0
 327 0006 8369     		ldr	r3, [r0, #24]
 328 0008 0022     		movs	r2, #0
 329 000a 1A60     		str	r2, [r3]
 330              		.loc 1 719 0
 331 000c DA60     		str	r2, [r3, #12]
 332              		.loc 1 720 0
 333 000e 1A61     		str	r2, [r3, #16]
 334              		.loc 1 722 0
 335 0010 5A64     		str	r2, [r3, #68]
 336              		.loc 1 726 0
 337 0012 0D4B     		ldr	r3, .L45
 338 0014 9842     		cmp	r0, r3
 339 0016 05D1     		bne	.L41
 340              		.loc 1 731 0
 341 0018 0C4A     		ldr	r2, .L45+4
 342 001a 536C     		ldr	r3, [r2, #68]
ARM GAS  C:\cygwin64\tmp\ccbujZbE.s 			page 7


 343 001c 23F00103 		bic	r3, r3, #1
 344 0020 5364     		str	r3, [r2, #68]
 345 0022 7047     		bx	lr
 346              	.L41:
 347              		.loc 1 736 0
 348 0024 0A4B     		ldr	r3, .L45+8
 349 0026 9842     		cmp	r0, r3
 350 0028 05D1     		bne	.L42
 351              		.loc 1 740 0
 352 002a 084A     		ldr	r2, .L45+4
 353 002c 136C     		ldr	r3, [r2, #64]
 354 002e 23F00103 		bic	r3, r3, #1
 355              	.L44:
 356              		.loc 1 758 0
 357 0032 1364     		str	r3, [r2, #64]
 358              	.L38:
 359 0034 7047     		bx	lr
 360              	.L42:
 361              		.loc 1 754 0
 362 0036 074B     		ldr	r3, .L45+12
 363 0038 9842     		cmp	r0, r3
 364 003a FBD1     		bne	.L38
 365              		.loc 1 758 0
 366 003c 034A     		ldr	r2, .L45+4
 367 003e 136C     		ldr	r3, [r2, #64]
 368 0040 23F00403 		bic	r3, r3, #4
 369 0044 F5E7     		b	.L44
 370              	.L46:
 371 0046 00BF     		.align	2
 372              	.L45:
 373 0048 00000000 		.word	.LANCHOR0
 374 004c 00380240 		.word	1073887232
 375 0050 00000000 		.word	.LANCHOR1
 376 0054 00000000 		.word	.LANCHOR2
 377              		.cfi_endproc
 378              	.LFE279:
 379              		.size	pwm_lld_stop, .-pwm_lld_stop
 380              		.section	.text.pwm_lld_enable_channel,"ax",%progbits
 381              		.align	1
 382              		.global	pwm_lld_enable_channel
 383              		.syntax unified
 384              		.thumb
 385              		.thumb_func
 386              		.fpu fpv4-sp-d16
 387              		.type	pwm_lld_enable_channel, %function
 388              	pwm_lld_enable_channel:
 389              	.LFB280:
 390              		.loc 1 825 0
 391              		.cfi_startproc
 392              		@ args = 0, pretend = 0, frame = 0
 393              		@ frame_needed = 0, uses_anonymous_args = 0
 394              		@ link register save eliminated.
 395              	.LVL22:
 396              		.loc 1 829 0
 397 0000 8369     		ldr	r3, [r0, #24]
 398 0002 0C31     		adds	r1, r1, #12
 399              	.LVL23:
ARM GAS  C:\cygwin64\tmp\ccbujZbE.s 			page 8


 400 0004 03EB8103 		add	r3, r3, r1, lsl #2
 401 0008 5A60     		str	r2, [r3, #4]
 402 000a 7047     		bx	lr
 403              		.cfi_endproc
 404              	.LFE280:
 405              		.size	pwm_lld_enable_channel, .-pwm_lld_enable_channel
 406              		.section	.text.pwm_lld_disable_channel,"ax",%progbits
 407              		.align	1
 408              		.global	pwm_lld_disable_channel
 409              		.syntax unified
 410              		.thumb
 411              		.thumb_func
 412              		.fpu fpv4-sp-d16
 413              		.type	pwm_lld_disable_channel, %function
 414              	pwm_lld_disable_channel:
 415              	.LFB281:
 416              		.loc 1 850 0
 417              		.cfi_startproc
 418              		@ args = 0, pretend = 0, frame = 0
 419              		@ frame_needed = 0, uses_anonymous_args = 0
 420              		@ link register save eliminated.
 421              	.LVL24:
 422              		.loc 1 853 0
 423 0000 8369     		ldr	r3, [r0, #24]
 424 0002 01F10C02 		add	r2, r1, #12
 425 0006 03EB8202 		add	r2, r3, r2, lsl #2
 426 000a 0020     		movs	r0, #0
 427              	.LVL25:
 428 000c 5060     		str	r0, [r2, #4]
 429              		.loc 1 854 0
 430 000e DA68     		ldr	r2, [r3, #12]
 431 0010 0220     		movs	r0, #2
 432 0012 00FA01F1 		lsl	r1, r0, r1
 433              	.LVL26:
 434 0016 22EA0101 		bic	r1, r2, r1
 435 001a D960     		str	r1, [r3, #12]
 436 001c 7047     		bx	lr
 437              		.cfi_endproc
 438              	.LFE281:
 439              		.size	pwm_lld_disable_channel, .-pwm_lld_disable_channel
 440              		.section	.text.pwm_lld_enable_periodic_notification,"ax",%progbits
 441              		.align	1
 442              		.global	pwm_lld_enable_periodic_notification
 443              		.syntax unified
 444              		.thumb
 445              		.thumb_func
 446              		.fpu fpv4-sp-d16
 447              		.type	pwm_lld_enable_periodic_notification, %function
 448              	pwm_lld_enable_periodic_notification:
 449              	.LFB282:
 450              		.loc 1 874 0
 451              		.cfi_startproc
 452              		@ args = 0, pretend = 0, frame = 0
 453              		@ frame_needed = 0, uses_anonymous_args = 0
 454              		@ link register save eliminated.
 455              	.LVL27:
 456              		.loc 1 875 0
ARM GAS  C:\cygwin64\tmp\ccbujZbE.s 			page 9


 457 0000 8369     		ldr	r3, [r0, #24]
 458 0002 DA68     		ldr	r2, [r3, #12]
 459              	.LVL28:
 460              		.loc 1 879 0
 461 0004 D107     		lsls	r1, r2, #31
 462 0006 06D4     		bmi	.L49
 463              		.loc 1 880 0
 464 0008 42F00102 		orr	r2, r2, #1
 465              	.LVL29:
 466 000c DA60     		str	r2, [r3, #12]
 467              		.loc 1 881 0
 468 000e 1A69     		ldr	r2, [r3, #16]
 469 0010 02F00102 		and	r2, r2, #1
 470 0014 1A61     		str	r2, [r3, #16]
 471              	.L49:
 472 0016 7047     		bx	lr
 473              		.cfi_endproc
 474              	.LFE282:
 475              		.size	pwm_lld_enable_periodic_notification, .-pwm_lld_enable_periodic_notification
 476              		.section	.text.pwm_lld_disable_periodic_notification,"ax",%progbits
 477              		.align	1
 478              		.global	pwm_lld_disable_periodic_notification
 479              		.syntax unified
 480              		.thumb
 481              		.thumb_func
 482              		.fpu fpv4-sp-d16
 483              		.type	pwm_lld_disable_periodic_notification, %function
 484              	pwm_lld_disable_periodic_notification:
 485              	.LFB283:
 486              		.loc 1 894 0
 487              		.cfi_startproc
 488              		@ args = 0, pretend = 0, frame = 0
 489              		@ frame_needed = 0, uses_anonymous_args = 0
 490              		@ link register save eliminated.
 491              	.LVL30:
 492              		.loc 1 896 0
 493 0000 8269     		ldr	r2, [r0, #24]
 494 0002 D368     		ldr	r3, [r2, #12]
 495 0004 23F00103 		bic	r3, r3, #1
 496 0008 D360     		str	r3, [r2, #12]
 497 000a 7047     		bx	lr
 498              		.cfi_endproc
 499              	.LFE283:
 500              		.size	pwm_lld_disable_periodic_notification, .-pwm_lld_disable_periodic_notification
 501              		.section	.text.pwm_lld_enable_channel_notification,"ax",%progbits
 502              		.align	1
 503              		.global	pwm_lld_enable_channel_notification
 504              		.syntax unified
 505              		.thumb
 506              		.thumb_func
 507              		.fpu fpv4-sp-d16
 508              		.type	pwm_lld_enable_channel_notification, %function
 509              	pwm_lld_enable_channel_notification:
 510              	.LFB284:
 511              		.loc 1 911 0
 512              		.cfi_startproc
 513              		@ args = 0, pretend = 0, frame = 0
ARM GAS  C:\cygwin64\tmp\ccbujZbE.s 			page 10


 514              		@ frame_needed = 0, uses_anonymous_args = 0
 515              		@ link register save eliminated.
 516              	.LVL31:
 517              		.loc 1 912 0
 518 0000 8069     		ldr	r0, [r0, #24]
 519              	.LVL32:
 520              		.loc 1 921 0
 521 0002 0223     		movs	r3, #2
 522              		.loc 1 912 0
 523 0004 C268     		ldr	r2, [r0, #12]
 524              	.LVL33:
 525              		.loc 1 921 0
 526 0006 03FA01F1 		lsl	r1, r3, r1
 527              	.LVL34:
 528 000a 0A42     		tst	r2, r1
 529              		.loc 1 922 0
 530 000c 01BF     		itttt	eq
 531 000e 0A43     		orreq	r2, r2, r1
 532              	.LVL35:
 533              		.loc 1 923 0
 534 0010 C943     		mvneq	r1, r1
 535              		.loc 1 922 0
 536 0012 C260     		streq	r2, [r0, #12]
 537              		.loc 1 923 0
 538 0014 0161     		streq	r1, [r0, #16]
 539 0016 7047     		bx	lr
 540              		.cfi_endproc
 541              	.LFE284:
 542              		.size	pwm_lld_enable_channel_notification, .-pwm_lld_enable_channel_notification
 543              		.section	.text.pwm_lld_disable_channel_notification,"ax",%progbits
 544              		.align	1
 545              		.global	pwm_lld_disable_channel_notification
 546              		.syntax unified
 547              		.thumb
 548              		.thumb_func
 549              		.fpu fpv4-sp-d16
 550              		.type	pwm_lld_disable_channel_notification, %function
 551              	pwm_lld_disable_channel_notification:
 552              	.LFB285:
 553              		.loc 1 939 0
 554              		.cfi_startproc
 555              		@ args = 0, pretend = 0, frame = 0
 556              		@ frame_needed = 0, uses_anonymous_args = 0
 557              		@ link register save eliminated.
 558              	.LVL36:
 559              		.loc 1 941 0
 560 0000 8069     		ldr	r0, [r0, #24]
 561              	.LVL37:
 562 0002 0222     		movs	r2, #2
 563 0004 C368     		ldr	r3, [r0, #12]
 564 0006 02FA01F1 		lsl	r1, r2, r1
 565              	.LVL38:
 566 000a 23EA0103 		bic	r3, r3, r1
 567 000e C360     		str	r3, [r0, #12]
 568 0010 7047     		bx	lr
 569              		.cfi_endproc
 570              	.LFE285:
ARM GAS  C:\cygwin64\tmp\ccbujZbE.s 			page 11


 571              		.size	pwm_lld_disable_channel_notification, .-pwm_lld_disable_channel_notification
 572              		.section	.text.pwm_lld_serve_interrupt,"ax",%progbits
 573              		.align	1
 574              		.global	pwm_lld_serve_interrupt
 575              		.syntax unified
 576              		.thumb
 577              		.thumb_func
 578              		.fpu fpv4-sp-d16
 579              		.type	pwm_lld_serve_interrupt, %function
 580              	pwm_lld_serve_interrupt:
 581              	.LFB286:
 582              		.loc 1 954 0
 583              		.cfi_startproc
 584              		@ args = 0, pretend = 0, frame = 0
 585              		@ frame_needed = 0, uses_anonymous_args = 0
 586              	.LVL39:
 587              		.loc 1 957 0
 588 0000 8369     		ldr	r3, [r0, #24]
 589              		.loc 1 954 0
 590 0002 70B5     		push	{r4, r5, r6, lr}
 591              		.cfi_def_cfa_offset 16
 592              		.cfi_offset 4, -16
 593              		.cfi_offset 5, -12
 594              		.cfi_offset 6, -8
 595              		.cfi_offset 14, -4
 596              		.loc 1 957 0
 597 0004 1D69     		ldr	r5, [r3, #16]
 598              	.LVL40:
 599              		.loc 1 958 0
 600 0006 DA68     		ldr	r2, [r3, #12]
 601 0008 1540     		ands	r5, r5, r2
 602              	.LVL41:
 603 000a EAB2     		uxtb	r2, r5
 604              		.loc 1 959 0
 605 000c D243     		mvns	r2, r2
 606              		.loc 1 960 0
 607 000e AE07     		lsls	r6, r5, #30
 608              		.loc 1 954 0
 609 0010 0446     		mov	r4, r0
 610              		.loc 1 959 0
 611 0012 1A61     		str	r2, [r3, #16]
 612              		.loc 1 960 0
 613 0014 03D5     		bpl	.L56
 614              		.loc 1 961 0 discriminator 1
 615 0016 4368     		ldr	r3, [r0, #4]
 616 0018 1B69     		ldr	r3, [r3, #16]
 617              		.loc 1 960 0 discriminator 1
 618 001a 03B1     		cbz	r3, .L56
 619              		.loc 1 962 0
 620 001c 9847     		blx	r3
 621              	.LVL42:
 622              	.L56:
 623              		.loc 1 963 0
 624 001e 6807     		lsls	r0, r5, #29
 625 0020 04D5     		bpl	.L57
 626              		.loc 1 964 0 discriminator 1
 627 0022 6368     		ldr	r3, [r4, #4]
ARM GAS  C:\cygwin64\tmp\ccbujZbE.s 			page 12


 628 0024 9B69     		ldr	r3, [r3, #24]
 629              		.loc 1 963 0 discriminator 1
 630 0026 0BB1     		cbz	r3, .L57
 631              		.loc 1 965 0
 632 0028 2046     		mov	r0, r4
 633 002a 9847     		blx	r3
 634              	.LVL43:
 635              	.L57:
 636              		.loc 1 966 0
 637 002c 2907     		lsls	r1, r5, #28
 638 002e 04D5     		bpl	.L58
 639              		.loc 1 967 0 discriminator 1
 640 0030 6368     		ldr	r3, [r4, #4]
 641 0032 1B6A     		ldr	r3, [r3, #32]
 642              		.loc 1 966 0 discriminator 1
 643 0034 0BB1     		cbz	r3, .L58
 644              		.loc 1 968 0
 645 0036 2046     		mov	r0, r4
 646 0038 9847     		blx	r3
 647              	.LVL44:
 648              	.L58:
 649              		.loc 1 969 0
 650 003a EA06     		lsls	r2, r5, #27
 651 003c 04D5     		bpl	.L59
 652              		.loc 1 970 0 discriminator 1
 653 003e 6368     		ldr	r3, [r4, #4]
 654 0040 9B6A     		ldr	r3, [r3, #40]
 655              		.loc 1 969 0 discriminator 1
 656 0042 0BB1     		cbz	r3, .L59
 657              		.loc 1 971 0
 658 0044 2046     		mov	r0, r4
 659 0046 9847     		blx	r3
 660              	.LVL45:
 661              	.L59:
 662              		.loc 1 972 0
 663 0048 EB07     		lsls	r3, r5, #31
 664 004a 06D5     		bpl	.L55
 665              		.loc 1 972 0 is_stmt 0 discriminator 1
 666 004c 6368     		ldr	r3, [r4, #4]
 667 004e 9B68     		ldr	r3, [r3, #8]
 668 0050 1BB1     		cbz	r3, .L55
 669              		.loc 1 973 0 is_stmt 1
 670 0052 2046     		mov	r0, r4
 671              		.loc 1 974 0
 672 0054 BDE87040 		pop	{r4, r5, r6, lr}
 673              		.cfi_remember_state
 674              		.cfi_restore 14
 675              		.cfi_restore 6
 676              		.cfi_restore 5
 677              		.cfi_restore 4
 678              		.cfi_def_cfa_offset 0
 679              	.LVL46:
 680              		.loc 1 973 0
 681 0058 1847     		bx	r3	@ indirect register sibling call
 682              	.LVL47:
 683              	.L55:
 684              		.cfi_restore_state
ARM GAS  C:\cygwin64\tmp\ccbujZbE.s 			page 13


 685 005a 70BD     		pop	{r4, r5, r6, pc}
 686              		.cfi_endproc
 687              	.LFE286:
 688              		.size	pwm_lld_serve_interrupt, .-pwm_lld_serve_interrupt
 689              		.global	PWMD4
 690              		.global	PWMD2
 691              		.global	PWMD1
 692              		.section	.bss.PWMD1,"aw",%nobits
 693              		.align	2
 694              		.set	.LANCHOR0,. + 0
 695              		.type	PWMD1, %object
 696              		.size	PWMD1, 28
 697              	PWMD1:
 698 0000 00000000 		.space	28
 698      00000000 
 698      00000000 
 698      00000000 
 698      00000000 
 699              		.section	.bss.PWMD2,"aw",%nobits
 700              		.align	2
 701              		.set	.LANCHOR1,. + 0
 702              		.type	PWMD2, %object
 703              		.size	PWMD2, 28
 704              	PWMD2:
 705 0000 00000000 		.space	28
 705      00000000 
 705      00000000 
 705      00000000 
 705      00000000 
 706              		.section	.bss.PWMD4,"aw",%nobits
 707              		.align	2
 708              		.set	.LANCHOR2,. + 0
 709              		.type	PWMD4, %object
 710              		.size	PWMD4, 28
 711              	PWMD4:
 712 0000 00000000 		.space	28
 712      00000000 
 712      00000000 
 712      00000000 
 712      00000000 
 713              		.text
 714              	.Letext0:
 715              		.file 2 "c:\\program files (x86)\\gnu tools arm embedded\\6 2017-q2-update\\lib\\gcc\\arm-none-eab
 716              		.file 3 "c:\\program files (x86)\\gnu tools arm embedded\\6 2017-q2-update\\arm-none-eabi\\include
 717              		.file 4 "c:\\program files (x86)\\gnu tools arm embedded\\6 2017-q2-update\\arm-none-eabi\\include
 718              		.file 5 "../../modules/ChibiOS/os/common/ports/ARMCMx/compilers/GCC/chtypes.h"
 719              		.file 6 "../../modules/ChibiOS/os/rt/include/chsystypes.h"
 720              		.file 7 "../../modules/ChibiOS/os/rt/include/chschd.h"
 721              		.file 8 "../../modules/ChibiOS/os/common/ext/CMSIS/include/core_cm4.h"
 722              		.file 9 "../../modules/ChibiOS/os/common/ext/CMSIS/ST/STM32F4xx/system_stm32f4xx.h"
 723              		.file 10 "../../modules/ChibiOS/os/common/ext/CMSIS/ST/STM32F4xx/stm32f427xx.h"
 724              		.file 11 "../../modules/ChibiOS/os/common/ports/ARMCMx/chcore.h"
 725              		.file 12 "../../modules/ChibiOS/os/common/ports/ARMCMx/chcore_v7m.h"
 726              		.file 13 "../../modules/ChibiOS/os/hal/ports/STM32/LLD/TIMv1/stm32_tim.h"
 727              		.file 14 "../../modules/ChibiOS/os/rt/include/chtm.h"
 728              		.file 15 "../../modules/ChibiOS/os/rt/include/chstats.h"
 729              		.file 16 "../../modules/ChibiOS/os/rt/include/chsem.h"
ARM GAS  C:\cygwin64\tmp\ccbujZbE.s 			page 14


 730              		.file 17 "../../modules/ChibiOS/os/rt/include/chmtx.h"
 731              		.file 18 "../../modules/ChibiOS/os/rt/include/chsys.h"
 732              		.file 19 "../../modules/ChibiOS/os/rt/include/chregistry.h"
 733              		.file 20 "../../modules/ChibiOS/os/rt/include/chevents.h"
 734              		.file 21 "../../modules/ChibiOS/os/hal/ports/STM32/LLD/DMAv2/stm32_dma.h"
 735              		.file 22 "../../modules/ChibiOS/os/hal/include/hal_ioblock.h"
 736              		.file 23 "../../modules/ChibiOS/os/hal/include/hal_queues.h"
 737              		.file 24 "../../modules/ChibiOS/os/hal/ports/STM32/LLD/GPIOv2/hal_pal_lld.h"
 738              		.file 25 "../../modules/ChibiOS/os/hal/include/hal_adc.h"
 739              		.file 26 "../../modules/ChibiOS/os/hal/ports/STM32/LLD/ADCv2/hal_adc_lld.h"
 740              		.file 27 "../../modules/ChibiOS/os/hal/include/hal_ext.h"
 741              		.file 28 "../../modules/ChibiOS/os/hal/ports/STM32/LLD/EXTIv1/hal_ext_lld.h"
 742              		.file 29 "../../modules/ChibiOS/os/hal/include/hal_i2c.h"
 743              		.file 30 "../../modules/ChibiOS/os/hal/ports/STM32/LLD/I2Cv1/hal_i2c_lld.h"
 744              		.file 31 "../../modules/ChibiOS/os/hal/include/hal_pwm.h"
 745              		.file 32 "../../modules/ChibiOS/os/hal/ports/STM32/LLD/TIMv1/hal_pwm_lld.h"
 746              		.file 33 "../../modules/ChibiOS/os/hal/include/hal_serial.h"
 747              		.file 34 "../../modules/ChibiOS/os/hal/ports/STM32/LLD/USARTv1/hal_serial_lld.h"
 748              		.file 35 "../../modules/ChibiOS/os/hal/include/hal_sdc.h"
 749              		.file 36 "../../modules/ChibiOS/os/hal/ports/STM32/LLD/SDIOv1/hal_sdc_lld.h"
 750              		.file 37 "../../modules/ChibiOS/os/hal/include/hal_spi.h"
 751              		.file 38 "../../modules/ChibiOS/os/hal/ports/STM32/LLD/SPIv1/hal_spi_lld.h"
 752              		.file 39 "../../modules/ChibiOS/os/hal/include/hal_usb.h"
 753              		.file 40 "../../modules/ChibiOS/os/hal/ports/STM32/LLD/OTGv1/hal_usb_lld.h"
 754              		.file 41 "../../modules/ChibiOS/os/hal/ports/STM32/LLD/OTGv1/stm32_otg.h"