ARM GAS  C:\cygwin64\tmp\ccV2MiVF.s 			page 1


   1              		.cpu cortex-m4
   2              		.eabi_attribute 27, 1
   3              		.eabi_attribute 28, 1
   4              		.eabi_attribute 20, 1
   5              		.eabi_attribute 21, 1
   6              		.eabi_attribute 23, 3
   7              		.eabi_attribute 24, 1
   8              		.eabi_attribute 25, 1
   9              		.eabi_attribute 26, 1
  10              		.eabi_attribute 30, 4
  11              		.eabi_attribute 34, 1
  12              		.eabi_attribute 18, 4
  13              		.file	"hal_ext_lld_isr.c"
  14              		.text
  15              	.Ltext0:
  16              		.cfi_sections	.debug_frame
  17              		.section	.text.Vector58,"ax",%progbits
  18              		.align	1
  19              		.global	Vector58
  20              		.syntax unified
  21              		.thumb
  22              		.thumb_func
  23              		.fpu fpv4-sp-d16
  24              		.type	Vector58, %function
  25              	Vector58:
  26              	.LFB277:
  27              		.file 1 "../../modules/ChibiOS/os/hal/ports/STM32/STM32F4xx/hal_ext_lld_isr.c"
  28              		.loc 1 56 0
  29              		.cfi_startproc
  30              		@ args = 0, pretend = 0, frame = 0
  31              		@ frame_needed = 0, uses_anonymous_args = 0
  32 0000 08B5     		push	{r3, lr}
  33              		.cfi_def_cfa_offset 8
  34              		.cfi_offset 3, -8
  35              		.cfi_offset 14, -4
  36              		.loc 1 59 0
  37 0002 FFF7FEFF 		bl	_stats_increase_irq
  38              	.LVL0:
  39              		.loc 1 61 0
  40 0006 084A     		ldr	r2, .L6
  41 0008 5369     		ldr	r3, [r2, #20]
  42              	.LVL1:
  43              		.loc 1 62 0
  44 000a 1168     		ldr	r1, [r2]
  45 000c 0B40     		ands	r3, r3, r1
  46              	.LVL2:
  47 000e 03F00103 		and	r3, r3, #1
  48              	.LVL3:
  49              		.loc 1 63 0
  50 0012 5361     		str	r3, [r2, #20]
  51              		.loc 1 64 0
  52 0014 23B1     		cbz	r3, .L2
  53              		.loc 1 65 0
  54 0016 0548     		ldr	r0, .L6+4
  55 0018 4368     		ldr	r3, [r0, #4]
  56              	.LVL4:
  57 001a 0021     		movs	r1, #0
ARM GAS  C:\cygwin64\tmp\ccV2MiVF.s 			page 2


  58 001c 5B68     		ldr	r3, [r3, #4]
  59 001e 9847     		blx	r3
  60              	.LVL5:
  61              	.L2:
  62              		.loc 1 68 0
  63 0020 BDE80840 		pop	{r3, lr}
  64              		.cfi_restore 14
  65              		.cfi_restore 3
  66              		.cfi_def_cfa_offset 0
  67              		.loc 1 67 0
  68 0024 FFF7FEBF 		b	_port_irq_epilogue
  69              	.LVL6:
  70              	.L7:
  71              		.align	2
  72              	.L6:
  73 0028 003C0140 		.word	1073822720
  74 002c 00000000 		.word	EXTD1
  75              		.cfi_endproc
  76              	.LFE277:
  77              		.size	Vector58, .-Vector58
  78              		.section	.text.Vector5C,"ax",%progbits
  79              		.align	1
  80              		.global	Vector5C
  81              		.syntax unified
  82              		.thumb
  83              		.thumb_func
  84              		.fpu fpv4-sp-d16
  85              		.type	Vector5C, %function
  86              	Vector5C:
  87              	.LFB278:
  88              		.loc 1 75 0
  89              		.cfi_startproc
  90              		@ args = 0, pretend = 0, frame = 0
  91              		@ frame_needed = 0, uses_anonymous_args = 0
  92 0000 08B5     		push	{r3, lr}
  93              		.cfi_def_cfa_offset 8
  94              		.cfi_offset 3, -8
  95              		.cfi_offset 14, -4
  96              		.loc 1 78 0
  97 0002 FFF7FEFF 		bl	_stats_increase_irq
  98              	.LVL7:
  99              		.loc 1 80 0
 100 0006 084A     		ldr	r2, .L13
 101 0008 5369     		ldr	r3, [r2, #20]
 102              	.LVL8:
 103              		.loc 1 81 0
 104 000a 1168     		ldr	r1, [r2]
 105 000c 0B40     		ands	r3, r3, r1
 106              	.LVL9:
 107 000e 03F00203 		and	r3, r3, #2
 108              	.LVL10:
 109              		.loc 1 82 0
 110 0012 5361     		str	r3, [r2, #20]
 111              		.loc 1 83 0
 112 0014 23B1     		cbz	r3, .L9
 113              		.loc 1 84 0
 114 0016 0548     		ldr	r0, .L13+4
ARM GAS  C:\cygwin64\tmp\ccV2MiVF.s 			page 3


 115 0018 4368     		ldr	r3, [r0, #4]
 116              	.LVL11:
 117 001a 0121     		movs	r1, #1
 118 001c DB68     		ldr	r3, [r3, #12]
 119 001e 9847     		blx	r3
 120              	.LVL12:
 121              	.L9:
 122              		.loc 1 87 0
 123 0020 BDE80840 		pop	{r3, lr}
 124              		.cfi_restore 14
 125              		.cfi_restore 3
 126              		.cfi_def_cfa_offset 0
 127              		.loc 1 86 0
 128 0024 FFF7FEBF 		b	_port_irq_epilogue
 129              	.LVL13:
 130              	.L14:
 131              		.align	2
 132              	.L13:
 133 0028 003C0140 		.word	1073822720
 134 002c 00000000 		.word	EXTD1
 135              		.cfi_endproc
 136              	.LFE278:
 137              		.size	Vector5C, .-Vector5C
 138              		.section	.text.Vector60,"ax",%progbits
 139              		.align	1
 140              		.global	Vector60
 141              		.syntax unified
 142              		.thumb
 143              		.thumb_func
 144              		.fpu fpv4-sp-d16
 145              		.type	Vector60, %function
 146              	Vector60:
 147              	.LFB279:
 148              		.loc 1 94 0
 149              		.cfi_startproc
 150              		@ args = 0, pretend = 0, frame = 0
 151              		@ frame_needed = 0, uses_anonymous_args = 0
 152 0000 08B5     		push	{r3, lr}
 153              		.cfi_def_cfa_offset 8
 154              		.cfi_offset 3, -8
 155              		.cfi_offset 14, -4
 156              		.loc 1 97 0
 157 0002 FFF7FEFF 		bl	_stats_increase_irq
 158              	.LVL14:
 159              		.loc 1 99 0
 160 0006 084A     		ldr	r2, .L20
 161 0008 5369     		ldr	r3, [r2, #20]
 162              	.LVL15:
 163              		.loc 1 100 0
 164 000a 1168     		ldr	r1, [r2]
 165 000c 0B40     		ands	r3, r3, r1
 166              	.LVL16:
 167 000e 03F00403 		and	r3, r3, #4
 168              	.LVL17:
 169              		.loc 1 101 0
 170 0012 5361     		str	r3, [r2, #20]
 171              		.loc 1 102 0
ARM GAS  C:\cygwin64\tmp\ccV2MiVF.s 			page 4


 172 0014 23B1     		cbz	r3, .L16
 173              		.loc 1 103 0
 174 0016 0548     		ldr	r0, .L20+4
 175 0018 4368     		ldr	r3, [r0, #4]
 176              	.LVL18:
 177 001a 0221     		movs	r1, #2
 178 001c 5B69     		ldr	r3, [r3, #20]
 179 001e 9847     		blx	r3
 180              	.LVL19:
 181              	.L16:
 182              		.loc 1 106 0
 183 0020 BDE80840 		pop	{r3, lr}
 184              		.cfi_restore 14
 185              		.cfi_restore 3
 186              		.cfi_def_cfa_offset 0
 187              		.loc 1 105 0
 188 0024 FFF7FEBF 		b	_port_irq_epilogue
 189              	.LVL20:
 190              	.L21:
 191              		.align	2
 192              	.L20:
 193 0028 003C0140 		.word	1073822720
 194 002c 00000000 		.word	EXTD1
 195              		.cfi_endproc
 196              	.LFE279:
 197              		.size	Vector60, .-Vector60
 198              		.section	.text.Vector64,"ax",%progbits
 199              		.align	1
 200              		.global	Vector64
 201              		.syntax unified
 202              		.thumb
 203              		.thumb_func
 204              		.fpu fpv4-sp-d16
 205              		.type	Vector64, %function
 206              	Vector64:
 207              	.LFB280:
 208              		.loc 1 113 0
 209              		.cfi_startproc
 210              		@ args = 0, pretend = 0, frame = 0
 211              		@ frame_needed = 0, uses_anonymous_args = 0
 212 0000 08B5     		push	{r3, lr}
 213              		.cfi_def_cfa_offset 8
 214              		.cfi_offset 3, -8
 215              		.cfi_offset 14, -4
 216              		.loc 1 116 0
 217 0002 FFF7FEFF 		bl	_stats_increase_irq
 218              	.LVL21:
 219              		.loc 1 118 0
 220 0006 084A     		ldr	r2, .L27
 221 0008 5369     		ldr	r3, [r2, #20]
 222              	.LVL22:
 223              		.loc 1 119 0
 224 000a 1168     		ldr	r1, [r2]
 225 000c 0B40     		ands	r3, r3, r1
 226              	.LVL23:
 227 000e 03F00803 		and	r3, r3, #8
 228              	.LVL24:
ARM GAS  C:\cygwin64\tmp\ccV2MiVF.s 			page 5


 229              		.loc 1 120 0
 230 0012 5361     		str	r3, [r2, #20]
 231              		.loc 1 121 0
 232 0014 23B1     		cbz	r3, .L23
 233              		.loc 1 122 0
 234 0016 0548     		ldr	r0, .L27+4
 235 0018 4368     		ldr	r3, [r0, #4]
 236              	.LVL25:
 237 001a 0321     		movs	r1, #3
 238 001c DB69     		ldr	r3, [r3, #28]
 239 001e 9847     		blx	r3
 240              	.LVL26:
 241              	.L23:
 242              		.loc 1 125 0
 243 0020 BDE80840 		pop	{r3, lr}
 244              		.cfi_restore 14
 245              		.cfi_restore 3
 246              		.cfi_def_cfa_offset 0
 247              		.loc 1 124 0
 248 0024 FFF7FEBF 		b	_port_irq_epilogue
 249              	.LVL27:
 250              	.L28:
 251              		.align	2
 252              	.L27:
 253 0028 003C0140 		.word	1073822720
 254 002c 00000000 		.word	EXTD1
 255              		.cfi_endproc
 256              	.LFE280:
 257              		.size	Vector64, .-Vector64
 258              		.section	.text.Vector68,"ax",%progbits
 259              		.align	1
 260              		.global	Vector68
 261              		.syntax unified
 262              		.thumb
 263              		.thumb_func
 264              		.fpu fpv4-sp-d16
 265              		.type	Vector68, %function
 266              	Vector68:
 267              	.LFB281:
 268              		.loc 1 132 0
 269              		.cfi_startproc
 270              		@ args = 0, pretend = 0, frame = 0
 271              		@ frame_needed = 0, uses_anonymous_args = 0
 272 0000 08B5     		push	{r3, lr}
 273              		.cfi_def_cfa_offset 8
 274              		.cfi_offset 3, -8
 275              		.cfi_offset 14, -4
 276              		.loc 1 135 0
 277 0002 FFF7FEFF 		bl	_stats_increase_irq
 278              	.LVL28:
 279              		.loc 1 137 0
 280 0006 084A     		ldr	r2, .L34
 281 0008 5369     		ldr	r3, [r2, #20]
 282              	.LVL29:
 283              		.loc 1 138 0
 284 000a 1168     		ldr	r1, [r2]
 285 000c 0B40     		ands	r3, r3, r1
ARM GAS  C:\cygwin64\tmp\ccV2MiVF.s 			page 6


 286              	.LVL30:
 287 000e 03F01003 		and	r3, r3, #16
 288              	.LVL31:
 289              		.loc 1 139 0
 290 0012 5361     		str	r3, [r2, #20]
 291              		.loc 1 140 0
 292 0014 23B1     		cbz	r3, .L30
 293              		.loc 1 141 0
 294 0016 0548     		ldr	r0, .L34+4
 295 0018 4368     		ldr	r3, [r0, #4]
 296              	.LVL32:
 297 001a 0421     		movs	r1, #4
 298 001c 5B6A     		ldr	r3, [r3, #36]
 299 001e 9847     		blx	r3
 300              	.LVL33:
 301              	.L30:
 302              		.loc 1 144 0
 303 0020 BDE80840 		pop	{r3, lr}
 304              		.cfi_restore 14
 305              		.cfi_restore 3
 306              		.cfi_def_cfa_offset 0
 307              		.loc 1 143 0
 308 0024 FFF7FEBF 		b	_port_irq_epilogue
 309              	.LVL34:
 310              	.L35:
 311              		.align	2
 312              	.L34:
 313 0028 003C0140 		.word	1073822720
 314 002c 00000000 		.word	EXTD1
 315              		.cfi_endproc
 316              	.LFE281:
 317              		.size	Vector68, .-Vector68
 318              		.section	.text.Vector9C,"ax",%progbits
 319              		.align	1
 320              		.global	Vector9C
 321              		.syntax unified
 322              		.thumb
 323              		.thumb_func
 324              		.fpu fpv4-sp-d16
 325              		.type	Vector9C, %function
 326              	Vector9C:
 327              	.LFB282:
 328              		.loc 1 151 0
 329              		.cfi_startproc
 330              		@ args = 0, pretend = 0, frame = 0
 331              		@ frame_needed = 0, uses_anonymous_args = 0
 332 0000 10B5     		push	{r4, lr}
 333              		.cfi_def_cfa_offset 8
 334              		.cfi_offset 4, -8
 335              		.cfi_offset 14, -4
 336              		.loc 1 154 0
 337 0002 FFF7FEFF 		bl	_stats_increase_irq
 338              	.LVL35:
 339              		.loc 1 156 0
 340 0006 174B     		ldr	r3, .L57
 341 0008 5C69     		ldr	r4, [r3, #20]
 342              	.LVL36:
ARM GAS  C:\cygwin64\tmp\ccV2MiVF.s 			page 7


 343              		.loc 1 157 0
 344 000a 1A68     		ldr	r2, [r3]
 345 000c 1440     		ands	r4, r4, r2
 346              	.LVL37:
 347 000e 04F47872 		and	r2, r4, #992
 348              	.LVL38:
 349              		.loc 1 159 0
 350 0012 5A61     		str	r2, [r3, #20]
 351              		.loc 1 160 0
 352 0014 A306     		lsls	r3, r4, #26
 353 0016 04D5     		bpl	.L37
 354              		.loc 1 161 0
 355 0018 1348     		ldr	r0, .L57+4
 356 001a 4368     		ldr	r3, [r0, #4]
 357 001c 0521     		movs	r1, #5
 358 001e DB6A     		ldr	r3, [r3, #44]
 359 0020 9847     		blx	r3
 360              	.LVL39:
 361              	.L37:
 362              		.loc 1 162 0
 363 0022 6006     		lsls	r0, r4, #25
 364 0024 04D5     		bpl	.L38
 365              		.loc 1 163 0
 366 0026 1048     		ldr	r0, .L57+4
 367 0028 4368     		ldr	r3, [r0, #4]
 368 002a 0621     		movs	r1, #6
 369 002c 5B6B     		ldr	r3, [r3, #52]
 370 002e 9847     		blx	r3
 371              	.LVL40:
 372              	.L38:
 373              		.loc 1 164 0
 374 0030 2106     		lsls	r1, r4, #24
 375 0032 04D5     		bpl	.L39
 376              		.loc 1 165 0
 377 0034 0C48     		ldr	r0, .L57+4
 378 0036 4368     		ldr	r3, [r0, #4]
 379 0038 0721     		movs	r1, #7
 380 003a DB6B     		ldr	r3, [r3, #60]
 381 003c 9847     		blx	r3
 382              	.LVL41:
 383              	.L39:
 384              		.loc 1 166 0
 385 003e E205     		lsls	r2, r4, #23
 386 0040 04D5     		bpl	.L40
 387              		.loc 1 167 0
 388 0042 0948     		ldr	r0, .L57+4
 389 0044 4368     		ldr	r3, [r0, #4]
 390 0046 0821     		movs	r1, #8
 391 0048 5B6C     		ldr	r3, [r3, #68]
 392 004a 9847     		blx	r3
 393              	.LVL42:
 394              	.L40:
 395              		.loc 1 168 0
 396 004c A305     		lsls	r3, r4, #22
 397 004e 04D5     		bpl	.L41
 398              		.loc 1 169 0
 399 0050 0548     		ldr	r0, .L57+4
ARM GAS  C:\cygwin64\tmp\ccV2MiVF.s 			page 8


 400 0052 4368     		ldr	r3, [r0, #4]
 401 0054 0921     		movs	r1, #9
 402 0056 DB6C     		ldr	r3, [r3, #76]
 403 0058 9847     		blx	r3
 404              	.LVL43:
 405              	.L41:
 406              		.loc 1 172 0
 407 005a BDE81040 		pop	{r4, lr}
 408              		.cfi_restore 14
 409              		.cfi_restore 4
 410              		.cfi_def_cfa_offset 0
 411              	.LVL44:
 412              		.loc 1 171 0
 413 005e FFF7FEBF 		b	_port_irq_epilogue
 414              	.LVL45:
 415              	.L58:
 416 0062 00BF     		.align	2
 417              	.L57:
 418 0064 003C0140 		.word	1073822720
 419 0068 00000000 		.word	EXTD1
 420              		.cfi_endproc
 421              	.LFE282:
 422              		.size	Vector9C, .-Vector9C
 423              		.section	.text.VectorE0,"ax",%progbits
 424              		.align	1
 425              		.global	VectorE0
 426              		.syntax unified
 427              		.thumb
 428              		.thumb_func
 429              		.fpu fpv4-sp-d16
 430              		.type	VectorE0, %function
 431              	VectorE0:
 432              	.LFB283:
 433              		.loc 1 179 0
 434              		.cfi_startproc
 435              		@ args = 0, pretend = 0, frame = 0
 436              		@ frame_needed = 0, uses_anonymous_args = 0
 437 0000 10B5     		push	{r4, lr}
 438              		.cfi_def_cfa_offset 8
 439              		.cfi_offset 4, -8
 440              		.cfi_offset 14, -4
 441              		.loc 1 182 0
 442 0002 FFF7FEFF 		bl	_stats_increase_irq
 443              	.LVL46:
 444              		.loc 1 184 0
 445 0006 1A4B     		ldr	r3, .L84
 446 0008 5C69     		ldr	r4, [r3, #20]
 447              	.LVL47:
 448              		.loc 1 185 0
 449 000a 1A68     		ldr	r2, [r3]
 450 000c 1440     		ands	r4, r4, r2
 451              	.LVL48:
 452 000e 04F47C42 		and	r2, r4, #64512
 453              	.LVL49:
 454              		.loc 1 187 0
 455 0012 5A61     		str	r2, [r3, #20]
 456              		.loc 1 188 0
ARM GAS  C:\cygwin64\tmp\ccV2MiVF.s 			page 9


 457 0014 6205     		lsls	r2, r4, #21
 458              	.LVL50:
 459 0016 04D5     		bpl	.L60
 460              		.loc 1 189 0
 461 0018 1648     		ldr	r0, .L84+4
 462 001a 4368     		ldr	r3, [r0, #4]
 463              	.LVL51:
 464 001c 0A21     		movs	r1, #10
 465 001e 5B6D     		ldr	r3, [r3, #84]
 466 0020 9847     		blx	r3
 467              	.LVL52:
 468              	.L60:
 469              		.loc 1 190 0
 470 0022 2305     		lsls	r3, r4, #20
 471 0024 04D5     		bpl	.L61
 472              		.loc 1 191 0
 473 0026 1348     		ldr	r0, .L84+4
 474 0028 4368     		ldr	r3, [r0, #4]
 475 002a 0B21     		movs	r1, #11
 476 002c DB6D     		ldr	r3, [r3, #92]
 477 002e 9847     		blx	r3
 478              	.LVL53:
 479              	.L61:
 480              		.loc 1 192 0
 481 0030 E004     		lsls	r0, r4, #19
 482 0032 04D5     		bpl	.L62
 483              		.loc 1 193 0
 484 0034 0F48     		ldr	r0, .L84+4
 485 0036 4368     		ldr	r3, [r0, #4]
 486 0038 0C21     		movs	r1, #12
 487 003a 5B6E     		ldr	r3, [r3, #100]
 488 003c 9847     		blx	r3
 489              	.LVL54:
 490              	.L62:
 491              		.loc 1 194 0
 492 003e A104     		lsls	r1, r4, #18
 493 0040 04D5     		bpl	.L63
 494              		.loc 1 195 0
 495 0042 0C48     		ldr	r0, .L84+4
 496 0044 4368     		ldr	r3, [r0, #4]
 497 0046 0D21     		movs	r1, #13
 498 0048 DB6E     		ldr	r3, [r3, #108]
 499 004a 9847     		blx	r3
 500              	.LVL55:
 501              	.L63:
 502              		.loc 1 196 0
 503 004c 6204     		lsls	r2, r4, #17
 504 004e 04D5     		bpl	.L64
 505              		.loc 1 197 0
 506 0050 0848     		ldr	r0, .L84+4
 507 0052 4368     		ldr	r3, [r0, #4]
 508 0054 0E21     		movs	r1, #14
 509 0056 5B6F     		ldr	r3, [r3, #116]
 510 0058 9847     		blx	r3
 511              	.LVL56:
 512              	.L64:
 513              		.loc 1 198 0
ARM GAS  C:\cygwin64\tmp\ccV2MiVF.s 			page 10


 514 005a 2304     		lsls	r3, r4, #16
 515 005c 04D5     		bpl	.L65
 516              		.loc 1 199 0
 517 005e 0548     		ldr	r0, .L84+4
 518 0060 4368     		ldr	r3, [r0, #4]
 519 0062 0F21     		movs	r1, #15
 520 0064 DB6F     		ldr	r3, [r3, #124]
 521 0066 9847     		blx	r3
 522              	.LVL57:
 523              	.L65:
 524              		.loc 1 202 0
 525 0068 BDE81040 		pop	{r4, lr}
 526              		.cfi_restore 14
 527              		.cfi_restore 4
 528              		.cfi_def_cfa_offset 0
 529              	.LVL58:
 530              		.loc 1 201 0
 531 006c FFF7FEBF 		b	_port_irq_epilogue
 532              	.LVL59:
 533              	.L85:
 534              		.align	2
 535              	.L84:
 536 0070 003C0140 		.word	1073822720
 537 0074 00000000 		.word	EXTD1
 538              		.cfi_endproc
 539              	.LFE283:
 540              		.size	VectorE0, .-VectorE0
 541              		.section	.text.Vector44,"ax",%progbits
 542              		.align	1
 543              		.global	Vector44
 544              		.syntax unified
 545              		.thumb
 546              		.thumb_func
 547              		.fpu fpv4-sp-d16
 548              		.type	Vector44, %function
 549              	Vector44:
 550              	.LFB284:
 551              		.loc 1 209 0
 552              		.cfi_startproc
 553              		@ args = 0, pretend = 0, frame = 0
 554              		@ frame_needed = 0, uses_anonymous_args = 0
 555 0000 08B5     		push	{r3, lr}
 556              		.cfi_def_cfa_offset 8
 557              		.cfi_offset 3, -8
 558              		.cfi_offset 14, -4
 559              		.loc 1 212 0
 560 0002 FFF7FEFF 		bl	_stats_increase_irq
 561              	.LVL60:
 562              		.loc 1 214 0
 563 0006 094A     		ldr	r2, .L91
 564 0008 5369     		ldr	r3, [r2, #20]
 565              	.LVL61:
 566              		.loc 1 215 0
 567 000a 1168     		ldr	r1, [r2]
 568 000c 0B40     		ands	r3, r3, r1
 569              	.LVL62:
 570 000e 03F48033 		and	r3, r3, #65536
ARM GAS  C:\cygwin64\tmp\ccV2MiVF.s 			page 11


 571              	.LVL63:
 572              		.loc 1 216 0
 573 0012 5361     		str	r3, [r2, #20]
 574              		.loc 1 217 0
 575 0014 2BB1     		cbz	r3, .L87
 576              		.loc 1 218 0
 577 0016 0648     		ldr	r0, .L91+4
 578 0018 4368     		ldr	r3, [r0, #4]
 579              	.LVL64:
 580 001a 1021     		movs	r1, #16
 581 001c D3F88430 		ldr	r3, [r3, #132]
 582 0020 9847     		blx	r3
 583              	.LVL65:
 584              	.L87:
 585              		.loc 1 221 0
 586 0022 BDE80840 		pop	{r3, lr}
 587              		.cfi_restore 14
 588              		.cfi_restore 3
 589              		.cfi_def_cfa_offset 0
 590              		.loc 1 220 0
 591 0026 FFF7FEBF 		b	_port_irq_epilogue
 592              	.LVL66:
 593              	.L92:
 594 002a 00BF     		.align	2
 595              	.L91:
 596 002c 003C0140 		.word	1073822720
 597 0030 00000000 		.word	EXTD1
 598              		.cfi_endproc
 599              	.LFE284:
 600              		.size	Vector44, .-Vector44
 601              		.section	.text.VectorE4,"ax",%progbits
 602              		.align	1
 603              		.global	VectorE4
 604              		.syntax unified
 605              		.thumb
 606              		.thumb_func
 607              		.fpu fpv4-sp-d16
 608              		.type	VectorE4, %function
 609              	VectorE4:
 610              	.LFB285:
 611              		.loc 1 228 0
 612              		.cfi_startproc
 613              		@ args = 0, pretend = 0, frame = 0
 614              		@ frame_needed = 0, uses_anonymous_args = 0
 615 0000 08B5     		push	{r3, lr}
 616              		.cfi_def_cfa_offset 8
 617              		.cfi_offset 3, -8
 618              		.cfi_offset 14, -4
 619              		.loc 1 231 0
 620 0002 FFF7FEFF 		bl	_stats_increase_irq
 621              	.LVL67:
 622              		.loc 1 233 0
 623 0006 094A     		ldr	r2, .L98
 624 0008 5369     		ldr	r3, [r2, #20]
 625              	.LVL68:
 626              		.loc 1 234 0
 627 000a 1168     		ldr	r1, [r2]
ARM GAS  C:\cygwin64\tmp\ccV2MiVF.s 			page 12


 628 000c 0B40     		ands	r3, r3, r1
 629              	.LVL69:
 630 000e 03F40033 		and	r3, r3, #131072
 631              	.LVL70:
 632              		.loc 1 235 0
 633 0012 5361     		str	r3, [r2, #20]
 634              		.loc 1 236 0
 635 0014 2BB1     		cbz	r3, .L94
 636              		.loc 1 237 0
 637 0016 0648     		ldr	r0, .L98+4
 638 0018 4368     		ldr	r3, [r0, #4]
 639              	.LVL71:
 640 001a 1121     		movs	r1, #17
 641 001c D3F88C30 		ldr	r3, [r3, #140]
 642 0020 9847     		blx	r3
 643              	.LVL72:
 644              	.L94:
 645              		.loc 1 240 0
 646 0022 BDE80840 		pop	{r3, lr}
 647              		.cfi_restore 14
 648              		.cfi_restore 3
 649              		.cfi_def_cfa_offset 0
 650              		.loc 1 239 0
 651 0026 FFF7FEBF 		b	_port_irq_epilogue
 652              	.LVL73:
 653              	.L99:
 654 002a 00BF     		.align	2
 655              	.L98:
 656 002c 003C0140 		.word	1073822720
 657 0030 00000000 		.word	EXTD1
 658              		.cfi_endproc
 659              	.LFE285:
 660              		.size	VectorE4, .-VectorE4
 661              		.section	.text.VectorE8,"ax",%progbits
 662              		.align	1
 663              		.global	VectorE8
 664              		.syntax unified
 665              		.thumb
 666              		.thumb_func
 667              		.fpu fpv4-sp-d16
 668              		.type	VectorE8, %function
 669              	VectorE8:
 670              	.LFB286:
 671              		.loc 1 247 0
 672              		.cfi_startproc
 673              		@ args = 0, pretend = 0, frame = 0
 674              		@ frame_needed = 0, uses_anonymous_args = 0
 675 0000 08B5     		push	{r3, lr}
 676              		.cfi_def_cfa_offset 8
 677              		.cfi_offset 3, -8
 678              		.cfi_offset 14, -4
 679              		.loc 1 250 0
 680 0002 FFF7FEFF 		bl	_stats_increase_irq
 681              	.LVL74:
 682              		.loc 1 252 0
 683 0006 094A     		ldr	r2, .L105
 684 0008 5369     		ldr	r3, [r2, #20]
ARM GAS  C:\cygwin64\tmp\ccV2MiVF.s 			page 13


 685              	.LVL75:
 686              		.loc 1 253 0
 687 000a 1168     		ldr	r1, [r2]
 688 000c 0B40     		ands	r3, r3, r1
 689              	.LVL76:
 690 000e 03F48023 		and	r3, r3, #262144
 691              	.LVL77:
 692              		.loc 1 254 0
 693 0012 5361     		str	r3, [r2, #20]
 694              		.loc 1 255 0
 695 0014 2BB1     		cbz	r3, .L101
 696              		.loc 1 256 0
 697 0016 0648     		ldr	r0, .L105+4
 698 0018 4368     		ldr	r3, [r0, #4]
 699              	.LVL78:
 700 001a 1221     		movs	r1, #18
 701 001c D3F89430 		ldr	r3, [r3, #148]
 702 0020 9847     		blx	r3
 703              	.LVL79:
 704              	.L101:
 705              		.loc 1 259 0
 706 0022 BDE80840 		pop	{r3, lr}
 707              		.cfi_restore 14
 708              		.cfi_restore 3
 709              		.cfi_def_cfa_offset 0
 710              		.loc 1 258 0
 711 0026 FFF7FEBF 		b	_port_irq_epilogue
 712              	.LVL80:
 713              	.L106:
 714 002a 00BF     		.align	2
 715              	.L105:
 716 002c 003C0140 		.word	1073822720
 717 0030 00000000 		.word	EXTD1
 718              		.cfi_endproc
 719              	.LFE286:
 720              		.size	VectorE8, .-VectorE8
 721              		.section	.text.Vector138,"ax",%progbits
 722              		.align	1
 723              		.global	Vector138
 724              		.syntax unified
 725              		.thumb
 726              		.thumb_func
 727              		.fpu fpv4-sp-d16
 728              		.type	Vector138, %function
 729              	Vector138:
 730              	.LFB287:
 731              		.loc 1 267 0
 732              		.cfi_startproc
 733              		@ args = 0, pretend = 0, frame = 0
 734              		@ frame_needed = 0, uses_anonymous_args = 0
 735 0000 08B5     		push	{r3, lr}
 736              		.cfi_def_cfa_offset 8
 737              		.cfi_offset 3, -8
 738              		.cfi_offset 14, -4
 739              		.loc 1 270 0
 740 0002 FFF7FEFF 		bl	_stats_increase_irq
 741              	.LVL81:
ARM GAS  C:\cygwin64\tmp\ccV2MiVF.s 			page 14


 742              		.loc 1 272 0
 743 0006 094A     		ldr	r2, .L112
 744 0008 5369     		ldr	r3, [r2, #20]
 745              	.LVL82:
 746              		.loc 1 273 0
 747 000a 1168     		ldr	r1, [r2]
 748 000c 0B40     		ands	r3, r3, r1
 749              	.LVL83:
 750 000e 03F40023 		and	r3, r3, #524288
 751              	.LVL84:
 752              		.loc 1 274 0
 753 0012 5361     		str	r3, [r2, #20]
 754              		.loc 1 275 0
 755 0014 2BB1     		cbz	r3, .L108
 756              		.loc 1 276 0
 757 0016 0648     		ldr	r0, .L112+4
 758 0018 4368     		ldr	r3, [r0, #4]
 759              	.LVL85:
 760 001a 1321     		movs	r1, #19
 761 001c D3F89C30 		ldr	r3, [r3, #156]
 762 0020 9847     		blx	r3
 763              	.LVL86:
 764              	.L108:
 765              		.loc 1 279 0
 766 0022 BDE80840 		pop	{r3, lr}
 767              		.cfi_restore 14
 768              		.cfi_restore 3
 769              		.cfi_def_cfa_offset 0
 770              		.loc 1 278 0
 771 0026 FFF7FEBF 		b	_port_irq_epilogue
 772              	.LVL87:
 773              	.L113:
 774 002a 00BF     		.align	2
 775              	.L112:
 776 002c 003C0140 		.word	1073822720
 777 0030 00000000 		.word	EXTD1
 778              		.cfi_endproc
 779              	.LFE287:
 780              		.size	Vector138, .-Vector138
 781              		.section	.text.Vector170,"ax",%progbits
 782              		.align	1
 783              		.global	Vector170
 784              		.syntax unified
 785              		.thumb
 786              		.thumb_func
 787              		.fpu fpv4-sp-d16
 788              		.type	Vector170, %function
 789              	Vector170:
 790              	.LFB288:
 791              		.loc 1 288 0
 792              		.cfi_startproc
 793              		@ args = 0, pretend = 0, frame = 0
 794              		@ frame_needed = 0, uses_anonymous_args = 0
 795 0000 08B5     		push	{r3, lr}
 796              		.cfi_def_cfa_offset 8
 797              		.cfi_offset 3, -8
 798              		.cfi_offset 14, -4
ARM GAS  C:\cygwin64\tmp\ccV2MiVF.s 			page 15


 799              		.loc 1 291 0
 800 0002 FFF7FEFF 		bl	_stats_increase_irq
 801              	.LVL88:
 802              		.loc 1 293 0
 803 0006 094A     		ldr	r2, .L119
 804 0008 5369     		ldr	r3, [r2, #20]
 805              	.LVL89:
 806              		.loc 1 294 0
 807 000a 1168     		ldr	r1, [r2]
 808 000c 0B40     		ands	r3, r3, r1
 809              	.LVL90:
 810 000e 03F48013 		and	r3, r3, #1048576
 811              	.LVL91:
 812              		.loc 1 295 0
 813 0012 5361     		str	r3, [r2, #20]
 814              		.loc 1 296 0
 815 0014 2BB1     		cbz	r3, .L115
 816              		.loc 1 297 0
 817 0016 0648     		ldr	r0, .L119+4
 818 0018 4368     		ldr	r3, [r0, #4]
 819              	.LVL92:
 820 001a 1421     		movs	r1, #20
 821 001c D3F8A430 		ldr	r3, [r3, #164]
 822 0020 9847     		blx	r3
 823              	.LVL93:
 824              	.L115:
 825              		.loc 1 300 0
 826 0022 BDE80840 		pop	{r3, lr}
 827              		.cfi_restore 14
 828              		.cfi_restore 3
 829              		.cfi_def_cfa_offset 0
 830              		.loc 1 299 0
 831 0026 FFF7FEBF 		b	_port_irq_epilogue
 832              	.LVL94:
 833              	.L120:
 834 002a 00BF     		.align	2
 835              	.L119:
 836 002c 003C0140 		.word	1073822720
 837 0030 00000000 		.word	EXTD1
 838              		.cfi_endproc
 839              	.LFE288:
 840              		.size	Vector170, .-Vector170
 841              		.section	.text.Vector48,"ax",%progbits
 842              		.align	1
 843              		.global	Vector48
 844              		.syntax unified
 845              		.thumb
 846              		.thumb_func
 847              		.fpu fpv4-sp-d16
 848              		.type	Vector48, %function
 849              	Vector48:
 850              	.LFB289:
 851              		.loc 1 309 0
 852              		.cfi_startproc
 853              		@ args = 0, pretend = 0, frame = 0
 854              		@ frame_needed = 0, uses_anonymous_args = 0
 855 0000 08B5     		push	{r3, lr}
ARM GAS  C:\cygwin64\tmp\ccV2MiVF.s 			page 16


 856              		.cfi_def_cfa_offset 8
 857              		.cfi_offset 3, -8
 858              		.cfi_offset 14, -4
 859              		.loc 1 312 0
 860 0002 FFF7FEFF 		bl	_stats_increase_irq
 861              	.LVL95:
 862              		.loc 1 314 0
 863 0006 094A     		ldr	r2, .L126
 864 0008 5369     		ldr	r3, [r2, #20]
 865              	.LVL96:
 866              		.loc 1 315 0
 867 000a 1168     		ldr	r1, [r2]
 868 000c 0B40     		ands	r3, r3, r1
 869              	.LVL97:
 870 000e 03F40013 		and	r3, r3, #2097152
 871              	.LVL98:
 872              		.loc 1 316 0
 873 0012 5361     		str	r3, [r2, #20]
 874              		.loc 1 317 0
 875 0014 2BB1     		cbz	r3, .L122
 876              		.loc 1 318 0
 877 0016 0648     		ldr	r0, .L126+4
 878 0018 4368     		ldr	r3, [r0, #4]
 879              	.LVL99:
 880 001a 1521     		movs	r1, #21
 881 001c D3F8AC30 		ldr	r3, [r3, #172]
 882 0020 9847     		blx	r3
 883              	.LVL100:
 884              	.L122:
 885              		.loc 1 321 0
 886 0022 BDE80840 		pop	{r3, lr}
 887              		.cfi_restore 14
 888              		.cfi_restore 3
 889              		.cfi_def_cfa_offset 0
 890              		.loc 1 320 0
 891 0026 FFF7FEBF 		b	_port_irq_epilogue
 892              	.LVL101:
 893              	.L127:
 894 002a 00BF     		.align	2
 895              	.L126:
 896 002c 003C0140 		.word	1073822720
 897 0030 00000000 		.word	EXTD1
 898              		.cfi_endproc
 899              	.LFE289:
 900              		.size	Vector48, .-Vector48
 901              		.section	.text.Vector4C,"ax",%progbits
 902              		.align	1
 903              		.global	Vector4C
 904              		.syntax unified
 905              		.thumb
 906              		.thumb_func
 907              		.fpu fpv4-sp-d16
 908              		.type	Vector4C, %function
 909              	Vector4C:
 910              	.LFB290:
 911              		.loc 1 329 0
 912              		.cfi_startproc
ARM GAS  C:\cygwin64\tmp\ccV2MiVF.s 			page 17


 913              		@ args = 0, pretend = 0, frame = 0
 914              		@ frame_needed = 0, uses_anonymous_args = 0
 915 0000 08B5     		push	{r3, lr}
 916              		.cfi_def_cfa_offset 8
 917              		.cfi_offset 3, -8
 918              		.cfi_offset 14, -4
 919              		.loc 1 332 0
 920 0002 FFF7FEFF 		bl	_stats_increase_irq
 921              	.LVL102:
 922              		.loc 1 334 0
 923 0006 094A     		ldr	r2, .L133
 924 0008 5369     		ldr	r3, [r2, #20]
 925              	.LVL103:
 926              		.loc 1 335 0
 927 000a 1168     		ldr	r1, [r2]
 928 000c 0B40     		ands	r3, r3, r1
 929              	.LVL104:
 930 000e 03F48003 		and	r3, r3, #4194304
 931              	.LVL105:
 932              		.loc 1 336 0
 933 0012 5361     		str	r3, [r2, #20]
 934              		.loc 1 337 0
 935 0014 2BB1     		cbz	r3, .L129
 936              		.loc 1 338 0
 937 0016 0648     		ldr	r0, .L133+4
 938 0018 4368     		ldr	r3, [r0, #4]
 939              	.LVL106:
 940 001a 1621     		movs	r1, #22
 941 001c D3F8B430 		ldr	r3, [r3, #180]
 942 0020 9847     		blx	r3
 943              	.LVL107:
 944              	.L129:
 945              		.loc 1 341 0
 946 0022 BDE80840 		pop	{r3, lr}
 947              		.cfi_restore 14
 948              		.cfi_restore 3
 949              		.cfi_def_cfa_offset 0
 950              		.loc 1 340 0
 951 0026 FFF7FEBF 		b	_port_irq_epilogue
 952              	.LVL108:
 953              	.L134:
 954 002a 00BF     		.align	2
 955              	.L133:
 956 002c 003C0140 		.word	1073822720
 957 0030 00000000 		.word	EXTD1
 958              		.cfi_endproc
 959              	.LFE290:
 960              		.size	Vector4C, .-Vector4C
 961              		.section	.text.ext_lld_exti_irq_enable,"ax",%progbits
 962              		.align	1
 963              		.global	ext_lld_exti_irq_enable
 964              		.syntax unified
 965              		.thumb
 966              		.thumb_func
 967              		.fpu fpv4-sp-d16
 968              		.type	ext_lld_exti_irq_enable, %function
 969              	ext_lld_exti_irq_enable:
ARM GAS  C:\cygwin64\tmp\ccV2MiVF.s 			page 18


 970              	.LFB291:
 971              		.loc 1 352 0
 972              		.cfi_startproc
 973              		@ args = 0, pretend = 0, frame = 0
 974              		@ frame_needed = 0, uses_anonymous_args = 0
 975              		.loc 1 354 0
 976 0000 0621     		movs	r1, #6
 977              		.loc 1 352 0
 978 0002 08B5     		push	{r3, lr}
 979              		.cfi_def_cfa_offset 8
 980              		.cfi_offset 3, -8
 981              		.cfi_offset 14, -4
 982              		.loc 1 354 0
 983 0004 0846     		mov	r0, r1
 984 0006 FFF7FEFF 		bl	nvicEnableVector
 985              	.LVL109:
 986              		.loc 1 355 0
 987 000a 0621     		movs	r1, #6
 988 000c 0720     		movs	r0, #7
 989 000e FFF7FEFF 		bl	nvicEnableVector
 990              	.LVL110:
 991              		.loc 1 356 0
 992 0012 0621     		movs	r1, #6
 993 0014 0820     		movs	r0, #8
 994 0016 FFF7FEFF 		bl	nvicEnableVector
 995              	.LVL111:
 996              		.loc 1 357 0
 997 001a 0621     		movs	r1, #6
 998 001c 0920     		movs	r0, #9
 999 001e FFF7FEFF 		bl	nvicEnableVector
 1000              	.LVL112:
 1001              		.loc 1 358 0
 1002 0022 0621     		movs	r1, #6
 1003 0024 0A20     		movs	r0, #10
 1004 0026 FFF7FEFF 		bl	nvicEnableVector
 1005              	.LVL113:
 1006              		.loc 1 359 0
 1007 002a 0621     		movs	r1, #6
 1008 002c 1720     		movs	r0, #23
 1009 002e FFF7FEFF 		bl	nvicEnableVector
 1010              	.LVL114:
 1011              		.loc 1 360 0
 1012 0032 0621     		movs	r1, #6
 1013 0034 2820     		movs	r0, #40
 1014 0036 FFF7FEFF 		bl	nvicEnableVector
 1015              	.LVL115:
 1016              		.loc 1 361 0
 1017 003a 0621     		movs	r1, #6
 1018 003c 0120     		movs	r0, #1
 1019 003e FFF7FEFF 		bl	nvicEnableVector
 1020              	.LVL116:
 1021              		.loc 1 362 0
 1022 0042 0F21     		movs	r1, #15
 1023 0044 2920     		movs	r0, #41
 1024 0046 FFF7FEFF 		bl	nvicEnableVector
 1025              	.LVL117:
 1026              		.loc 1 364 0
ARM GAS  C:\cygwin64\tmp\ccV2MiVF.s 			page 19


 1027 004a 0621     		movs	r1, #6
 1028 004c 2A20     		movs	r0, #42
 1029 004e FFF7FEFF 		bl	nvicEnableVector
 1030              	.LVL118:
 1031              		.loc 1 367 0
 1032 0052 0621     		movs	r1, #6
 1033 0054 3E20     		movs	r0, #62
 1034 0056 FFF7FEFF 		bl	nvicEnableVector
 1035              	.LVL119:
 1036              		.loc 1 370 0
 1037 005a 0621     		movs	r1, #6
 1038 005c 4C20     		movs	r0, #76
 1039 005e FFF7FEFF 		bl	nvicEnableVector
 1040              	.LVL120:
 1041              		.loc 1 373 0
 1042 0062 0F21     		movs	r1, #15
 1043 0064 0220     		movs	r0, #2
 1044 0066 FFF7FEFF 		bl	nvicEnableVector
 1045              	.LVL121:
 1046              		.loc 1 375 0
 1047 006a 0F21     		movs	r1, #15
 1048 006c 0320     		movs	r0, #3
 1049              		.loc 1 376 0
 1050 006e BDE80840 		pop	{r3, lr}
 1051              		.cfi_restore 14
 1052              		.cfi_restore 3
 1053              		.cfi_def_cfa_offset 0
 1054              		.loc 1 375 0
 1055 0072 FFF7FEBF 		b	nvicEnableVector
 1056              	.LVL122:
 1057              		.cfi_endproc
 1058              	.LFE291:
 1059              		.size	ext_lld_exti_irq_enable, .-ext_lld_exti_irq_enable
 1060              		.section	.text.ext_lld_exti_irq_disable,"ax",%progbits
 1061              		.align	1
 1062              		.global	ext_lld_exti_irq_disable
 1063              		.syntax unified
 1064              		.thumb
 1065              		.thumb_func
 1066              		.fpu fpv4-sp-d16
 1067              		.type	ext_lld_exti_irq_disable, %function
 1068              	ext_lld_exti_irq_disable:
 1069              	.LFB292:
 1070              		.loc 1 383 0
 1071              		.cfi_startproc
 1072              		@ args = 0, pretend = 0, frame = 0
 1073              		@ frame_needed = 0, uses_anonymous_args = 0
 1074 0000 08B5     		push	{r3, lr}
 1075              		.cfi_def_cfa_offset 8
 1076              		.cfi_offset 3, -8
 1077              		.cfi_offset 14, -4
 1078              		.loc 1 385 0
 1079 0002 0620     		movs	r0, #6
 1080 0004 FFF7FEFF 		bl	nvicDisableVector
 1081              	.LVL123:
 1082              		.loc 1 386 0
 1083 0008 0720     		movs	r0, #7
ARM GAS  C:\cygwin64\tmp\ccV2MiVF.s 			page 20


 1084 000a FFF7FEFF 		bl	nvicDisableVector
 1085              	.LVL124:
 1086              		.loc 1 387 0
 1087 000e 0820     		movs	r0, #8
 1088 0010 FFF7FEFF 		bl	nvicDisableVector
 1089              	.LVL125:
 1090              		.loc 1 388 0
 1091 0014 0920     		movs	r0, #9
 1092 0016 FFF7FEFF 		bl	nvicDisableVector
 1093              	.LVL126:
 1094              		.loc 1 389 0
 1095 001a 0A20     		movs	r0, #10
 1096 001c FFF7FEFF 		bl	nvicDisableVector
 1097              	.LVL127:
 1098              		.loc 1 390 0
 1099 0020 1720     		movs	r0, #23
 1100 0022 FFF7FEFF 		bl	nvicDisableVector
 1101              	.LVL128:
 1102              		.loc 1 391 0
 1103 0026 2820     		movs	r0, #40
 1104 0028 FFF7FEFF 		bl	nvicDisableVector
 1105              	.LVL129:
 1106              		.loc 1 392 0
 1107 002c 0120     		movs	r0, #1
 1108 002e FFF7FEFF 		bl	nvicDisableVector
 1109              	.LVL130:
 1110              		.loc 1 393 0
 1111 0032 2920     		movs	r0, #41
 1112 0034 FFF7FEFF 		bl	nvicDisableVector
 1113              	.LVL131:
 1114              		.loc 1 395 0
 1115 0038 2A20     		movs	r0, #42
 1116 003a FFF7FEFF 		bl	nvicDisableVector
 1117              	.LVL132:
 1118              		.loc 1 398 0
 1119 003e 3E20     		movs	r0, #62
 1120 0040 FFF7FEFF 		bl	nvicDisableVector
 1121              	.LVL133:
 1122              		.loc 1 401 0
 1123 0044 4C20     		movs	r0, #76
 1124 0046 FFF7FEFF 		bl	nvicDisableVector
 1125              	.LVL134:
 1126              		.loc 1 404 0
 1127 004a 0220     		movs	r0, #2
 1128 004c FFF7FEFF 		bl	nvicDisableVector
 1129              	.LVL135:
 1130              		.loc 1 406 0
 1131 0050 0320     		movs	r0, #3
 1132              		.loc 1 407 0
 1133 0052 BDE80840 		pop	{r3, lr}
 1134              		.cfi_restore 14
 1135              		.cfi_restore 3
 1136              		.cfi_def_cfa_offset 0
 1137              		.loc 1 406 0
 1138 0056 FFF7FEBF 		b	nvicDisableVector
 1139              	.LVL136:
 1140              		.cfi_endproc
ARM GAS  C:\cygwin64\tmp\ccV2MiVF.s 			page 21


 1141              	.LFE292:
 1142              		.size	ext_lld_exti_irq_disable, .-ext_lld_exti_irq_disable
 1143              		.text
 1144              	.Letext0:
 1145              		.file 2 "c:\\program files (x86)\\gnu tools arm embedded\\6 2017-q2-update\\lib\\gcc\\arm-none-eab
 1146              		.file 3 "c:\\program files (x86)\\gnu tools arm embedded\\6 2017-q2-update\\arm-none-eabi\\include
 1147              		.file 4 "c:\\program files (x86)\\gnu tools arm embedded\\6 2017-q2-update\\arm-none-eabi\\include
 1148              		.file 5 "../../modules/ChibiOS/os/common/ports/ARMCMx/compilers/GCC/chtypes.h"
 1149              		.file 6 "../../modules/ChibiOS/os/rt/include/chsystypes.h"
 1150              		.file 7 "../../modules/ChibiOS/os/rt/include/chschd.h"
 1151              		.file 8 "../../modules/ChibiOS/os/common/ext/CMSIS/include/core_cm4.h"
 1152              		.file 9 "../../modules/ChibiOS/os/common/ext/CMSIS/ST/STM32F4xx/system_stm32f4xx.h"
 1153              		.file 10 "../../modules/ChibiOS/os/common/ext/CMSIS/ST/STM32F4xx/stm32f427xx.h"
 1154              		.file 11 "../../modules/ChibiOS/os/common/ports/ARMCMx/chcore.h"
 1155              		.file 12 "../../modules/ChibiOS/os/common/ports/ARMCMx/chcore_v7m.h"
 1156              		.file 13 "../../modules/ChibiOS/os/hal/ports/STM32/LLD/TIMv1/stm32_tim.h"
 1157              		.file 14 "../../modules/ChibiOS/os/rt/include/chtm.h"
 1158              		.file 15 "../../modules/ChibiOS/os/rt/include/chstats.h"
 1159              		.file 16 "../../modules/ChibiOS/os/rt/include/chsem.h"
 1160              		.file 17 "../../modules/ChibiOS/os/rt/include/chmtx.h"
 1161              		.file 18 "../../modules/ChibiOS/os/rt/include/chsys.h"
 1162              		.file 19 "../../modules/ChibiOS/os/rt/include/chregistry.h"
 1163              		.file 20 "../../modules/ChibiOS/os/rt/include/chevents.h"
 1164              		.file 21 "../../modules/ChibiOS/os/hal/ports/STM32/LLD/DMAv2/stm32_dma.h"
 1165              		.file 22 "../../modules/ChibiOS/os/hal/include/hal_ioblock.h"
 1166              		.file 23 "../../modules/ChibiOS/os/hal/include/hal_queues.h"
 1167              		.file 24 "../../modules/ChibiOS/os/hal/ports/STM32/LLD/GPIOv2/hal_pal_lld.h"
 1168              		.file 25 "../../modules/ChibiOS/os/hal/include/hal_adc.h"
 1169              		.file 26 "../../modules/ChibiOS/os/hal/ports/STM32/LLD/ADCv2/hal_adc_lld.h"
 1170              		.file 27 "../../modules/ChibiOS/os/hal/include/hal_ext.h"
 1171              		.file 28 "../../modules/ChibiOS/os/hal/ports/STM32/LLD/EXTIv1/hal_ext_lld.h"
 1172              		.file 29 "../../modules/ChibiOS/os/hal/include/hal_i2c.h"
 1173              		.file 30 "../../modules/ChibiOS/os/hal/ports/STM32/LLD/I2Cv1/hal_i2c_lld.h"
 1174              		.file 31 "../../modules/ChibiOS/os/hal/include/hal_pwm.h"
 1175              		.file 32 "../../modules/ChibiOS/os/hal/ports/STM32/LLD/TIMv1/hal_pwm_lld.h"
 1176              		.file 33 "../../modules/ChibiOS/os/hal/include/hal_serial.h"
 1177              		.file 34 "../../modules/ChibiOS/os/hal/ports/STM32/LLD/USARTv1/hal_serial_lld.h"
 1178              		.file 35 "../../modules/ChibiOS/os/hal/include/hal_sdc.h"
 1179              		.file 36 "../../modules/ChibiOS/os/hal/ports/STM32/LLD/SDIOv1/hal_sdc_lld.h"
 1180              		.file 37 "../../modules/ChibiOS/os/hal/include/hal_spi.h"
 1181              		.file 38 "../../modules/ChibiOS/os/hal/ports/STM32/LLD/SPIv1/hal_spi_lld.h"
 1182              		.file 39 "../../modules/ChibiOS/os/hal/include/hal_usb.h"
 1183              		.file 40 "../../modules/ChibiOS/os/hal/ports/STM32/LLD/OTGv1/hal_usb_lld.h"
 1184              		.file 41 "../../modules/ChibiOS/os/hal/ports/STM32/LLD/OTGv1/stm32_otg.h"
 1185              		.file 42 "../../modules/ChibiOS/os/hal/ports/common/ARMCMx/nvic.h"