ARM GAS  C:\cygwin64\tmp\cc5eExrk.s 			page 1


   1              		.cpu cortex-m4
   2              		.eabi_attribute 27, 1
   3              		.eabi_attribute 28, 1
   4              		.eabi_attribute 20, 1
   5              		.eabi_attribute 21, 1
   6              		.eabi_attribute 23, 3
   7              		.eabi_attribute 24, 1
   8              		.eabi_attribute 25, 1
   9              		.eabi_attribute 26, 1
  10              		.eabi_attribute 30, 4
  11              		.eabi_attribute 34, 1
  12              		.eabi_attribute 18, 4
  13              		.file	"hal_adc.c"
  14              		.text
  15              	.Ltext0:
  16              		.cfi_sections	.debug_frame
  17              		.section	.text.adcInit,"ax",%progbits
  18              		.align	1
  19              		.global	adcInit
  20              		.syntax unified
  21              		.thumb
  22              		.thumb_func
  23              		.fpu fpv4-sp-d16
  24              		.type	adcInit, %function
  25              	adcInit:
  26              	.LFB277:
  27              		.file 1 "../../modules/ChibiOS/os/hal/src/hal_adc.c"
  28              		.loc 1 56 0
  29              		.cfi_startproc
  30              		@ args = 0, pretend = 0, frame = 0
  31              		@ frame_needed = 0, uses_anonymous_args = 0
  32              		@ link register save eliminated.
  33              		.loc 1 58 0
  34 0000 FFF7FEBF 		b	adc_lld_init
  35              	.LVL0:
  36              		.cfi_endproc
  37              	.LFE277:
  38              		.size	adcInit, .-adcInit
  39              		.section	.text.adcObjectInit,"ax",%progbits
  40              		.align	1
  41              		.global	adcObjectInit
  42              		.syntax unified
  43              		.thumb
  44              		.thumb_func
  45              		.fpu fpv4-sp-d16
  46              		.type	adcObjectInit, %function
  47              	adcObjectInit:
  48              	.LFB278:
  49              		.loc 1 68 0
  50              		.cfi_startproc
  51              		@ args = 0, pretend = 0, frame = 0
  52              		@ frame_needed = 0, uses_anonymous_args = 0
  53              		@ link register save eliminated.
  54              	.LVL1:
  55              		.loc 1 70 0
  56 0000 0123     		movs	r3, #1
  57 0002 0370     		strb	r3, [r0]
ARM GAS  C:\cygwin64\tmp\cc5eExrk.s 			page 2


  58              		.loc 1 71 0
  59 0004 0023     		movs	r3, #0
  60 0006 4360     		str	r3, [r0, #4]
  61              		.loc 1 72 0
  62 0008 8360     		str	r3, [r0, #8]
  63              		.loc 1 73 0
  64 000a C360     		str	r3, [r0, #12]
  65              		.loc 1 74 0
  66 000c 0361     		str	r3, [r0, #16]
  67              		.loc 1 76 0
  68 000e 4361     		str	r3, [r0, #20]
  69              	.LVL2:
  70              	.LBB50:
  71              	.LBB51:
  72              		.file 2 "../../modules/ChibiOS/os/hal/osal/rt/osal.h"
  73              		.loc 2 887 0
  74 0010 1830     		adds	r0, r0, #24
  75              	.LVL3:
  76 0012 FFF7FEBF 		b	chMtxObjectInit
  77              	.LVL4:
  78              	.LBE51:
  79              	.LBE50:
  80              		.cfi_endproc
  81              	.LFE278:
  82              		.size	adcObjectInit, .-adcObjectInit
  83              		.section	.text.adcStart,"ax",%progbits
  84              		.align	1
  85              		.global	adcStart
  86              		.syntax unified
  87              		.thumb
  88              		.thumb_func
  89              		.fpu fpv4-sp-d16
  90              		.type	adcStart, %function
  91              	adcStart:
  92              	.LFB279:
  93              		.loc 1 95 0
  94              		.cfi_startproc
  95              		@ args = 0, pretend = 0, frame = 0
  96              		@ frame_needed = 0, uses_anonymous_args = 0
  97              	.LVL5:
  98 0000 38B5     		push	{r3, r4, r5, lr}
  99              		.cfi_def_cfa_offset 16
 100              		.cfi_offset 3, -16
 101              		.cfi_offset 4, -12
 102              		.cfi_offset 5, -8
 103              		.cfi_offset 14, -4
 104              		.loc 1 95 0
 105 0002 0446     		mov	r4, r0
 106 0004 0D46     		mov	r5, r1
 107              	.LBB66:
 108              	.LBB67:
 109              	.LBB68:
 110              	.LBB69:
 111              	.LBB70:
 112              	.LBB71:
 113              		.file 3 "../../modules/ChibiOS/os/common/ext/CMSIS/include/cmsis_gcc.h"
 114              		.loc 3 264 0
ARM GAS  C:\cygwin64\tmp\cc5eExrk.s 			page 3


 115 0006 2023     		movs	r3, #32
 116              		.syntax unified
 117              	@ 264 "../../modules/ChibiOS/os/common/ext/CMSIS/include/cmsis_gcc.h" 1
 118 0008 83F31188 		MSR basepri, r3
 119              	@ 0 "" 2
 120              	.LVL6:
 121              		.thumb
 122              		.syntax unified
 123              	.LBE71:
 124              	.LBE70:
 125              	.LBE69:
 126              		.file 4 "../../modules/ChibiOS/os/rt/include/chsys.h"
 127              		.loc 4 377 0
 128 000c FFF7FEFF 		bl	_stats_start_measure_crit_thd
 129              	.LVL7:
 130              	.LBE68:
 131              	.LBE67:
 132              	.LBE66:
 133              		.loc 1 103 0
 134 0010 2046     		mov	r0, r4
 135              		.loc 1 102 0
 136 0012 6560     		str	r5, [r4, #4]
 137              		.loc 1 103 0
 138 0014 FFF7FEFF 		bl	adc_lld_start
 139              	.LVL8:
 140              		.loc 1 104 0
 141 0018 0223     		movs	r3, #2
 142 001a 2370     		strb	r3, [r4]
 143              	.LBB72:
 144              	.LBB73:
 145              	.LBB74:
 146              		.loc 4 389 0
 147 001c FFF7FEFF 		bl	_stats_stop_measure_crit_thd
 148              	.LVL9:
 149              	.LBB75:
 150              	.LBB76:
 151              	.LBB77:
 152              		.loc 3 264 0
 153 0020 0023     		movs	r3, #0
 154              		.syntax unified
 155              	@ 264 "../../modules/ChibiOS/os/common/ext/CMSIS/include/cmsis_gcc.h" 1
 156 0022 83F31188 		MSR basepri, r3
 157              	@ 0 "" 2
 158              	.LVL10:
 159              		.thumb
 160              		.syntax unified
 161 0026 38BD     		pop	{r3, r4, r5, pc}
 162              	.LBE77:
 163              	.LBE76:
 164              	.LBE75:
 165              	.LBE74:
 166              	.LBE73:
 167              	.LBE72:
 168              		.cfi_endproc
 169              	.LFE279:
 170              		.size	adcStart, .-adcStart
 171              		.section	.text.adcStop,"ax",%progbits
ARM GAS  C:\cygwin64\tmp\cc5eExrk.s 			page 4


 172              		.align	1
 173              		.global	adcStop
 174              		.syntax unified
 175              		.thumb
 176              		.thumb_func
 177              		.fpu fpv4-sp-d16
 178              		.type	adcStop, %function
 179              	adcStop:
 180              	.LFB280:
 181              		.loc 1 115 0
 182              		.cfi_startproc
 183              		@ args = 0, pretend = 0, frame = 0
 184              		@ frame_needed = 0, uses_anonymous_args = 0
 185              	.LVL11:
 186 0000 38B5     		push	{r3, r4, r5, lr}
 187              		.cfi_def_cfa_offset 16
 188              		.cfi_offset 3, -16
 189              		.cfi_offset 4, -12
 190              		.cfi_offset 5, -8
 191              		.cfi_offset 14, -4
 192              		.loc 1 115 0
 193 0002 0446     		mov	r4, r0
 194              	.LBB92:
 195              	.LBB93:
 196              	.LBB94:
 197              	.LBB95:
 198              	.LBB96:
 199              	.LBB97:
 200              		.loc 3 264 0
 201 0004 2023     		movs	r3, #32
 202              		.syntax unified
 203              	@ 264 "../../modules/ChibiOS/os/common/ext/CMSIS/include/cmsis_gcc.h" 1
 204 0006 83F31188 		MSR basepri, r3
 205              	@ 0 "" 2
 206              	.LVL12:
 207              		.thumb
 208              		.syntax unified
 209              	.LBE97:
 210              	.LBE96:
 211              	.LBE95:
 212              		.loc 4 377 0
 213 000a FFF7FEFF 		bl	_stats_start_measure_crit_thd
 214              	.LVL13:
 215              	.LBE94:
 216              	.LBE93:
 217              	.LBE92:
 218              		.loc 1 124 0
 219 000e 2046     		mov	r0, r4
 220 0010 FFF7FEFF 		bl	adc_lld_stop
 221              	.LVL14:
 222              		.loc 1 125 0
 223 0014 0025     		movs	r5, #0
 224              		.loc 1 126 0
 225 0016 0123     		movs	r3, #1
 226              		.loc 1 125 0
 227 0018 6560     		str	r5, [r4, #4]
 228              		.loc 1 126 0
ARM GAS  C:\cygwin64\tmp\cc5eExrk.s 			page 5


 229 001a 2370     		strb	r3, [r4]
 230              	.LBB98:
 231              	.LBB99:
 232              	.LBB100:
 233              		.loc 4 389 0
 234 001c FFF7FEFF 		bl	_stats_stop_measure_crit_thd
 235              	.LVL15:
 236              	.LBB101:
 237              	.LBB102:
 238              	.LBB103:
 239              		.loc 3 264 0
 240              		.syntax unified
 241              	@ 264 "../../modules/ChibiOS/os/common/ext/CMSIS/include/cmsis_gcc.h" 1
 242 0020 85F31188 		MSR basepri, r5
 243              	@ 0 "" 2
 244              	.LVL16:
 245              		.thumb
 246              		.syntax unified
 247 0024 38BD     		pop	{r3, r4, r5, pc}
 248              	.LBE103:
 249              	.LBE102:
 250              	.LBE101:
 251              	.LBE100:
 252              	.LBE99:
 253              	.LBE98:
 254              		.cfi_endproc
 255              	.LFE280:
 256              		.size	adcStop, .-adcStop
 257              		.section	.text.adcStartConversion,"ax",%progbits
 258              		.align	1
 259              		.global	adcStartConversion
 260              		.syntax unified
 261              		.thumb
 262              		.thumb_func
 263              		.fpu fpv4-sp-d16
 264              		.type	adcStartConversion, %function
 265              	adcStartConversion:
 266              	.LFB281:
 267              		.loc 1 150 0
 268              		.cfi_startproc
 269              		@ args = 0, pretend = 0, frame = 0
 270              		@ frame_needed = 0, uses_anonymous_args = 0
 271              	.LVL17:
 272 0000 F8B5     		push	{r3, r4, r5, r6, r7, lr}
 273              		.cfi_def_cfa_offset 24
 274              		.cfi_offset 3, -24
 275              		.cfi_offset 4, -20
 276              		.cfi_offset 5, -16
 277              		.cfi_offset 6, -12
 278              		.cfi_offset 7, -8
 279              		.cfi_offset 14, -4
 280              		.loc 1 150 0
 281 0002 1E46     		mov	r6, r3
 282 0004 0446     		mov	r4, r0
 283 0006 0D46     		mov	r5, r1
 284 0008 1746     		mov	r7, r2
 285              	.LBB120:
ARM GAS  C:\cygwin64\tmp\cc5eExrk.s 			page 6


 286              	.LBB121:
 287              	.LBB122:
 288              	.LBB123:
 289              	.LBB124:
 290              	.LBB125:
 291              		.loc 3 264 0
 292 000a 2023     		movs	r3, #32
 293              	.LVL18:
 294              		.syntax unified
 295              	@ 264 "../../modules/ChibiOS/os/common/ext/CMSIS/include/cmsis_gcc.h" 1
 296 000c 83F31188 		MSR basepri, r3
 297              	@ 0 "" 2
 298              	.LVL19:
 299              		.thumb
 300              		.syntax unified
 301              	.LBE125:
 302              	.LBE124:
 303              	.LBE123:
 304              		.loc 4 377 0
 305 0010 FFF7FEFF 		bl	_stats_start_measure_crit_thd
 306              	.LVL20:
 307              	.LBE122:
 308              	.LBE121:
 309              	.LBE120:
 310              	.LBB126:
 311              	.LBB127:
 312              		.loc 1 191 0
 313 0014 0323     		movs	r3, #3
 314 0016 2370     		strb	r3, [r4]
 315              		.loc 1 192 0
 316 0018 2046     		mov	r0, r4
 317              		.loc 1 188 0
 318 001a A760     		str	r7, [r4, #8]
 319              		.loc 1 189 0
 320 001c E660     		str	r6, [r4, #12]
 321              		.loc 1 190 0
 322 001e 2561     		str	r5, [r4, #16]
 323              		.loc 1 192 0
 324 0020 FFF7FEFF 		bl	adc_lld_start_conversion
 325              	.LVL21:
 326              	.LBE127:
 327              	.LBE126:
 328              	.LBB128:
 329              	.LBB129:
 330              	.LBB130:
 331              		.loc 4 389 0
 332 0024 FFF7FEFF 		bl	_stats_stop_measure_crit_thd
 333              	.LVL22:
 334              	.LBB131:
 335              	.LBB132:
 336              	.LBB133:
 337              		.loc 3 264 0
 338 0028 0023     		movs	r3, #0
 339              		.syntax unified
 340              	@ 264 "../../modules/ChibiOS/os/common/ext/CMSIS/include/cmsis_gcc.h" 1
 341 002a 83F31188 		MSR basepri, r3
 342              	@ 0 "" 2
ARM GAS  C:\cygwin64\tmp\cc5eExrk.s 			page 7


 343              	.LVL23:
 344              		.thumb
 345              		.syntax unified
 346 002e F8BD     		pop	{r3, r4, r5, r6, r7, pc}
 347              	.LBE133:
 348              	.LBE132:
 349              	.LBE131:
 350              	.LBE130:
 351              	.LBE129:
 352              	.LBE128:
 353              		.cfi_endproc
 354              	.LFE281:
 355              		.size	adcStartConversion, .-adcStartConversion
 356              		.section	.text.adcStartConversionI,"ax",%progbits
 357              		.align	1
 358              		.global	adcStartConversionI
 359              		.syntax unified
 360              		.thumb
 361              		.thumb_func
 362              		.fpu fpv4-sp-d16
 363              		.type	adcStartConversionI, %function
 364              	adcStartConversionI:
 365              	.LFB282:
 366              		.loc 1 178 0
 367              		.cfi_startproc
 368              		@ args = 0, pretend = 0, frame = 0
 369              		@ frame_needed = 0, uses_anonymous_args = 0
 370              		@ link register save eliminated.
 371              	.LVL24:
 372 0000 10B4     		push	{r4}
 373              		.cfi_def_cfa_offset 4
 374              		.cfi_offset 4, -4
 375              		.loc 1 189 0
 376 0002 C360     		str	r3, [r0, #12]
 377              		.loc 1 191 0
 378 0004 0323     		movs	r3, #3
 379              	.LVL25:
 380              		.loc 1 188 0
 381 0006 8260     		str	r2, [r0, #8]
 382              		.loc 1 190 0
 383 0008 0161     		str	r1, [r0, #16]
 384              		.loc 1 191 0
 385 000a 0370     		strb	r3, [r0]
 386              		.loc 1 193 0
 387 000c 5DF8044B 		ldr	r4, [sp], #4
 388              		.cfi_restore 4
 389              		.cfi_def_cfa_offset 0
 390              		.loc 1 192 0
 391 0010 FFF7FEBF 		b	adc_lld_start_conversion
 392              	.LVL26:
 393              		.cfi_endproc
 394              	.LFE282:
 395              		.size	adcStartConversionI, .-adcStartConversionI
 396              		.section	.text.adcStopConversion,"ax",%progbits
 397              		.align	1
 398              		.global	adcStopConversion
 399              		.syntax unified
ARM GAS  C:\cygwin64\tmp\cc5eExrk.s 			page 8


 400              		.thumb
 401              		.thumb_func
 402              		.fpu fpv4-sp-d16
 403              		.type	adcStopConversion, %function
 404              	adcStopConversion:
 405              	.LFB283:
 406              		.loc 1 205 0
 407              		.cfi_startproc
 408              		@ args = 0, pretend = 0, frame = 0
 409              		@ frame_needed = 0, uses_anonymous_args = 0
 410              	.LVL27:
 411 0000 10B5     		push	{r4, lr}
 412              		.cfi_def_cfa_offset 8
 413              		.cfi_offset 4, -8
 414              		.cfi_offset 14, -4
 415              	.LBB150:
 416              	.LBB151:
 417              	.LBB152:
 418              	.LBB153:
 419              	.LBB154:
 420              	.LBB155:
 421              		.loc 3 264 0
 422 0002 2023     		movs	r3, #32
 423              	.LBE155:
 424              	.LBE154:
 425              	.LBE153:
 426              	.LBE152:
 427              	.LBE151:
 428              	.LBE150:
 429              		.loc 1 205 0
 430 0004 0446     		mov	r4, r0
 431              	.LBB161:
 432              	.LBB160:
 433              	.LBB159:
 434              	.LBB158:
 435              	.LBB157:
 436              	.LBB156:
 437              		.loc 3 264 0
 438              		.syntax unified
 439              	@ 264 "../../modules/ChibiOS/os/common/ext/CMSIS/include/cmsis_gcc.h" 1
 440 0006 83F31188 		MSR basepri, r3
 441              	@ 0 "" 2
 442              	.LVL28:
 443              		.thumb
 444              		.syntax unified
 445              	.LBE156:
 446              	.LBE157:
 447              	.LBE158:
 448              		.loc 4 377 0
 449 000a FFF7FEFF 		bl	_stats_start_measure_crit_thd
 450              	.LVL29:
 451              	.LBE159:
 452              	.LBE160:
 453              	.LBE161:
 454              		.loc 1 212 0
 455 000e 2378     		ldrb	r3, [r4]	@ zero_extendqisi2
 456 0010 022B     		cmp	r3, #2
ARM GAS  C:\cygwin64\tmp\cc5eExrk.s 			page 9


 457 0012 0CD0     		beq	.L8
 458              		.loc 1 213 0
 459 0014 2046     		mov	r0, r4
 460 0016 FFF7FEFF 		bl	adc_lld_stop_conversion
 461              	.LVL30:
 462              		.loc 1 214 0
 463 001a 0023     		movs	r3, #0
 464              		.loc 1 215 0
 465 001c 2046     		mov	r0, r4
 466              		.loc 1 214 0
 467 001e 2361     		str	r3, [r4, #16]
 468              		.loc 1 215 0
 469 0020 0223     		movs	r3, #2
 470 0022 00F8143B 		strb	r3, [r0], #20
 471              	.LVL31:
 472              	.LBB162:
 473              	.LBB163:
 474              		.loc 2 743 0
 475 0026 6FF00101 		mvn	r1, #1
 476 002a FFF7FEFF 		bl	chThdResumeS
 477              	.LVL32:
 478              	.L8:
 479              	.LBE163:
 480              	.LBE162:
 481              	.LBB164:
 482              	.LBB165:
 483              	.LBB166:
 484              		.loc 4 389 0
 485 002e FFF7FEFF 		bl	_stats_stop_measure_crit_thd
 486              	.LVL33:
 487              	.LBB167:
 488              	.LBB168:
 489              	.LBB169:
 490              		.loc 3 264 0
 491 0032 0023     		movs	r3, #0
 492              		.syntax unified
 493              	@ 264 "../../modules/ChibiOS/os/common/ext/CMSIS/include/cmsis_gcc.h" 1
 494 0034 83F31188 		MSR basepri, r3
 495              	@ 0 "" 2
 496              	.LVL34:
 497              		.thumb
 498              		.syntax unified
 499 0038 10BD     		pop	{r4, pc}
 500              	.LBE169:
 501              	.LBE168:
 502              	.LBE167:
 503              	.LBE166:
 504              	.LBE165:
 505              	.LBE164:
 506              		.cfi_endproc
 507              	.LFE283:
 508              		.size	adcStopConversion, .-adcStopConversion
 509              		.section	.text.adcStopConversionI,"ax",%progbits
 510              		.align	1
 511              		.global	adcStopConversionI
 512              		.syntax unified
 513              		.thumb
ARM GAS  C:\cygwin64\tmp\cc5eExrk.s 			page 10


 514              		.thumb_func
 515              		.fpu fpv4-sp-d16
 516              		.type	adcStopConversionI, %function
 517              	adcStopConversionI:
 518              	.LFB284:
 519              		.loc 1 231 0
 520              		.cfi_startproc
 521              		@ args = 0, pretend = 0, frame = 0
 522              		@ frame_needed = 0, uses_anonymous_args = 0
 523              	.LVL35:
 524              		.loc 1 240 0
 525 0000 0378     		ldrb	r3, [r0]	@ zero_extendqisi2
 526 0002 022B     		cmp	r3, #2
 527              		.loc 1 231 0
 528 0004 10B5     		push	{r4, lr}
 529              		.cfi_def_cfa_offset 8
 530              		.cfi_offset 4, -8
 531              		.cfi_offset 14, -4
 532              		.loc 1 231 0
 533 0006 0446     		mov	r4, r0
 534              		.loc 1 240 0
 535 0008 0DD0     		beq	.L12
 536              		.loc 1 241 0
 537 000a FFF7FEFF 		bl	adc_lld_stop_conversion
 538              	.LVL36:
 539              		.loc 1 242 0
 540 000e 0023     		movs	r3, #0
 541              		.loc 1 243 0
 542 0010 2046     		mov	r0, r4
 543              		.loc 1 242 0
 544 0012 2361     		str	r3, [r4, #16]
 545              		.loc 1 243 0
 546 0014 0223     		movs	r3, #2
 547 0016 00F8143B 		strb	r3, [r0], #20
 548              	.LVL37:
 549              	.LBB170:
 550              	.LBB171:
 551              		.loc 2 728 0
 552 001a 6FF00101 		mvn	r1, #1
 553              	.LBE171:
 554              	.LBE170:
 555              		.loc 1 246 0
 556 001e BDE81040 		pop	{r4, lr}
 557              		.cfi_remember_state
 558              		.cfi_restore 14
 559              		.cfi_restore 4
 560              		.cfi_def_cfa_offset 0
 561              	.LVL38:
 562              	.LBB173:
 563              	.LBB172:
 564              		.loc 2 728 0
 565 0022 FFF7FEBF 		b	chThdResumeI
 566              	.LVL39:
 567              	.L12:
 568              		.cfi_restore_state
 569 0026 10BD     		pop	{r4, pc}
 570              	.LBE172:
ARM GAS  C:\cygwin64\tmp\cc5eExrk.s 			page 11


 571              	.LBE173:
 572              		.cfi_endproc
 573              	.LFE284:
 574              		.size	adcStopConversionI, .-adcStopConversionI
 575              		.section	.text.adcConvert,"ax",%progbits
 576              		.align	1
 577              		.global	adcConvert
 578              		.syntax unified
 579              		.thumb
 580              		.thumb_func
 581              		.fpu fpv4-sp-d16
 582              		.type	adcConvert, %function
 583              	adcConvert:
 584              	.LFB285:
 585              		.loc 1 275 0
 586              		.cfi_startproc
 587              		@ args = 0, pretend = 0, frame = 0
 588              		@ frame_needed = 0, uses_anonymous_args = 0
 589              	.LVL40:
 590 0000 F8B5     		push	{r3, r4, r5, r6, r7, lr}
 591              		.cfi_def_cfa_offset 24
 592              		.cfi_offset 3, -24
 593              		.cfi_offset 4, -20
 594              		.cfi_offset 5, -16
 595              		.cfi_offset 6, -12
 596              		.cfi_offset 7, -8
 597              		.cfi_offset 14, -4
 598              		.loc 1 275 0
 599 0002 1E46     		mov	r6, r3
 600 0004 0446     		mov	r4, r0
 601 0006 0D46     		mov	r5, r1
 602 0008 1746     		mov	r7, r2
 603              	.LBB192:
 604              	.LBB193:
 605              	.LBB194:
 606              	.LBB195:
 607              	.LBB196:
 608              	.LBB197:
 609              		.loc 3 264 0
 610 000a 2023     		movs	r3, #32
 611              	.LVL41:
 612              		.syntax unified
 613              	@ 264 "../../modules/ChibiOS/os/common/ext/CMSIS/include/cmsis_gcc.h" 1
 614 000c 83F31188 		MSR basepri, r3
 615              	@ 0 "" 2
 616              	.LVL42:
 617              		.thumb
 618              		.syntax unified
 619              	.LBE197:
 620              	.LBE196:
 621              	.LBE195:
 622              		.loc 4 377 0
 623 0010 FFF7FEFF 		bl	_stats_start_measure_crit_thd
 624              	.LVL43:
 625              	.LBE194:
 626              	.LBE193:
 627              	.LBE192:
ARM GAS  C:\cygwin64\tmp\cc5eExrk.s 			page 12


 628              	.LBB198:
 629              	.LBB199:
 630              		.loc 1 191 0
 631 0014 0323     		movs	r3, #3
 632 0016 2370     		strb	r3, [r4]
 633              		.loc 1 188 0
 634 0018 A760     		str	r7, [r4, #8]
 635              		.loc 1 189 0
 636 001a E660     		str	r6, [r4, #12]
 637              		.loc 1 190 0
 638 001c 2561     		str	r5, [r4, #16]
 639              		.loc 1 192 0
 640 001e 2046     		mov	r0, r4
 641 0020 FFF7FEFF 		bl	adc_lld_start_conversion
 642              	.LVL44:
 643              	.LBE199:
 644              	.LBE198:
 645              	.LBB200:
 646              	.LBB201:
 647              		.loc 2 688 0
 648 0024 04F11400 		add	r0, r4, #20
 649              	.LVL45:
 650 0028 FFF7FEFF 		bl	chThdSuspendS
 651              	.LVL46:
 652 002c 0446     		mov	r4, r0
 653              	.LVL47:
 654              	.LBE201:
 655              	.LBE200:
 656              	.LBB202:
 657              	.LBB203:
 658              	.LBB204:
 659              		.loc 4 389 0
 660 002e FFF7FEFF 		bl	_stats_stop_measure_crit_thd
 661              	.LVL48:
 662              	.LBB205:
 663              	.LBB206:
 664              	.LBB207:
 665              		.loc 3 264 0
 666 0032 0023     		movs	r3, #0
 667              		.syntax unified
 668              	@ 264 "../../modules/ChibiOS/os/common/ext/CMSIS/include/cmsis_gcc.h" 1
 669 0034 83F31188 		MSR basepri, r3
 670              	@ 0 "" 2
 671              	.LVL49:
 672              		.thumb
 673              		.syntax unified
 674              	.LBE207:
 675              	.LBE206:
 676              	.LBE205:
 677              	.LBE204:
 678              	.LBE203:
 679              	.LBE202:
 680              		.loc 1 284 0
 681 0038 2046     		mov	r0, r4
 682 003a F8BD     		pop	{r3, r4, r5, r6, r7, pc}
 683              		.cfi_endproc
 684              	.LFE285:
ARM GAS  C:\cygwin64\tmp\cc5eExrk.s 			page 13


 685              		.size	adcConvert, .-adcConvert
 686              		.section	.text.adcAcquireBus,"ax",%progbits
 687              		.align	1
 688              		.global	adcAcquireBus
 689              		.syntax unified
 690              		.thumb
 691              		.thumb_func
 692              		.fpu fpv4-sp-d16
 693              		.type	adcAcquireBus, %function
 694              	adcAcquireBus:
 695              	.LFB286:
 696              		.loc 1 299 0
 697              		.cfi_startproc
 698              		@ args = 0, pretend = 0, frame = 0
 699              		@ frame_needed = 0, uses_anonymous_args = 0
 700              		@ link register save eliminated.
 701              	.LVL50:
 702              	.LBB208:
 703              	.LBB209:
 704              		.loc 2 907 0
 705 0000 1830     		adds	r0, r0, #24
 706              	.LVL51:
 707 0002 FFF7FEBF 		b	chMtxLock
 708              	.LVL52:
 709              	.LBE209:
 710              	.LBE208:
 711              		.cfi_endproc
 712              	.LFE286:
 713              		.size	adcAcquireBus, .-adcAcquireBus
 714              		.section	.text.adcReleaseBus,"ax",%progbits
 715              		.align	1
 716              		.global	adcReleaseBus
 717              		.syntax unified
 718              		.thumb
 719              		.thumb_func
 720              		.fpu fpv4-sp-d16
 721              		.type	adcReleaseBus, %function
 722              	adcReleaseBus:
 723              	.LFB287:
 724              		.loc 1 315 0
 725              		.cfi_startproc
 726              		@ args = 0, pretend = 0, frame = 0
 727              		@ frame_needed = 0, uses_anonymous_args = 0
 728              		@ link register save eliminated.
 729              	.LVL53:
 730              	.LBB210:
 731              	.LBB211:
 732              		.loc 2 931 0
 733 0000 1830     		adds	r0, r0, #24
 734              	.LVL54:
 735 0002 FFF7FEBF 		b	chMtxUnlock
 736              	.LVL55:
 737              	.LBE211:
 738              	.LBE210:
 739              		.cfi_endproc
 740              	.LFE287:
 741              		.size	adcReleaseBus, .-adcReleaseBus
ARM GAS  C:\cygwin64\tmp\cc5eExrk.s 			page 14


 742              		.text
 743              	.Letext0:
 744              		.file 5 "c:\\program files (x86)\\gnu tools arm embedded\\6 2017-q2-update\\lib\\gcc\\arm-none-eab
 745              		.file 6 "c:\\program files (x86)\\gnu tools arm embedded\\6 2017-q2-update\\arm-none-eabi\\include
 746              		.file 7 "c:\\program files (x86)\\gnu tools arm embedded\\6 2017-q2-update\\arm-none-eabi\\include
 747              		.file 8 "../../modules/ChibiOS/os/common/ports/ARMCMx/compilers/GCC/chtypes.h"
 748              		.file 9 "../../modules/ChibiOS/os/rt/include/chsystypes.h"
 749              		.file 10 "../../modules/ChibiOS/os/rt/include/chschd.h"
 750              		.file 11 "../../modules/ChibiOS/os/common/ext/CMSIS/include/core_cm4.h"
 751              		.file 12 "../../modules/ChibiOS/os/common/ext/CMSIS/ST/STM32F4xx/system_stm32f4xx.h"
 752              		.file 13 "../../modules/ChibiOS/os/common/ext/CMSIS/ST/STM32F4xx/stm32f427xx.h"
 753              		.file 14 "../../modules/ChibiOS/os/common/ports/ARMCMx/chcore.h"
 754              		.file 15 "../../modules/ChibiOS/os/common/ports/ARMCMx/chcore_v7m.h"
 755              		.file 16 "../../modules/ChibiOS/os/hal/ports/STM32/LLD/TIMv1/stm32_tim.h"
 756              		.file 17 "../../modules/ChibiOS/os/rt/include/chtm.h"
 757              		.file 18 "../../modules/ChibiOS/os/rt/include/chstats.h"
 758              		.file 19 "../../modules/ChibiOS/os/rt/include/chsem.h"
 759              		.file 20 "../../modules/ChibiOS/os/rt/include/chmtx.h"
 760              		.file 21 "../../modules/ChibiOS/os/rt/include/chregistry.h"
 761              		.file 22 "../../modules/ChibiOS/os/rt/include/chevents.h"
 762              		.file 23 "../../modules/ChibiOS/os/hal/ports/STM32/LLD/DMAv2/stm32_dma.h"
 763              		.file 24 "../../modules/ChibiOS/os/hal/include/hal_ioblock.h"
 764              		.file 25 "../../modules/ChibiOS/os/hal/include/hal_queues.h"
 765              		.file 26 "../../modules/ChibiOS/os/hal/ports/STM32/LLD/GPIOv2/hal_pal_lld.h"
 766              		.file 27 "../../modules/ChibiOS/os/hal/include/hal_adc.h"
 767              		.file 28 "../../modules/ChibiOS/os/hal/ports/STM32/LLD/ADCv2/hal_adc_lld.h"
 768              		.file 29 "../../modules/ChibiOS/os/hal/include/hal_ext.h"
 769              		.file 30 "../../modules/ChibiOS/os/hal/ports/STM32/LLD/EXTIv1/hal_ext_lld.h"
 770              		.file 31 "../../modules/ChibiOS/os/hal/include/hal_i2c.h"
 771              		.file 32 "../../modules/ChibiOS/os/hal/ports/STM32/LLD/I2Cv1/hal_i2c_lld.h"
 772              		.file 33 "../../modules/ChibiOS/os/hal/include/hal_pwm.h"
 773              		.file 34 "../../modules/ChibiOS/os/hal/ports/STM32/LLD/TIMv1/hal_pwm_lld.h"
 774              		.file 35 "../../modules/ChibiOS/os/hal/include/hal_serial.h"
 775              		.file 36 "../../modules/ChibiOS/os/hal/ports/STM32/LLD/USARTv1/hal_serial_lld.h"
 776              		.file 37 "../../modules/ChibiOS/os/hal/include/hal_sdc.h"
 777              		.file 38 "../../modules/ChibiOS/os/hal/ports/STM32/LLD/SDIOv1/hal_sdc_lld.h"
 778              		.file 39 "../../modules/ChibiOS/os/hal/include/hal_spi.h"
 779              		.file 40 "../../modules/ChibiOS/os/hal/ports/STM32/LLD/SPIv1/hal_spi_lld.h"
 780              		.file 41 "../../modules/ChibiOS/os/hal/include/hal_usb.h"
 781              		.file 42 "../../modules/ChibiOS/os/hal/ports/STM32/LLD/OTGv1/hal_usb_lld.h"
 782              		.file 43 "../../modules/ChibiOS/os/hal/ports/STM32/LLD/OTGv1/stm32_otg.h"
 783              		.file 44 "../../modules/ChibiOS/os/rt/include/chthreads.h"