ARM GAS  C:\cygwin64\tmp\ccsD9IwC.s 			page 1


   1              		.cpu cortex-m4
   2              		.eabi_attribute 27, 1
   3              		.eabi_attribute 28, 1
   4              		.eabi_attribute 20, 1
   5              		.eabi_attribute 21, 1
   6              		.eabi_attribute 23, 3
   7              		.eabi_attribute 24, 1
   8              		.eabi_attribute 25, 1
   9              		.eabi_attribute 26, 1
  10              		.eabi_attribute 30, 4
  11              		.eabi_attribute 34, 1
  12              		.eabi_attribute 18, 4
  13              		.file	"hal_usb_lld.c"
  14              		.text
  15              	.Ltext0:
  16              		.cfi_sections	.debug_frame
  17              		.section	.text.otg_disable_ep,"ax",%progbits
  18              		.align	1
  19              		.syntax unified
  20              		.thumb
  21              		.thumb_func
  22              		.fpu fpv4-sp-d16
  23              		.type	otg_disable_ep, %function
  24              	otg_disable_ep:
  25              	.LFB278:
  26              		.file 1 "../../modules/ChibiOS/os/hal/ports/STM32/LLD/OTGv1/hal_usb_lld.c"
  27              		.loc 1 151 0
  28              		.cfi_startproc
  29              		@ args = 0, pretend = 0, frame = 0
  30              		@ frame_needed = 0, uses_anonymous_args = 0
  31              	.LVL0:
  32              		.loc 1 155 0
  33 0000 836D     		ldr	r3, [r0, #88]
  34              		.loc 1 151 0
  35 0002 30B5     		push	{r4, r5, lr}
  36              		.cfi_def_cfa_offset 12
  37              		.cfi_offset 4, -12
  38              		.cfi_offset 5, -8
  39              		.cfi_offset 14, -4
  40              		.loc 1 155 0
  41 0004 0022     		movs	r2, #0
  42 0006 9D68     		ldr	r5, [r3, #8]
  43              		.loc 1 152 0
  44 0008 446D     		ldr	r4, [r0, #84]
  45              	.LVL1:
  46              		.loc 1 156 0
  47 000a 1146     		mov	r1, r2
  48              		.loc 1 158 0
  49 000c 4FF0FF30 		mov	r0, #-1
  50              	.LVL2:
  51              	.L2:
  52 0010 04EB4213 		add	r3, r4, r2, lsl #5
  53              		.loc 1 155 0 discriminator 3
  54 0014 0132     		adds	r2, r2, #1
  55              	.LVL3:
  56 0016 9542     		cmp	r5, r2
  57              		.loc 1 156 0 discriminator 3
ARM GAS  C:\cygwin64\tmp\ccsD9IwC.s 			page 2


  58 0018 C3F80019 		str	r1, [r3, #2304]
  59              		.loc 1 157 0 discriminator 3
  60 001c C3F81019 		str	r1, [r3, #2320]
  61              		.loc 1 158 0 discriminator 3
  62 0020 C3F80809 		str	r0, [r3, #2312]
  63              		.loc 1 160 0 discriminator 3
  64 0024 C3F8001B 		str	r1, [r3, #2816]
  65              		.loc 1 161 0 discriminator 3
  66 0028 C3F8101B 		str	r1, [r3, #2832]
  67              		.loc 1 162 0 discriminator 3
  68 002c C3F8080B 		str	r0, [r3, #2824]
  69              		.loc 1 155 0 discriminator 3
  70 0030 EED2     		bcs	.L2
  71              		.loc 1 164 0
  72 0032 4FF00113 		mov	r3, #65537
  73 0036 C4F81C38 		str	r3, [r4, #2076]
  74 003a 30BD     		pop	{r4, r5, pc}
  75              		.cfi_endproc
  76              	.LFE278:
  77              		.size	otg_disable_ep, .-otg_disable_ep
  78              		.section	.text.otg_txfifo_flush.isra.1,"ax",%progbits
  79              		.align	1
  80              		.syntax unified
  81              		.thumb
  82              		.thumb_func
  83              		.fpu fpv4-sp-d16
  84              		.type	otg_txfifo_flush.isra.1, %function
  85              	otg_txfifo_flush.isra.1:
  86              	.LFB311:
  87              		.loc 1 177 0
  88              		.cfi_startproc
  89              		@ args = 0, pretend = 0, frame = 0
  90              		@ frame_needed = 0, uses_anonymous_args = 0
  91              		@ link register save eliminated.
  92              	.LVL4:
  93              		.loc 1 180 0
  94 0000 8901     		lsls	r1, r1, #6
  95              	.LVL5:
  96 0002 41F02001 		orr	r1, r1, #32
  97 0006 0161     		str	r1, [r0, #16]
  98              	.L5:
  99              		.loc 1 181 0
 100 0008 0369     		ldr	r3, [r0, #16]
 101 000a 9B06     		lsls	r3, r3, #26
 102 000c FCD4     		bmi	.L5
 103              	.LVL6:
 104              	.LBB128:
 105              	.LBB129:
 106              		.file 2 "../../modules/ChibiOS/os/hal/osal/rt/osal.h"
 107              		.loc 2 573 0
 108 000e 1220     		movs	r0, #18
 109              	.LVL7:
 110 0010 FFF7FEBF 		b	chSysPolledDelayX
 111              	.LVL8:
 112              	.LBE129:
 113              	.LBE128:
 114              		.cfi_endproc
ARM GAS  C:\cygwin64\tmp\ccsD9IwC.s 			page 3


 115              	.LFE311:
 116              		.size	otg_txfifo_flush.isra.1, .-otg_txfifo_flush.isra.1
 117              		.section	.text.usb_lld_pump,"ax",%progbits
 118              		.align	1
 119              		.global	usb_lld_pump
 120              		.syntax unified
 121              		.thumb
 122              		.thumb_func
 123              		.fpu fpv4-sp-d16
 124              		.type	usb_lld_pump, %function
 125              	usb_lld_pump:
 126              	.LFB309:
 127              		.loc 1 1320 0
 128              		.cfi_startproc
 129              		@ args = 0, pretend = 0, frame = 24
 130              		@ frame_needed = 0, uses_anonymous_args = 0
 131              	.LVL9:
 132 0000 2DE9F04F 		push	{r4, r5, r6, r7, r8, r9, r10, fp, lr}
 133              		.cfi_def_cfa_offset 36
 134              		.cfi_offset 4, -36
 135              		.cfi_offset 5, -32
 136              		.cfi_offset 6, -28
 137              		.cfi_offset 7, -24
 138              		.cfi_offset 8, -20
 139              		.cfi_offset 9, -16
 140              		.cfi_offset 10, -12
 141              		.cfi_offset 11, -8
 142              		.cfi_offset 14, -4
 143              	.LBB194:
 144              	.LBB195:
 145              	.LBB196:
 146              	.LBB197:
 147              	.LBB198:
 148              	.LBB199:
 149              		.file 3 "../../modules/ChibiOS/os/common/ext/CMSIS/include/cmsis_gcc.h"
 150              		.loc 3 264 0
 151 0004 2023     		movs	r3, #32
 152              	.LBE199:
 153              	.LBE198:
 154              	.LBE197:
 155              	.LBE196:
 156              	.LBE195:
 157              	.LBE194:
 158              		.loc 1 1320 0
 159 0006 87B0     		sub	sp, sp, #28
 160              		.cfi_def_cfa_offset 64
 161              		.loc 1 1320 0
 162 0008 0446     		mov	r4, r0
 163              		.loc 1 1322 0
 164 000a 456D     		ldr	r5, [r0, #84]
 165              	.LVL10:
 166              	.LBB205:
 167              	.LBB204:
 168              	.LBB203:
 169              	.LBB202:
 170              	.LBB201:
 171              	.LBB200:
ARM GAS  C:\cygwin64\tmp\ccsD9IwC.s 			page 4


 172              		.loc 3 264 0
 173              		.syntax unified
 174              	@ 264 "../../modules/ChibiOS/os/common/ext/CMSIS/include/cmsis_gcc.h" 1
 175 000c 83F31188 		MSR basepri, r3
 176              	@ 0 "" 2
 177              	.LVL11:
 178              		.thumb
 179              		.syntax unified
 180              	.LBE200:
 181              	.LBE201:
 182              	.LBE202:
 183              		.file 4 "../../modules/ChibiOS/os/rt/include/chsys.h"
 184              		.loc 4 377 0
 185 0010 FFF7FEFF 		bl	_stats_start_measure_crit_thd
 186              	.LVL12:
 187              	.LBE203:
 188              	.LBE204:
 189              	.LBE205:
 190              	.LBB206:
 191              		.loc 1 1333 0
 192 0014 04F16403 		add	r3, r4, #100
 193 0018 0593     		str	r3, [sp, #20]
 194              	.LBB207:
 195              	.LBB208:
 196              	.LBB209:
 197              	.LBB210:
 198              	.LBB211:
 199              	.LBB212:
 200              		.loc 3 264 0
 201 001a 4FF0000B 		mov	fp, #0
 202              	.L31:
 203              	.LBE212:
 204              	.LBE211:
 205              	.LBE210:
 206              	.LBE209:
 207              	.LBE208:
 208              	.LBE207:
 209              		.loc 1 1330 0
 210 001e 2378     		ldrb	r3, [r4]	@ zero_extendqisi2
 211 0020 012B     		cmp	r3, #1
 212 0022 04D0     		beq	.L8
 213              		.loc 1 1330 0 is_stmt 0 discriminator 1
 214 0024 236E     		ldr	r3, [r4, #96]
 215 0026 4BB9     		cbnz	r3, .L9
 216              		.loc 1 1331 0 is_stmt 1
 217 0028 6B69     		ldr	r3, [r5, #20]
 218 002a DB06     		lsls	r3, r3, #27
 219 002c 06D4     		bmi	.L9
 220              	.L8:
 221              		.loc 1 1332 0
 222 002e AB69     		ldr	r3, [r5, #24]
 223              	.LBB218:
 224              	.LBB219:
 225              		.loc 2 688 0
 226 0030 0598     		ldr	r0, [sp, #20]
 227              	.LBE219:
 228              	.LBE218:
ARM GAS  C:\cygwin64\tmp\ccsD9IwC.s 			page 5


 229              		.loc 1 1332 0
 230 0032 43F01003 		orr	r3, r3, #16
 231 0036 AB61     		str	r3, [r5, #24]
 232              	.LBB221:
 233              	.LBB220:
 234              		.loc 2 688 0
 235 0038 FFF7FEFF 		bl	chThdSuspendS
 236              	.LVL13:
 237              	.L9:
 238              	.LBE220:
 239              	.LBE221:
 240              	.LBB222:
 241              	.LBB217:
 242              	.LBB216:
 243              		.loc 4 389 0
 244 003c FFF7FEFF 		bl	_stats_stop_measure_crit_thd
 245              	.LVL14:
 246              	.LBB215:
 247              	.LBB214:
 248              	.LBB213:
 249              		.loc 3 264 0
 250              		.syntax unified
 251              	@ 264 "../../modules/ChibiOS/os/common/ext/CMSIS/include/cmsis_gcc.h" 1
 252 0040 8BF31188 		MSR basepri, fp
 253              	@ 0 "" 2
 254              	.LVL15:
 255              		.thumb
 256              		.syntax unified
 257 0044 0027     		movs	r7, #0
 258              	.LBE213:
 259              	.LBE214:
 260              	.LBE215:
 261              	.LBE216:
 262              	.LBE217:
 263              	.LBE222:
 264              	.LBB223:
 265              	.LBB224:
 266              	.LBB225:
 267              	.LBB226:
 268              	.LBB227:
 269              	.LBB228:
 270              	.LBB229:
 271 0046 4FF02009 		mov	r9, #32
 272              	.L10:
 273              	.LVL16:
 274              	.LBE229:
 275              	.LBE228:
 276              	.LBE227:
 277              	.LBE226:
 278              	.LBE225:
 279              	.LBE224:
 280              	.LBE223:
 281              		.loc 1 1338 0 discriminator 1
 282 004a A36D     		ldr	r3, [r4, #88]
 283 004c 9B68     		ldr	r3, [r3, #8]
 284 004e 5FFA87FA 		uxtb	r10, r7
 285 0052 5345     		cmp	r3, r10
ARM GAS  C:\cygwin64\tmp\ccsD9IwC.s 			page 6


 286 0054 1DD2     		bcs	.L11
 287              	.LVL17:
 288              	.LBB262:
 289              	.LBB263:
 290              	.LBB264:
 291              	.LBB265:
 292              	.LBB266:
 293              	.LBB267:
 294              		.loc 3 264 0
 295 0056 2023     		movs	r3, #32
 296              		.syntax unified
 297              	@ 264 "../../modules/ChibiOS/os/common/ext/CMSIS/include/cmsis_gcc.h" 1
 298 0058 83F31188 		MSR basepri, r3
 299              	@ 0 "" 2
 300              	.LVL18:
 301              		.thumb
 302              		.syntax unified
 303              	.LBE267:
 304              	.LBE266:
 305              	.LBE265:
 306              		.loc 4 377 0
 307 005c FFF7FEFF 		bl	_stats_start_measure_crit_thd
 308              	.LVL19:
 309 0060 DDE7     		b	.L31
 310              	.L23:
 311              	.LVL20:
 312              	.LBE264:
 313              	.LBE263:
 314              	.LBE262:
 315              	.LBB268:
 316              	.LBB269:
 317              		.loc 1 281 0
 318 0062 616D     		ldr	r1, [r4, #84]
 319 0064 0B6A     		ldr	r3, [r1, #32]
 320              	.LVL21:
 321              		.loc 1 282 0
 322 0066 03F4F012 		and	r2, r3, #1966080
 323 006a B2F5802F 		cmp	r2, #262144
 324 006e 6CD0     		beq	.L12
 325 0070 B2F5402F 		cmp	r2, #786432
 326 0074 0DD1     		bne	.L11
 327              		.loc 1 286 0
 328 0076 C3F30A12 		ubfx	r2, r3, #4, #11
 329              	.LVL22:
 330              		.loc 1 287 0
 331 007a 03F00F03 		and	r3, r3, #15
 332              	.LVL23:
 333              		.loc 1 288 0
 334 007e 04EB8303 		add	r3, r4, r3, lsl #2
 335              	.LVL24:
 336              	.LBB270:
 337              	.LBB271:
 338              		.loc 1 261 0
 339 0082 01F58051 		add	r1, r1, #4096
 340              	.LBE271:
 341              	.LBE270:
 342              		.loc 1 288 0
ARM GAS  C:\cygwin64\tmp\ccsD9IwC.s 			page 7


 343 0086 DB68     		ldr	r3, [r3, #12]
 344 0088 1E6A     		ldr	r6, [r3, #32]
 345              	.LVL25:
 346              	.LBB274:
 347              	.LBB272:
 348              		.loc 1 257 0
 349 008a 0023     		movs	r3, #0
 350              		.loc 1 256 0
 351 008c 1846     		mov	r0, r3
 352              	.LVL26:
 353              	.L14:
 354              		.loc 1 259 0
 355 008e 9A42     		cmp	r2, r3
 356 0090 4ED1     		bne	.L17
 357              	.LVL27:
 358              	.L11:
 359              	.LBE272:
 360              	.LBE274:
 361              	.LBE269:
 362              	.LBE268:
 363              		.loc 1 1341 0
 364 0092 6B69     		ldr	r3, [r5, #20]
 365 0094 13F01008 		ands	r8, r3, #16
 366 0098 E3D1     		bne	.L23
 367              		.loc 1 1345 0
 368 009a 0123     		movs	r3, #1
 369 009c 03FA0AF6 		lsl	r6, r3, r10
 370              	.LVL28:
 371              		.loc 1 1346 0
 372 00a0 236E     		ldr	r3, [r4, #96]
 373 00a2 1E42     		tst	r6, r3
 374 00a4 00F09780 		beq	.L24
 375              	.LVL29:
 376              	.LBB283:
 377              	.LBB235:
 378              	.LBB234:
 379              	.LBB233:
 380              	.LBB232:
 381              	.LBB231:
 382              	.LBB230:
 383              		.loc 3 264 0
 384              		.syntax unified
 385              	@ 264 "../../modules/ChibiOS/os/common/ext/CMSIS/include/cmsis_gcc.h" 1
 386 00a8 89F31188 		MSR basepri, r9
 387              	@ 0 "" 2
 388              	.LVL30:
 389              		.thumb
 390              		.syntax unified
 391              	.LBE230:
 392              	.LBE231:
 393              	.LBE232:
 394              		.loc 4 377 0
 395 00ac FFF7FEFF 		bl	_stats_start_measure_crit_thd
 396              	.LVL31:
 397              	.LBE233:
 398              	.LBE234:
 399              	.LBE235:
ARM GAS  C:\cygwin64\tmp\ccsD9IwC.s 			page 8


 400              		.loc 1 1357 0
 401 00b0 AB68     		ldr	r3, [r5, #8]
 402 00b2 23F00103 		bic	r3, r3, #1
 403 00b6 AB60     		str	r3, [r5, #8]
 404              		.loc 1 1358 0
 405 00b8 236E     		ldr	r3, [r4, #96]
 406 00ba 23EA0603 		bic	r3, r3, r6
 407 00be 2366     		str	r3, [r4, #96]
 408              	.LBB236:
 409              	.LBB237:
 410              	.LBB238:
 411              		.loc 4 389 0
 412 00c0 FFF7FEFF 		bl	_stats_stop_measure_crit_thd
 413              	.LVL32:
 414              	.LBB239:
 415              	.LBB240:
 416              	.LBB241:
 417              		.loc 3 264 0
 418              		.syntax unified
 419              	@ 264 "../../modules/ChibiOS/os/common/ext/CMSIS/include/cmsis_gcc.h" 1
 420 00c4 88F31188 		MSR basepri, r8
 421              	@ 0 "" 2
 422              	.LVL33:
 423              		.thumb
 424              		.syntax unified
 425              	.LBE241:
 426              	.LBE240:
 427              	.LBE239:
 428              	.LBE238:
 429              	.LBE237:
 430              	.LBE236:
 431              	.LBB242:
 432              	.LBB243:
 433              		.loc 1 324 0
 434 00c8 04EB8A03 		add	r3, r4, r10, lsl #2
 435 00cc D3F80C80 		ldr	r8, [r3, #12]
 436 00d0 D8F81420 		ldr	r2, [r8, #20]
 437 00d4 1368     		ldr	r3, [r2]
 438 00d6 0193     		str	r3, [sp, #4]
 439 00d8 0AF10103 		add	r3, r10, #1
 440 00dc 1B03     		lsls	r3, r3, #12
 441 00de 0393     		str	r3, [sp, #12]
 442              		.loc 1 334 0
 443 00e0 4FEA4A13 		lsl	r3, r10, #5
 444 00e4 0493     		str	r3, [sp, #16]
 445              	.L28:
 446              		.loc 1 324 0
 447 00e6 5168     		ldr	r1, [r2, #4]
 448 00e8 019B     		ldr	r3, [sp, #4]
 449 00ea 9942     		cmp	r1, r3
 450 00ec 5DD2     		bcs	.L32
 451              		.loc 1 329 0
 452 00ee B8F81000 		ldrh	r0, [r8, #16]
 453              		.loc 1 334 0
 454 00f2 D4F854E0 		ldr	lr, [r4, #84]
 455              		.loc 1 328 0
 456 00f6 5B1A     		subs	r3, r3, r1
ARM GAS  C:\cygwin64\tmp\ccsD9IwC.s 			page 9


 457 00f8 8342     		cmp	r3, r0
 458 00fa 28BF     		it	cs
 459 00fc 0346     		movcs	r3, r0
 460              	.LVL34:
 461              		.loc 1 334 0
 462 00fe 0498     		ldr	r0, [sp, #16]
 463 0100 7044     		add	r0, lr, r0
 464 0102 D0F81809 		ldr	r0, [r0, #2328]
 465 0106 80B2     		uxth	r0, r0
 466 0108 B3EB800F 		cmp	r3, r0, lsl #2
 467 010c 65D8     		bhi	.L33
 468              		.loc 1 340 0
 469 010e 0398     		ldr	r0, [sp, #12]
 470 0110 8644     		add	lr, lr, r0
 471 0112 9068     		ldr	r0, [r2, #8]
 472 0114 0290     		str	r0, [sp, #8]
 473              	.LVL35:
 474 0116 A0F1040A 		sub	r10, r0, #4
 475 011a 9C46     		mov	ip, r3
 476              	.LVL36:
 477              	.L27:
 478              	.LBB244:
 479              	.LBB245:
 480              		.loc 1 233 0
 481 011c 5AF8040F 		ldr	r0, [r10, #4]!
 482              	.LVL37:
 483 0120 CEF80000 		str	r0, [lr]
 484              		.loc 1 234 0
 485 0124 BCF1040F 		cmp	ip, #4
 486 0128 39D9     		bls	.L26
 487              		.loc 1 237 0
 488 012a ACF1040C 		sub	ip, ip, #4
 489              	.LVL38:
 490 012e F5E7     		b	.L27
 491              	.LVL39:
 492              	.L17:
 493              	.LBE245:
 494              	.LBE244:
 495              	.LBE243:
 496              	.LBE242:
 497              	.LBE283:
 498              	.LBB284:
 499              	.LBB282:
 500              	.LBB275:
 501              	.LBB273:
 502              		.loc 1 260 0
 503 0130 13F0030F 		tst	r3, #3
 504              		.loc 1 261 0
 505 0134 08BF     		it	eq
 506 0136 0868     		ldreq	r0, [r1]
 507              	.LVL40:
 508              		.loc 1 263 0
 509 0138 072B     		cmp	r3, #7
 510              		.loc 1 264 0
 511 013a 98BF     		it	ls
 512 013c 3070     		strbls	r0, [r6]
 513              		.loc 1 267 0
ARM GAS  C:\cygwin64\tmp\ccsD9IwC.s 			page 10


 514 013e 03F10103 		add	r3, r3, #1
 515              	.LVL41:
 516              		.loc 1 265 0
 517 0142 9CBF     		itt	ls
 518 0144 000A     		lsrls	r0, r0, #8
 519              	.LVL42:
 520              		.loc 1 264 0
 521 0146 0136     		addls	r6, r6, #1
 522              	.LVL43:
 523 0148 A1E7     		b	.L14
 524              	.LVL44:
 525              	.L12:
 526              	.LBE273:
 527              	.LBE275:
 528              		.loc 1 292 0
 529 014a C3F30A16 		ubfx	r6, r3, #4, #11
 530              	.LVL45:
 531              		.loc 1 293 0
 532 014e 03F00F03 		and	r3, r3, #15
 533              	.LVL46:
 534 0152 04EB8303 		add	r3, r4, r3, lsl #2
 535              	.LVL47:
 536              	.LBB276:
 537              	.LBB277:
 538              		.loc 1 261 0
 539 0156 01F58051 		add	r1, r1, #4096
 540              	.LBE277:
 541              	.LBE276:
 542              		.loc 1 295 0
 543 015a DA68     		ldr	r2, [r3, #12]
 544 015c 9269     		ldr	r2, [r2, #24]
 545              		.loc 1 294 0
 546 015e 92E80510 		ldm	r2, {r0, r2, ip}
 547 0162 A0EB020E 		sub	lr, r0, r2
 548              	.LVL48:
 549              	.LBB280:
 550              	.LBB278:
 551              		.loc 1 257 0
 552 0166 0022     		movs	r2, #0
 553              		.loc 1 256 0
 554 0168 1046     		mov	r0, r2
 555              	.LVL49:
 556              	.L19:
 557              		.loc 1 259 0
 558 016a 9642     		cmp	r6, r2
 559 016c 08D1     		bne	.L22
 560              	.LVL50:
 561              	.LBE278:
 562              	.LBE280:
 563              		.loc 1 299 0
 564 016e DB68     		ldr	r3, [r3, #12]
 565 0170 9A69     		ldr	r2, [r3, #24]
 566 0172 9368     		ldr	r3, [r2, #8]
 567 0174 3344     		add	r3, r3, r6
 568 0176 9360     		str	r3, [r2, #8]
 569              		.loc 1 300 0
 570 0178 5368     		ldr	r3, [r2, #4]
ARM GAS  C:\cygwin64\tmp\ccsD9IwC.s 			page 11


 571 017a 1E44     		add	r6, r6, r3
 572              	.LVL51:
 573 017c 5660     		str	r6, [r2, #4]
 574 017e 88E7     		b	.L11
 575              	.LVL52:
 576              	.L22:
 577              	.LBB281:
 578              	.LBB279:
 579              		.loc 1 260 0
 580 0180 12F0030F 		tst	r2, #3
 581              		.loc 1 261 0
 582 0184 08BF     		it	eq
 583 0186 0868     		ldreq	r0, [r1]
 584              	.LVL53:
 585              		.loc 1 263 0
 586 0188 9645     		cmp	lr, r2
 587              		.loc 1 264 0
 588 018a 88BF     		it	hi
 589 018c 8CF80000 		strbhi	r0, [ip]
 590              		.loc 1 267 0
 591 0190 02F10102 		add	r2, r2, #1
 592              	.LVL54:
 593              		.loc 1 265 0
 594 0194 84BF     		itt	hi
 595 0196 000A     		lsrhi	r0, r0, #8
 596              	.LVL55:
 597              		.loc 1 264 0
 598 0198 0CF1010C 		addhi	ip, ip, #1
 599              	.LVL56:
 600 019c E5E7     		b	.L19
 601              	.LVL57:
 602              	.L26:
 603              	.LBE279:
 604              	.LBE281:
 605              	.LBE282:
 606              	.LBE284:
 607              	.LBB285:
 608              	.LBB248:
 609              	.LBB246:
 610              		.loc 1 343 0
 611 019e 0298     		ldr	r0, [sp, #8]
 612 01a0 1844     		add	r0, r0, r3
 613              		.loc 1 347 0
 614 01a2 0B44     		add	r3, r3, r1
 615              	.LVL58:
 616              		.loc 1 343 0
 617 01a4 9060     		str	r0, [r2, #8]
 618              		.loc 1 347 0
 619 01a6 5360     		str	r3, [r2, #4]
 620 01a8 9DE7     		b	.L28
 621              	.LVL59:
 622              	.L32:
 623              		.loc 1 325 0
 624 01aa 4FF00108 		mov	r8, #1
 625              	.L25:
 626              	.LVL60:
 627              	.LBE246:
ARM GAS  C:\cygwin64\tmp\ccsD9IwC.s 			page 12


 628              	.LBE248:
 629              	.LBB249:
 630              	.LBB250:
 631              	.LBB251:
 632              	.LBB252:
 633              	.LBB253:
 634              	.LBB254:
 635              		.loc 3 264 0
 636              		.syntax unified
 637              	@ 264 "../../modules/ChibiOS/os/common/ext/CMSIS/include/cmsis_gcc.h" 1
 638 01ae 89F31188 		MSR basepri, r9
 639              	@ 0 "" 2
 640              	.LVL61:
 641              		.thumb
 642              		.syntax unified
 643              	.LBE254:
 644              	.LBE253:
 645              	.LBE252:
 646              		.loc 4 377 0
 647 01b2 FFF7FEFF 		bl	_stats_start_measure_crit_thd
 648              	.LVL62:
 649              	.LBE251:
 650              	.LBE250:
 651              	.LBE249:
 652              		.loc 1 1364 0
 653 01b6 AB68     		ldr	r3, [r5, #8]
 654 01b8 43F00103 		orr	r3, r3, #1
 655 01bc AB60     		str	r3, [r5, #8]
 656              		.loc 1 1365 0
 657 01be B8F1000F 		cmp	r8, #0
 658 01c2 04D1     		bne	.L29
 659              		.loc 1 1366 0
 660 01c4 D5F83438 		ldr	r3, [r5, #2100]
 661 01c8 1E43     		orrs	r6, r6, r3
 662              	.LVL63:
 663 01ca C5F83468 		str	r6, [r5, #2100]
 664              	.L29:
 665              	.LBB255:
 666              	.LBB256:
 667              	.LBB257:
 668              		.loc 4 389 0
 669 01ce FFF7FEFF 		bl	_stats_stop_measure_crit_thd
 670              	.LVL64:
 671              	.LBB258:
 672              	.LBB259:
 673              	.LBB260:
 674              		.loc 3 264 0
 675              		.syntax unified
 676              	@ 264 "../../modules/ChibiOS/os/common/ext/CMSIS/include/cmsis_gcc.h" 1
 677 01d2 8BF31188 		MSR basepri, fp
 678              	@ 0 "" 2
 679              	.LVL65:
 680              		.thumb
 681              		.syntax unified
 682              	.L24:
 683 01d6 0137     		adds	r7, r7, #1
 684              	.LVL66:
ARM GAS  C:\cygwin64\tmp\ccsD9IwC.s 			page 13


 685 01d8 37E7     		b	.L10
 686              	.LVL67:
 687              	.L33:
 688              	.LBE260:
 689              	.LBE259:
 690              	.LBE258:
 691              	.LBE257:
 692              	.LBE256:
 693              	.LBE255:
 694              	.LBB261:
 695              	.LBB247:
 696              		.loc 1 335 0
 697 01da 4FF00008 		mov	r8, #0
 698 01de E6E7     		b	.L25
 699              	.LBE247:
 700              	.LBE261:
 701              	.LBE285:
 702              	.LBE206:
 703              		.cfi_endproc
 704              	.LFE309:
 705              		.size	usb_lld_pump, .-usb_lld_pump
 706              		.section	.text.usb_lld_init,"ax",%progbits
 707              		.align	1
 708              		.global	usb_lld_init
 709              		.syntax unified
 710              		.thumb
 711              		.thumb_func
 712              		.fpu fpv4-sp-d16
 713              		.type	usb_lld_init, %function
 714              	usb_lld_init:
 715              	.LFB293:
 716              		.loc 1 711 0
 717              		.cfi_startproc
 718              		@ args = 0, pretend = 0, frame = 0
 719              		@ frame_needed = 0, uses_anonymous_args = 0
 720 0000 10B5     		push	{r4, lr}
 721              		.cfi_def_cfa_offset 8
 722              		.cfi_offset 4, -8
 723              		.cfi_offset 14, -4
 724              		.loc 1 715 0
 725 0002 0A4C     		ldr	r4, .L42
 726 0004 2046     		mov	r0, r4
 727 0006 FFF7FEFF 		bl	usbObjectInit
 728              	.LVL68:
 729              		.loc 1 717 0
 730 000a 4FF0A042 		mov	r2, #1342177280
 731              		.loc 1 716 0
 732 000e 0023     		movs	r3, #0
 733              		.loc 1 717 0
 734 0010 6265     		str	r2, [r4, #84]
 735              		.loc 1 718 0
 736 0012 074A     		ldr	r2, .L42+4
 737 0014 A265     		str	r2, [r4, #88]
 738              		.loc 1 716 0
 739 0016 6366     		str	r3, [r4, #100]
 740              		.loc 1 721 0
 741 0018 A366     		str	r3, [r4, #104]
ARM GAS  C:\cygwin64\tmp\ccsD9IwC.s 			page 14


 742              	.LVL69:
 743              	.LBB286:
 744              		.loc 1 727 0
 745 001a 04F54871 		add	r1, r4, #800
 746 001e 04F17000 		add	r0, r4, #112
 747 0022 5522     		movs	r2, #85
 748              	.LBE286:
 749              		.loc 1 755 0
 750 0024 BDE81040 		pop	{r4, lr}
 751              		.cfi_restore 14
 752              		.cfi_restore 4
 753              		.cfi_def_cfa_offset 0
 754              	.LBB287:
 755              		.loc 1 727 0
 756 0028 FFF7FEBF 		b	_thread_memfill
 757              	.LVL70:
 758              	.L43:
 759              		.align	2
 760              	.L42:
 761 002c 00000000 		.word	.LANCHOR0
 762 0030 00000000 		.word	.LANCHOR1
 763              	.LBE287:
 764              		.cfi_endproc
 765              	.LFE293:
 766              		.size	usb_lld_init, .-usb_lld_init
 767              		.section	.text.usb_lld_start,"ax",%progbits
 768              		.align	1
 769              		.global	usb_lld_start
 770              		.syntax unified
 771              		.thumb
 772              		.thumb_func
 773              		.fpu fpv4-sp-d16
 774              		.type	usb_lld_start, %function
 775              	usb_lld_start:
 776              	.LFB294:
 777              		.loc 1 767 0
 778              		.cfi_startproc
 779              		@ args = 0, pretend = 0, frame = 24
 780              		@ frame_needed = 0, uses_anonymous_args = 0
 781              	.LVL71:
 782 0000 70B5     		push	{r4, r5, r6, lr}
 783              		.cfi_def_cfa_offset 16
 784              		.cfi_offset 4, -16
 785              		.cfi_offset 5, -12
 786              		.cfi_offset 6, -8
 787              		.cfi_offset 14, -4
 788              		.loc 1 770 0
 789 0002 0378     		ldrb	r3, [r0]	@ zero_extendqisi2
 790 0004 012B     		cmp	r3, #1
 791              		.loc 1 767 0
 792 0006 86B0     		sub	sp, sp, #24
 793              		.cfi_def_cfa_offset 40
 794              		.loc 1 767 0
 795 0008 0546     		mov	r5, r0
 796              		.loc 1 770 0
 797 000a 5BD1     		bne	.L44
 798              		.loc 1 774 0
ARM GAS  C:\cygwin64\tmp\ccsD9IwC.s 			page 15


 799 000c 2F4B     		ldr	r3, .L55
 800              		.loc 1 768 0
 801 000e 446D     		ldr	r4, [r0, #84]
 802              		.loc 1 774 0
 803 0010 9842     		cmp	r0, r3
 804 0012 13D1     		bne	.L46
 805              		.loc 1 776 0
 806 0014 2E4B     		ldr	r3, .L55+4
 807 0016 5A6B     		ldr	r2, [r3, #52]
 808 0018 42F08002 		orr	r2, r2, #128
 809 001c 5A63     		str	r2, [r3, #52]
 810              		.loc 1 777 0
 811 001e 5A69     		ldr	r2, [r3, #20]
 812 0020 42F08002 		orr	r2, r2, #128
 813 0024 5A61     		str	r2, [r3, #20]
 814 0026 0022     		movs	r2, #0
 815 0028 5A61     		str	r2, [r3, #20]
 816              		.loc 1 780 0
 817 002a 0E21     		movs	r1, #14
 818 002c 4320     		movs	r0, #67
 819              	.LVL72:
 820 002e FFF7FEFF 		bl	nvicEnableVector
 821              	.LVL73:
 822              		.loc 1 785 0
 823 0032 284B     		ldr	r3, .L55+8
 824 0034 E360     		str	r3, [r4, #12]
 825              		.loc 1 789 0
 826 0036 284B     		ldr	r3, .L55+12
 827 0038 C4F80038 		str	r3, [r4, #2048]
 828              	.L46:
 829              		.loc 1 839 0
 830 003c 0023     		movs	r3, #0
 831 003e 2B66     		str	r3, [r5, #96]
 832              		.loc 1 842 0
 833 0040 C4F8003E 		str	r3, [r4, #3584]
 834              		.loc 1 845 0
 835 0044 C023     		movs	r3, #192
 836 0046 2360     		str	r3, [r4]
 837              		.loc 1 860 0
 838 0048 4FF45023 		mov	r3, #851968
 839 004c A363     		str	r3, [r4, #56]
 840 004e 6E6D     		ldr	r6, [r5, #84]
 841              	.LVL74:
 842              	.LBB295:
 843              	.LBB296:
 844              	.LBB297:
 845              	.LBB298:
 846              		.loc 2 573 0
 847 0050 2020     		movs	r0, #32
 848 0052 FFF7FEFF 		bl	chSysPolledDelayX
 849              	.LVL75:
 850              	.LBE298:
 851              	.LBE297:
 852              		.loc 1 140 0
 853 0056 0123     		movs	r3, #1
 854 0058 3361     		str	r3, [r6, #16]
 855              	.L47:
ARM GAS  C:\cygwin64\tmp\ccsD9IwC.s 			page 16


 856              		.loc 1 141 0
 857 005a 3369     		ldr	r3, [r6, #16]
 858 005c DB07     		lsls	r3, r3, #31
 859 005e FCD4     		bmi	.L47
 860              	.LVL76:
 861              	.LBB299:
 862              	.LBB300:
 863              		.loc 2 573 0
 864 0060 1220     		movs	r0, #18
 865 0062 FFF7FEFF 		bl	chSysPolledDelayX
 866              	.LVL77:
 867              	.L48:
 868              	.LBE300:
 869              	.LBE299:
 870              		.loc 1 147 0
 871 0066 3369     		ldr	r3, [r6, #16]
 872 0068 002B     		cmp	r3, #0
 873 006a FCDA     		bge	.L48
 874              	.LVL78:
 875              	.LBE296:
 876              	.LBE295:
 877              		.loc 1 867 0
 878 006c 0026     		movs	r6, #0
 879 006e A660     		str	r6, [r4, #8]
 880              		.loc 1 870 0
 881 0070 2846     		mov	r0, r5
 882 0072 FFF7FEFF 		bl	otg_disable_ep
 883              	.LVL79:
 884              		.loc 1 877 0
 885 0076 6B68     		ldr	r3, [r5, #4]
 886              		.loc 1 874 0
 887 0078 C4F81068 		str	r6, [r4, #2064]
 888              		.loc 1 877 0
 889 007c DB68     		ldr	r3, [r3, #12]
 890              		.loc 1 875 0
 891 007e C4F81468 		str	r6, [r4, #2068]
 892              		.loc 1 876 0
 893 0082 C4F81C68 		str	r6, [r4, #2076]
 894              		.loc 1 877 0
 895 0086 FBB9     		cbnz	r3, .L49
 896              		.loc 1 878 0
 897 0088 144B     		ldr	r3, .L55+16
 898              	.L54:
 899              		.loc 1 882 0
 900 008a A361     		str	r3, [r4, #24]
 901              		.loc 1 888 0
 902 008c 4FF0FF33 		mov	r3, #-1
 903 0090 6361     		str	r3, [r4, #20]
 904              		.loc 1 892 0
 905 0092 AB6E     		ldr	r3, [r5, #104]
 906 0094 93B9     		cbnz	r3, .L51
 907              	.LBB301:
 908              		.loc 1 893 0
 909 0096 124B     		ldr	r3, .L55+20
 910 0098 0093     		str	r3, [sp]
 911              		.loc 1 895 0
 912 009a 05F17003 		add	r3, r5, #112
ARM GAS  C:\cygwin64\tmp\ccsD9IwC.s 			page 17


 913              		.loc 1 893 0
 914 009e 0193     		str	r3, [sp, #4]
 915              		.loc 1 896 0
 916 00a0 05F54873 		add	r3, r5, #800
 917              		.loc 1 893 0
 918 00a4 0293     		str	r3, [sp, #8]
 919 00a6 0223     		movs	r3, #2
 920 00a8 0393     		str	r3, [sp, #12]
 921              		.loc 1 902 0
 922 00aa 6846     		mov	r0, sp
 923              		.loc 1 893 0
 924 00ac 0D4B     		ldr	r3, .L55+24
 925 00ae 0493     		str	r3, [sp, #16]
 926 00b0 0595     		str	r5, [sp, #20]
 927              		.loc 1 902 0
 928 00b2 FFF7FEFF 		bl	chThdCreateI
 929              	.LVL80:
 930 00b6 A866     		str	r0, [r5, #104]
 931              		.loc 1 903 0
 932 00b8 FFF7FEFF 		bl	chSchRescheduleS
 933              	.LVL81:
 934              	.L51:
 935              	.LBE301:
 936              		.loc 1 908 0
 937 00bc A368     		ldr	r3, [r4, #8]
 938 00be 43F00103 		orr	r3, r3, #1
 939 00c2 A360     		str	r3, [r4, #8]
 940              	.LVL82:
 941              	.L44:
 942              		.loc 1 910 0
 943 00c4 06B0     		add	sp, sp, #24
 944              		.cfi_remember_state
 945              		.cfi_def_cfa_offset 16
 946              		@ sp needed
 947 00c6 70BD     		pop	{r4, r5, r6, pc}
 948              	.LVL83:
 949              	.L49:
 950              		.cfi_restore_state
 951              		.loc 1 882 0
 952 00c8 074B     		ldr	r3, .L55+28
 953 00ca DEE7     		b	.L54
 954              	.L56:
 955              		.align	2
 956              	.L55:
 957 00cc 00000000 		.word	.LANCHOR0
 958 00d0 00380240 		.word	1073887232
 959 00d4 40140040 		.word	1073747008
 960 00d8 03002002 		.word	35651587
 961 00dc 003C30C0 		.word	-1070580736
 962 00e0 00000000 		.word	.LC0
 963 00e4 00000000 		.word	usb_lld_pump
 964 00e8 083C30C0 		.word	-1070580728
 965              		.cfi_endproc
 966              	.LFE294:
 967              		.size	usb_lld_start, .-usb_lld_start
 968              		.section	.text.usb_lld_stop,"ax",%progbits
 969              		.align	1
ARM GAS  C:\cygwin64\tmp\ccsD9IwC.s 			page 18


 970              		.global	usb_lld_stop
 971              		.syntax unified
 972              		.thumb
 973              		.thumb_func
 974              		.fpu fpv4-sp-d16
 975              		.type	usb_lld_stop, %function
 976              	usb_lld_stop:
 977              	.LFB295:
 978              		.loc 1 919 0
 979              		.cfi_startproc
 980              		@ args = 0, pretend = 0, frame = 0
 981              		@ frame_needed = 0, uses_anonymous_args = 0
 982              	.LVL84:
 983 0000 38B5     		push	{r3, r4, r5, lr}
 984              		.cfi_def_cfa_offset 16
 985              		.cfi_offset 3, -16
 986              		.cfi_offset 4, -12
 987              		.cfi_offset 5, -8
 988              		.cfi_offset 14, -4
 989              		.loc 1 923 0
 990 0002 0378     		ldrb	r3, [r0]	@ zero_extendqisi2
 991 0004 012B     		cmp	r3, #1
 992              		.loc 1 919 0
 993 0006 0446     		mov	r4, r0
 994              		.loc 1 923 0
 995 0008 13D0     		beq	.L57
 996              		.loc 1 920 0
 997 000a 456D     		ldr	r5, [r0, #84]
 998              		.loc 1 927 0
 999 000c FFF7FEFF 		bl	otg_disable_ep
 1000              	.LVL85:
 1001              		.loc 1 929 0
 1002 0010 0023     		movs	r3, #0
 1003 0012 2366     		str	r3, [r4, #96]
 1004              		.loc 1 931 0
 1005 0014 C5F81C38 		str	r3, [r5, #2076]
 1006              		.loc 1 932 0
 1007 0018 AB60     		str	r3, [r5, #8]
 1008              		.loc 1 933 0
 1009 001a AB63     		str	r3, [r5, #56]
 1010              		.loc 1 936 0
 1011 001c 054B     		ldr	r3, .L61
 1012 001e 9C42     		cmp	r4, r3
 1013 0020 07D1     		bne	.L57
 1014              		.loc 1 937 0
 1015 0022 4320     		movs	r0, #67
 1016 0024 FFF7FEFF 		bl	nvicDisableVector
 1017              	.LVL86:
 1018              		.loc 1 938 0
 1019 0028 034A     		ldr	r2, .L61+4
 1020 002a 536B     		ldr	r3, [r2, #52]
 1021 002c 23F08003 		bic	r3, r3, #128
 1022 0030 5363     		str	r3, [r2, #52]
 1023              	.L57:
 1024 0032 38BD     		pop	{r3, r4, r5, pc}
 1025              	.LVL87:
 1026              	.L62:
ARM GAS  C:\cygwin64\tmp\ccsD9IwC.s 			page 19


 1027              		.align	2
 1028              	.L61:
 1029 0034 00000000 		.word	.LANCHOR0
 1030 0038 00380240 		.word	1073887232
 1031              		.cfi_endproc
 1032              	.LFE295:
 1033              		.size	usb_lld_stop, .-usb_lld_stop
 1034              		.section	.text.usb_lld_reset,"ax",%progbits
 1035              		.align	1
 1036              		.global	usb_lld_reset
 1037              		.syntax unified
 1038              		.thumb
 1039              		.thumb_func
 1040              		.fpu fpv4-sp-d16
 1041              		.type	usb_lld_reset, %function
 1042              	usb_lld_reset:
 1043              	.LFB296:
 1044              		.loc 1 961 0
 1045              		.cfi_startproc
 1046              		@ args = 0, pretend = 0, frame = 0
 1047              		@ frame_needed = 0, uses_anonymous_args = 0
 1048              	.LVL88:
 1049 0000 F8B5     		push	{r3, r4, r5, r6, r7, lr}
 1050              		.cfi_def_cfa_offset 24
 1051              		.cfi_offset 3, -24
 1052              		.cfi_offset 4, -20
 1053              		.cfi_offset 5, -16
 1054              		.cfi_offset 6, -12
 1055              		.cfi_offset 7, -8
 1056              		.cfi_offset 14, -4
 1057              		.loc 1 963 0
 1058 0002 446D     		ldr	r4, [r0, #84]
 1059              	.LVL89:
 1060              		.loc 1 961 0
 1061 0004 0546     		mov	r5, r0
 1062              		.loc 1 966 0
 1063 0006 0021     		movs	r1, #0
 1064 0008 2046     		mov	r0, r4
 1065              	.LVL90:
 1066 000a FFF7FEFF 		bl	otg_txfifo_flush.isra.1
 1067              	.LVL91:
 1068              		.loc 1 973 0
 1069 000e A96D     		ldr	r1, [r5, #88]
 1070              		.loc 1 969 0
 1071 0010 0023     		movs	r3, #0
 1072              		.loc 1 970 0
 1073 0012 4FF00112 		mov	r2, #65537
 1074              		.loc 1 973 0
 1075 0016 8F68     		ldr	r7, [r1, #8]
 1076              		.loc 1 969 0
 1077 0018 C4F83438 		str	r3, [r4, #2100]
 1078              		.loc 1 974 0
 1079 001c 4FF00066 		mov	r6, #134217728
 1080              		.loc 1 970 0
 1081 0020 C4F81C28 		str	r2, [r4, #2076]
 1082              	.LVL92:
 1083              		.loc 1 976 0
ARM GAS  C:\cygwin64\tmp\ccsD9IwC.s 			page 20


 1084 0024 4FF0FF30 		mov	r0, #-1
 1085              	.LVL93:
 1086              	.L64:
 1087 0028 04EB4312 		add	r2, r4, r3, lsl #5
 1088              		.loc 1 973 0 discriminator 3
 1089 002c 0133     		adds	r3, r3, #1
 1090              	.LVL94:
 1091 002e 9F42     		cmp	r7, r3
 1092              		.loc 1 974 0 discriminator 3
 1093 0030 C2F80069 		str	r6, [r2, #2304]
 1094              		.loc 1 975 0 discriminator 3
 1095 0034 C2F8006B 		str	r6, [r2, #2816]
 1096              		.loc 1 976 0 discriminator 3
 1097 0038 C2F80809 		str	r0, [r2, #2312]
 1098              		.loc 1 977 0 discriminator 3
 1099 003c C2F8080B 		str	r0, [r2, #2824]
 1100              		.loc 1 973 0 discriminator 3
 1101 0040 F2D2     		bcs	.L64
 1102              	.LVL95:
 1103              	.LBB310:
 1104              	.LBB311:
 1105              		.loc 1 196 0
 1106 0042 0B68     		ldr	r3, [r1]
 1107              	.LVL96:
 1108 0044 EB65     		str	r3, [r5, #92]
 1109              	.LVL97:
 1110              	.LBE311:
 1111              	.LBE310:
 1112              		.loc 1 984 0
 1113 0046 6362     		str	r3, [r4, #36]
 1114 0048 6B6D     		ldr	r3, [r5, #84]
 1115              	.LVL98:
 1116              	.LBB312:
 1117              	.LBB313:
 1118              		.loc 1 170 0
 1119 004a 1022     		movs	r2, #16
 1120 004c 1A61     		str	r2, [r3, #16]
 1121              	.L65:
 1122              		.loc 1 171 0
 1123 004e 1E69     		ldr	r6, [r3, #16]
 1124 0050 16F01006 		ands	r6, r6, #16
 1125 0054 FBD1     		bne	.L65
 1126              	.LVL99:
 1127              	.LBB314:
 1128              	.LBB315:
 1129              		.loc 2 573 0
 1130 0056 1220     		movs	r0, #18
 1131 0058 FFF7FEFF 		bl	chSysPolledDelayX
 1132              	.LVL100:
 1133              	.LBE315:
 1134              	.LBE314:
 1135              	.LBE313:
 1136              	.LBE312:
 1137              		.loc 1 988 0
 1138 005c D4F80038 		ldr	r3, [r4, #2048]
 1139 0060 23F4FE63 		bic	r3, r3, #2032
 1140 0064 C4F80038 		str	r3, [r4, #2048]
ARM GAS  C:\cygwin64\tmp\ccsD9IwC.s 			page 21


 1141              		.loc 1 991 0
 1142 0068 A369     		ldr	r3, [r4, #24]
 1143 006a 43F44023 		orr	r3, r3, #786432
 1144 006e 43F01003 		orr	r3, r3, #16
 1145 0072 A361     		str	r3, [r4, #24]
 1146              		.loc 1 992 0
 1147 0074 0923     		movs	r3, #9
 1148 0076 C4F81038 		str	r3, [r4, #2064]
 1149              		.loc 1 993 0
 1150 007a C4F81438 		str	r3, [r4, #2068]
 1151              		.loc 1 996 0
 1152 007e 094B     		ldr	r3, .L68
 1153 0080 EB60     		str	r3, [r5, #12]
 1154              		.loc 1 998 0
 1155 0082 094B     		ldr	r3, .L68+4
 1156              		.loc 1 997 0
 1157 0084 C4F8106B 		str	r6, [r4, #2832]
 1158              		.loc 1 998 0
 1159 0088 C4F8003B 		str	r3, [r4, #2816]
 1160              		.loc 1 1000 0
 1161 008c C4F81069 		str	r6, [r4, #2320]
 1162              		.loc 1 1001 0
 1163 0090 C4F80039 		str	r3, [r4, #2304]
 1164              	.LVL101:
 1165              	.LBB316:
 1166              	.LBB317:
 1167              		.loc 1 210 0
 1168 0094 EB6D     		ldr	r3, [r5, #92]
 1169              	.LVL102:
 1170              		.loc 1 211 0
 1171 0096 03F11002 		add	r2, r3, #16
 1172              	.LBE317:
 1173              	.LBE316:
 1174              		.loc 1 1003 0
 1175 009a 43F48013 		orr	r3, r3, #1048576
 1176              	.LVL103:
 1177              	.LBB319:
 1178              	.LBB318:
 1179              		.loc 1 211 0
 1180 009e EA65     		str	r2, [r5, #92]
 1181              	.LVL104:
 1182              	.LBE318:
 1183              	.LBE319:
 1184              		.loc 1 1003 0
 1185 00a0 A362     		str	r3, [r4, #40]
 1186 00a2 F8BD     		pop	{r3, r4, r5, r6, r7, pc}
 1187              	.LVL105:
 1188              	.L69:
 1189              		.align	2
 1190              	.L68:
 1191 00a4 00000000 		.word	.LANCHOR2
 1192 00a8 40800010 		.word	268468288
 1193              		.cfi_endproc
 1194              	.LFE296:
 1195              		.size	usb_lld_reset, .-usb_lld_reset
 1196              		.section	.text.usb_lld_set_address,"ax",%progbits
 1197              		.align	1
ARM GAS  C:\cygwin64\tmp\ccsD9IwC.s 			page 22


 1198              		.global	usb_lld_set_address
 1199              		.syntax unified
 1200              		.thumb
 1201              		.thumb_func
 1202              		.fpu fpv4-sp-d16
 1203              		.type	usb_lld_set_address, %function
 1204              	usb_lld_set_address:
 1205              	.LFB297:
 1206              		.loc 1 1015 0
 1207              		.cfi_startproc
 1208              		@ args = 0, pretend = 0, frame = 0
 1209              		@ frame_needed = 0, uses_anonymous_args = 0
 1210              		@ link register save eliminated.
 1211              	.LVL106:
 1212              		.loc 1 1016 0
 1213 0000 426D     		ldr	r2, [r0, #84]
 1214              	.LVL107:
 1215              		.loc 1 1018 0
 1216 0002 90F84E10 		ldrb	r1, [r0, #78]	@ zero_extendqisi2
 1217 0006 D2F80038 		ldr	r3, [r2, #2048]
 1218 000a 23F4FE63 		bic	r3, r3, #2032
 1219 000e 43EA0113 		orr	r3, r3, r1, lsl #4
 1220 0012 C2F80038 		str	r3, [r2, #2048]
 1221 0016 7047     		bx	lr
 1222              		.cfi_endproc
 1223              	.LFE297:
 1224              		.size	usb_lld_set_address, .-usb_lld_set_address
 1225              		.section	.text.usb_lld_init_endpoint,"ax",%progbits
 1226              		.align	1
 1227              		.global	usb_lld_init_endpoint
 1228              		.syntax unified
 1229              		.thumb
 1230              		.thumb_func
 1231              		.fpu fpv4-sp-d16
 1232              		.type	usb_lld_init_endpoint, %function
 1233              	usb_lld_init_endpoint:
 1234              	.LFB298:
 1235              		.loc 1 1029 0
 1236              		.cfi_startproc
 1237              		@ args = 0, pretend = 0, frame = 0
 1238              		@ frame_needed = 0, uses_anonymous_args = 0
 1239              	.LVL108:
 1240 0000 2DE9F041 		push	{r4, r5, r6, r7, r8, lr}
 1241              		.cfi_def_cfa_offset 24
 1242              		.cfi_offset 4, -24
 1243              		.cfi_offset 5, -20
 1244              		.cfi_offset 6, -16
 1245              		.cfi_offset 7, -12
 1246              		.cfi_offset 8, -8
 1247              		.cfi_offset 14, -4
 1248 0004 0EB2     		sxth	r6, r1
 1249 0006 00EB8608 		add	r8, r0, r6, lsl #2
 1250              		.loc 1 1029 0
 1251 000a 0D46     		mov	r5, r1
 1252              		.loc 1 1034 0
 1253 000c D8F80C10 		ldr	r1, [r8, #12]
 1254              	.LVL109:
ARM GAS  C:\cygwin64\tmp\ccsD9IwC.s 			page 23


 1255 0010 0F68     		ldr	r7, [r1]
 1256 0012 07F00303 		and	r3, r7, #3
 1257 0016 022B     		cmp	r3, #2
 1258 0018 50D0     		beq	.L73
 1259 001a 032B     		cmp	r3, #3
 1260 001c 50D0     		beq	.L74
 1261              		.loc 1 1036 0
 1262 001e 3D4A     		ldr	r2, .L84
 1263 0020 3D4F     		ldr	r7, .L84+4
 1264 0022 012B     		cmp	r3, #1
 1265 0024 18BF     		it	ne
 1266 0026 1746     		movne	r7, r2
 1267              	.L75:
 1268              		.loc 1 1031 0
 1269 0028 446D     		ldr	r4, [r0, #84]
 1270              	.LVL110:
 1271              		.loc 1 1052 0
 1272 002a 4FEA451E 		lsl	lr, r5, #5
 1273 002e 04EB0E03 		add	r3, r4, lr
 1274 0032 0022     		movs	r2, #0
 1275 0034 C3F8102B 		str	r2, [r3, #2832]
 1276              		.loc 1 1053 0
 1277 0038 8A69     		ldr	r2, [r1, #24]
 1278 003a 05F1100C 		add	ip, r5, #16
 1279 003e 002A     		cmp	r2, #0
 1280 0040 40D0     		beq	.L76
 1281              		.loc 1 1054 0
 1282 0042 4A8A     		ldrh	r2, [r1, #18]
 1283 0044 05F15803 		add	r3, r5, #88
 1284 0048 5B01     		lsls	r3, r3, #5
 1285 004a 3A43     		orrs	r2, r2, r7
 1286 004c E250     		str	r2, [r4, r3]
 1287              		.loc 1 1055 0
 1288 004e 0123     		movs	r3, #1
 1289 0050 D4F81C28 		ldr	r2, [r4, #2076]
 1290 0054 03FA0CF3 		lsl	r3, r3, ip
 1291 0058 1343     		orrs	r3, r3, r2
 1292              	.L82:
 1293              		.loc 1 1063 0
 1294 005a A644     		add	lr, lr, r4
 1295              		.loc 1 1064 0
 1296 005c 4A69     		ldr	r2, [r1, #20]
 1297              		.loc 1 1059 0
 1298 005e C4F81C38 		str	r3, [r4, #2076]
 1299              		.loc 1 1063 0
 1300 0062 0023     		movs	r3, #0
 1301 0064 CEF81039 		str	r3, [lr, #2320]
 1302 0068 05F13F03 		add	r3, r5, #63
 1303              		.loc 1 1064 0
 1304 006c 002A     		cmp	r2, #0
 1305 006e 39D0     		beq	.L78
 1306              		.loc 1 1066 0
 1307 0070 0A8A     		ldrh	r2, [r1, #16]
 1308              		.loc 1 1067 0
 1309 0072 898B     		ldrh	r1, [r1, #28]
 1310              		.loc 1 1066 0
 1311 0074 9208     		lsrs	r2, r2, #2
ARM GAS  C:\cygwin64\tmp\ccsD9IwC.s 			page 24


 1312              	.LVL111:
 1313              		.loc 1 1067 0
 1314 0076 0129     		cmp	r1, #1
 1315              		.loc 1 1068 0
 1316 0078 88BF     		it	hi
 1317 007a 4A43     		mulhi	r2, r1, r2
 1318              	.LVL112:
 1319              	.LBB320:
 1320              	.LBB321:
 1321              		.loc 1 210 0
 1322 007c C16D     		ldr	r1, [r0, #92]
 1323              	.LVL113:
 1324              	.LBE321:
 1325              	.LBE320:
 1326              		.loc 1 1069 0
 1327 007e 04EB8303 		add	r3, r4, r3, lsl #2
 1328              	.LBB324:
 1329              	.LBB322:
 1330              		.loc 1 211 0
 1331 0082 5618     		adds	r6, r2, r1
 1332              	.LBE322:
 1333              	.LBE324:
 1334              		.loc 1 1069 0
 1335 0084 41EA0242 		orr	r2, r1, r2, lsl #16
 1336              	.LVL114:
 1337              	.LBB325:
 1338              	.LBB323:
 1339              		.loc 1 211 0
 1340 0088 C665     		str	r6, [r0, #92]
 1341              	.LVL115:
 1342              	.LBE323:
 1343              	.LBE325:
 1344              		.loc 1 1071 0
 1345 008a 2946     		mov	r1, r5
 1346              		.loc 1 1069 0
 1347 008c 5A60     		str	r2, [r3, #4]
 1348              		.loc 1 1071 0
 1349 008e 2046     		mov	r0, r4
 1350              	.LVL116:
 1351 0090 FFF7FEFF 		bl	otg_txfifo_flush.isra.1
 1352              	.LVL117:
 1353              		.loc 1 1075 0
 1354 0094 D8F80C30 		ldr	r3, [r8, #12]
 1355 0098 1B8A     		ldrh	r3, [r3, #16]
 1356              		.loc 1 1074 0
 1357 009a 43EA8553 		orr	r3, r3, r5, lsl #22
 1358 009e 1F43     		orrs	r7, r7, r3
 1359              	.LVL118:
 1360              		.loc 1 1073 0
 1361 00a0 05F14803 		add	r3, r5, #72
 1362 00a4 5B01     		lsls	r3, r3, #5
 1363 00a6 E750     		str	r7, [r4, r3]
 1364              		.loc 1 1076 0
 1365 00a8 0123     		movs	r3, #1
 1366 00aa D4F81C28 		ldr	r2, [r4, #2076]
 1367 00ae 03FA05F5 		lsl	r5, r3, r5
 1368 00b2 1543     		orrs	r5, r5, r2
ARM GAS  C:\cygwin64\tmp\ccsD9IwC.s 			page 25


 1369              	.LVL119:
 1370              	.L83:
 1371              		.loc 1 1082 0
 1372 00b4 C4F81C58 		str	r5, [r4, #2076]
 1373 00b8 BDE8F081 		pop	{r4, r5, r6, r7, r8, pc}
 1374              	.LVL120:
 1375              	.L73:
 1376              		.loc 1 1042 0
 1377 00bc 174F     		ldr	r7, .L84+8
 1378              		.loc 1 1043 0
 1379 00be B3E7     		b	.L75
 1380              	.LVL121:
 1381              	.L74:
 1382              		.loc 1 1045 0
 1383 00c0 174F     		ldr	r7, .L84+12
 1384              		.loc 1 1046 0
 1385 00c2 B1E7     		b	.L75
 1386              	.LVL122:
 1387              	.L76:
 1388 00c4 04EB4613 		add	r3, r4, r6, lsl #5
 1389              		.loc 1 1058 0
 1390 00c8 D3F8002B 		ldr	r2, [r3, #2816]
 1391 00cc 22F40042 		bic	r2, r2, #32768
 1392 00d0 C3F8002B 		str	r2, [r3, #2816]
 1393              		.loc 1 1059 0
 1394 00d4 D4F81C28 		ldr	r2, [r4, #2076]
 1395 00d8 0123     		movs	r3, #1
 1396 00da 03FA0CF3 		lsl	r3, r3, ip
 1397 00de 22EA0303 		bic	r3, r2, r3
 1398 00e2 BAE7     		b	.L82
 1399              	.L78:
 1400              		.loc 1 1079 0
 1401 00e4 04EB8303 		add	r3, r4, r3, lsl #2
 1402 00e8 0E4A     		ldr	r2, .L84+16
 1403 00ea 5A60     		str	r2, [r3, #4]
 1404 00ec 04EB4616 		add	r6, r4, r6, lsl #5
 1405              		.loc 1 1080 0
 1406 00f0 2946     		mov	r1, r5
 1407 00f2 2046     		mov	r0, r4
 1408              	.LVL123:
 1409 00f4 FFF7FEFF 		bl	otg_txfifo_flush.isra.1
 1410              	.LVL124:
 1411              		.loc 1 1081 0
 1412 00f8 D6F80039 		ldr	r3, [r6, #2304]
 1413 00fc 23F40043 		bic	r3, r3, #32768
 1414 0100 C6F80039 		str	r3, [r6, #2304]
 1415              		.loc 1 1082 0
 1416 0104 D4F81C38 		ldr	r3, [r4, #2076]
 1417 0108 0122     		movs	r2, #1
 1418 010a 02FA05F5 		lsl	r5, r2, r5
 1419 010e 23EA0505 		bic	r5, r3, r5
 1420 0112 CFE7     		b	.L83
 1421              	.L85:
 1422              		.align	2
 1423              	.L84:
 1424 0114 00800010 		.word	268468224
 1425 0118 00800410 		.word	268730368
ARM GAS  C:\cygwin64\tmp\ccsD9IwC.s 			page 26


 1426 011c 00800810 		.word	268992512
 1427 0120 00800C10 		.word	269254656
 1428 0124 00040002 		.word	33555456
 1429              		.cfi_endproc
 1430              	.LFE298:
 1431              		.size	usb_lld_init_endpoint, .-usb_lld_init_endpoint
 1432              		.section	.text.usb_lld_disable_endpoints,"ax",%progbits
 1433              		.align	1
 1434              		.global	usb_lld_disable_endpoints
 1435              		.syntax unified
 1436              		.thumb
 1437              		.thumb_func
 1438              		.fpu fpv4-sp-d16
 1439              		.type	usb_lld_disable_endpoints, %function
 1440              	usb_lld_disable_endpoints:
 1441              	.LFB299:
 1442              		.loc 1 1093 0
 1443              		.cfi_startproc
 1444              		@ args = 0, pretend = 0, frame = 0
 1445              		@ frame_needed = 0, uses_anonymous_args = 0
 1446              		@ link register save eliminated.
 1447              	.LVL125:
 1448              	.LBB326:
 1449              	.LBB327:
 1450              		.loc 1 196 0
 1451 0000 826D     		ldr	r2, [r0, #88]
 1452 0002 1268     		ldr	r2, [r2]
 1453 0004 C265     		str	r2, [r0, #92]
 1454              	.LVL126:
 1455              	.LBE327:
 1456              	.LBE326:
 1457              		.loc 1 1099 0
 1458 0006 FFF7FEBF 		b	otg_disable_ep
 1459              	.LVL127:
 1460              		.cfi_endproc
 1461              	.LFE299:
 1462              		.size	usb_lld_disable_endpoints, .-usb_lld_disable_endpoints
 1463              		.section	.text.usb_lld_get_status_out,"ax",%progbits
 1464              		.align	1
 1465              		.global	usb_lld_get_status_out
 1466              		.syntax unified
 1467              		.thumb
 1468              		.thumb_func
 1469              		.fpu fpv4-sp-d16
 1470              		.type	usb_lld_get_status_out, %function
 1471              	usb_lld_get_status_out:
 1472              	.LFB300:
 1473              		.loc 1 1114 0
 1474              		.cfi_startproc
 1475              		@ args = 0, pretend = 0, frame = 0
 1476              		@ frame_needed = 0, uses_anonymous_args = 0
 1477              		@ link register save eliminated.
 1478              	.LVL128:
 1479              		.loc 1 1119 0
 1480 0000 5831     		adds	r1, r1, #88
 1481              	.LVL129:
 1482 0002 436D     		ldr	r3, [r0, #84]
ARM GAS  C:\cygwin64\tmp\ccsD9IwC.s 			page 27


 1483 0004 4901     		lsls	r1, r1, #5
 1484 0006 5B58     		ldr	r3, [r3, r1]
 1485              	.LVL130:
 1486              		.loc 1 1120 0
 1487 0008 13F40040 		ands	r0, r3, #32768
 1488              	.LVL131:
 1489 000c 04D0     		beq	.L88
 1490              		.loc 1 1122 0
 1491 000e 13F4001F 		tst	r3, #2097152
 1492              		.loc 1 1124 0
 1493 0012 14BF     		ite	ne
 1494 0014 0120     		movne	r0, #1
 1495 0016 0220     		moveq	r0, #2
 1496              	.L88:
 1497              		.loc 1 1125 0
 1498 0018 7047     		bx	lr
 1499              		.cfi_endproc
 1500              	.LFE300:
 1501              		.size	usb_lld_get_status_out, .-usb_lld_get_status_out
 1502              		.section	.text.usb_lld_get_status_in,"ax",%progbits
 1503              		.align	1
 1504              		.global	usb_lld_get_status_in
 1505              		.syntax unified
 1506              		.thumb
 1507              		.thumb_func
 1508              		.fpu fpv4-sp-d16
 1509              		.type	usb_lld_get_status_in, %function
 1510              	usb_lld_get_status_in:
 1511              	.LFB301:
 1512              		.loc 1 1139 0
 1513              		.cfi_startproc
 1514              		@ args = 0, pretend = 0, frame = 0
 1515              		@ frame_needed = 0, uses_anonymous_args = 0
 1516              		@ link register save eliminated.
 1517              	.LVL132:
 1518              		.loc 1 1144 0
 1519 0000 4831     		adds	r1, r1, #72
 1520              	.LVL133:
 1521 0002 436D     		ldr	r3, [r0, #84]
 1522 0004 4901     		lsls	r1, r1, #5
 1523 0006 5B58     		ldr	r3, [r3, r1]
 1524              	.LVL134:
 1525              		.loc 1 1145 0
 1526 0008 13F40040 		ands	r0, r3, #32768
 1527              	.LVL135:
 1528 000c 04D0     		beq	.L92
 1529              		.loc 1 1147 0
 1530 000e 13F4001F 		tst	r3, #2097152
 1531              		.loc 1 1149 0
 1532 0012 14BF     		ite	ne
 1533 0014 0120     		movne	r0, #1
 1534 0016 0220     		moveq	r0, #2
 1535              	.L92:
 1536              		.loc 1 1150 0
 1537 0018 7047     		bx	lr
 1538              		.cfi_endproc
 1539              	.LFE301:
ARM GAS  C:\cygwin64\tmp\ccsD9IwC.s 			page 28


 1540              		.size	usb_lld_get_status_in, .-usb_lld_get_status_in
 1541              		.section	.text.usb_lld_read_setup,"ax",%progbits
 1542              		.align	1
 1543              		.global	usb_lld_read_setup
 1544              		.syntax unified
 1545              		.thumb
 1546              		.thumb_func
 1547              		.fpu fpv4-sp-d16
 1548              		.type	usb_lld_read_setup, %function
 1549              	usb_lld_read_setup:
 1550              	.LFB302:
 1551              		.loc 1 1166 0
 1552              		.cfi_startproc
 1553              		@ args = 0, pretend = 0, frame = 0
 1554              		@ frame_needed = 0, uses_anonymous_args = 0
 1555              		@ link register save eliminated.
 1556              	.LVL136:
 1557              		.loc 1 1168 0
 1558 0000 00EB8101 		add	r1, r0, r1, lsl #2
 1559              	.LVL137:
 1560 0004 CB68     		ldr	r3, [r1, #12]
 1561 0006 196A     		ldr	r1, [r3, #32]
 1562 0008 0B68     		ldr	r3, [r1]	@ unaligned
 1563 000a 1360     		str	r3, [r2]	@ unaligned
 1564 000c 4B68     		ldr	r3, [r1, #4]	@ unaligned
 1565 000e 5360     		str	r3, [r2, #4]	@ unaligned
 1566 0010 7047     		bx	lr
 1567              		.cfi_endproc
 1568              	.LFE302:
 1569              		.size	usb_lld_read_setup, .-usb_lld_read_setup
 1570              		.section	.text.usb_lld_start_out,"ax",%progbits
 1571              		.align	1
 1572              		.global	usb_lld_start_out
 1573              		.syntax unified
 1574              		.thumb
 1575              		.thumb_func
 1576              		.fpu fpv4-sp-d16
 1577              		.type	usb_lld_start_out, %function
 1578              	usb_lld_start_out:
 1579              	.LFB303:
 1580              		.loc 1 1179 0
 1581              		.cfi_startproc
 1582              		@ args = 0, pretend = 0, frame = 0
 1583              		@ frame_needed = 0, uses_anonymous_args = 0
 1584              	.LVL138:
 1585              		.loc 1 1181 0
 1586 0000 00EB8103 		add	r3, r0, r1, lsl #2
 1587              		.loc 1 1179 0
 1588 0004 30B5     		push	{r4, r5, lr}
 1589              		.cfi_def_cfa_offset 12
 1590              		.cfi_offset 4, -12
 1591              		.cfi_offset 5, -8
 1592              		.cfi_offset 14, -4
 1593              		.loc 1 1181 0
 1594 0006 DD68     		ldr	r5, [r3, #12]
 1595 0008 AA69     		ldr	r2, [r5, #24]
 1596              	.LVL139:
ARM GAS  C:\cygwin64\tmp\ccsD9IwC.s 			page 29


 1597              		.loc 1 1184 0
 1598 000a 1368     		ldr	r3, [r2]
 1599 000c D360     		str	r3, [r2, #12]
 1600              		.loc 1 1185 0
 1601 000e 19B9     		cbnz	r1, .L97
 1602              		.loc 1 1185 0 is_stmt 0 discriminator 1
 1603 0010 402B     		cmp	r3, #64
 1604              		.loc 1 1186 0 is_stmt 1 discriminator 1
 1605 0012 84BF     		itt	hi
 1606 0014 4023     		movhi	r3, #64
 1607 0016 1360     		strhi	r3, [r2]
 1608              	.L97:
 1609              		.loc 1 1193 0
 1610 0018 6B8A     		ldrh	r3, [r5, #18]
 1611 001a 1468     		ldr	r4, [r2]
 1612              		.loc 1 1198 0
 1613 001c 426D     		ldr	r2, [r0, #84]
 1614              	.LVL140:
 1615              		.loc 1 1193 0
 1616 001e 1C44     		add	r4, r4, r3
 1617 0020 013C     		subs	r4, r4, #1
 1618 0022 B4FBF3F4 		udiv	r4, r4, r3
 1619              	.LVL141:
 1620              		.loc 1 1195 0
 1621 0026 6343     		muls	r3, r4, r3
 1622              	.LVL142:
 1623 0028 0333     		adds	r3, r3, #3
 1624 002a 23F00303 		bic	r3, r3, #3
 1625              	.LVL143:
 1626              		.loc 1 1198 0
 1627 002e 02EB4110 		add	r0, r2, r1, lsl #5
 1628              	.LVL144:
 1629 0032 43EAC443 		orr	r3, r3, r4, lsl #19
 1630              	.LVL145:
 1631 0036 43F0C043 		orr	r3, r3, #1610612736
 1632 003a C0F8103B 		str	r3, [r0, #2832]
 1633              		.loc 1 1202 0
 1634 003e 2B68     		ldr	r3, [r5]
 1635 0040 03F00303 		and	r3, r3, #3
 1636 0044 012B     		cmp	r3, #1
 1637 0046 09B2     		sxth	r1, r1
 1638              	.LVL146:
 1639 0048 0ED1     		bne	.L98
 1640              		.loc 1 1204 0
 1641 004a D2F80838 		ldr	r3, [r2, #2056]
 1642 004e 02EB4110 		add	r0, r2, r1, lsl #5
 1643 0052 13F4807F 		tst	r3, #256
 1644              		.loc 1 1205 0
 1645 0056 D0F8003B 		ldr	r3, [r0, #2816]
 1646 005a 14BF     		ite	ne
 1647 005c 43F08053 		orrne	r3, r3, #268435456
 1648              		.loc 1 1207 0
 1649 0060 43F00053 		orreq	r3, r3, #536870912
 1650 0064 C0F8003B 		str	r3, [r0, #2816]
 1651              	.L98:
 1652 0068 02EB4112 		add	r2, r2, r1, lsl #5
 1653              		.loc 1 1211 0
ARM GAS  C:\cygwin64\tmp\ccsD9IwC.s 			page 30


 1654 006c D2F8003B 		ldr	r3, [r2, #2816]
 1655 0070 43F00443 		orr	r3, r3, #-2080374784
 1656 0074 C2F8003B 		str	r3, [r2, #2816]
 1657 0078 30BD     		pop	{r4, r5, pc}
 1658              		.cfi_endproc
 1659              	.LFE303:
 1660              		.size	usb_lld_start_out, .-usb_lld_start_out
 1661              		.section	.text.otg_epout_handler.constprop.7,"ax",%progbits
 1662              		.align	1
 1663              		.syntax unified
 1664              		.thumb
 1665              		.thumb_func
 1666              		.fpu fpv4-sp-d16
 1667              		.type	otg_epout_handler.constprop.7, %function
 1668              	otg_epout_handler.constprop.7:
 1669              	.LFB315:
 1670              		.loc 1 406 0
 1671              		.cfi_startproc
 1672              		@ args = 0, pretend = 0, frame = 0
 1673              		@ frame_needed = 0, uses_anonymous_args = 0
 1674              	.LVL147:
 1675 0000 2DE9F041 		push	{r4, r5, r6, r7, r8, lr}
 1676              		.cfi_def_cfa_offset 24
 1677              		.cfi_offset 4, -24
 1678              		.cfi_offset 5, -20
 1679              		.cfi_offset 6, -16
 1680              		.cfi_offset 7, -12
 1681              		.cfi_offset 8, -8
 1682              		.cfi_offset 14, -4
 1683              		.loc 1 407 0
 1684 0004 284D     		ldr	r5, .L123
 1685 0006 6E6D     		ldr	r6, [r5, #84]
 1686              	.LVL148:
 1687              		.loc 1 408 0
 1688 0008 06EB4013 		add	r3, r6, r0, lsl #5
 1689              		.loc 1 406 0
 1690 000c 0446     		mov	r4, r0
 1691              		.loc 1 408 0
 1692 000e D3F8087B 		ldr	r7, [r3, #2824]
 1693              	.LVL149:
 1694              		.loc 1 411 0
 1695 0012 C3F8087B 		str	r7, [r3, #2824]
 1696              		.loc 1 413 0
 1697 0016 3807     		lsls	r0, r7, #28
 1698              	.LVL150:
 1699 0018 0AD5     		bpl	.L102
 1700 001a D6F81438 		ldr	r3, [r6, #2068]
 1701 001e 1907     		lsls	r1, r3, #28
 1702 0020 06D5     		bpl	.L102
 1703              		.loc 1 416 0
 1704 0022 05EB8403 		add	r3, r5, r4, lsl #2
 1705 0026 2146     		mov	r1, r4
 1706 0028 DB68     		ldr	r3, [r3, #12]
 1707 002a 2846     		mov	r0, r5
 1708 002c 5B68     		ldr	r3, [r3, #4]
 1709 002e 9847     		blx	r3
 1710              	.LVL151:
ARM GAS  C:\cygwin64\tmp\ccsD9IwC.s 			page 31


 1711              	.L102:
 1712              		.loc 1 418 0
 1713 0030 FA07     		lsls	r2, r7, #31
 1714 0032 37D5     		bpl	.L101
 1715 0034 D6F81438 		ldr	r3, [r6, #2068]
 1716 0038 DB07     		lsls	r3, r3, #31
 1717 003a 33D5     		bpl	.L101
 1718              	.LBB345:
 1719              		.loc 1 423 0
 1720 003c 14B9     		cbnz	r4, .L106
 1721 003e 95F83430 		ldrb	r3, [r5, #52]	@ zero_extendqisi2
 1722 0042 7BB3     		cbz	r3, .L101
 1723              	.L106:
 1724              		.loc 1 427 0
 1725 0044 05EB8403 		add	r3, r5, r4, lsl #2
 1726 0048 D968     		ldr	r1, [r3, #12]
 1727              	.LVL152:
 1728              		.loc 1 430 0
 1729 004a ECB9     		cbnz	r4, .L107
 1730              		.loc 1 427 0
 1731 004c 8B69     		ldr	r3, [r1, #24]
 1732              		.loc 1 431 0
 1733 004e 488A     		ldrh	r0, [r1, #18]
 1734 0050 5E68     		ldr	r6, [r3, #4]
 1735              	.LVL153:
 1736 0052 B6FBF0F2 		udiv	r2, r6, r0
 1737 0056 00FB1262 		mls	r2, r0, r2, r6
 1738              		.loc 1 430 0
 1739 005a AAB9     		cbnz	r2, .L107
 1740              		.loc 1 432 0
 1741 005c 1868     		ldr	r0, [r3]
 1742 005e DA68     		ldr	r2, [r3, #12]
 1743              		.loc 1 431 0
 1744 0060 9042     		cmp	r0, r2
 1745 0062 11D2     		bcs	.L107
 1746              		.loc 1 436 0
 1747 0064 121A     		subs	r2, r2, r0
 1748              		.loc 1 437 0
 1749 0066 83E81400 		stm	r3, {r2, r4}
 1750              	.LVL154:
 1751              	.LBB346:
 1752              	.LBB347:
 1753              	.LBB348:
 1754              	.LBB349:
 1755              	.LBB350:
 1756              	.LBB351:
 1757              	.LBB352:
 1758              		.loc 3 264 0
 1759 006a 2023     		movs	r3, #32
 1760              		.syntax unified
 1761              	@ 264 "../../modules/ChibiOS/os/common/ext/CMSIS/include/cmsis_gcc.h" 1
 1762 006c 83F31188 		MSR basepri, r3
 1763              	@ 0 "" 2
 1764              	.LVL155:
 1765              		.thumb
 1766              		.syntax unified
 1767              	.LBE352:
ARM GAS  C:\cygwin64\tmp\ccsD9IwC.s 			page 32


 1768              	.LBE351:
 1769              	.LBE350:
 1770              	.LBE349:
 1771              		.loc 4 417 0
 1772 0070 FFF7FEFF 		bl	_stats_start_measure_crit_isr
 1773              	.LVL156:
 1774              	.LBE348:
 1775              	.LBE347:
 1776              	.LBE346:
 1777              		.loc 1 439 0
 1778 0074 2146     		mov	r1, r4
 1779 0076 0C48     		ldr	r0, .L123
 1780 0078 FFF7FEFF 		bl	usb_lld_start_out
 1781              	.LVL157:
 1782              	.LBB353:
 1783              	.LBB354:
 1784              	.LBB355:
 1785              		.loc 4 437 0
 1786 007c FFF7FEFF 		bl	_stats_stop_measure_crit_isr
 1787              	.LVL158:
 1788              	.LBB356:
 1789              	.LBB357:
 1790              	.LBB358:
 1791              	.LBB359:
 1792              		.loc 3 264 0
 1793              		.syntax unified
 1794              	@ 264 "../../modules/ChibiOS/os/common/ext/CMSIS/include/cmsis_gcc.h" 1
 1795 0080 84F31188 		MSR basepri, r4
 1796              	@ 0 "" 2
 1797              	.LVL159:
 1798              		.thumb
 1799              		.syntax unified
 1800 0084 BDE8F081 		pop	{r4, r5, r6, r7, r8, pc}
 1801              	.LVL160:
 1802              	.L107:
 1803              	.LBE359:
 1804              	.LBE358:
 1805              	.LBE357:
 1806              	.LBE356:
 1807              	.LBE355:
 1808              	.LBE354:
 1809              	.LBE353:
 1810              		.loc 1 444 0
 1811 0088 0123     		movs	r3, #1
 1812 008a 03FA04F2 		lsl	r2, r3, r4
 1813 008e 6B89     		ldrh	r3, [r5, #10]
 1814 0090 23EA0203 		bic	r3, r3, r2
 1815 0094 6B81     		strh	r3, [r5, #10]	@ movhi
 1816 0096 CB68     		ldr	r3, [r1, #12]
 1817 0098 23B1     		cbz	r3, .L101
 1818 009a 2146     		mov	r1, r4
 1819              	.LVL161:
 1820 009c 0248     		ldr	r0, .L123
 1821              	.LBE345:
 1822              		.loc 1 447 0
 1823 009e BDE8F041 		pop	{r4, r5, r6, r7, r8, lr}
 1824              		.cfi_remember_state
ARM GAS  C:\cygwin64\tmp\ccsD9IwC.s 			page 33


 1825              		.cfi_restore 14
 1826              		.cfi_restore 8
 1827              		.cfi_restore 7
 1828              		.cfi_restore 6
 1829              		.cfi_restore 5
 1830              		.cfi_restore 4
 1831              		.cfi_def_cfa_offset 0
 1832              	.LVL162:
 1833              	.LBB360:
 1834              		.loc 1 444 0
 1835 00a2 1847     		bx	r3	@ indirect register sibling call
 1836              	.LVL163:
 1837              	.L101:
 1838              		.cfi_restore_state
 1839 00a4 BDE8F081 		pop	{r4, r5, r6, r7, r8, pc}
 1840              	.LVL164:
 1841              	.L124:
 1842              		.align	2
 1843              	.L123:
 1844 00a8 00000000 		.word	.LANCHOR0
 1845              	.LBE360:
 1846              		.cfi_endproc
 1847              	.LFE315:
 1848              		.size	otg_epout_handler.constprop.7, .-otg_epout_handler.constprop.7
 1849              		.section	.text.usb_lld_start_in,"ax",%progbits
 1850              		.align	1
 1851              		.global	usb_lld_start_in
 1852              		.syntax unified
 1853              		.thumb
 1854              		.thumb_func
 1855              		.fpu fpv4-sp-d16
 1856              		.type	usb_lld_start_in, %function
 1857              	usb_lld_start_in:
 1858              	.LFB304:
 1859              		.loc 1 1222 0
 1860              		.cfi_startproc
 1861              		@ args = 0, pretend = 0, frame = 0
 1862              		@ frame_needed = 0, uses_anonymous_args = 0
 1863              	.LVL165:
 1864              		.loc 1 1223 0
 1865 0000 00EB8103 		add	r3, r0, r1, lsl #2
 1866              		.loc 1 1222 0
 1867 0004 70B5     		push	{r4, r5, r6, lr}
 1868              		.cfi_def_cfa_offset 16
 1869              		.cfi_offset 4, -16
 1870              		.cfi_offset 5, -12
 1871              		.cfi_offset 6, -8
 1872              		.cfi_offset 14, -4
 1873              		.loc 1 1223 0
 1874 0006 DD68     		ldr	r5, [r3, #12]
 1875 0008 436D     		ldr	r3, [r0, #84]
 1876 000a 6C69     		ldr	r4, [r5, #20]
 1877              	.LVL166:
 1878              		.loc 1 1226 0
 1879 000c 2668     		ldr	r6, [r4]
 1880 000e E660     		str	r6, [r4, #12]
 1881 0010 4A01     		lsls	r2, r1, #5
ARM GAS  C:\cygwin64\tmp\ccsD9IwC.s 			page 34


 1882              		.loc 1 1227 0
 1883 0012 56BB     		cbnz	r6, .L126
 1884              		.loc 1 1229 0
 1885 0014 1A44     		add	r2, r2, r3
 1886 0016 4FF40020 		mov	r0, #524288
 1887              	.LVL167:
 1888              	.L131:
 1889              	.LBB361:
 1890              		.loc 1 1239 0
 1891 001a C2F81009 		str	r0, [r2, #2320]
 1892              	.LBE361:
 1893              		.loc 1 1244 0
 1894 001e 2A68     		ldr	r2, [r5]
 1895 0020 02F00302 		and	r2, r2, #3
 1896 0024 012A     		cmp	r2, #1
 1897 0026 0AB2     		sxth	r2, r1
 1898 0028 0ED1     		bne	.L129
 1899              		.loc 1 1246 0
 1900 002a D3F80808 		ldr	r0, [r3, #2056]
 1901 002e 03EB4214 		add	r4, r3, r2, lsl #5
 1902 0032 10F4807F 		tst	r0, #256
 1903              		.loc 1 1247 0
 1904 0036 D4F80009 		ldr	r0, [r4, #2304]
 1905 003a 14BF     		ite	ne
 1906 003c 40F08050 		orrne	r0, r0, #268435456
 1907              		.loc 1 1249 0
 1908 0040 40F00050 		orreq	r0, r0, #536870912
 1909 0044 C4F80009 		str	r0, [r4, #2304]
 1910              	.L129:
 1911 0048 03EB4212 		add	r2, r3, r2, lsl #5
 1912              		.loc 1 1253 0
 1913 004c D2F80009 		ldr	r0, [r2, #2304]
 1914 0050 40F00440 		orr	r0, r0, #-2080374784
 1915 0054 C2F80009 		str	r0, [r2, #2304]
 1916              		.loc 1 1254 0
 1917 0058 D3F83408 		ldr	r0, [r3, #2100]
 1918 005c 0122     		movs	r2, #1
 1919 005e 02FA01F1 		lsl	r1, r2, r1
 1920              	.LVL168:
 1921 0062 0143     		orrs	r1, r1, r0
 1922 0064 C3F83418 		str	r1, [r3, #2100]
 1923 0068 70BD     		pop	{r4, r5, r6, pc}
 1924              	.LVL169:
 1925              	.L126:
 1926              	.LBB362:
 1927              		.loc 1 1232 0
 1928 006a 19B9     		cbnz	r1, .L128
 1929              		.loc 1 1232 0 is_stmt 0 discriminator 1
 1930 006c 402E     		cmp	r6, #64
 1931              		.loc 1 1233 0 is_stmt 1 discriminator 1
 1932 006e 84BF     		itt	hi
 1933 0070 4020     		movhi	r0, #64
 1934              	.LVL170:
 1935 0072 2060     		strhi	r0, [r4]
 1936              	.L128:
 1937              		.loc 1 1236 0
 1938 0074 2068     		ldr	r0, [r4]
ARM GAS  C:\cygwin64\tmp\ccsD9IwC.s 			page 35


 1939 0076 2E8A     		ldrh	r6, [r5, #16]
 1940              	.LVL171:
 1941 0078 8419     		adds	r4, r0, r6
 1942              	.LVL172:
 1943              		.loc 1 1239 0
 1944 007a 40F00050 		orr	r0, r0, #536870912
 1945              	.LVL173:
 1946              		.loc 1 1236 0
 1947 007e 013C     		subs	r4, r4, #1
 1948              		.loc 1 1239 0
 1949 0080 1A44     		add	r2, r2, r3
 1950              		.loc 1 1236 0
 1951 0082 B4FBF6F4 		udiv	r4, r4, r6
 1952              	.LVL174:
 1953              		.loc 1 1239 0
 1954 0086 40EAC440 		orr	r0, r0, r4, lsl #19
 1955 008a C6E7     		b	.L131
 1956              	.LBE362:
 1957              		.cfi_endproc
 1958              	.LFE304:
 1959              		.size	usb_lld_start_in, .-usb_lld_start_in
 1960              		.section	.text.otg_epin_handler.constprop.8,"ax",%progbits
 1961              		.align	1
 1962              		.syntax unified
 1963              		.thumb
 1964              		.thumb_func
 1965              		.fpu fpv4-sp-d16
 1966              		.type	otg_epin_handler.constprop.8, %function
 1967              	otg_epin_handler.constprop.8:
 1968              	.LFB314:
 1969              		.loc 1 359 0
 1970              		.cfi_startproc
 1971              		@ args = 0, pretend = 0, frame = 0
 1972              		@ frame_needed = 0, uses_anonymous_args = 0
 1973              	.LVL175:
 1974 0000 2DE9F041 		push	{r4, r5, r6, r7, r8, lr}
 1975              		.cfi_def_cfa_offset 24
 1976              		.cfi_offset 4, -24
 1977              		.cfi_offset 5, -20
 1978              		.cfi_offset 6, -16
 1979              		.cfi_offset 7, -12
 1980              		.cfi_offset 8, -8
 1981              		.cfi_offset 14, -4
 1982              		.loc 1 360 0
 1983 0004 2C4C     		ldr	r4, .L151
 1984 0006 666D     		ldr	r6, [r4, #84]
 1985              	.LVL176:
 1986              		.loc 1 361 0
 1987 0008 06EB4013 		add	r3, r6, r0, lsl #5
 1988              		.loc 1 359 0
 1989 000c 0546     		mov	r5, r0
 1990              		.loc 1 361 0
 1991 000e D3F80879 		ldr	r7, [r3, #2312]
 1992              	.LVL177:
 1993              		.loc 1 363 0
 1994 0012 C3F80879 		str	r7, [r3, #2312]
 1995              		.loc 1 368 0
ARM GAS  C:\cygwin64\tmp\ccsD9IwC.s 			page 36


 1996 0016 F907     		lsls	r1, r7, #31
 1997 0018 1ED5     		bpl	.L135
 1998 001a D6F81038 		ldr	r3, [r6, #2064]
 1999 001e DA07     		lsls	r2, r3, #31
 2000 0020 1AD5     		bpl	.L135
 2001              	.LBB398:
 2002              		.loc 1 370 0
 2003 0022 04EB8003 		add	r3, r4, r0, lsl #2
 2004 0026 D968     		ldr	r1, [r3, #12]
 2005 0028 4B69     		ldr	r3, [r1, #20]
 2006              	.LVL178:
 2007              		.loc 1 372 0
 2008 002a 1868     		ldr	r0, [r3]
 2009              	.LVL179:
 2010 002c DA68     		ldr	r2, [r3, #12]
 2011 002e 9042     		cmp	r0, r2
 2012 0030 34D2     		bcs	.L137
 2013              		.loc 1 376 0
 2014 0032 121A     		subs	r2, r2, r0
 2015              		.loc 1 377 0
 2016 0034 4FF00008 		mov	r8, #0
 2017              		.loc 1 376 0
 2018 0038 1A60     		str	r2, [r3]
 2019              		.loc 1 377 0
 2020 003a C3F80480 		str	r8, [r3, #4]
 2021              	.LVL180:
 2022              	.LBB399:
 2023              	.LBB400:
 2024              	.LBB401:
 2025              	.LBB402:
 2026              	.LBB403:
 2027              	.LBB404:
 2028              	.LBB405:
 2029              		.loc 3 264 0
 2030 003e 2023     		movs	r3, #32
 2031              	.LVL181:
 2032              		.syntax unified
 2033              	@ 264 "../../modules/ChibiOS/os/common/ext/CMSIS/include/cmsis_gcc.h" 1
 2034 0040 83F31188 		MSR basepri, r3
 2035              	@ 0 "" 2
 2036              	.LVL182:
 2037              		.thumb
 2038              		.syntax unified
 2039              	.LBE405:
 2040              	.LBE404:
 2041              	.LBE403:
 2042              	.LBE402:
 2043              		.loc 4 417 0
 2044 0044 FFF7FEFF 		bl	_stats_start_measure_crit_isr
 2045              	.LVL183:
 2046              	.LBE401:
 2047              	.LBE400:
 2048              	.LBE399:
 2049              		.loc 1 379 0
 2050 0048 2946     		mov	r1, r5
 2051 004a 2046     		mov	r0, r4
 2052 004c FFF7FEFF 		bl	usb_lld_start_in
ARM GAS  C:\cygwin64\tmp\ccsD9IwC.s 			page 37


 2053              	.LVL184:
 2054              	.LBB406:
 2055              	.LBB407:
 2056              	.LBB408:
 2057              		.loc 4 437 0
 2058 0050 FFF7FEFF 		bl	_stats_stop_measure_crit_isr
 2059              	.LVL185:
 2060              	.LBB409:
 2061              	.LBB410:
 2062              	.LBB411:
 2063              	.LBB412:
 2064              		.loc 3 264 0
 2065              		.syntax unified
 2066              	@ 264 "../../modules/ChibiOS/os/common/ext/CMSIS/include/cmsis_gcc.h" 1
 2067 0054 88F31188 		MSR basepri, r8
 2068              	@ 0 "" 2
 2069              	.LVL186:
 2070              		.thumb
 2071              		.syntax unified
 2072              	.L135:
 2073              	.LBE412:
 2074              	.LBE411:
 2075              	.LBE410:
 2076              	.LBE409:
 2077              	.LBE408:
 2078              	.LBE407:
 2079              	.LBE406:
 2080              	.LBE398:
 2081              		.loc 1 387 0
 2082 0058 3B06     		lsls	r3, r7, #24
 2083 005a 1DD5     		bpl	.L133
 2084              		.loc 1 388 0
 2085 005c D6F83428 		ldr	r2, [r6, #2100]
 2086 0060 0123     		movs	r3, #1
 2087 0062 03FA05F5 		lsl	r5, r3, r5
 2088              		.loc 1 387 0
 2089 0066 1542     		tst	r5, r2
 2090 0068 16D0     		beq	.L133
 2091              	.LVL187:
 2092              	.LBB413:
 2093              	.LBB414:
 2094              	.LBB415:
 2095              	.LBB416:
 2096              	.LBB417:
 2097              	.LBB418:
 2098              	.LBB419:
 2099              		.loc 3 264 0
 2100 006a 2023     		movs	r3, #32
 2101              		.syntax unified
 2102              	@ 264 "../../modules/ChibiOS/os/common/ext/CMSIS/include/cmsis_gcc.h" 1
 2103 006c 83F31188 		MSR basepri, r3
 2104              	@ 0 "" 2
 2105              	.LVL188:
 2106              		.thumb
 2107              		.syntax unified
 2108              	.LBE419:
 2109              	.LBE418:
ARM GAS  C:\cygwin64\tmp\ccsD9IwC.s 			page 38


 2110              	.LBE417:
 2111              	.LBE416:
 2112              		.loc 4 417 0
 2113 0070 FFF7FEFF 		bl	_stats_start_measure_crit_isr
 2114              	.LVL189:
 2115              	.LBE415:
 2116              	.LBE414:
 2117              	.LBE413:
 2118              		.loc 1 391 0
 2119 0074 236E     		ldr	r3, [r4, #96]
 2120              	.LBB420:
 2121              	.LBB421:
 2122              		.loc 2 728 0
 2123 0076 1148     		ldr	r0, .L151+4
 2124              	.LBE421:
 2125              	.LBE420:
 2126              		.loc 1 391 0
 2127 0078 2B43     		orrs	r3, r3, r5
 2128 007a 2366     		str	r3, [r4, #96]
 2129              		.loc 1 392 0
 2130 007c D6F83438 		ldr	r3, [r6, #2100]
 2131 0080 23EA0505 		bic	r5, r3, r5
 2132              	.LBB424:
 2133              	.LBB422:
 2134              		.loc 2 728 0
 2135 0084 0021     		movs	r1, #0
 2136              	.LBE422:
 2137              	.LBE424:
 2138              		.loc 1 392 0
 2139 0086 C6F83458 		str	r5, [r6, #2100]
 2140              	.LVL190:
 2141              	.LBB425:
 2142              	.LBB423:
 2143              		.loc 2 728 0
 2144 008a FFF7FEFF 		bl	chThdResumeI
 2145              	.LVL191:
 2146              	.LBE423:
 2147              	.LBE425:
 2148              	.LBB426:
 2149              	.LBB427:
 2150              	.LBB428:
 2151              		.loc 4 437 0
 2152 008e FFF7FEFF 		bl	_stats_stop_measure_crit_isr
 2153              	.LVL192:
 2154              	.LBB429:
 2155              	.LBB430:
 2156              	.LBB431:
 2157              	.LBB432:
 2158              		.loc 3 264 0
 2159 0092 0023     		movs	r3, #0
 2160              		.syntax unified
 2161              	@ 264 "../../modules/ChibiOS/os/common/ext/CMSIS/include/cmsis_gcc.h" 1
 2162 0094 83F31188 		MSR basepri, r3
 2163              	@ 0 "" 2
 2164              	.LVL193:
 2165              		.thumb
 2166              		.syntax unified
ARM GAS  C:\cygwin64\tmp\ccsD9IwC.s 			page 39


 2167              	.L133:
 2168 0098 BDE8F081 		pop	{r4, r5, r6, r7, r8, pc}
 2169              	.LVL194:
 2170              	.L137:
 2171              	.LBE432:
 2172              	.LBE431:
 2173              	.LBE430:
 2174              	.LBE429:
 2175              	.LBE428:
 2176              	.LBE427:
 2177              	.LBE426:
 2178              	.LBB433:
 2179              		.loc 1 384 0
 2180 009c 0123     		movs	r3, #1
 2181              	.LVL195:
 2182 009e 03FA05F2 		lsl	r2, r3, r5
 2183 00a2 2389     		ldrh	r3, [r4, #8]
 2184 00a4 23EA0203 		bic	r3, r3, r2
 2185 00a8 2381     		strh	r3, [r4, #8]	@ movhi
 2186 00aa 8B68     		ldr	r3, [r1, #8]
 2187 00ac 002B     		cmp	r3, #0
 2188 00ae D3D0     		beq	.L135
 2189 00b0 2946     		mov	r1, r5
 2190              	.LVL196:
 2191 00b2 2046     		mov	r0, r4
 2192 00b4 9847     		blx	r3
 2193              	.LVL197:
 2194 00b6 CFE7     		b	.L135
 2195              	.L152:
 2196              		.align	2
 2197              	.L151:
 2198 00b8 00000000 		.word	.LANCHOR0
 2199 00bc 64000000 		.word	.LANCHOR0+100
 2200              	.LBE433:
 2201              		.cfi_endproc
 2202              	.LFE314:
 2203              		.size	otg_epin_handler.constprop.8, .-otg_epin_handler.constprop.8
 2204              		.section	.text.Vector14C,"ax",%progbits
 2205              		.align	1
 2206              		.global	Vector14C
 2207              		.syntax unified
 2208              		.thumb
 2209              		.thumb_func
 2210              		.fpu fpv4-sp-d16
 2211              		.type	Vector14C, %function
 2212              	Vector14C:
 2213              	.LFB292:
 2214              		.loc 1 676 0
 2215              		.cfi_startproc
 2216              		@ args = 0, pretend = 0, frame = 8
 2217              		@ frame_needed = 0, uses_anonymous_args = 0
 2218 0000 2DE9F74F 		push	{r0, r1, r2, r4, r5, r6, r7, r8, r9, r10, fp, lr}
 2219              		.cfi_def_cfa_offset 48
 2220              		.cfi_offset 4, -36
 2221              		.cfi_offset 5, -32
 2222              		.cfi_offset 6, -28
 2223              		.cfi_offset 7, -24
ARM GAS  C:\cygwin64\tmp\ccsD9IwC.s 			page 40


 2224              		.cfi_offset 8, -20
 2225              		.cfi_offset 9, -16
 2226              		.cfi_offset 10, -12
 2227              		.cfi_offset 11, -8
 2228              		.cfi_offset 14, -4
 2229              		.loc 1 678 0
 2230 0004 FFF7FEFF 		bl	_stats_increase_irq
 2231              	.LVL198:
 2232              	.LBB476:
 2233              	.LBB477:
 2234              		.loc 1 519 0
 2235 0008 8448     		ldr	r0, .L236
 2236 000a 446D     		ldr	r4, [r0, #84]
 2237              	.LVL199:
 2238              		.loc 1 522 0
 2239 000c 6669     		ldr	r6, [r4, #20]
 2240              	.LVL200:
 2241              		.loc 1 523 0
 2242 000e A369     		ldr	r3, [r4, #24]
 2243 0010 1E40     		ands	r6, r6, r3
 2244              	.LVL201:
 2245              		.loc 1 527 0
 2246 0012 16F4805F 		tst	r6, #4096
 2247              		.loc 1 524 0
 2248 0016 6661     		str	r6, [r4, #20]
 2249 0018 0546     		mov	r5, r0
 2250              		.loc 1 527 0
 2251 001a 08D0     		beq	.L154
 2252              		.loc 1 530 0
 2253 001c 0023     		movs	r3, #0
 2254 001e 0366     		str	r3, [r0, #96]
 2255              		.loc 1 533 0
 2256 0020 FFF7FEFF 		bl	_usb_reset
 2257              	.LVL202:
 2258              	.L155:
 2259              	.LBE477:
 2260              	.LBE476:
 2261              		.loc 1 683 0
 2262 0024 03B0     		add	sp, sp, #12
 2263              		.cfi_remember_state
 2264              		.cfi_def_cfa_offset 36
 2265              		@ sp needed
 2266 0026 BDE8F04F 		pop	{r4, r5, r6, r7, r8, r9, r10, fp, lr}
 2267              		.cfi_restore 14
 2268              		.cfi_restore 11
 2269              		.cfi_restore 10
 2270              		.cfi_restore 9
 2271              		.cfi_restore 8
 2272              		.cfi_restore 7
 2273              		.cfi_restore 6
 2274              		.cfi_restore 5
 2275              		.cfi_restore 4
 2276              		.cfi_def_cfa_offset 0
 2277              		.loc 1 682 0
 2278 002a FFF7FEBF 		b	_port_irq_epilogue
 2279              	.LVL203:
 2280              	.L154:
ARM GAS  C:\cygwin64\tmp\ccsD9IwC.s 			page 41


 2281              		.cfi_restore_state
 2282              	.LBB523:
 2283              	.LBB522:
 2284              		.loc 1 540 0
 2285 002e 002E     		cmp	r6, #0
 2286 0030 12DA     		bge	.L156
 2287              		.loc 1 543 0
 2288 0032 D4F8003E 		ldr	r3, [r4, #3584]
 2289              		.loc 1 551 0
 2290 0036 7948     		ldr	r0, .L236
 2291              		.loc 1 543 0
 2292 0038 9F07     		lsls	r7, r3, #30
 2293              		.loc 1 545 0
 2294 003a 1EBF     		ittt	ne
 2295 003c D4F8003E 		ldrne	r3, [r4, #3584]
 2296 0040 23F00303 		bicne	r3, r3, #3
 2297 0044 C4F8003E 		strne	r3, [r4, #3584]
 2298              		.loc 1 549 0
 2299 0048 D4F80438 		ldr	r3, [r4, #2052]
 2300 004c 43F00103 		orr	r3, r3, #1
 2301 0050 C4F80438 		str	r3, [r4, #2052]
 2302              		.loc 1 551 0
 2303 0054 FFF7FEFF 		bl	_usb_wakeup
 2304              	.LVL204:
 2305              	.L156:
 2306              		.loc 1 555 0
 2307 0058 3005     		lsls	r0, r6, #20
 2308 005a 04D5     		bpl	.L158
 2309              		.loc 1 558 0
 2310 005c 0023     		movs	r3, #0
 2311              		.loc 1 561 0
 2312 005e 6F48     		ldr	r0, .L236
 2313              		.loc 1 558 0
 2314 0060 2B66     		str	r3, [r5, #96]
 2315              		.loc 1 561 0
 2316 0062 FFF7FEFF 		bl	_usb_suspend
 2317              	.LVL205:
 2318              	.L158:
 2319              		.loc 1 565 0
 2320 0066 B104     		lsls	r1, r6, #18
 2321 0068 0CD5     		bpl	.L159
 2322              		.loc 1 567 0
 2323 006a D4F80838 		ldr	r3, [r4, #2056]
 2324 006e 13F0060F 		tst	r3, #6
 2325              		.loc 1 568 0
 2326 0072 E368     		ldr	r3, [r4, #12]
 2327 0074 23F47053 		bic	r3, r3, #15360
 2328 0078 0CBF     		ite	eq
 2329 007a 43F41053 		orreq	r3, r3, #9216
 2330              		.loc 1 572 0
 2331 007e 43F4A053 		orrne	r3, r3, #5120
 2332 0082 E360     		str	r3, [r4, #12]
 2333              	.L159:
 2334              		.loc 1 578 0
 2335 0084 3207     		lsls	r2, r6, #28
 2336 0086 04D5     		bpl	.L161
 2337              		.loc 1 579 0
ARM GAS  C:\cygwin64\tmp\ccsD9IwC.s 			page 42


 2338 0088 6B68     		ldr	r3, [r5, #4]
 2339 008a DB68     		ldr	r3, [r3, #12]
 2340 008c 0BB1     		cbz	r3, .L161
 2341 008e 6348     		ldr	r0, .L236
 2342 0090 9847     		blx	r3
 2343              	.LVL206:
 2344              	.L161:
 2345              		.loc 1 583 0
 2346 0092 F302     		lsls	r3, r6, #11
 2347 0094 52D4     		bmi	.L162
 2348              	.L170:
 2349              		.loc 1 588 0
 2350 0096 B702     		lsls	r7, r6, #10
 2351 0098 0CD5     		bpl	.L164
 2352              	.LVL207:
 2353              	.LBB478:
 2354              	.LBB479:
 2355              		.loc 1 494 0
 2356 009a D5F85480 		ldr	r8, [r5, #84]
 2357              	.LVL208:
 2358              		.loc 1 506 0
 2359 009e DFF87CA1 		ldr	r10, .L236
 2360              		.loc 1 494 0
 2361 00a2 0027     		movs	r7, #0
 2362              		.loc 1 506 0
 2363 00a4 4FF00109 		mov	r9, #1
 2364              	.LVL209:
 2365              	.L173:
 2366              		.loc 1 496 0
 2367 00a8 AB6D     		ldr	r3, [r5, #88]
 2368 00aa 9B68     		ldr	r3, [r3, #8]
 2369 00ac F9B2     		uxtb	r1, r7
 2370              	.LVL210:
 2371 00ae 8B42     		cmp	r3, r1
 2372 00b0 80F09780 		bcs	.L177
 2373              	.LVL211:
 2374              	.L164:
 2375              	.LBE479:
 2376              	.LBE478:
 2377              		.loc 1 593 0
 2378 00b4 F506     		lsls	r5, r6, #27
 2379 00b6 11D5     		bpl	.L172
 2380              	.LVL212:
 2381              	.LBB481:
 2382              	.LBB482:
 2383              	.LBB483:
 2384              	.LBB484:
 2385              	.LBB485:
 2386              	.LBB486:
 2387              	.LBB487:
 2388              		.loc 3 264 0
 2389 00b8 2023     		movs	r3, #32
 2390              		.syntax unified
 2391              	@ 264 "../../modules/ChibiOS/os/common/ext/CMSIS/include/cmsis_gcc.h" 1
 2392 00ba 83F31188 		MSR basepri, r3
 2393              	@ 0 "" 2
 2394              	.LVL213:
ARM GAS  C:\cygwin64\tmp\ccsD9IwC.s 			page 43


 2395              		.thumb
 2396              		.syntax unified
 2397              	.LBE487:
 2398              	.LBE486:
 2399              	.LBE485:
 2400              	.LBE484:
 2401              		.loc 4 417 0
 2402 00be FFF7FEFF 		bl	_stats_start_measure_crit_isr
 2403              	.LVL214:
 2404              	.LBE483:
 2405              	.LBE482:
 2406              	.LBE481:
 2407              		.loc 1 597 0
 2408 00c2 A369     		ldr	r3, [r4, #24]
 2409              	.LBB488:
 2410              	.LBB489:
 2411              		.loc 2 728 0
 2412 00c4 5648     		ldr	r0, .L236+4
 2413              	.LBE489:
 2414              	.LBE488:
 2415              		.loc 1 597 0
 2416 00c6 23F01003 		bic	r3, r3, #16
 2417 00ca A361     		str	r3, [r4, #24]
 2418              	.LVL215:
 2419              	.LBB491:
 2420              	.LBB490:
 2421              		.loc 2 728 0
 2422 00cc 0021     		movs	r1, #0
 2423 00ce FFF7FEFF 		bl	chThdResumeI
 2424              	.LVL216:
 2425              	.LBE490:
 2426              	.LBE491:
 2427              	.LBB492:
 2428              	.LBB493:
 2429              	.LBB494:
 2430              		.loc 4 437 0
 2431 00d2 FFF7FEFF 		bl	_stats_stop_measure_crit_isr
 2432              	.LVL217:
 2433              	.LBB495:
 2434              	.LBB496:
 2435              	.LBB497:
 2436              	.LBB498:
 2437              		.loc 3 264 0
 2438 00d6 0023     		movs	r3, #0
 2439              		.syntax unified
 2440              	@ 264 "../../modules/ChibiOS/os/common/ext/CMSIS/include/cmsis_gcc.h" 1
 2441 00d8 83F31188 		MSR basepri, r3
 2442              	@ 0 "" 2
 2443              	.LVL218:
 2444              		.thumb
 2445              		.syntax unified
 2446              	.L172:
 2447              	.LBE498:
 2448              	.LBE497:
 2449              	.LBE496:
 2450              	.LBE495:
 2451              	.LBE494:
ARM GAS  C:\cygwin64\tmp\ccsD9IwC.s 			page 44


 2452              	.LBE493:
 2453              	.LBE492:
 2454              		.loc 1 604 0
 2455 00dc 3003     		lsls	r0, r6, #12
 2456              		.loc 1 603 0
 2457 00de D4F81848 		ldr	r4, [r4, #2072]
 2458              	.LVL219:
 2459              		.loc 1 604 0
 2460 00e2 13D5     		bpl	.L179
 2461              		.loc 1 605 0
 2462 00e4 E103     		lsls	r1, r4, #15
 2463 00e6 02D5     		bpl	.L180
 2464              		.loc 1 606 0
 2465 00e8 0020     		movs	r0, #0
 2466 00ea FFF7FEFF 		bl	otg_epout_handler.constprop.7
 2467              	.LVL220:
 2468              	.L180:
 2469              		.loc 1 607 0
 2470 00ee A203     		lsls	r2, r4, #14
 2471 00f0 02D5     		bpl	.L181
 2472              		.loc 1 608 0
 2473 00f2 0120     		movs	r0, #1
 2474 00f4 FFF7FEFF 		bl	otg_epout_handler.constprop.7
 2475              	.LVL221:
 2476              	.L181:
 2477              		.loc 1 609 0
 2478 00f8 6303     		lsls	r3, r4, #13
 2479 00fa 02D5     		bpl	.L182
 2480              		.loc 1 610 0
 2481 00fc 0220     		movs	r0, #2
 2482 00fe FFF7FEFF 		bl	otg_epout_handler.constprop.7
 2483              	.LVL222:
 2484              	.L182:
 2485              		.loc 1 611 0
 2486 0102 2703     		lsls	r7, r4, #12
 2487 0104 02D5     		bpl	.L179
 2488              		.loc 1 612 0
 2489 0106 0320     		movs	r0, #3
 2490 0108 FFF7FEFF 		bl	otg_epout_handler.constprop.7
 2491              	.LVL223:
 2492              	.L179:
 2493              		.loc 1 634 0
 2494 010c 7503     		lsls	r5, r6, #13
 2495 010e 89D5     		bpl	.L155
 2496              		.loc 1 635 0
 2497 0110 E007     		lsls	r0, r4, #31
 2498 0112 02D5     		bpl	.L185
 2499              		.loc 1 636 0
 2500 0114 0020     		movs	r0, #0
 2501 0116 FFF7FEFF 		bl	otg_epin_handler.constprop.8
 2502              	.LVL224:
 2503              	.L185:
 2504              		.loc 1 637 0
 2505 011a A107     		lsls	r1, r4, #30
 2506 011c 02D5     		bpl	.L186
 2507              		.loc 1 638 0
 2508 011e 0120     		movs	r0, #1
ARM GAS  C:\cygwin64\tmp\ccsD9IwC.s 			page 45


 2509 0120 FFF7FEFF 		bl	otg_epin_handler.constprop.8
 2510              	.LVL225:
 2511              	.L186:
 2512              		.loc 1 639 0
 2513 0124 6207     		lsls	r2, r4, #29
 2514 0126 02D5     		bpl	.L187
 2515              		.loc 1 640 0
 2516 0128 0220     		movs	r0, #2
 2517 012a FFF7FEFF 		bl	otg_epin_handler.constprop.8
 2518              	.LVL226:
 2519              	.L187:
 2520              		.loc 1 641 0
 2521 012e 2307     		lsls	r3, r4, #28
 2522 0130 7FF578AF 		bpl	.L155
 2523              		.loc 1 642 0
 2524 0134 0320     		movs	r0, #3
 2525 0136 FFF7FEFF 		bl	otg_epin_handler.constprop.8
 2526              	.LVL227:
 2527 013a 73E7     		b	.L155
 2528              	.LVL228:
 2529              	.L162:
 2530              	.LBB499:
 2531              	.LBB500:
 2532              		.loc 1 458 0
 2533 013c D5F85490 		ldr	r9, [r5, #84]
 2534              	.LVL229:
 2535              	.LBB501:
 2536              	.LBB502:
 2537              		.loc 2 728 0
 2538 0140 DFF8DCA0 		ldr	r10, .L236+4
 2539              	.LBE502:
 2540              	.LBE501:
 2541              		.loc 1 458 0
 2542 0144 4FF00008 		mov	r8, #0
 2543              	.LVL230:
 2544              	.L165:
 2545              		.loc 1 460 0
 2546 0148 AA6D     		ldr	r2, [r5, #88]
 2547 014a 9268     		ldr	r2, [r2, #8]
 2548 014c 5FFA88F3 		uxtb	r3, r8
 2549              	.LVL231:
 2550 0150 9A42     		cmp	r2, r3
 2551 0152 A0D3     		bcc	.L170
 2552 0154 09EB4312 		add	r2, r9, r3, lsl #5
 2553              		.loc 1 461 0
 2554 0158 D2F80019 		ldr	r1, [r2, #2304]
 2555 015c 01F44021 		and	r1, r1, #786432
 2556 0160 B1F5802F 		cmp	r1, #262144
 2557 0164 3AD1     		bne	.L166
 2558              		.loc 1 462 0
 2559 0166 D2F80019 		ldr	r1, [r2, #2304]
 2560              		.loc 1 461 0
 2561 016a 0029     		cmp	r1, #0
 2562 016c 36DA     		bge	.L166
 2563              		.loc 1 465 0
 2564 016e D2F80019 		ldr	r1, [r2, #2304]
 2565 0172 41F09041 		orr	r1, r1, #1207959552
ARM GAS  C:\cygwin64\tmp\ccsD9IwC.s 			page 46


 2566 0176 C2F80019 		str	r1, [r2, #2304]
 2567              	.L167:
 2568              		.loc 1 466 0
 2569 017a D2F80019 		ldr	r1, [r2, #2304]
 2570 017e 0029     		cmp	r1, #0
 2571 0180 FBDB     		blt	.L167
 2572              		.loc 1 470 0
 2573 0182 1946     		mov	r1, r3
 2574 0184 686D     		ldr	r0, [r5, #84]
 2575 0186 0193     		str	r3, [sp, #4]
 2576 0188 FFF7FEFF 		bl	otg_txfifo_flush.isra.1
 2577              	.LVL232:
 2578              		.loc 1 473 0
 2579 018c 019B     		ldr	r3, [sp, #4]
 2580 018e 0122     		movs	r2, #1
 2581 0190 02FA03FB 		lsl	fp, r2, r3
 2582 0194 2A89     		ldrh	r2, [r5, #8]
 2583 0196 6FEA0B07 		mvn	r7, fp
 2584 019a 3A40     		ands	r2, r2, r7
 2585 019c 2A81     		strh	r2, [r5, #8]	@ movhi
 2586 019e 05EB8302 		add	r2, r5, r3, lsl #2
 2587 01a2 D268     		ldr	r2, [r2, #12]
 2588 01a4 9268     		ldr	r2, [r2, #8]
 2589 01a6 12B1     		cbz	r2, .L168
 2590 01a8 1946     		mov	r1, r3
 2591 01aa 1C48     		ldr	r0, .L236
 2592 01ac 9047     		blx	r2
 2593              	.LVL233:
 2594              	.L168:
 2595              	.LBB505:
 2596              	.LBB506:
 2597              	.LBB507:
 2598              	.LBB508:
 2599              	.LBB509:
 2600              	.LBB510:
 2601              	.LBB511:
 2602              		.loc 3 264 0
 2603 01ae 2023     		movs	r3, #32
 2604              		.syntax unified
 2605              	@ 264 "../../modules/ChibiOS/os/common/ext/CMSIS/include/cmsis_gcc.h" 1
 2606 01b0 83F31188 		MSR basepri, r3
 2607              	@ 0 "" 2
 2608              	.LVL234:
 2609              		.thumb
 2610              		.syntax unified
 2611              	.LBE511:
 2612              	.LBE510:
 2613              	.LBE509:
 2614              	.LBE508:
 2615              		.loc 4 417 0
 2616 01b4 FFF7FEFF 		bl	_stats_start_measure_crit_isr
 2617              	.LVL235:
 2618              	.LBE507:
 2619              	.LBE506:
 2620              	.LBE505:
 2621              		.loc 1 477 0
 2622 01b8 D9F83438 		ldr	r3, [r9, #2100]
ARM GAS  C:\cygwin64\tmp\ccsD9IwC.s 			page 47


 2623 01bc 1F40     		ands	r7, r7, r3
 2624              		.loc 1 478 0
 2625 01be 2B6E     		ldr	r3, [r5, #96]
 2626              		.loc 1 477 0
 2627 01c0 C9F83478 		str	r7, [r9, #2100]
 2628              		.loc 1 478 0
 2629 01c4 43EA0B03 		orr	r3, r3, fp
 2630              	.LBB512:
 2631              	.LBB503:
 2632              		.loc 2 728 0
 2633 01c8 0021     		movs	r1, #0
 2634 01ca 5046     		mov	r0, r10
 2635              	.LBE503:
 2636              	.LBE512:
 2637              		.loc 1 478 0
 2638 01cc 2B66     		str	r3, [r5, #96]
 2639              	.LVL236:
 2640              	.LBB513:
 2641              	.LBB504:
 2642              		.loc 2 728 0
 2643 01ce FFF7FEFF 		bl	chThdResumeI
 2644              	.LVL237:
 2645              	.LBE504:
 2646              	.LBE513:
 2647              	.LBB514:
 2648              	.LBB515:
 2649              	.LBB516:
 2650              		.loc 4 437 0
 2651 01d2 FFF7FEFF 		bl	_stats_stop_measure_crit_isr
 2652              	.LVL238:
 2653              	.LBB517:
 2654              	.LBB518:
 2655              	.LBB519:
 2656              	.LBB520:
 2657              		.loc 3 264 0
 2658 01d6 0023     		movs	r3, #0
 2659              		.syntax unified
 2660              	@ 264 "../../modules/ChibiOS/os/common/ext/CMSIS/include/cmsis_gcc.h" 1
 2661 01d8 83F31188 		MSR basepri, r3
 2662              	@ 0 "" 2
 2663              	.LVL239:
 2664              		.thumb
 2665              		.syntax unified
 2666              	.L166:
 2667 01dc 08F10108 		add	r8, r8, #1
 2668              	.LVL240:
 2669 01e0 B2E7     		b	.L165
 2670              	.LVL241:
 2671              	.L177:
 2672 01e2 08EB4112 		add	r2, r8, r1, lsl #5
 2673              	.LBE520:
 2674              	.LBE519:
 2675              	.LBE518:
 2676              	.LBE517:
 2677              	.LBE516:
 2678              	.LBE515:
 2679              	.LBE514:
ARM GAS  C:\cygwin64\tmp\ccsD9IwC.s 			page 48


 2680              	.LBE500:
 2681              	.LBE499:
 2682              	.LBB521:
 2683              	.LBB480:
 2684              		.loc 1 497 0
 2685 01e6 D2F8003B 		ldr	r3, [r2, #2816]
 2686 01ea 03F44023 		and	r3, r3, #786432
 2687 01ee B3F5802F 		cmp	r3, #262144
 2688 01f2 10D1     		bne	.L175
 2689              		.loc 1 498 0
 2690 01f4 D2F8003B 		ldr	r3, [r2, #2816]
 2691              		.loc 1 497 0
 2692 01f8 002B     		cmp	r3, #0
 2693 01fa 0CDA     		bge	.L175
 2694              		.loc 1 506 0
 2695 01fc 6A89     		ldrh	r2, [r5, #10]
 2696 01fe 09FA01F3 		lsl	r3, r9, r1
 2697 0202 22EA0303 		bic	r3, r2, r3
 2698 0206 6B81     		strh	r3, [r5, #10]	@ movhi
 2699 0208 05EB8103 		add	r3, r5, r1, lsl #2
 2700 020c DB68     		ldr	r3, [r3, #12]
 2701 020e DB68     		ldr	r3, [r3, #12]
 2702 0210 0BB1     		cbz	r3, .L175
 2703 0212 5046     		mov	r0, r10
 2704 0214 9847     		blx	r3
 2705              	.LVL242:
 2706              	.L175:
 2707 0216 0137     		adds	r7, r7, #1
 2708              	.LVL243:
 2709 0218 46E7     		b	.L173
 2710              	.L237:
 2711 021a 00BF     		.align	2
 2712              	.L236:
 2713 021c 00000000 		.word	.LANCHOR0
 2714 0220 64000000 		.word	.LANCHOR0+100
 2715              	.LBE480:
 2716              	.LBE521:
 2717              	.LBE522:
 2718              	.LBE523:
 2719              		.cfi_endproc
 2720              	.LFE292:
 2721              		.size	Vector14C, .-Vector14C
 2722              		.section	.text.usb_lld_stall_out,"ax",%progbits
 2723              		.align	1
 2724              		.global	usb_lld_stall_out
 2725              		.syntax unified
 2726              		.thumb
 2727              		.thumb_func
 2728              		.fpu fpv4-sp-d16
 2729              		.type	usb_lld_stall_out, %function
 2730              	usb_lld_stall_out:
 2731              	.LFB305:
 2732              		.loc 1 1265 0
 2733              		.cfi_startproc
 2734              		@ args = 0, pretend = 0, frame = 0
 2735              		@ frame_needed = 0, uses_anonymous_args = 0
 2736              		@ link register save eliminated.
ARM GAS  C:\cygwin64\tmp\ccsD9IwC.s 			page 49


 2737              	.LVL244:
 2738 0000 436D     		ldr	r3, [r0, #84]
 2739 0002 03EB4111 		add	r1, r3, r1, lsl #5
 2740              	.LVL245:
 2741              		.loc 1 1267 0
 2742 0006 D1F8003B 		ldr	r3, [r1, #2816]
 2743 000a 43F40013 		orr	r3, r3, #2097152
 2744 000e C1F8003B 		str	r3, [r1, #2816]
 2745 0012 7047     		bx	lr
 2746              		.cfi_endproc
 2747              	.LFE305:
 2748              		.size	usb_lld_stall_out, .-usb_lld_stall_out
 2749              		.section	.text.usb_lld_stall_in,"ax",%progbits
 2750              		.align	1
 2751              		.global	usb_lld_stall_in
 2752              		.syntax unified
 2753              		.thumb
 2754              		.thumb_func
 2755              		.fpu fpv4-sp-d16
 2756              		.type	usb_lld_stall_in, %function
 2757              	usb_lld_stall_in:
 2758              	.LFB306:
 2759              		.loc 1 1278 0
 2760              		.cfi_startproc
 2761              		@ args = 0, pretend = 0, frame = 0
 2762              		@ frame_needed = 0, uses_anonymous_args = 0
 2763              		@ link register save eliminated.
 2764              	.LVL246:
 2765 0000 436D     		ldr	r3, [r0, #84]
 2766 0002 03EB4111 		add	r1, r3, r1, lsl #5
 2767              	.LVL247:
 2768              		.loc 1 1280 0
 2769 0006 D1F80039 		ldr	r3, [r1, #2304]
 2770 000a 43F40013 		orr	r3, r3, #2097152
 2771 000e C1F80039 		str	r3, [r1, #2304]
 2772 0012 7047     		bx	lr
 2773              		.cfi_endproc
 2774              	.LFE306:
 2775              		.size	usb_lld_stall_in, .-usb_lld_stall_in
 2776              		.section	.text.usb_lld_clear_out,"ax",%progbits
 2777              		.align	1
 2778              		.global	usb_lld_clear_out
 2779              		.syntax unified
 2780              		.thumb
 2781              		.thumb_func
 2782              		.fpu fpv4-sp-d16
 2783              		.type	usb_lld_clear_out, %function
 2784              	usb_lld_clear_out:
 2785              	.LFB307:
 2786              		.loc 1 1291 0
 2787              		.cfi_startproc
 2788              		@ args = 0, pretend = 0, frame = 0
 2789              		@ frame_needed = 0, uses_anonymous_args = 0
 2790              		@ link register save eliminated.
 2791              	.LVL248:
 2792 0000 436D     		ldr	r3, [r0, #84]
 2793 0002 03EB4111 		add	r1, r3, r1, lsl #5
ARM GAS  C:\cygwin64\tmp\ccsD9IwC.s 			page 50


 2794              	.LVL249:
 2795              		.loc 1 1293 0
 2796 0006 D1F8003B 		ldr	r3, [r1, #2816]
 2797 000a 23F40013 		bic	r3, r3, #2097152
 2798 000e C1F8003B 		str	r3, [r1, #2816]
 2799 0012 7047     		bx	lr
 2800              		.cfi_endproc
 2801              	.LFE307:
 2802              		.size	usb_lld_clear_out, .-usb_lld_clear_out
 2803              		.section	.text.usb_lld_clear_in,"ax",%progbits
 2804              		.align	1
 2805              		.global	usb_lld_clear_in
 2806              		.syntax unified
 2807              		.thumb
 2808              		.thumb_func
 2809              		.fpu fpv4-sp-d16
 2810              		.type	usb_lld_clear_in, %function
 2811              	usb_lld_clear_in:
 2812              	.LFB308:
 2813              		.loc 1 1304 0
 2814              		.cfi_startproc
 2815              		@ args = 0, pretend = 0, frame = 0
 2816              		@ frame_needed = 0, uses_anonymous_args = 0
 2817              		@ link register save eliminated.
 2818              	.LVL250:
 2819 0000 436D     		ldr	r3, [r0, #84]
 2820 0002 03EB4111 		add	r1, r3, r1, lsl #5
 2821              	.LVL251:
 2822              		.loc 1 1306 0
 2823 0006 D1F80039 		ldr	r3, [r1, #2304]
 2824 000a 23F40013 		bic	r3, r3, #2097152
 2825 000e C1F80039 		str	r3, [r1, #2304]
 2826 0012 7047     		bx	lr
 2827              		.cfi_endproc
 2828              	.LFE308:
 2829              		.size	usb_lld_clear_in, .-usb_lld_clear_in
 2830              		.global	USBD1
 2831              		.section	.bss.USBD1,"aw",%nobits
 2832              		.align	3
 2833              		.set	.LANCHOR0,. + 0
 2834              		.type	USBD1, %object
 2835              		.size	USBD1, 800
 2836              	USBD1:
 2837 0000 00000000 		.space	800
 2837      00000000 
 2837      00000000 
 2837      00000000 
 2837      00000000 
 2838              		.section	.bss.ep0_state,"aw",%nobits
 2839              		.align	2
 2840              		.type	ep0_state, %object
 2841              		.size	ep0_state, 16
 2842              	ep0_state:
 2843 0000 00000000 		.space	16
 2843      00000000 
 2843      00000000 
 2843      00000000 
ARM GAS  C:\cygwin64\tmp\ccsD9IwC.s 			page 51


 2844              		.section	.bss.ep0setup_buffer,"aw",%nobits
 2845              		.type	ep0setup_buffer, %object
 2846              		.size	ep0setup_buffer, 8
 2847              	ep0setup_buffer:
 2848 0000 00000000 		.space	8
 2848      00000000 
 2849              		.section	.rodata.ep0config,"a",%progbits
 2850              		.align	2
 2851              		.set	.LANCHOR2,. + 0
 2852              		.type	ep0config, %object
 2853              		.size	ep0config, 36
 2854              	ep0config:
 2855 0000 00000000 		.word	0
 2856 0004 00000000 		.word	_usb_ep0setup
 2857 0008 00000000 		.word	_usb_ep0in
 2858 000c 00000000 		.word	_usb_ep0out
 2859 0010 4000     		.short	64
 2860 0012 4000     		.short	64
 2861 0014 00000000 		.word	ep0_state
 2862 0018 00000000 		.word	ep0_state
 2863 001c 0100     		.short	1
 2864 001e 0000     		.space	2
 2865 0020 00000000 		.word	ep0setup_buffer
 2866              		.section	.rodata.fsparams,"a",%progbits
 2867              		.align	2
 2868              		.set	.LANCHOR1,. + 0
 2869              		.type	fsparams, %object
 2870              		.size	fsparams, 12
 2871              	fsparams:
 2872 0000 80000000 		.word	128
 2873 0004 40010000 		.word	320
 2874 0008 03000000 		.word	3
 2875              		.section	.rodata.usb_lld_start.str1.1,"aMS",%progbits,1
 2876              	.LC0:
 2877 0000 7573625F 		.ascii	"usb_pump\000"
 2877      70756D70 
 2877      00
 2878              		.text
 2879              	.Letext0:
 2880              		.file 5 "c:\\program files (x86)\\gnu tools arm embedded\\6 2017-q2-update\\lib\\gcc\\arm-none-eab
 2881              		.file 6 "c:\\program files (x86)\\gnu tools arm embedded\\6 2017-q2-update\\arm-none-eabi\\include
 2882              		.file 7 "c:\\program files (x86)\\gnu tools arm embedded\\6 2017-q2-update\\arm-none-eabi\\include
 2883              		.file 8 "c:\\program files (x86)\\gnu tools arm embedded\\6 2017-q2-update\\arm-none-eabi\\include
 2884              		.file 9 "c:\\program files (x86)\\gnu tools arm embedded\\6 2017-q2-update\\arm-none-eabi\\include
 2885              		.file 10 "c:\\program files (x86)\\gnu tools arm embedded\\6 2017-q2-update\\arm-none-eabi\\includ
 2886              		.file 11 "../../modules/ChibiOS/os/common/ports/ARMCMx/compilers/GCC/chtypes.h"
 2887              		.file 12 "../../modules/ChibiOS/os/rt/include/chsystypes.h"
 2888              		.file 13 "../../modules/ChibiOS/os/rt/include/chschd.h"
 2889              		.file 14 "../../modules/ChibiOS/os/common/ext/CMSIS/include/core_cm4.h"
 2890              		.file 15 "../../modules/ChibiOS/os/common/ext/CMSIS/ST/STM32F4xx/system_stm32f4xx.h"
 2891              		.file 16 "../../modules/ChibiOS/os/common/ext/CMSIS/ST/STM32F4xx/stm32f427xx.h"
 2892              		.file 17 "../../modules/ChibiOS/os/common/ports/ARMCMx/chcore.h"
 2893              		.file 18 "../../modules/ChibiOS/os/common/ports/ARMCMx/chcore_v7m.h"
 2894              		.file 19 "../../modules/ChibiOS/os/hal/ports/STM32/LLD/TIMv1/stm32_tim.h"
 2895              		.file 20 "../../modules/ChibiOS/os/rt/include/chtm.h"
 2896              		.file 21 "../../modules/ChibiOS/os/rt/include/chstats.h"
 2897              		.file 22 "../../modules/ChibiOS/os/rt/include/chsem.h"
ARM GAS  C:\cygwin64\tmp\ccsD9IwC.s 			page 52


 2898              		.file 23 "../../modules/ChibiOS/os/rt/include/chmtx.h"
 2899              		.file 24 "../../modules/ChibiOS/os/rt/include/chthreads.h"
 2900              		.file 25 "../../modules/ChibiOS/os/rt/include/chregistry.h"
 2901              		.file 26 "../../modules/ChibiOS/os/rt/include/chevents.h"
 2902              		.file 27 "../../modules/ChibiOS/os/hal/ports/STM32/LLD/DMAv2/stm32_dma.h"
 2903              		.file 28 "../../modules/ChibiOS/os/hal/include/hal_ioblock.h"
 2904              		.file 29 "../../modules/ChibiOS/os/hal/include/hal_queues.h"
 2905              		.file 30 "../../modules/ChibiOS/os/hal/ports/STM32/LLD/GPIOv2/hal_pal_lld.h"
 2906              		.file 31 "../../modules/ChibiOS/os/hal/include/hal_adc.h"
 2907              		.file 32 "../../modules/ChibiOS/os/hal/ports/STM32/LLD/ADCv2/hal_adc_lld.h"
 2908              		.file 33 "../../modules/ChibiOS/os/hal/include/hal_ext.h"
 2909              		.file 34 "../../modules/ChibiOS/os/hal/ports/STM32/LLD/EXTIv1/hal_ext_lld.h"
 2910              		.file 35 "../../modules/ChibiOS/os/hal/include/hal_i2c.h"
 2911              		.file 36 "../../modules/ChibiOS/os/hal/ports/STM32/LLD/I2Cv1/hal_i2c_lld.h"
 2912              		.file 37 "../../modules/ChibiOS/os/hal/include/hal_pwm.h"
 2913              		.file 38 "../../modules/ChibiOS/os/hal/ports/STM32/LLD/TIMv1/hal_pwm_lld.h"
 2914              		.file 39 "../../modules/ChibiOS/os/hal/include/hal_serial.h"
 2915              		.file 40 "../../modules/ChibiOS/os/hal/ports/STM32/LLD/USARTv1/hal_serial_lld.h"
 2916              		.file 41 "../../modules/ChibiOS/os/hal/include/hal_sdc.h"
 2917              		.file 42 "../../modules/ChibiOS/os/hal/ports/STM32/LLD/SDIOv1/hal_sdc_lld.h"
 2918              		.file 43 "../../modules/ChibiOS/os/hal/include/hal_spi.h"
 2919              		.file 44 "../../modules/ChibiOS/os/hal/ports/STM32/LLD/SPIv1/hal_spi_lld.h"
 2920              		.file 45 "../../modules/ChibiOS/os/hal/include/hal_usb.h"
 2921              		.file 46 "../../modules/ChibiOS/os/hal/ports/STM32/LLD/OTGv1/hal_usb_lld.h"
 2922              		.file 47 "../../modules/ChibiOS/os/hal/ports/STM32/LLD/OTGv1/stm32_otg.h"
 2923              		.file 48 "../../modules/ChibiOS/os/hal/ports/common/ARMCMx/nvic.h"