ARM GAS  C:\cygwin64\tmp\cc9iXoVm.s 			page 1


   1              		.cpu cortex-m4
   2              		.eabi_attribute 27, 1
   3              		.eabi_attribute 28, 1
   4              		.eabi_attribute 20, 1
   5              		.eabi_attribute 21, 1
   6              		.eabi_attribute 23, 3
   7              		.eabi_attribute 24, 1
   8              		.eabi_attribute 25, 1
   9              		.eabi_attribute 26, 1
  10              		.eabi_attribute 30, 4
  11              		.eabi_attribute 34, 1
  12              		.eabi_attribute 18, 4
  13              		.file	"hal_usb.c"
  14              		.text
  15              	.Ltext0:
  16              		.cfi_sections	.debug_frame
  17              		.section	.text.chSysLockFromISR,"ax",%progbits
  18              		.align	1
  19              		.syntax unified
  20              		.thumb
  21              		.thumb_func
  22              		.fpu fpv4-sp-d16
  23              		.type	chSysLockFromISR, %function
  24              	chSysLockFromISR:
  25              	.LFB169:
  26              		.file 1 "../../modules/ChibiOS/os/rt/include/chsys.h"
  27              		.loc 1 414 0
  28              		.cfi_startproc
  29              		@ args = 0, pretend = 0, frame = 0
  30              		@ frame_needed = 0, uses_anonymous_args = 0
  31              		@ link register save eliminated.
  32              	.LVL0:
  33              	.LBB80:
  34              	.LBB81:
  35              	.LBB82:
  36              	.LBB83:
  37              		.file 2 "../../modules/ChibiOS/os/common/ext/CMSIS/include/cmsis_gcc.h"
  38              		.loc 2 264 0
  39 0000 2023     		movs	r3, #32
  40              		.syntax unified
  41              	@ 264 "../../modules/ChibiOS/os/common/ext/CMSIS/include/cmsis_gcc.h" 1
  42 0002 83F31188 		MSR basepri, r3
  43              	@ 0 "" 2
  44              	.LVL1:
  45              		.thumb
  46              		.syntax unified
  47              	.LBE83:
  48              	.LBE82:
  49              	.LBE81:
  50              	.LBE80:
  51              		.loc 1 417 0
  52 0006 FFF7FEBF 		b	_stats_start_measure_crit_isr
  53              	.LVL2:
  54              		.cfi_endproc
  55              	.LFE169:
  56              		.size	chSysLockFromISR, .-chSysLockFromISR
  57              		.section	.text.chSysUnlockFromISR,"ax",%progbits
ARM GAS  C:\cygwin64\tmp\cc9iXoVm.s 			page 2


  58              		.align	1
  59              		.syntax unified
  60              		.thumb
  61              		.thumb_func
  62              		.fpu fpv4-sp-d16
  63              		.type	chSysUnlockFromISR, %function
  64              	chSysUnlockFromISR:
  65              	.LFB170:
  66              		.loc 1 434 0
  67              		.cfi_startproc
  68              		@ args = 0, pretend = 0, frame = 0
  69              		@ frame_needed = 0, uses_anonymous_args = 0
  70 0000 08B5     		push	{r3, lr}
  71              		.cfi_def_cfa_offset 8
  72              		.cfi_offset 3, -8
  73              		.cfi_offset 14, -4
  74              		.loc 1 437 0
  75 0002 FFF7FEFF 		bl	_stats_stop_measure_crit_isr
  76              	.LVL3:
  77              	.LBB84:
  78              	.LBB85:
  79              	.LBB86:
  80              	.LBB87:
  81              		.loc 2 264 0
  82 0006 0023     		movs	r3, #0
  83              		.syntax unified
  84              	@ 264 "../../modules/ChibiOS/os/common/ext/CMSIS/include/cmsis_gcc.h" 1
  85 0008 83F31188 		MSR basepri, r3
  86              	@ 0 "" 2
  87              	.LVL4:
  88              		.thumb
  89              		.syntax unified
  90 000c 08BD     		pop	{r3, pc}
  91              	.LBE87:
  92              	.LBE86:
  93              	.LBE85:
  94              	.LBE84:
  95              		.cfi_endproc
  96              	.LFE170:
  97              		.size	chSysUnlockFromISR, .-chSysUnlockFromISR
  98              		.section	.text.usbInit,"ax",%progbits
  99              		.align	1
 100              		.global	usbInit
 101              		.syntax unified
 102              		.thumb
 103              		.thumb_func
 104              		.fpu fpv4-sp-d16
 105              		.type	usbInit, %function
 106              	usbInit:
 107              	.LFB280:
 108              		.file 3 "../../modules/ChibiOS/os/hal/src/hal_usb.c"
 109              		.loc 3 266 0
 110              		.cfi_startproc
 111              		@ args = 0, pretend = 0, frame = 0
 112              		@ frame_needed = 0, uses_anonymous_args = 0
 113              		@ link register save eliminated.
 114              		.loc 3 268 0
ARM GAS  C:\cygwin64\tmp\cc9iXoVm.s 			page 3


 115 0000 FFF7FEBF 		b	usb_lld_init
 116              	.LVL5:
 117              		.cfi_endproc
 118              	.LFE280:
 119              		.size	usbInit, .-usbInit
 120              		.section	.text.usbObjectInit,"ax",%progbits
 121              		.align	1
 122              		.global	usbObjectInit
 123              		.syntax unified
 124              		.thumb
 125              		.thumb_func
 126              		.fpu fpv4-sp-d16
 127              		.type	usbObjectInit, %function
 128              	usbObjectInit:
 129              	.LFB281:
 130              		.loc 3 278 0
 131              		.cfi_startproc
 132              		@ args = 0, pretend = 0, frame = 0
 133              		@ frame_needed = 0, uses_anonymous_args = 0
 134              		@ link register save eliminated.
 135              	.LVL6:
 136              		.loc 3 281 0
 137 0000 0123     		movs	r3, #1
 138 0002 0370     		strb	r3, [r0]
 139              		.loc 3 282 0
 140 0004 0023     		movs	r3, #0
 141 0006 4360     		str	r3, [r0, #4]
 142              	.LVL7:
 143              		.loc 3 284 0
 144 0008 C361     		str	r3, [r0, #28]
 145              		.loc 3 285 0
 146 000a 8362     		str	r3, [r0, #40]
 147              	.LVL8:
 148              		.loc 3 284 0
 149 000c 0362     		str	r3, [r0, #32]
 150              		.loc 3 285 0
 151 000e C362     		str	r3, [r0, #44]
 152              	.LVL9:
 153              		.loc 3 284 0
 154 0010 4362     		str	r3, [r0, #36]
 155              		.loc 3 285 0
 156 0012 0363     		str	r3, [r0, #48]
 157              	.LVL10:
 158              		.loc 3 287 0
 159 0014 0381     		strh	r3, [r0, #8]	@ movhi
 160              		.loc 3 288 0
 161 0016 4381     		strh	r3, [r0, #10]	@ movhi
 162 0018 7047     		bx	lr
 163              		.cfi_endproc
 164              	.LFE281:
 165              		.size	usbObjectInit, .-usbObjectInit
 166              		.section	.text.usbStart,"ax",%progbits
 167              		.align	1
 168              		.global	usbStart
 169              		.syntax unified
 170              		.thumb
 171              		.thumb_func
ARM GAS  C:\cygwin64\tmp\cc9iXoVm.s 			page 4


 172              		.fpu fpv4-sp-d16
 173              		.type	usbStart, %function
 174              	usbStart:
 175              	.LFB282:
 176              		.loc 3 299 0
 177              		.cfi_startproc
 178              		@ args = 0, pretend = 0, frame = 0
 179              		@ frame_needed = 0, uses_anonymous_args = 0
 180              	.LVL11:
 181 0000 38B5     		push	{r3, r4, r5, lr}
 182              		.cfi_def_cfa_offset 16
 183              		.cfi_offset 3, -16
 184              		.cfi_offset 4, -12
 185              		.cfi_offset 5, -8
 186              		.cfi_offset 14, -4
 187              		.loc 3 299 0
 188 0002 0446     		mov	r4, r0
 189 0004 0D46     		mov	r5, r1
 190              	.LBB102:
 191              	.LBB103:
 192              	.LBB104:
 193              	.LBB105:
 194              	.LBB106:
 195              	.LBB107:
 196              		.loc 2 264 0
 197 0006 2023     		movs	r3, #32
 198              		.syntax unified
 199              	@ 264 "../../modules/ChibiOS/os/common/ext/CMSIS/include/cmsis_gcc.h" 1
 200 0008 83F31188 		MSR basepri, r3
 201              	@ 0 "" 2
 202              	.LVL12:
 203              		.thumb
 204              		.syntax unified
 205              	.LBE107:
 206              	.LBE106:
 207              	.LBE105:
 208              		.loc 1 377 0
 209 000c FFF7FEFF 		bl	_stats_start_measure_crit_thd
 210              	.LVL13:
 211              	.LBE104:
 212              	.LBE103:
 213              	.LBE102:
 214              		.loc 3 307 0
 215 0010 6560     		str	r5, [r4, #4]
 216              	.LVL14:
 217              		.loc 3 309 0
 218 0012 0025     		movs	r5, #0
 219              	.LVL15:
 220              		.loc 3 311 0
 221 0014 2046     		mov	r0, r4
 222              		.loc 3 309 0
 223 0016 E560     		str	r5, [r4, #12]
 224              	.LVL16:
 225 0018 2561     		str	r5, [r4, #16]
 226              	.LVL17:
 227 001a 6561     		str	r5, [r4, #20]
 228              	.LVL18:
ARM GAS  C:\cygwin64\tmp\cc9iXoVm.s 			page 5


 229 001c A561     		str	r5, [r4, #24]
 230              	.LVL19:
 231              		.loc 3 311 0
 232 001e FFF7FEFF 		bl	usb_lld_start
 233              	.LVL20:
 234              		.loc 3 312 0
 235 0022 0223     		movs	r3, #2
 236 0024 2370     		strb	r3, [r4]
 237              	.LBB108:
 238              	.LBB109:
 239              	.LBB110:
 240              		.loc 1 389 0
 241 0026 FFF7FEFF 		bl	_stats_stop_measure_crit_thd
 242              	.LVL21:
 243              	.LBB111:
 244              	.LBB112:
 245              	.LBB113:
 246              		.loc 2 264 0
 247              		.syntax unified
 248              	@ 264 "../../modules/ChibiOS/os/common/ext/CMSIS/include/cmsis_gcc.h" 1
 249 002a 85F31188 		MSR basepri, r5
 250              	@ 0 "" 2
 251              	.LVL22:
 252              		.thumb
 253              		.syntax unified
 254 002e 38BD     		pop	{r3, r4, r5, pc}
 255              	.LBE113:
 256              	.LBE112:
 257              	.LBE111:
 258              	.LBE110:
 259              	.LBE109:
 260              	.LBE108:
 261              		.cfi_endproc
 262              	.LFE282:
 263              		.size	usbStart, .-usbStart
 264              		.section	.text.usbStop,"ax",%progbits
 265              		.align	1
 266              		.global	usbStop
 267              		.syntax unified
 268              		.thumb
 269              		.thumb_func
 270              		.fpu fpv4-sp-d16
 271              		.type	usbStop, %function
 272              	usbStop:
 273              	.LFB283:
 274              		.loc 3 323 0
 275              		.cfi_startproc
 276              		@ args = 0, pretend = 0, frame = 0
 277              		@ frame_needed = 0, uses_anonymous_args = 0
 278              	.LVL23:
 279 0000 38B5     		push	{r3, r4, r5, lr}
 280              		.cfi_def_cfa_offset 16
 281              		.cfi_offset 3, -16
 282              		.cfi_offset 4, -12
 283              		.cfi_offset 5, -8
 284              		.cfi_offset 14, -4
 285              		.loc 3 323 0
ARM GAS  C:\cygwin64\tmp\cc9iXoVm.s 			page 6


 286 0002 0446     		mov	r4, r0
 287              	.LBB130:
 288              	.LBB131:
 289              	.LBB132:
 290              	.LBB133:
 291              	.LBB134:
 292              	.LBB135:
 293              		.loc 2 264 0
 294 0004 2023     		movs	r3, #32
 295              		.syntax unified
 296              	@ 264 "../../modules/ChibiOS/os/common/ext/CMSIS/include/cmsis_gcc.h" 1
 297 0006 83F31188 		MSR basepri, r3
 298              	@ 0 "" 2
 299              	.LVL24:
 300              		.thumb
 301              		.syntax unified
 302              	.LBE135:
 303              	.LBE134:
 304              	.LBE133:
 305              		.loc 1 377 0
 306 000a FFF7FEFF 		bl	_stats_start_measure_crit_thd
 307              	.LVL25:
 308              	.LBE132:
 309              	.LBE131:
 310              	.LBE130:
 311              		.loc 3 335 0
 312 000e 2046     		mov	r0, r4
 313 0010 FFF7FEFF 		bl	usb_lld_stop
 314              	.LVL26:
 315              		.loc 3 336 0
 316 0014 0025     		movs	r5, #0
 317              		.loc 3 337 0
 318 0016 0123     		movs	r3, #1
 319 0018 2370     		strb	r3, [r4]
 320              	.LVL27:
 321              		.loc 3 336 0
 322 001a 6560     		str	r5, [r4, #4]
 323              		.loc 3 351 0
 324 001c E560     		str	r5, [r4, #12]
 325              	.LVL28:
 326 001e 2561     		str	r5, [r4, #16]
 327              	.LVL29:
 328 0020 6561     		str	r5, [r4, #20]
 329              	.LVL30:
 330 0022 A561     		str	r5, [r4, #24]
 331              	.LVL31:
 332              	.LBB136:
 333              	.LBB137:
 334              		.file 4 "../../modules/ChibiOS/os/hal/osal/rt/osal.h"
 335              		.loc 4 600 0
 336 0024 FFF7FEFF 		bl	chSchRescheduleS
 337              	.LVL32:
 338              	.LBE137:
 339              	.LBE136:
 340              	.LBB138:
 341              	.LBB139:
 342              	.LBB140:
ARM GAS  C:\cygwin64\tmp\cc9iXoVm.s 			page 7


 343              		.loc 1 389 0
 344 0028 FFF7FEFF 		bl	_stats_stop_measure_crit_thd
 345              	.LVL33:
 346              	.LBB141:
 347              	.LBB142:
 348              	.LBB143:
 349              		.loc 2 264 0
 350              		.syntax unified
 351              	@ 264 "../../modules/ChibiOS/os/common/ext/CMSIS/include/cmsis_gcc.h" 1
 352 002c 85F31188 		MSR basepri, r5
 353              	@ 0 "" 2
 354              	.LVL34:
 355              		.thumb
 356              		.syntax unified
 357 0030 38BD     		pop	{r3, r4, r5, pc}
 358              	.LBE143:
 359              	.LBE142:
 360              	.LBE141:
 361              	.LBE140:
 362              	.LBE139:
 363              	.LBE138:
 364              		.cfi_endproc
 365              	.LFE283:
 366              		.size	usbStop, .-usbStop
 367              		.section	.text.usbInitEndpointI,"ax",%progbits
 368              		.align	1
 369              		.global	usbInitEndpointI
 370              		.syntax unified
 371              		.thumb
 372              		.thumb_func
 373              		.fpu fpv4-sp-d16
 374              		.type	usbInitEndpointI, %function
 375              	usbInitEndpointI:
 376              	.LFB284:
 377              		.loc 3 372 0
 378              		.cfi_startproc
 379              		@ args = 0, pretend = 0, frame = 0
 380              		@ frame_needed = 0, uses_anonymous_args = 0
 381              	.LVL35:
 382 0000 70B5     		push	{r4, r5, r6, lr}
 383              		.cfi_def_cfa_offset 16
 384              		.cfi_offset 4, -16
 385              		.cfi_offset 5, -12
 386              		.cfi_offset 6, -8
 387              		.cfi_offset 14, -4
 388              		.loc 3 381 0
 389 0002 00EB8103 		add	r3, r0, r1, lsl #2
 390              		.loc 3 372 0
 391 0006 0546     		mov	r5, r0
 392              		.loc 3 384 0
 393 0008 5069     		ldr	r0, [r2, #20]
 394              	.LVL36:
 395              		.loc 3 381 0
 396 000a DA60     		str	r2, [r3, #12]
 397              		.loc 3 372 0
 398 000c 0E46     		mov	r6, r1
 399 000e 1446     		mov	r4, r2
ARM GAS  C:\cygwin64\tmp\cc9iXoVm.s 			page 8


 400              		.loc 3 384 0
 401 0010 18B1     		cbz	r0, .L8
 402              		.loc 3 385 0
 403 0012 1022     		movs	r2, #16
 404              	.LVL37:
 405 0014 0021     		movs	r1, #0
 406              	.LVL38:
 407 0016 FFF7FEFF 		bl	memset
 408              	.LVL39:
 409              	.L8:
 410              		.loc 3 387 0
 411 001a A069     		ldr	r0, [r4, #24]
 412 001c 18B1     		cbz	r0, .L9
 413              		.loc 3 388 0
 414 001e 1022     		movs	r2, #16
 415 0020 0021     		movs	r1, #0
 416 0022 FFF7FEFF 		bl	memset
 417              	.LVL40:
 418              	.L9:
 419              		.loc 3 392 0
 420 0026 3146     		mov	r1, r6
 421 0028 2846     		mov	r0, r5
 422              		.loc 3 393 0
 423 002a BDE87040 		pop	{r4, r5, r6, lr}
 424              		.cfi_restore 14
 425              		.cfi_restore 6
 426              		.cfi_restore 5
 427              		.cfi_restore 4
 428              		.cfi_def_cfa_offset 0
 429              	.LVL41:
 430              		.loc 3 392 0
 431 002e FFF7FEBF 		b	usb_lld_init_endpoint
 432              	.LVL42:
 433              		.cfi_endproc
 434              	.LFE284:
 435              		.size	usbInitEndpointI, .-usbInitEndpointI
 436              		.section	.text.usbDisableEndpointsI,"ax",%progbits
 437              		.align	1
 438              		.global	usbDisableEndpointsI
 439              		.syntax unified
 440              		.thumb
 441              		.thumb_func
 442              		.fpu fpv4-sp-d16
 443              		.type	usbDisableEndpointsI, %function
 444              	usbDisableEndpointsI:
 445              	.LFB285:
 446              		.loc 3 406 0
 447              		.cfi_startproc
 448              		@ args = 0, pretend = 0, frame = 0
 449              		@ frame_needed = 0, uses_anonymous_args = 0
 450              		@ link register save eliminated.
 451              	.LVL43:
 452              		.loc 3 413 0
 453 0000 0289     		ldrh	r2, [r0, #8]
 454 0002 02F00102 		and	r2, r2, #1
 455 0006 0281     		strh	r2, [r0, #8]	@ movhi
 456              		.loc 3 414 0
ARM GAS  C:\cygwin64\tmp\cc9iXoVm.s 			page 9


 457 0008 4289     		ldrh	r2, [r0, #10]
 458 000a 02F00102 		and	r2, r2, #1
 459 000e 4281     		strh	r2, [r0, #10]	@ movhi
 460              	.LVL44:
 461              		.loc 3 428 0
 462 0010 0022     		movs	r2, #0
 463 0012 0261     		str	r2, [r0, #16]
 464              	.LVL45:
 465 0014 4261     		str	r2, [r0, #20]
 466              	.LVL46:
 467 0016 8261     		str	r2, [r0, #24]
 468              	.LVL47:
 469              		.loc 3 432 0
 470 0018 FFF7FEBF 		b	usb_lld_disable_endpoints
 471              	.LVL48:
 472              		.cfi_endproc
 473              	.LFE285:
 474              		.size	usbDisableEndpointsI, .-usbDisableEndpointsI
 475              		.section	.text.usbStartReceiveI,"ax",%progbits
 476              		.align	1
 477              		.global	usbStartReceiveI
 478              		.syntax unified
 479              		.thumb
 480              		.thumb_func
 481              		.fpu fpv4-sp-d16
 482              		.type	usbStartReceiveI, %function
 483              	usbStartReceiveI:
 484              	.LFB286:
 485              		.loc 3 450 0
 486              		.cfi_startproc
 487              		@ args = 0, pretend = 0, frame = 0
 488              		@ frame_needed = 0, uses_anonymous_args = 0
 489              		@ link register save eliminated.
 490              	.LVL49:
 491 0000 F0B4     		push	{r4, r5, r6, r7}
 492              		.cfi_def_cfa_offset 16
 493              		.cfi_offset 4, -16
 494              		.cfi_offset 5, -12
 495              		.cfi_offset 6, -8
 496              		.cfi_offset 7, -4
 497              		.loc 3 462 0
 498 0002 00EB8104 		add	r4, r0, r1, lsl #2
 499              		.loc 3 458 0
 500 0006 4789     		ldrh	r7, [r0, #10]
 501              		.loc 3 462 0
 502 0008 E468     		ldr	r4, [r4, #12]
 503              		.loc 3 458 0
 504 000a 0125     		movs	r5, #1
 505              		.loc 3 462 0
 506 000c A469     		ldr	r4, [r4, #24]
 507              	.LVL50:
 508              		.loc 3 458 0
 509 000e 8D40     		lsls	r5, r5, r1
 510 0010 3D43     		orrs	r5, r5, r7
 511 0012 4581     		strh	r5, [r0, #10]	@ movhi
 512              		.loc 3 465 0
 513 0014 2360     		str	r3, [r4]
ARM GAS  C:\cygwin64\tmp\cc9iXoVm.s 			page 10


 514              		.loc 3 466 0
 515 0016 0023     		movs	r3, #0
 516              	.LVL51:
 517              		.loc 3 464 0
 518 0018 A260     		str	r2, [r4, #8]
 519              		.loc 3 466 0
 520 001a 6360     		str	r3, [r4, #4]
 521              		.loc 3 473 0
 522 001c F0BC     		pop	{r4, r5, r6, r7}
 523              		.cfi_restore 7
 524              		.cfi_restore 6
 525              		.cfi_restore 5
 526              		.cfi_restore 4
 527              		.cfi_def_cfa_offset 0
 528              	.LVL52:
 529              		.loc 3 472 0
 530 001e FFF7FEBF 		b	usb_lld_start_out
 531              	.LVL53:
 532              		.cfi_endproc
 533              	.LFE286:
 534              		.size	usbStartReceiveI, .-usbStartReceiveI
 535              		.section	.text.usbStartTransmitI,"ax",%progbits
 536              		.align	1
 537              		.global	usbStartTransmitI
 538              		.syntax unified
 539              		.thumb
 540              		.thumb_func
 541              		.fpu fpv4-sp-d16
 542              		.type	usbStartTransmitI, %function
 543              	usbStartTransmitI:
 544              	.LFB287:
 545              		.loc 3 489 0
 546              		.cfi_startproc
 547              		@ args = 0, pretend = 0, frame = 0
 548              		@ frame_needed = 0, uses_anonymous_args = 0
 549              		@ link register save eliminated.
 550              	.LVL54:
 551 0000 F0B4     		push	{r4, r5, r6, r7}
 552              		.cfi_def_cfa_offset 16
 553              		.cfi_offset 4, -16
 554              		.cfi_offset 5, -12
 555              		.cfi_offset 6, -8
 556              		.cfi_offset 7, -4
 557              		.loc 3 501 0
 558 0002 00EB8104 		add	r4, r0, r1, lsl #2
 559              		.loc 3 497 0
 560 0006 0789     		ldrh	r7, [r0, #8]
 561              		.loc 3 501 0
 562 0008 E468     		ldr	r4, [r4, #12]
 563              		.loc 3 497 0
 564 000a 0125     		movs	r5, #1
 565              		.loc 3 501 0
 566 000c 6469     		ldr	r4, [r4, #20]
 567              	.LVL55:
 568              		.loc 3 497 0
 569 000e 8D40     		lsls	r5, r5, r1
 570 0010 3D43     		orrs	r5, r5, r7
ARM GAS  C:\cygwin64\tmp\cc9iXoVm.s 			page 11


 571 0012 0581     		strh	r5, [r0, #8]	@ movhi
 572              		.loc 3 504 0
 573 0014 2360     		str	r3, [r4]
 574              		.loc 3 505 0
 575 0016 0023     		movs	r3, #0
 576              	.LVL56:
 577              		.loc 3 503 0
 578 0018 A260     		str	r2, [r4, #8]
 579              		.loc 3 505 0
 580 001a 6360     		str	r3, [r4, #4]
 581              		.loc 3 512 0
 582 001c F0BC     		pop	{r4, r5, r6, r7}
 583              		.cfi_restore 7
 584              		.cfi_restore 6
 585              		.cfi_restore 5
 586              		.cfi_restore 4
 587              		.cfi_def_cfa_offset 0
 588              	.LVL57:
 589              		.loc 3 511 0
 590 001e FFF7FEBF 		b	usb_lld_start_in
 591              	.LVL58:
 592              		.cfi_endproc
 593              	.LFE287:
 594              		.size	usbStartTransmitI, .-usbStartTransmitI
 595              		.section	.text.usbStallReceiveI,"ax",%progbits
 596              		.align	1
 597              		.global	usbStallReceiveI
 598              		.syntax unified
 599              		.thumb
 600              		.thumb_func
 601              		.fpu fpv4-sp-d16
 602              		.type	usbStallReceiveI, %function
 603              	usbStallReceiveI:
 604              	.LFB288:
 605              		.loc 3 595 0
 606              		.cfi_startproc
 607              		@ args = 0, pretend = 0, frame = 0
 608              		@ frame_needed = 0, uses_anonymous_args = 0
 609              	.LVL59:
 610 0000 10B5     		push	{r4, lr}
 611              		.cfi_def_cfa_offset 8
 612              		.cfi_offset 4, -8
 613              		.cfi_offset 14, -4
 614              		.loc 3 600 0
 615 0002 0123     		movs	r3, #1
 616 0004 4489     		ldrh	r4, [r0, #10]
 617 0006 03FA01F2 		lsl	r2, r3, r1
 618 000a 1440     		ands	r4, r2, r4
 619 000c 03D1     		bne	.L21
 620              		.loc 3 604 0
 621 000e FFF7FEFF 		bl	usb_lld_stall_out
 622              	.LVL60:
 623              		.loc 3 605 0
 624 0012 2046     		mov	r0, r4
 625 0014 10BD     		pop	{r4, pc}
 626              	.LVL61:
 627              	.L21:
ARM GAS  C:\cygwin64\tmp\cc9iXoVm.s 			page 12


 628              		.loc 3 601 0
 629 0016 1846     		mov	r0, r3
 630              	.LVL62:
 631              		.loc 3 606 0
 632 0018 10BD     		pop	{r4, pc}
 633              		.cfi_endproc
 634              	.LFE288:
 635              		.size	usbStallReceiveI, .-usbStallReceiveI
 636              		.section	.text.usbStallTransmitI,"ax",%progbits
 637              		.align	1
 638              		.global	usbStallTransmitI
 639              		.syntax unified
 640              		.thumb
 641              		.thumb_func
 642              		.fpu fpv4-sp-d16
 643              		.type	usbStallTransmitI, %function
 644              	usbStallTransmitI:
 645              	.LFB289:
 646              		.loc 3 620 0
 647              		.cfi_startproc
 648              		@ args = 0, pretend = 0, frame = 0
 649              		@ frame_needed = 0, uses_anonymous_args = 0
 650              	.LVL63:
 651 0000 10B5     		push	{r4, lr}
 652              		.cfi_def_cfa_offset 8
 653              		.cfi_offset 4, -8
 654              		.cfi_offset 14, -4
 655              		.loc 3 625 0
 656 0002 0123     		movs	r3, #1
 657 0004 0489     		ldrh	r4, [r0, #8]
 658 0006 03FA01F2 		lsl	r2, r3, r1
 659 000a 1440     		ands	r4, r2, r4
 660 000c 03D1     		bne	.L24
 661              		.loc 3 629 0
 662 000e FFF7FEFF 		bl	usb_lld_stall_in
 663              	.LVL64:
 664              		.loc 3 630 0
 665 0012 2046     		mov	r0, r4
 666 0014 10BD     		pop	{r4, pc}
 667              	.LVL65:
 668              	.L24:
 669              		.loc 3 626 0
 670 0016 1846     		mov	r0, r3
 671              	.LVL66:
 672              		.loc 3 631 0
 673 0018 10BD     		pop	{r4, pc}
 674              		.cfi_endproc
 675              	.LFE289:
 676              		.size	usbStallTransmitI, .-usbStallTransmitI
 677              		.section	.text._usb_reset,"ax",%progbits
 678              		.align	1
 679              		.global	_usb_reset
 680              		.syntax unified
 681              		.thumb
 682              		.thumb_func
 683              		.fpu fpv4-sp-d16
 684              		.type	_usb_reset, %function
ARM GAS  C:\cygwin64\tmp\cc9iXoVm.s 			page 13


 685              	_usb_reset:
 686              	.LFB290:
 687              		.loc 3 642 0
 688              		.cfi_startproc
 689              		@ args = 0, pretend = 0, frame = 0
 690              		@ frame_needed = 0, uses_anonymous_args = 0
 691              	.LVL67:
 692 0000 70B5     		push	{r4, r5, r6, lr}
 693              		.cfi_def_cfa_offset 16
 694              		.cfi_offset 4, -16
 695              		.cfi_offset 5, -12
 696              		.cfi_offset 6, -8
 697              		.cfi_offset 14, -4
 698              		.loc 3 646 0
 699 0002 0223     		movs	r3, #2
 700              		.loc 3 649 0
 701 0004 0025     		movs	r5, #0
 702              		.loc 3 642 0
 703 0006 0446     		mov	r4, r0
 704              		.loc 3 646 0
 705 0008 0370     		strb	r3, [r0]
 706              		.loc 3 649 0
 707 000a A0F84C50 		strh	r5, [r0, #76]	@ movhi
 708              		.loc 3 650 0
 709 000e 80F84E50 		strb	r5, [r0, #78]
 710              		.loc 3 651 0
 711 0012 80F84F50 		strb	r5, [r0, #79]
 712              		.loc 3 652 0
 713 0016 0581     		strh	r5, [r0, #8]	@ movhi
 714              		.loc 3 653 0
 715 0018 4581     		strh	r5, [r0, #10]	@ movhi
 716              	.LVL68:
 717              		.loc 3 670 0
 718 001a C560     		str	r5, [r0, #12]
 719              	.LVL69:
 720 001c 0561     		str	r5, [r0, #16]
 721              	.LVL70:
 722 001e 4561     		str	r5, [r0, #20]
 723              	.LVL71:
 724 0020 8561     		str	r5, [r0, #24]
 725              	.LVL72:
 726              		.loc 3 674 0
 727 0022 80F83450 		strb	r5, [r0, #52]
 728              		.loc 3 677 0
 729 0026 FFF7FEFF 		bl	usb_lld_reset
 730              	.LVL73:
 731              		.loc 3 680 0
 732 002a 6368     		ldr	r3, [r4, #4]
 733 002c 1B68     		ldr	r3, [r3]
 734 002e 23B1     		cbz	r3, .L25
 735              		.loc 3 680 0 is_stmt 0 discriminator 1
 736 0030 2946     		mov	r1, r5
 737 0032 2046     		mov	r0, r4
 738              		.loc 3 681 0 is_stmt 1 discriminator 1
 739 0034 BDE87040 		pop	{r4, r5, r6, lr}
 740              		.cfi_remember_state
 741              		.cfi_restore 14
ARM GAS  C:\cygwin64\tmp\cc9iXoVm.s 			page 14


 742              		.cfi_restore 6
 743              		.cfi_restore 5
 744              		.cfi_restore 4
 745              		.cfi_def_cfa_offset 0
 746              	.LVL74:
 747              		.loc 3 680 0 discriminator 1
 748 0038 1847     		bx	r3	@ indirect register sibling call
 749              	.LVL75:
 750              	.L25:
 751              		.cfi_restore_state
 752 003a 70BD     		pop	{r4, r5, r6, pc}
 753              		.cfi_endproc
 754              	.LFE290:
 755              		.size	_usb_reset, .-_usb_reset
 756              		.section	.text._usb_suspend,"ax",%progbits
 757              		.align	1
 758              		.global	_usb_suspend
 759              		.syntax unified
 760              		.thumb
 761              		.thumb_func
 762              		.fpu fpv4-sp-d16
 763              		.type	_usb_suspend, %function
 764              	_usb_suspend:
 765              	.LFB291:
 766              		.loc 3 692 0
 767              		.cfi_startproc
 768              		@ args = 0, pretend = 0, frame = 0
 769              		@ frame_needed = 0, uses_anonymous_args = 0
 770              		@ link register save eliminated.
 771              	.LVL76:
 772              		.loc 3 700 0
 773 0000 4368     		ldr	r3, [r0, #4]
 774              		.loc 3 696 0
 775 0002 0278     		ldrb	r2, [r0]	@ zero_extendqisi2
 776              		.loc 3 700 0
 777 0004 1B68     		ldr	r3, [r3]
 778              		.loc 3 696 0
 779 0006 80F85020 		strb	r2, [r0, #80]
 780              		.loc 3 697 0
 781 000a 0522     		movs	r2, #5
 782 000c 0270     		strb	r2, [r0]
 783              		.loc 3 700 0
 784 000e 0BB1     		cbz	r3, .L27
 785              		.loc 3 700 0 is_stmt 0 discriminator 1
 786 0010 0421     		movs	r1, #4
 787 0012 1847     		bx	r3	@ indirect register sibling call
 788              	.LVL77:
 789              	.L27:
 790 0014 7047     		bx	lr
 791              		.cfi_endproc
 792              	.LFE291:
 793              		.size	_usb_suspend, .-_usb_suspend
 794              		.section	.text._usb_wakeup,"ax",%progbits
 795              		.align	1
 796              		.global	_usb_wakeup
 797              		.syntax unified
 798              		.thumb
ARM GAS  C:\cygwin64\tmp\cc9iXoVm.s 			page 15


 799              		.thumb_func
 800              		.fpu fpv4-sp-d16
 801              		.type	_usb_wakeup, %function
 802              	_usb_wakeup:
 803              	.LFB292:
 804              		.loc 3 732 0 is_stmt 1
 805              		.cfi_startproc
 806              		@ args = 0, pretend = 0, frame = 0
 807              		@ frame_needed = 0, uses_anonymous_args = 0
 808              		@ link register save eliminated.
 809              	.LVL78:
 810              		.loc 3 738 0
 811 0000 4368     		ldr	r3, [r0, #4]
 812              		.loc 3 735 0
 813 0002 90F85020 		ldrb	r2, [r0, #80]	@ zero_extendqisi2
 814              		.loc 3 738 0
 815 0006 1B68     		ldr	r3, [r3]
 816              		.loc 3 735 0
 817 0008 0270     		strb	r2, [r0]
 818              		.loc 3 738 0
 819 000a 0BB1     		cbz	r3, .L29
 820              		.loc 3 738 0 is_stmt 0 discriminator 1
 821 000c 0521     		movs	r1, #5
 822 000e 1847     		bx	r3	@ indirect register sibling call
 823              	.LVL79:
 824              	.L29:
 825 0010 7047     		bx	lr
 826              		.cfi_endproc
 827              	.LFE292:
 828              		.size	_usb_wakeup, .-_usb_wakeup
 829              		.section	.text._usb_ep0setup,"ax",%progbits
 830              		.align	1
 831              		.global	_usb_ep0setup
 832              		.syntax unified
 833              		.thumb
 834              		.thumb_func
 835              		.fpu fpv4-sp-d16
 836              		.type	_usb_ep0setup, %function
 837              	_usb_ep0setup:
 838              	.LFB293:
 839              		.loc 3 751 0 is_stmt 1
 840              		.cfi_startproc
 841              		@ args = 0, pretend = 0, frame = 0
 842              		@ frame_needed = 0, uses_anonymous_args = 0
 843              	.LVL80:
 844 0000 70B5     		push	{r4, r5, r6, lr}
 845              		.cfi_def_cfa_offset 16
 846              		.cfi_offset 4, -16
 847              		.cfi_offset 5, -12
 848              		.cfi_offset 6, -8
 849              		.cfi_offset 14, -4
 850              		.loc 3 754 0
 851 0002 0023     		movs	r3, #0
 852              		.loc 3 751 0
 853 0004 0446     		mov	r4, r0
 854              		.loc 3 754 0
 855 0006 80F83430 		strb	r3, [r0, #52]
ARM GAS  C:\cygwin64\tmp\cc9iXoVm.s 			page 16


 856              		.loc 3 755 0
 857 000a 00F14402 		add	r2, r0, #68
 858 000e FFF7FEFF 		bl	usb_lld_read_setup
 859              	.LVL81:
 860              		.loc 3 760 0
 861 0012 6368     		ldr	r3, [r4, #4]
 862 0014 9B68     		ldr	r3, [r3, #8]
 863 0016 5BBB     		cbnz	r3, .L32
 864              	.L36:
 865              		.loc 3 766 0
 866 0018 94F84450 		ldrb	r5, [r4, #68]	@ zero_extendqisi2
 867 001c 15F06006 		ands	r6, r5, #96
 868 0020 14D1     		bne	.L37
 869              	.LVL82:
 870              	.LBB172:
 871              	.LBB173:
 872              		.loc 3 90 0
 873 0022 94F84530 		ldrb	r3, [r4, #69]	@ zero_extendqisi2
 874              		.loc 3 88 0
 875 0026 05F07F05 		and	r5, r5, #127
 876              		.loc 3 89 0
 877 002a 45EA0325 		orr	r5, r5, r3, lsl #8
 878              		.loc 3 88 0
 879 002e B5F5407F 		cmp	r5, #768
 880 0032 00F0A380 		beq	.L38
 881 0036 57D8     		bhi	.L39
 882 0038 022D     		cmp	r5, #2
 883 003a 00F0EE80 		beq	.L40
 884 003e 3DD8     		bhi	.L41
 885 0040 002D     		cmp	r5, #0
 886 0042 00F08580 		beq	.L42
 887 0046 012D     		cmp	r5, #1
 888 0048 00F0E180 		beq	.L43
 889              	.LVL83:
 890              	.L37:
 891              	.LBE173:
 892              	.LBE172:
 893              		.loc 3 772 0
 894 004c 0021     		movs	r1, #0
 895 004e 2046     		mov	r0, r4
 896 0050 FFF7FEFF 		bl	usb_lld_stall_in
 897              	.LVL84:
 898              		.loc 3 773 0
 899 0054 0021     		movs	r1, #0
 900 0056 2046     		mov	r0, r4
 901 0058 FFF7FEFF 		bl	usb_lld_stall_out
 902              	.LVL85:
 903              		.loc 3 774 0
 904 005c 6368     		ldr	r3, [r4, #4]
 905 005e 1B68     		ldr	r3, [r3]
 906 0060 13B1     		cbz	r3, .L66
 907              		.loc 3 774 0 is_stmt 0 discriminator 1
 908 0062 0621     		movs	r1, #6
 909 0064 2046     		mov	r0, r4
 910 0066 9847     		blx	r3
 911              	.LVL86:
 912              	.L66:
ARM GAS  C:\cygwin64\tmp\cc9iXoVm.s 			page 17


 913              		.loc 3 775 0 is_stmt 1
 914 0068 0623     		movs	r3, #6
 915 006a 84F83430 		strb	r3, [r4, #52]
 916              		.loc 3 776 0
 917 006e 70BD     		pop	{r4, r5, r6, pc}
 918              	.LVL87:
 919              	.L32:
 920              		.loc 3 761 0 discriminator 1
 921 0070 2046     		mov	r0, r4
 922 0072 9847     		blx	r3
 923              	.LVL88:
 924              		.loc 3 760 0 discriminator 1
 925 0074 0028     		cmp	r0, #0
 926 0076 CFD0     		beq	.L36
 927              	.L35:
 928              	.LBB185:
 929              	.LBB186:
 930              		.loc 3 55 0
 931 0078 94F84B20 		ldrb	r2, [r4, #75]	@ zero_extendqisi2
 932 007c 94F84A30 		ldrb	r3, [r4, #74]	@ zero_extendqisi2
 933              	.LBE186:
 934              	.LBE185:
 935              		.loc 3 788 0
 936 0080 43EA0223 		orr	r3, r3, r2, lsl #8
 937              	.LVL89:
 938              		.loc 3 790 0
 939 0084 E26B     		ldr	r2, [r4, #60]
 940 0086 9342     		cmp	r3, r2
 941              		.loc 3 791 0
 942 0088 38BF     		it	cc
 943 008a E363     		strcc	r3, [r4, #60]
 944              		.loc 3 793 0
 945 008c 94F94430 		ldrsb	r3, [r4, #68]
 946              	.LVL90:
 947 0090 E56B     		ldr	r5, [r4, #60]
 948 0092 002B     		cmp	r3, #0
 949 0094 80F2FE80 		bge	.L69
 950              		.loc 3 795 0
 951 0098 002D     		cmp	r5, #0
 952 009a 00F0EF80 		beq	.L70
 953              		.loc 3 797 0
 954 009e 0123     		movs	r3, #1
 955 00a0 84F83430 		strb	r3, [r4, #52]
 956              	.LBB187:
 957              	.LBB188:
 958              		.loc 4 515 0
 959 00a4 FFF7FEFF 		bl	chSysLockFromISR
 960              	.LVL91:
 961              	.LBE188:
 962              	.LBE187:
 963              		.loc 3 799 0
 964 00a8 E36B     		ldr	r3, [r4, #60]
 965 00aa A26B     		ldr	r2, [r4, #56]
 966              	.L104:
 967 00ac 0021     		movs	r1, #0
 968 00ae 2046     		mov	r0, r4
 969 00b0 FFF7FEFF 		bl	usbStartTransmitI
ARM GAS  C:\cygwin64\tmp\cc9iXoVm.s 			page 18


 970              	.LVL92:
 971              	.L105:
 972              		.loc 3 837 0
 973 00b4 BDE87040 		pop	{r4, r5, r6, lr}
 974              		.cfi_remember_state
 975              		.cfi_restore 14
 976              		.cfi_restore 6
 977              		.cfi_restore 5
 978              		.cfi_restore 4
 979              		.cfi_def_cfa_offset 0
 980              	.LVL93:
 981              	.LBB189:
 982              	.LBB190:
 983              		.loc 4 526 0
 984 00b8 FFF7FEBF 		b	chSysUnlockFromISR
 985              	.LVL94:
 986              	.L41:
 987              		.cfi_restore_state
 988              	.LBE190:
 989              	.LBE189:
 990              	.LBB191:
 991              	.LBB184:
 992              		.loc 3 88 0
 993 00bc B5F5807F 		cmp	r5, #256
 994 00c0 4DD0     		beq	.L44
 995 00c2 B5F5817F 		cmp	r5, #258
 996 00c6 C1D1     		bne	.L37
 997              		.loc 3 213 0
 998 00c8 94F84630 		ldrb	r3, [r4, #70]	@ zero_extendqisi2
 999 00cc 002B     		cmp	r3, #0
 1000 00ce BDD1     		bne	.L37
 1001              		.loc 3 217 0
 1002 00d0 94F84830 		ldrb	r3, [r4, #72]	@ zero_extendqisi2
 1003 00d4 13F00F01 		ands	r1, r3, #15
 1004 00d8 26D0     		beq	.L53
 1005              		.loc 3 218 0
 1006 00da 1A06     		lsls	r2, r3, #24
 1007              		.loc 3 219 0
 1008 00dc 2046     		mov	r0, r4
 1009              		.loc 3 218 0
 1010 00de 40F1B680 		bpl	.L64
 1011              	.LVL95:
 1012              		.loc 3 219 0
 1013 00e2 FFF7FEFF 		bl	usb_lld_clear_in
 1014              	.LVL96:
 1015 00e6 1FE0     		b	.L53
 1016              	.L39:
 1017              		.loc 3 88 0
 1018 00e8 B5F5C06F 		cmp	r5, #1536
 1019 00ec 50D0     		beq	.L46
 1020 00ee 20D8     		bhi	.L47
 1021 00f0 40F20233 		movw	r3, #770
 1022 00f4 9D42     		cmp	r5, r3
 1023 00f6 00F0AD80 		beq	.L48
 1024 00fa B5F5A06F 		cmp	r5, #1280
 1025 00fe A5D1     		bne	.L37
 1026              		.loc 3 118 0
ARM GAS  C:\cygwin64\tmp\cc9iXoVm.s 			page 19


 1027 0100 B4F84430 		ldrh	r3, [r4, #68]
 1028 0104 B3F5A06F 		cmp	r3, #1280
 1029 0108 0ED1     		bne	.L53
 1030              	.LVL97:
 1031              	.LBB174:
 1032              	.LBB175:
 1033              		.loc 3 66 0
 1034 010a 94F84630 		ldrb	r3, [r4, #70]	@ zero_extendqisi2
 1035 010e 84F84E30 		strb	r3, [r4, #78]
 1036              		.loc 3 67 0
 1037 0112 2046     		mov	r0, r4
 1038 0114 FFF7FEFF 		bl	usb_lld_set_address
 1039              	.LVL98:
 1040              		.loc 3 68 0
 1041 0118 6368     		ldr	r3, [r4, #4]
 1042 011a 1B68     		ldr	r3, [r3]
 1043 011c 13B1     		cbz	r3, .L54
 1044 011e 0121     		movs	r1, #1
 1045 0120 2046     		mov	r0, r4
 1046 0122 9847     		blx	r3
 1047              	.LVL99:
 1048              	.L54:
 1049              		.loc 3 69 0
 1050 0124 0323     		movs	r3, #3
 1051 0126 2370     		strb	r3, [r4]
 1052              	.LVL100:
 1053              	.L53:
 1054              	.LBE175:
 1055              	.LBE174:
 1056              		.loc 3 122 0
 1057 0128 0023     		movs	r3, #0
 1058 012a A363     		str	r3, [r4, #56]
 1059 012c E363     		str	r3, [r4, #60]
 1060              	.L103:
 1061              		.loc 3 172 0
 1062 012e 2364     		str	r3, [r4, #64]
 1063 0130 A2E7     		b	.L35
 1064              	.L47:
 1065              		.loc 3 88 0
 1066 0132 B5F5106F 		cmp	r5, #2304
 1067 0136 41D0     		beq	.L50
 1068 0138 40F60243 		movw	r3, #3074
 1069 013c 9D42     		cmp	r5, r3
 1070 013e 66D0     		beq	.L43
 1071 0140 B5F5006F 		cmp	r5, #2048
 1072 0144 82D1     		bne	.L37
 1073              		.loc 3 141 0
 1074 0146 04F14F03 		add	r3, r4, #79
 1075 014a A363     		str	r3, [r4, #56]
 1076 014c 0123     		movs	r3, #1
 1077 014e 33E0     		b	.L106
 1078              	.L42:
 1079              		.loc 3 93 0
 1080 0150 04F14C03 		add	r3, r4, #76
 1081 0154 A363     		str	r3, [r4, #56]
 1082 0156 0223     		movs	r3, #2
 1083 0158 E363     		str	r3, [r4, #60]
ARM GAS  C:\cygwin64\tmp\cc9iXoVm.s 			page 20


 1084 015a 2564     		str	r5, [r4, #64]
 1085 015c 8CE7     		b	.L35
 1086              	.L44:
 1087              		.loc 3 98 0
 1088 015e 94F84630 		ldrb	r3, [r4, #70]	@ zero_extendqisi2
 1089 0162 012B     		cmp	r3, #1
 1090 0164 7FF472AF 		bne	.L37
 1091              		.loc 3 99 0
 1092 0168 B4F84C30 		ldrh	r3, [r4, #76]
 1093 016c 23F00203 		bic	r3, r3, #2
 1094              	.L107:
 1095              		.loc 3 108 0
 1096 0170 A4F84C30 		strh	r3, [r4, #76]	@ movhi
 1097              		.loc 3 109 0
 1098 0174 A663     		str	r6, [r4, #56]
 1099 0176 E663     		str	r6, [r4, #60]
 1100              	.L102:
 1101              		.loc 3 181 0
 1102 0178 2664     		str	r6, [r4, #64]
 1103 017a 7DE7     		b	.L35
 1104              	.L38:
 1105              		.loc 3 107 0
 1106 017c 94F84630 		ldrb	r3, [r4, #70]	@ zero_extendqisi2
 1107 0180 012B     		cmp	r3, #1
 1108 0182 7FF463AF 		bne	.L37
 1109              		.loc 3 108 0
 1110 0186 B4F84C30 		ldrh	r3, [r4, #76]
 1111 018a 43F00203 		orr	r3, r3, #2
 1112 018e EFE7     		b	.L107
 1113              	.L46:
 1114              	.LBB176:
 1115              	.LBB177:
 1116              		.loc 3 55 0
 1117 0190 94F84920 		ldrb	r2, [r4, #73]	@ zero_extendqisi2
 1118              	.LBE177:
 1119              	.LBE176:
 1120              		.loc 3 129 0
 1121 0194 6168     		ldr	r1, [r4, #4]
 1122              	.LBB179:
 1123              	.LBB178:
 1124              		.loc 3 55 0
 1125 0196 94F84830 		ldrb	r3, [r4, #72]	@ zero_extendqisi2
 1126              	.LBE178:
 1127              	.LBE179:
 1128              		.loc 3 129 0
 1129 019a 4D68     		ldr	r5, [r1, #4]
 1130 019c 94F84710 		ldrb	r1, [r4, #71]	@ zero_extendqisi2
 1131 01a0 43EA0223 		orr	r3, r3, r2, lsl #8
 1132 01a4 2046     		mov	r0, r4
 1133 01a6 94F84620 		ldrb	r2, [r4, #70]	@ zero_extendqisi2
 1134 01aa A847     		blx	r5
 1135              	.LVL101:
 1136              		.loc 3 132 0
 1137 01ac 0028     		cmp	r0, #0
 1138 01ae 3FF44DAF 		beq	.L37
 1139              		.loc 3 136 0
 1140 01b2 4368     		ldr	r3, [r0, #4]
ARM GAS  C:\cygwin64\tmp\cc9iXoVm.s 			page 21


 1141 01b4 A363     		str	r3, [r4, #56]
 1142 01b6 0368     		ldr	r3, [r0]
 1143              	.LVL102:
 1144              	.L106:
 1145              		.loc 3 141 0
 1146 01b8 E363     		str	r3, [r4, #60]
 1147 01ba DDE7     		b	.L102
 1148              	.L50:
 1149              		.loc 3 146 0
 1150 01bc 94F84F20 		ldrb	r2, [r4, #79]	@ zero_extendqisi2
 1151 01c0 94F84630 		ldrb	r3, [r4, #70]	@ zero_extendqisi2
 1152 01c4 9A42     		cmp	r2, r3
 1153 01c6 AFD0     		beq	.L53
 1154              		.loc 3 149 0
 1155 01c8 2378     		ldrb	r3, [r4]	@ zero_extendqisi2
 1156 01ca 042B     		cmp	r3, #4
 1157 01cc 0FD1     		bne	.L57
 1158              	.LBB180:
 1159              	.LBB181:
 1160              		.loc 4 515 0
 1161 01ce FFF7FEFF 		bl	chSysLockFromISR
 1162              	.LVL103:
 1163              	.LBE181:
 1164              	.LBE180:
 1165              		.loc 3 152 0
 1166 01d2 2046     		mov	r0, r4
 1167 01d4 FFF7FEFF 		bl	usbDisableEndpointsI
 1168              	.LVL104:
 1169              	.LBB182:
 1170              	.LBB183:
 1171              		.loc 4 526 0
 1172 01d8 FFF7FEFF 		bl	chSysUnlockFromISR
 1173              	.LVL105:
 1174              	.LBE183:
 1175              	.LBE182:
 1176              		.loc 3 156 0
 1177 01dc 6368     		ldr	r3, [r4, #4]
 1178              		.loc 3 154 0
 1179 01de 84F84F60 		strb	r6, [r4, #79]
 1180              		.loc 3 156 0
 1181 01e2 1B68     		ldr	r3, [r3]
 1182              		.loc 3 155 0
 1183 01e4 0321     		movs	r1, #3
 1184 01e6 2170     		strb	r1, [r4]
 1185              		.loc 3 156 0
 1186 01e8 0BB1     		cbz	r3, .L57
 1187 01ea 2046     		mov	r0, r4
 1188 01ec 9847     		blx	r3
 1189              	.LVL106:
 1190              	.L57:
 1191              		.loc 3 158 0
 1192 01ee 94F84630 		ldrb	r3, [r4, #70]	@ zero_extendqisi2
 1193 01f2 002B     		cmp	r3, #0
 1194 01f4 98D0     		beq	.L53
 1195              		.loc 3 160 0
 1196 01f6 84F84F30 		strb	r3, [r4, #79]
 1197              		.loc 3 161 0
ARM GAS  C:\cygwin64\tmp\cc9iXoVm.s 			page 22


 1198 01fa 0423     		movs	r3, #4
 1199 01fc 2370     		strb	r3, [r4]
 1200              		.loc 3 162 0
 1201 01fe 6368     		ldr	r3, [r4, #4]
 1202 0200 1B68     		ldr	r3, [r3]
 1203 0202 002B     		cmp	r3, #0
 1204 0204 90D0     		beq	.L53
 1205 0206 0221     		movs	r1, #2
 1206 0208 2046     		mov	r0, r4
 1207 020a 9847     		blx	r3
 1208              	.LVL107:
 1209 020c 8CE7     		b	.L53
 1210              	.L43:
 1211              		.loc 3 172 0
 1212 020e 2A4B     		ldr	r3, .L111
 1213 0210 A363     		str	r3, [r4, #56]
 1214 0212 0223     		movs	r3, #2
 1215 0214 E363     		str	r3, [r4, #60]
 1216 0216 0023     		movs	r3, #0
 1217 0218 89E7     		b	.L103
 1218              	.L40:
 1219              		.loc 3 177 0
 1220 021a 94F84810 		ldrb	r1, [r4, #72]	@ zero_extendqisi2
 1221 021e 11F0800F 		tst	r1, #128
 1222              		.loc 3 178 0
 1223 0222 2046     		mov	r0, r4
 1224 0224 01F00F01 		and	r1, r1, #15
 1225              		.loc 3 177 0
 1226 0228 0ED0     		beq	.L59
 1227              	.LVL108:
 1228              		.loc 3 178 0
 1229 022a FFF7FEFF 		bl	usb_lld_get_status_in
 1230              	.LVL109:
 1231              	.L110:
 1232              		.loc 3 195 0
 1233 022e 0128     		cmp	r0, #1
 1234 0230 06D0     		beq	.L60
 1235 0232 0228     		cmp	r0, #2
 1236 0234 7FF40AAF 		bne	.L37
 1237              		.loc 3 203 0
 1238 0238 204B     		ldr	r3, .L111+4
 1239 023a A363     		str	r3, [r4, #56]
 1240 023c E063     		str	r0, [r4, #60]
 1241 023e 9BE7     		b	.L102
 1242              	.L60:
 1243              		.loc 3 181 0
 1244 0240 1F4B     		ldr	r3, .L111+8
 1245 0242 A363     		str	r3, [r4, #56]
 1246 0244 E563     		str	r5, [r4, #60]
 1247 0246 97E7     		b	.L102
 1248              	.LVL110:
 1249              	.L59:
 1250              		.loc 3 195 0
 1251 0248 FFF7FEFF 		bl	usb_lld_get_status_out
 1252              	.LVL111:
 1253 024c EFE7     		b	.L110
 1254              	.LVL112:
ARM GAS  C:\cygwin64\tmp\cc9iXoVm.s 			page 23


 1255              	.L64:
 1256              		.loc 3 222 0
 1257 024e FFF7FEFF 		bl	usb_lld_clear_out
 1258              	.LVL113:
 1259 0252 69E7     		b	.L53
 1260              	.L48:
 1261              		.loc 3 229 0
 1262 0254 94F84630 		ldrb	r3, [r4, #70]	@ zero_extendqisi2
 1263 0258 002B     		cmp	r3, #0
 1264 025a 7FF4F7AE 		bne	.L37
 1265              		.loc 3 233 0
 1266 025e 94F84830 		ldrb	r3, [r4, #72]	@ zero_extendqisi2
 1267 0262 13F00F01 		ands	r1, r3, #15
 1268 0266 3FF45FAF 		beq	.L53
 1269              		.loc 3 234 0
 1270 026a 1B06     		lsls	r3, r3, #24
 1271              		.loc 3 235 0
 1272 026c 2046     		mov	r0, r4
 1273              		.loc 3 234 0
 1274 026e 02D5     		bpl	.L65
 1275              	.LVL114:
 1276              		.loc 3 235 0
 1277 0270 FFF7FEFF 		bl	usb_lld_stall_in
 1278              	.LVL115:
 1279 0274 58E7     		b	.L53
 1280              	.LVL116:
 1281              	.L65:
 1282              		.loc 3 238 0
 1283 0276 FFF7FEFF 		bl	usb_lld_stall_out
 1284              	.LVL117:
 1285 027a 55E7     		b	.L53
 1286              	.LVL118:
 1287              	.L70:
 1288              	.LBE184:
 1289              	.LBE191:
 1290              		.loc 3 805 0
 1291 027c 0323     		movs	r3, #3
 1292 027e 84F83430 		strb	r3, [r4, #52]
 1293              	.LBB192:
 1294              	.LBB193:
 1295              		.loc 4 515 0
 1296 0282 FFF7FEFF 		bl	chSysLockFromISR
 1297              	.LVL119:
 1298              	.LBE193:
 1299              	.LBE192:
 1300              		.loc 3 808 0
 1301 0286 2B46     		mov	r3, r5
 1302 0288 2A46     		mov	r2, r5
 1303              	.L108:
 1304              		.loc 3 821 0
 1305 028a 0021     		movs	r1, #0
 1306 028c 2046     		mov	r0, r4
 1307 028e FFF7FEFF 		bl	usbStartReceiveI
 1308              	.LVL120:
 1309 0292 0FE7     		b	.L105
 1310              	.LVL121:
 1311              	.L69:
ARM GAS  C:\cygwin64\tmp\cc9iXoVm.s 			page 24


 1312              		.loc 3 817 0
 1313 0294 3DB1     		cbz	r5, .L71
 1314              		.loc 3 819 0
 1315 0296 0423     		movs	r3, #4
 1316 0298 84F83430 		strb	r3, [r4, #52]
 1317              	.LBB194:
 1318              	.LBB195:
 1319              		.loc 4 515 0
 1320 029c FFF7FEFF 		bl	chSysLockFromISR
 1321              	.LVL122:
 1322              	.LBE195:
 1323              	.LBE194:
 1324              		.loc 3 821 0
 1325 02a0 E36B     		ldr	r3, [r4, #60]
 1326 02a2 A26B     		ldr	r2, [r4, #56]
 1327 02a4 F1E7     		b	.L108
 1328              	.LVL123:
 1329              	.L71:
 1330              		.loc 3 827 0
 1331 02a6 0523     		movs	r3, #5
 1332 02a8 84F83430 		strb	r3, [r4, #52]
 1333              	.LBB196:
 1334              	.LBB197:
 1335              		.loc 4 515 0
 1336 02ac FFF7FEFF 		bl	chSysLockFromISR
 1337              	.LVL124:
 1338              	.LBE197:
 1339              	.LBE196:
 1340              		.loc 3 830 0
 1341 02b0 2B46     		mov	r3, r5
 1342 02b2 2A46     		mov	r2, r5
 1343 02b4 FAE6     		b	.L104
 1344              	.L112:
 1345 02b6 00BF     		.align	2
 1346              	.L111:
 1347 02b8 00000000 		.word	.LANCHOR0
 1348 02bc 00000000 		.word	.LANCHOR2
 1349 02c0 00000000 		.word	.LANCHOR1
 1350              		.cfi_endproc
 1351              	.LFE293:
 1352              		.size	_usb_ep0setup, .-_usb_ep0setup
 1353              		.section	.text._usb_ep0in,"ax",%progbits
 1354              		.align	1
 1355              		.global	_usb_ep0in
 1356              		.syntax unified
 1357              		.thumb
 1358              		.thumb_func
 1359              		.fpu fpv4-sp-d16
 1360              		.type	_usb_ep0in, %function
 1361              	_usb_ep0in:
 1362              	.LFB294:
 1363              		.loc 3 849 0
 1364              		.cfi_startproc
 1365              		@ args = 0, pretend = 0, frame = 0
 1366              		@ frame_needed = 0, uses_anonymous_args = 0
 1367              	.LVL125:
 1368 0000 38B5     		push	{r3, r4, r5, lr}
ARM GAS  C:\cygwin64\tmp\cc9iXoVm.s 			page 25


 1369              		.cfi_def_cfa_offset 16
 1370              		.cfi_offset 3, -16
 1371              		.cfi_offset 4, -12
 1372              		.cfi_offset 5, -8
 1373              		.cfi_offset 14, -4
 1374              		.loc 3 853 0
 1375 0002 90F83430 		ldrb	r3, [r0, #52]	@ zero_extendqisi2
 1376              		.loc 3 849 0
 1377 0006 0446     		mov	r4, r0
 1378              		.loc 3 853 0
 1379 0008 062B     		cmp	r3, #6
 1380 000a 22D8     		bhi	.L113
 1381 000c DFE803F0 		tbb	[pc, r3]
 1382              	.L116:
 1383 0010 36       		.byte	(.L115-.L116)/2
 1384 0011 04       		.byte	(.L117-.L116)/2
 1385 0012 22       		.byte	(.L118-.L116)/2
 1386 0013 36       		.byte	(.L115-.L116)/2
 1387 0014 36       		.byte	(.L115-.L116)/2
 1388 0015 31       		.byte	(.L119-.L116)/2
 1389 0016 36       		.byte	(.L115-.L116)/2
 1390 0017 00       		.p2align 1
 1391              	.L117:
 1392              	.LVL126:
 1393              	.LBB198:
 1394              	.LBB199:
 1395              		.loc 3 55 0
 1396 0018 90F84B10 		ldrb	r1, [r0, #75]	@ zero_extendqisi2
 1397              	.LVL127:
 1398 001c 90F84A20 		ldrb	r2, [r0, #74]	@ zero_extendqisi2
 1399              	.LBE199:
 1400              	.LBE198:
 1401              		.loc 3 859 0
 1402 0020 C36B     		ldr	r3, [r0, #60]
 1403              		.loc 3 855 0
 1404 0022 42EA0122 		orr	r2, r2, r1, lsl #8
 1405              		.loc 3 859 0
 1406 0026 9A42     		cmp	r2, r3
 1407 0028 14D9     		bls	.L118
 1408              		.loc 3 860 0 discriminator 1
 1409 002a C268     		ldr	r2, [r0, #12]
 1410 002c 128A     		ldrh	r2, [r2, #16]
 1411 002e B3FBF2F5 		udiv	r5, r3, r2
 1412 0032 02FB1535 		mls	r5, r2, r5, r3
 1413              		.loc 3 859 0 discriminator 1
 1414 0036 6DB9     		cbnz	r5, .L118
 1415              	.LBB200:
 1416              	.LBB201:
 1417              		.loc 4 515 0
 1418 0038 FFF7FEFF 		bl	chSysLockFromISR
 1419              	.LVL128:
 1420              	.LBE201:
 1421              	.LBE200:
 1422              		.loc 3 862 0
 1423 003c 2B46     		mov	r3, r5
 1424 003e 2A46     		mov	r2, r5
 1425 0040 2946     		mov	r1, r5
ARM GAS  C:\cygwin64\tmp\cc9iXoVm.s 			page 26


 1426 0042 2046     		mov	r0, r4
 1427 0044 FFF7FEFF 		bl	usbStartTransmitI
 1428              	.LVL129:
 1429              	.LBB202:
 1430              	.LBB203:
 1431              		.loc 4 526 0
 1432 0048 FFF7FEFF 		bl	chSysUnlockFromISR
 1433              	.LVL130:
 1434              	.LBE203:
 1435              	.LBE202:
 1436              		.loc 3 864 0
 1437 004c 0223     		movs	r3, #2
 1438              	.L128:
 1439              		.loc 3 899 0
 1440 004e 84F83430 		strb	r3, [r4, #52]
 1441              	.L113:
 1442 0052 38BD     		pop	{r3, r4, r5, pc}
 1443              	.LVL131:
 1444              	.L118:
 1445              		.loc 3 870 0
 1446 0054 0323     		movs	r3, #3
 1447 0056 84F83430 		strb	r3, [r4, #52]
 1448              	.LBB204:
 1449              	.LBB205:
 1450              		.loc 4 515 0
 1451 005a FFF7FEFF 		bl	chSysLockFromISR
 1452              	.LVL132:
 1453              	.LBE205:
 1454              	.LBE204:
 1455              		.loc 3 873 0
 1456 005e 0023     		movs	r3, #0
 1457 0060 1A46     		mov	r2, r3
 1458 0062 1946     		mov	r1, r3
 1459 0064 2046     		mov	r0, r4
 1460 0066 FFF7FEFF 		bl	usbStartReceiveI
 1461              	.LVL133:
 1462              		.loc 3 904 0
 1463 006a BDE83840 		pop	{r3, r4, r5, lr}
 1464              		.cfi_remember_state
 1465              		.cfi_restore 14
 1466              		.cfi_restore 5
 1467              		.cfi_restore 4
 1468              		.cfi_restore 3
 1469              		.cfi_def_cfa_offset 0
 1470              	.LVL134:
 1471              	.LBB206:
 1472              	.LBB207:
 1473              		.loc 4 526 0
 1474 006e FFF7FEBF 		b	chSysUnlockFromISR
 1475              	.LVL135:
 1476              	.L119:
 1477              		.cfi_restore_state
 1478              	.LBE207:
 1479              	.LBE206:
 1480              		.loc 3 881 0
 1481 0072 036C     		ldr	r3, [r0, #64]
 1482 0074 03B1     		cbz	r3, .L120
ARM GAS  C:\cygwin64\tmp\cc9iXoVm.s 			page 27


 1483              		.loc 3 882 0
 1484 0076 9847     		blx	r3
 1485              	.LVL136:
 1486              	.L120:
 1487              		.loc 3 884 0
 1488 0078 0023     		movs	r3, #0
 1489 007a E8E7     		b	.L128
 1490              	.LVL137:
 1491              	.L115:
 1492              		.loc 3 896 0
 1493 007c 0021     		movs	r1, #0
 1494              	.LVL138:
 1495 007e FFF7FEFF 		bl	usb_lld_stall_in
 1496              	.LVL139:
 1497              		.loc 3 897 0
 1498 0082 0021     		movs	r1, #0
 1499 0084 2046     		mov	r0, r4
 1500 0086 FFF7FEFF 		bl	usb_lld_stall_out
 1501              	.LVL140:
 1502              		.loc 3 898 0
 1503 008a 6368     		ldr	r3, [r4, #4]
 1504 008c 1B68     		ldr	r3, [r3]
 1505 008e 13B1     		cbz	r3, .L121
 1506              		.loc 3 898 0 is_stmt 0 discriminator 1
 1507 0090 0621     		movs	r1, #6
 1508 0092 2046     		mov	r0, r4
 1509 0094 9847     		blx	r3
 1510              	.LVL141:
 1511              	.L121:
 1512              		.loc 3 899 0 is_stmt 1
 1513 0096 0623     		movs	r3, #6
 1514 0098 D9E7     		b	.L128
 1515              		.cfi_endproc
 1516              	.LFE294:
 1517              		.size	_usb_ep0in, .-_usb_ep0in
 1518              		.section	.text._usb_ep0out,"ax",%progbits
 1519              		.align	1
 1520              		.global	_usb_ep0out
 1521              		.syntax unified
 1522              		.thumb
 1523              		.thumb_func
 1524              		.fpu fpv4-sp-d16
 1525              		.type	_usb_ep0out, %function
 1526              	_usb_ep0out:
 1527              	.LFB295:
 1528              		.loc 3 916 0
 1529              		.cfi_startproc
 1530              		@ args = 0, pretend = 0, frame = 0
 1531              		@ frame_needed = 0, uses_anonymous_args = 0
 1532              	.LVL142:
 1533 0000 38B5     		push	{r3, r4, r5, lr}
 1534              		.cfi_def_cfa_offset 16
 1535              		.cfi_offset 3, -16
 1536              		.cfi_offset 4, -12
 1537              		.cfi_offset 5, -8
 1538              		.cfi_offset 14, -4
 1539              		.loc 3 919 0
ARM GAS  C:\cygwin64\tmp\cc9iXoVm.s 			page 28


 1540 0002 90F83430 		ldrb	r3, [r0, #52]	@ zero_extendqisi2
 1541 0006 062B     		cmp	r3, #6
 1542              		.loc 3 916 0
 1543 0008 0446     		mov	r4, r0
 1544 000a 22D8     		bhi	.L129
 1545 000c 0122     		movs	r2, #1
 1546 000e 9A40     		lsls	r2, r2, r3
 1547 0010 12F0670F 		tst	r2, #103
 1548 0014 1ED1     		bne	.L131
 1549 0016 12F00805 		ands	r5, r2, #8
 1550 001a 10D1     		bne	.L132
 1551 001c D306     		lsls	r3, r2, #27
 1552 001e 18D5     		bpl	.L129
 1553              		.loc 3 922 0
 1554 0020 0523     		movs	r3, #5
 1555 0022 80F83430 		strb	r3, [r0, #52]
 1556              	.LBB208:
 1557              	.LBB209:
 1558              		.loc 4 515 0
 1559 0026 FFF7FEFF 		bl	chSysLockFromISR
 1560              	.LVL143:
 1561              	.LBE209:
 1562              	.LBE208:
 1563              		.loc 3 925 0
 1564 002a 2B46     		mov	r3, r5
 1565 002c 2A46     		mov	r2, r5
 1566 002e 2946     		mov	r1, r5
 1567 0030 2046     		mov	r0, r4
 1568 0032 FFF7FEFF 		bl	usbStartTransmitI
 1569              	.LVL144:
 1570              		.loc 3 963 0
 1571 0036 BDE83840 		pop	{r3, r4, r5, lr}
 1572              		.cfi_remember_state
 1573              		.cfi_restore 14
 1574              		.cfi_restore 5
 1575              		.cfi_restore 4
 1576              		.cfi_restore 3
 1577              		.cfi_def_cfa_offset 0
 1578              	.LVL145:
 1579              	.LBB210:
 1580              	.LBB211:
 1581              		.loc 4 526 0
 1582 003a FFF7FEBF 		b	chSysUnlockFromISR
 1583              	.LVL146:
 1584              	.L132:
 1585              		.cfi_restore_state
 1586              	.LBE211:
 1587              	.LBE210:
 1588              		.loc 3 935 0
 1589 003e C368     		ldr	r3, [r0, #12]
 1590 0040 9B69     		ldr	r3, [r3, #24]
 1591 0042 5B68     		ldr	r3, [r3, #4]
 1592 0044 2BB9     		cbnz	r3, .L129
 1593              		.loc 3 939 0
 1594 0046 036C     		ldr	r3, [r0, #64]
 1595 0048 03B1     		cbz	r3, .L133
 1596              		.loc 3 940 0
ARM GAS  C:\cygwin64\tmp\cc9iXoVm.s 			page 29


 1597 004a 9847     		blx	r3
 1598              	.LVL147:
 1599              	.L133:
 1600              		.loc 3 942 0
 1601 004c 0023     		movs	r3, #0
 1602              	.L144:
 1603              		.loc 3 958 0
 1604 004e 84F83430 		strb	r3, [r4, #52]
 1605              	.L129:
 1606 0052 38BD     		pop	{r3, r4, r5, pc}
 1607              	.LVL148:
 1608              	.L131:
 1609              		.loc 3 955 0
 1610 0054 0021     		movs	r1, #0
 1611              	.LVL149:
 1612 0056 FFF7FEFF 		bl	usb_lld_stall_in
 1613              	.LVL150:
 1614              		.loc 3 956 0
 1615 005a 0021     		movs	r1, #0
 1616 005c 2046     		mov	r0, r4
 1617 005e FFF7FEFF 		bl	usb_lld_stall_out
 1618              	.LVL151:
 1619              		.loc 3 957 0
 1620 0062 6368     		ldr	r3, [r4, #4]
 1621 0064 1B68     		ldr	r3, [r3]
 1622 0066 13B1     		cbz	r3, .L134
 1623              		.loc 3 957 0 is_stmt 0 discriminator 1
 1624 0068 0621     		movs	r1, #6
 1625 006a 2046     		mov	r0, r4
 1626 006c 9847     		blx	r3
 1627              	.LVL152:
 1628              	.L134:
 1629              		.loc 3 958 0 is_stmt 1
 1630 006e 0623     		movs	r3, #6
 1631 0070 EDE7     		b	.L144
 1632              		.cfi_endproc
 1633              	.LFE295:
 1634              		.size	_usb_ep0out, .-_usb_ep0out
 1635              		.section	.rodata.active_status,"a",%progbits
 1636              		.set	.LANCHOR2,. + 0
 1637              		.type	active_status, %object
 1638              		.size	active_status, 2
 1639              	active_status:
 1640 0000 0000     		.space	2
 1641              		.section	.rodata.halted_status,"a",%progbits
 1642              		.set	.LANCHOR1,. + 0
 1643              		.type	halted_status, %object
 1644              		.size	halted_status, 2
 1645              	halted_status:
 1646 0000 01       		.byte	1
 1647 0001 00       		.byte	0
 1648              		.section	.rodata.zero_status,"a",%progbits
 1649              		.set	.LANCHOR0,. + 0
 1650              		.type	zero_status, %object
 1651              		.size	zero_status, 2
 1652              	zero_status:
 1653 0000 0000     		.space	2
ARM GAS  C:\cygwin64\tmp\cc9iXoVm.s 			page 30


 1654              		.text
 1655              	.Letext0:
 1656              		.file 5 "c:\\program files (x86)\\gnu tools arm embedded\\6 2017-q2-update\\lib\\gcc\\arm-none-eab
 1657              		.file 6 "c:\\program files (x86)\\gnu tools arm embedded\\6 2017-q2-update\\arm-none-eabi\\include
 1658              		.file 7 "c:\\program files (x86)\\gnu tools arm embedded\\6 2017-q2-update\\arm-none-eabi\\include
 1659              		.file 8 "c:\\program files (x86)\\gnu tools arm embedded\\6 2017-q2-update\\arm-none-eabi\\include
 1660              		.file 9 "c:\\program files (x86)\\gnu tools arm embedded\\6 2017-q2-update\\arm-none-eabi\\include
 1661              		.file 10 "c:\\program files (x86)\\gnu tools arm embedded\\6 2017-q2-update\\arm-none-eabi\\includ
 1662              		.file 11 "../../modules/ChibiOS/os/common/ports/ARMCMx/compilers/GCC/chtypes.h"
 1663              		.file 12 "../../modules/ChibiOS/os/rt/include/chsystypes.h"
 1664              		.file 13 "../../modules/ChibiOS/os/rt/include/chschd.h"
 1665              		.file 14 "../../modules/ChibiOS/os/common/ext/CMSIS/include/core_cm4.h"
 1666              		.file 15 "../../modules/ChibiOS/os/common/ext/CMSIS/ST/STM32F4xx/system_stm32f4xx.h"
 1667              		.file 16 "../../modules/ChibiOS/os/common/ext/CMSIS/ST/STM32F4xx/stm32f427xx.h"
 1668              		.file 17 "../../modules/ChibiOS/os/common/ports/ARMCMx/chcore.h"
 1669              		.file 18 "../../modules/ChibiOS/os/common/ports/ARMCMx/chcore_v7m.h"
 1670              		.file 19 "../../modules/ChibiOS/os/hal/ports/STM32/LLD/TIMv1/stm32_tim.h"
 1671              		.file 20 "../../modules/ChibiOS/os/rt/include/chtm.h"
 1672              		.file 21 "../../modules/ChibiOS/os/rt/include/chstats.h"
 1673              		.file 22 "../../modules/ChibiOS/os/rt/include/chsem.h"
 1674              		.file 23 "../../modules/ChibiOS/os/rt/include/chmtx.h"
 1675              		.file 24 "../../modules/ChibiOS/os/rt/include/chregistry.h"
 1676              		.file 25 "../../modules/ChibiOS/os/rt/include/chevents.h"
 1677              		.file 26 "../../modules/ChibiOS/os/hal/ports/STM32/LLD/DMAv2/stm32_dma.h"
 1678              		.file 27 "../../modules/ChibiOS/os/hal/include/hal_ioblock.h"
 1679              		.file 28 "../../modules/ChibiOS/os/hal/include/hal_queues.h"
 1680              		.file 29 "../../modules/ChibiOS/os/hal/ports/STM32/LLD/GPIOv2/hal_pal_lld.h"
 1681              		.file 30 "../../modules/ChibiOS/os/hal/include/hal_adc.h"
 1682              		.file 31 "../../modules/ChibiOS/os/hal/ports/STM32/LLD/ADCv2/hal_adc_lld.h"
 1683              		.file 32 "../../modules/ChibiOS/os/hal/include/hal_ext.h"
 1684              		.file 33 "../../modules/ChibiOS/os/hal/ports/STM32/LLD/EXTIv1/hal_ext_lld.h"
 1685              		.file 34 "../../modules/ChibiOS/os/hal/include/hal_i2c.h"
 1686              		.file 35 "../../modules/ChibiOS/os/hal/ports/STM32/LLD/I2Cv1/hal_i2c_lld.h"
 1687              		.file 36 "../../modules/ChibiOS/os/hal/include/hal_pwm.h"
 1688              		.file 37 "../../modules/ChibiOS/os/hal/ports/STM32/LLD/TIMv1/hal_pwm_lld.h"
 1689              		.file 38 "../../modules/ChibiOS/os/hal/include/hal_serial.h"
 1690              		.file 39 "../../modules/ChibiOS/os/hal/ports/STM32/LLD/USARTv1/hal_serial_lld.h"
 1691              		.file 40 "../../modules/ChibiOS/os/hal/include/hal_sdc.h"
 1692              		.file 41 "../../modules/ChibiOS/os/hal/ports/STM32/LLD/SDIOv1/hal_sdc_lld.h"
 1693              		.file 42 "../../modules/ChibiOS/os/hal/include/hal_spi.h"
 1694              		.file 43 "../../modules/ChibiOS/os/hal/ports/STM32/LLD/SPIv1/hal_spi_lld.h"
 1695              		.file 44 "../../modules/ChibiOS/os/hal/include/hal_usb.h"
 1696              		.file 45 "../../modules/ChibiOS/os/hal/ports/STM32/LLD/OTGv1/hal_usb_lld.h"
 1697              		.file 46 "../../modules/ChibiOS/os/hal/ports/STM32/LLD/OTGv1/stm32_otg.h"