ARM GAS  C:\cygwin64\tmp\ccX3iSAo.s 			page 1


   1              		.cpu cortex-m4
   2              		.eabi_attribute 27, 1
   3              		.eabi_attribute 28, 1
   4              		.eabi_attribute 20, 1
   5              		.eabi_attribute 21, 1
   6              		.eabi_attribute 23, 3
   7              		.eabi_attribute 24, 1
   8              		.eabi_attribute 25, 1
   9              		.eabi_attribute 26, 1
  10              		.eabi_attribute 30, 4
  11              		.eabi_attribute 34, 1
  12              		.eabi_attribute 18, 4
  13              		.file	"hal_sdc_lld.c"
  14              		.text
  15              	.Ltext0:
  16              		.cfi_sections	.debug_frame
  17              		.section	.text.sdc_lld_collect_errors.isra.0,"ax",%progbits
  18              		.align	1
  19              		.syntax unified
  20              		.thumb
  21              		.thumb_func
  22              		.fpu fpv4-sp-d16
  23              		.type	sdc_lld_collect_errors.isra.0, %function
  24              	sdc_lld_collect_errors.isra.0:
  25              	.LFB301:
  26              		.file 1 "../../modules/ChibiOS/os/hal/ports/STM32/LLD/SDIOv1/hal_sdc_lld.c"
  27              		.loc 1 263 0
  28              		.cfi_startproc
  29              		@ args = 0, pretend = 0, frame = 0
  30              		@ frame_needed = 0, uses_anonymous_args = 0
  31              		@ link register save eliminated.
  32              	.LVL0:
  33              		.loc 1 266 0
  34 0000 01F00103 		and	r3, r1, #1
  35              	.LVL1:
  36              		.loc 1 268 0
  37 0004 8A07     		lsls	r2, r1, #30
  38              		.loc 1 269 0
  39 0006 48BF     		it	mi
  40 0008 43F00203 		orrmi	r3, r3, #2
  41              	.LVL2:
  42              		.loc 1 270 0
  43 000c 4A07     		lsls	r2, r1, #29
  44              		.loc 1 271 0
  45 000e 48BF     		it	mi
  46 0010 43F00803 		orrmi	r3, r3, #8
  47              	.LVL3:
  48              		.loc 1 272 0
  49 0014 0A07     		lsls	r2, r1, #28
  50              		.loc 1 273 0
  51 0016 48BF     		it	mi
  52 0018 43F00403 		orrmi	r3, r3, #4
  53              	.LVL4:
  54              		.loc 1 274 0
  55 001c CA06     		lsls	r2, r1, #27
  56              		.loc 1 275 0
  57 001e 48BF     		it	mi
ARM GAS  C:\cygwin64\tmp\ccX3iSAo.s 			page 2


  58 0020 43F01003 		orrmi	r3, r3, #16
  59              	.LVL5:
  60              		.loc 1 276 0
  61 0024 8A06     		lsls	r2, r1, #26
  62              		.loc 1 277 0
  63 0026 48BF     		it	mi
  64 0028 43F02003 		orrmi	r3, r3, #32
  65              	.LVL6:
  66              		.loc 1 278 0
  67 002c 8A05     		lsls	r2, r1, #22
  68              		.loc 1 281 0
  69 002e 0268     		ldr	r2, [r0]
  70              		.loc 1 279 0
  71 0030 48BF     		it	mi
  72 0032 43F04003 		orrmi	r3, r3, #64
  73              	.LVL7:
  74              		.loc 1 281 0
  75 0036 1343     		orrs	r3, r3, r2
  76              	.LVL8:
  77 0038 0360     		str	r3, [r0]
  78 003a 7047     		bx	lr
  79              		.cfi_endproc
  80              	.LFE301:
  81              		.size	sdc_lld_collect_errors.isra.0, .-sdc_lld_collect_errors.isra.0
  82              		.section	.text.Vector104,"ax",%progbits
  83              		.align	1
  84              		.global	Vector104
  85              		.syntax unified
  86              		.thumb
  87              		.thumb_func
  88              		.fpu fpv4-sp-d16
  89              		.type	Vector104, %function
  90              	Vector104:
  91              	.LFB283:
  92              		.loc 1 322 0
  93              		.cfi_startproc
  94              		@ args = 0, pretend = 0, frame = 0
  95              		@ frame_needed = 0, uses_anonymous_args = 0
  96 0000 10B5     		push	{r4, lr}
  97              		.cfi_def_cfa_offset 8
  98              		.cfi_offset 4, -8
  99              		.cfi_offset 14, -4
 100              		.loc 1 324 0
 101 0002 FFF7FEFF 		bl	_stats_increase_irq
 102              	.LVL9:
 103              	.LBB70:
 104              	.LBB71:
 105              	.LBB72:
 106              	.LBB73:
 107              	.LBB74:
 108              	.LBB75:
 109              	.LBB76:
 110              		.file 2 "../../modules/ChibiOS/os/common/ext/CMSIS/include/cmsis_gcc.h"
 111              		.loc 2 264 0
 112 0006 2023     		movs	r3, #32
 113              		.syntax unified
 114              	@ 264 "../../modules/ChibiOS/os/common/ext/CMSIS/include/cmsis_gcc.h" 1
ARM GAS  C:\cygwin64\tmp\ccX3iSAo.s 			page 3


 115 0008 83F31188 		MSR basepri, r3
 116              	@ 0 "" 2
 117              	.LVL10:
 118              		.thumb
 119              		.syntax unified
 120              	.LBE76:
 121              	.LBE75:
 122              	.LBE74:
 123              	.LBE73:
 124              		.file 3 "../../modules/ChibiOS/os/rt/include/chsys.h"
 125              		.loc 3 417 0
 126 000c FFF7FEFF 		bl	_stats_start_measure_crit_isr
 127              	.LVL11:
 128              	.LBE72:
 129              	.LBE71:
 130              	.LBE70:
 131              		.loc 1 330 0
 132 0010 074B     		ldr	r3, .L27
 133              	.LBB77:
 134              	.LBB78:
 135              		.file 4 "../../modules/ChibiOS/os/hal/osal/rt/osal.h"
 136              		.loc 4 728 0
 137 0012 0848     		ldr	r0, .L27+4
 138              	.LBE78:
 139              	.LBE77:
 140              		.loc 1 330 0
 141 0014 0024     		movs	r4, #0
 142 0016 DC63     		str	r4, [r3, #60]
 143              	.LVL12:
 144              	.LBB80:
 145              	.LBB79:
 146              		.loc 4 728 0
 147 0018 2146     		mov	r1, r4
 148 001a FFF7FEFF 		bl	chThdResumeI
 149              	.LVL13:
 150              	.LBE79:
 151              	.LBE80:
 152              	.LBB81:
 153              	.LBB82:
 154              	.LBB83:
 155              		.loc 3 437 0
 156 001e FFF7FEFF 		bl	_stats_stop_measure_crit_isr
 157              	.LVL14:
 158              	.LBB84:
 159              	.LBB85:
 160              	.LBB86:
 161              	.LBB87:
 162              		.loc 2 264 0
 163              		.syntax unified
 164              	@ 264 "../../modules/ChibiOS/os/common/ext/CMSIS/include/cmsis_gcc.h" 1
 165 0022 84F31188 		MSR basepri, r4
 166              	@ 0 "" 2
 167              	.LVL15:
 168              		.thumb
 169              		.syntax unified
 170              	.LBE87:
 171              	.LBE86:
ARM GAS  C:\cygwin64\tmp\ccX3iSAo.s 			page 4


 172              	.LBE85:
 173              	.LBE84:
 174              	.LBE83:
 175              	.LBE82:
 176              	.LBE81:
 177              		.loc 1 337 0
 178 0026 BDE81040 		pop	{r4, lr}
 179              		.cfi_restore 14
 180              		.cfi_restore 4
 181              		.cfi_def_cfa_offset 0
 182              		.loc 1 336 0
 183 002a FFF7FEBF 		b	_port_irq_epilogue
 184              	.LVL16:
 185              	.L28:
 186 002e 00BF     		.align	2
 187              	.L27:
 188 0030 002C0140 		.word	1073818624
 189 0034 3C000000 		.word	.LANCHOR0+60
 190              		.cfi_endproc
 191              	.LFE283:
 192              		.size	Vector104, .-Vector104
 193              		.section	.text.sdc_lld_init,"ax",%progbits
 194              		.align	1
 195              		.global	sdc_lld_init
 196              		.syntax unified
 197              		.thumb
 198              		.thumb_func
 199              		.fpu fpv4-sp-d16
 200              		.type	sdc_lld_init, %function
 201              	sdc_lld_init:
 202              	.LFB284:
 203              		.loc 1 348 0
 204              		.cfi_startproc
 205              		@ args = 0, pretend = 0, frame = 0
 206              		@ frame_needed = 0, uses_anonymous_args = 0
 207 0000 10B5     		push	{r4, lr}
 208              		.cfi_def_cfa_offset 8
 209              		.cfi_offset 4, -8
 210              		.cfi_offset 14, -4
 211              		.loc 1 350 0
 212 0002 054C     		ldr	r4, .L30
 213 0004 2046     		mov	r0, r4
 214 0006 FFF7FEFF 		bl	sdcObjectInit
 215              	.LVL17:
 216              		.loc 1 351 0
 217 000a 0023     		movs	r3, #0
 218 000c E363     		str	r3, [r4, #60]
 219              		.loc 1 352 0
 220 000e 034B     		ldr	r3, .L30+4
 221 0010 6364     		str	r3, [r4, #68]
 222              		.loc 1 353 0
 223 0012 034B     		ldr	r3, .L30+8
 224 0014 A364     		str	r3, [r4, #72]
 225 0016 10BD     		pop	{r4, pc}
 226              	.L31:
 227              		.align	2
 228              	.L30:
ARM GAS  C:\cygwin64\tmp\ccX3iSAo.s 			page 5


 229 0018 00000000 		.word	.LANCHOR0
 230 001c A8000000 		.word	_stm32_dma_streams+168
 231 0020 002C0140 		.word	1073818624
 232              		.cfi_endproc
 233              	.LFE284:
 234              		.size	sdc_lld_init, .-sdc_lld_init
 235              		.section	.text.sdc_lld_start,"ax",%progbits
 236              		.align	1
 237              		.global	sdc_lld_start
 238              		.syntax unified
 239              		.thumb
 240              		.thumb_func
 241              		.fpu fpv4-sp-d16
 242              		.type	sdc_lld_start, %function
 243              	sdc_lld_start:
 244              	.LFB285:
 245              		.loc 1 363 0
 246              		.cfi_startproc
 247              		@ args = 0, pretend = 0, frame = 0
 248              		@ frame_needed = 0, uses_anonymous_args = 0
 249              	.LVL18:
 250              		.loc 1 366 0
 251 0000 C36A     		ldr	r3, [r0, #44]
 252              		.loc 1 363 0
 253 0002 10B5     		push	{r4, lr}
 254              		.cfi_def_cfa_offset 8
 255              		.cfi_offset 4, -8
 256              		.cfi_offset 14, -4
 257              		.loc 1 363 0
 258 0004 0446     		mov	r4, r0
 259              		.loc 1 366 0
 260 0006 0BB9     		cbnz	r3, .L33
 261              		.loc 1 367 0
 262 0008 114B     		ldr	r3, .L35
 263 000a C362     		str	r3, [r0, #44]
 264              	.L33:
 265              		.loc 1 377 0
 266 000c 114B     		ldr	r3, .L35+4
 267 000e 2364     		str	r3, [r4, #64]
 268              		.loc 1 382 0
 269 0010 2379     		ldrb	r3, [r4, #4]	@ zero_extendqisi2
 270 0012 012B     		cmp	r3, #1
 271 0014 15D1     		bne	.L34
 272              	.LBB88:
 273              		.loc 1 385 0
 274 0016 0023     		movs	r3, #0
 275 0018 1A46     		mov	r2, r3
 276 001a 0921     		movs	r1, #9
 277 001c 606C     		ldr	r0, [r4, #68]
 278              	.LVL19:
 279 001e FFF7FEFF 		bl	dmaStreamAllocate
 280              	.LVL20:
 281              		.loc 1 387 0
 282 0022 636C     		ldr	r3, [r4, #68]
 283 0024 1A68     		ldr	r2, [r3]
 284 0026 A36C     		ldr	r3, [r4, #72]
 285 0028 8033     		adds	r3, r3, #128
ARM GAS  C:\cygwin64\tmp\ccX3iSAo.s 			page 6


 286 002a 9360     		str	r3, [r2, #8]
 287              		.loc 1 389 0
 288 002c 0723     		movs	r3, #7
 289 002e 5361     		str	r3, [r2, #20]
 290              		.loc 1 391 0
 291 0030 0921     		movs	r1, #9
 292 0032 3120     		movs	r0, #49
 293 0034 FFF7FEFF 		bl	nvicEnableVector
 294              	.LVL21:
 295              		.loc 1 392 0
 296 0038 074A     		ldr	r2, .L35+8
 297 003a 536C     		ldr	r3, [r2, #68]
 298 003c 43F40063 		orr	r3, r3, #2048
 299 0040 5364     		str	r3, [r2, #68]
 300              	.L34:
 301              	.LBE88:
 302              		.loc 1 396 0
 303 0042 A36C     		ldr	r3, [r4, #72]
 304 0044 0022     		movs	r2, #0
 305 0046 1A60     		str	r2, [r3]
 306              		.loc 1 397 0
 307 0048 5A60     		str	r2, [r3, #4]
 308              		.loc 1 398 0
 309 004a DA62     		str	r2, [r3, #44]
 310              		.loc 1 399 0
 311 004c 5A62     		str	r2, [r3, #36]
 312 004e 10BD     		pop	{r4, pc}
 313              	.LVL22:
 314              	.L36:
 315              		.align	2
 316              	.L35:
 317 0050 00000000 		.word	.LANCHOR1
 318 0054 2054A308 		.word	144921632
 319 0058 00380240 		.word	1073887232
 320              		.cfi_endproc
 321              	.LFE285:
 322              		.size	sdc_lld_start, .-sdc_lld_start
 323              		.section	.text.sdc_lld_stop,"ax",%progbits
 324              		.align	1
 325              		.global	sdc_lld_stop
 326              		.syntax unified
 327              		.thumb
 328              		.thumb_func
 329              		.fpu fpv4-sp-d16
 330              		.type	sdc_lld_stop, %function
 331              	sdc_lld_stop:
 332              	.LFB286:
 333              		.loc 1 409 0
 334              		.cfi_startproc
 335              		@ args = 0, pretend = 0, frame = 0
 336              		@ frame_needed = 0, uses_anonymous_args = 0
 337              	.LVL23:
 338              		.loc 1 411 0
 339 0000 0379     		ldrb	r3, [r0, #4]	@ zero_extendqisi2
 340 0002 012B     		cmp	r3, #1
 341              		.loc 1 409 0
 342 0004 10B5     		push	{r4, lr}
ARM GAS  C:\cygwin64\tmp\ccX3iSAo.s 			page 7


 343              		.cfi_def_cfa_offset 8
 344              		.cfi_offset 4, -8
 345              		.cfi_offset 14, -4
 346              		.loc 1 409 0
 347 0006 0446     		mov	r4, r0
 348              		.loc 1 411 0
 349 0008 10D0     		beq	.L37
 350              		.loc 1 414 0
 351 000a 836C     		ldr	r3, [r0, #72]
 352 000c 0022     		movs	r2, #0
 353 000e 1A60     		str	r2, [r3]
 354              		.loc 1 420 0
 355 0010 3120     		movs	r0, #49
 356              	.LVL24:
 357              		.loc 1 415 0
 358 0012 5A60     		str	r2, [r3, #4]
 359              		.loc 1 416 0
 360 0014 DA62     		str	r2, [r3, #44]
 361              		.loc 1 417 0
 362 0016 5A62     		str	r2, [r3, #36]
 363              		.loc 1 420 0
 364 0018 FFF7FEFF 		bl	nvicDisableVector
 365              	.LVL25:
 366              		.loc 1 421 0
 367 001c 606C     		ldr	r0, [r4, #68]
 368 001e FFF7FEFF 		bl	dmaStreamRelease
 369              	.LVL26:
 370              		.loc 1 422 0
 371 0022 034A     		ldr	r2, .L42
 372 0024 536C     		ldr	r3, [r2, #68]
 373 0026 23F40063 		bic	r3, r3, #2048
 374 002a 5364     		str	r3, [r2, #68]
 375              	.L37:
 376 002c 10BD     		pop	{r4, pc}
 377              	.LVL27:
 378              	.L43:
 379 002e 00BF     		.align	2
 380              	.L42:
 381 0030 00380240 		.word	1073887232
 382              		.cfi_endproc
 383              	.LFE286:
 384              		.size	sdc_lld_stop, .-sdc_lld_stop
 385              		.section	.text.sdc_lld_start_clk,"ax",%progbits
 386              		.align	1
 387              		.global	sdc_lld_start_clk
 388              		.syntax unified
 389              		.thumb
 390              		.thumb_func
 391              		.fpu fpv4-sp-d16
 392              		.type	sdc_lld_start_clk, %function
 393              	sdc_lld_start_clk:
 394              	.LFB287:
 395              		.loc 1 433 0
 396              		.cfi_startproc
 397              		@ args = 0, pretend = 0, frame = 0
 398              		@ frame_needed = 0, uses_anonymous_args = 0
 399              		@ link register save eliminated.
ARM GAS  C:\cygwin64\tmp\ccX3iSAo.s 			page 8


 400              	.LVL28:
 401              		.loc 1 436 0
 402 0000 836C     		ldr	r3, [r0, #72]
 403 0002 7822     		movs	r2, #120
 404 0004 5A60     		str	r2, [r3, #4]
 405              		.loc 1 437 0
 406 0006 1A68     		ldr	r2, [r3]
 407 0008 42F00302 		orr	r2, r2, #3
 408 000c 1A60     		str	r2, [r3]
 409              		.loc 1 438 0
 410 000e 5A68     		ldr	r2, [r3, #4]
 411 0010 42F48072 		orr	r2, r2, #256
 412 0014 5A60     		str	r2, [r3, #4]
 413              	.LVL29:
 414              	.LBB89:
 415              	.LBB90:
 416              		.loc 4 673 0
 417 0016 42F21070 		movw	r0, #10000
 418              	.LVL30:
 419 001a FFF7FEBF 		b	chThdSleep
 420              	.LVL31:
 421              	.LBE90:
 422              	.LBE89:
 423              		.cfi_endproc
 424              	.LFE287:
 425              		.size	sdc_lld_start_clk, .-sdc_lld_start_clk
 426              		.section	.text.sdc_lld_set_data_clk,"ax",%progbits
 427              		.align	1
 428              		.global	sdc_lld_set_data_clk
 429              		.syntax unified
 430              		.thumb
 431              		.thumb_func
 432              		.fpu fpv4-sp-d16
 433              		.type	sdc_lld_set_data_clk, %function
 434              	sdc_lld_set_data_clk:
 435              	.LFB288:
 436              		.loc 1 452 0
 437              		.cfi_startproc
 438              		@ args = 0, pretend = 0, frame = 0
 439              		@ frame_needed = 0, uses_anonymous_args = 0
 440              		@ link register save eliminated.
 441              	.LVL32:
 442              		.loc 1 464 0
 443 0000 816C     		ldr	r1, [r0, #72]
 444              	.LVL33:
 445              		.loc 1 453 0
 446 0002 C36A     		ldr	r3, [r0, #44]
 447              		.loc 1 464 0
 448 0004 4A68     		ldr	r2, [r1, #4]
 449 0006 5B79     		ldrb	r3, [r3, #5]	@ zero_extendqisi2
 450 0008 22F0FF02 		bic	r2, r2, #255
 451 000c 1343     		orrs	r3, r3, r2
 452 000e 4B60     		str	r3, [r1, #4]
 453              	.LVL34:
 454 0010 7047     		bx	lr
 455              		.cfi_endproc
 456              	.LFE288:
ARM GAS  C:\cygwin64\tmp\ccX3iSAo.s 			page 9


 457              		.size	sdc_lld_set_data_clk, .-sdc_lld_set_data_clk
 458              		.section	.text.sdc_lld_stop_clk,"ax",%progbits
 459              		.align	1
 460              		.global	sdc_lld_stop_clk
 461              		.syntax unified
 462              		.thumb
 463              		.thumb_func
 464              		.fpu fpv4-sp-d16
 465              		.type	sdc_lld_stop_clk, %function
 466              	sdc_lld_stop_clk:
 467              	.LFB289:
 468              		.loc 1 475 0
 469              		.cfi_startproc
 470              		@ args = 0, pretend = 0, frame = 0
 471              		@ frame_needed = 0, uses_anonymous_args = 0
 472              		@ link register save eliminated.
 473              	.LVL35:
 474              		.loc 1 477 0
 475 0000 836C     		ldr	r3, [r0, #72]
 476 0002 0022     		movs	r2, #0
 477 0004 5A60     		str	r2, [r3, #4]
 478              		.loc 1 478 0
 479 0006 1A60     		str	r2, [r3]
 480 0008 7047     		bx	lr
 481              		.cfi_endproc
 482              	.LFE289:
 483              		.size	sdc_lld_stop_clk, .-sdc_lld_stop_clk
 484              		.section	.text.sdc_lld_set_bus_mode,"ax",%progbits
 485              		.align	1
 486              		.global	sdc_lld_set_bus_mode
 487              		.syntax unified
 488              		.thumb
 489              		.thumb_func
 490              		.fpu fpv4-sp-d16
 491              		.type	sdc_lld_set_bus_mode, %function
 492              	sdc_lld_set_bus_mode:
 493              	.LFB290:
 494              		.loc 1 489 0
 495              		.cfi_startproc
 496              		@ args = 0, pretend = 0, frame = 0
 497              		@ frame_needed = 0, uses_anonymous_args = 0
 498              		@ link register save eliminated.
 499              	.LVL36:
 500              		.loc 1 490 0
 501 0000 826C     		ldr	r2, [r0, #72]
 502 0002 5368     		ldr	r3, [r2, #4]
 503              		.loc 1 492 0
 504 0004 0129     		cmp	r1, #1
 505              		.loc 1 490 0
 506 0006 23F4C053 		bic	r3, r3, #6144
 507              	.LVL37:
 508              		.loc 1 492 0
 509 000a 03D0     		beq	.L49
 510 000c 04D3     		bcc	.L52
 511 000e 0229     		cmp	r1, #2
 512 0010 04D0     		beq	.L51
 513 0012 7047     		bx	lr
ARM GAS  C:\cygwin64\tmp\ccX3iSAo.s 			page 10


 514              	.L49:
 515              		.loc 1 497 0
 516 0014 43F40063 		orr	r3, r3, #2048
 517              	.LVL38:
 518              	.L52:
 519              		.loc 1 500 0
 520 0018 5360     		str	r3, [r2, #4]
 521 001a 7047     		bx	lr
 522              	.LVL39:
 523              	.L51:
 524 001c 43F48053 		orr	r3, r3, #4096
 525              	.LVL40:
 526 0020 FAE7     		b	.L52
 527              		.cfi_endproc
 528              	.LFE290:
 529              		.size	sdc_lld_set_bus_mode, .-sdc_lld_set_bus_mode
 530              		.section	.text.sdc_lld_send_cmd_none,"ax",%progbits
 531              		.align	1
 532              		.global	sdc_lld_send_cmd_none
 533              		.syntax unified
 534              		.thumb
 535              		.thumb_func
 536              		.fpu fpv4-sp-d16
 537              		.type	sdc_lld_send_cmd_none, %function
 538              	sdc_lld_send_cmd_none:
 539              	.LFB291:
 540              		.loc 1 514 0
 541              		.cfi_startproc
 542              		@ args = 0, pretend = 0, frame = 0
 543              		@ frame_needed = 0, uses_anonymous_args = 0
 544              		@ link register save eliminated.
 545              	.LVL41:
 546              		.loc 1 516 0
 547 0000 836C     		ldr	r3, [r0, #72]
 548              		.loc 1 517 0
 549 0002 41F48061 		orr	r1, r1, #1024
 550              	.LVL42:
 551              		.loc 1 516 0
 552 0006 9A60     		str	r2, [r3, #8]
 553              		.loc 1 517 0
 554 0008 D960     		str	r1, [r3, #12]
 555              	.LVL43:
 556              	.L54:
 557              		.loc 1 518 0 discriminator 1
 558 000a 5A6B     		ldr	r2, [r3, #52]
 559 000c 1206     		lsls	r2, r2, #24
 560 000e FCD5     		bpl	.L54
 561              		.loc 1 520 0
 562 0010 8022     		movs	r2, #128
 563 0012 9A63     		str	r2, [r3, #56]
 564 0014 7047     		bx	lr
 565              		.cfi_endproc
 566              	.LFE291:
 567              		.size	sdc_lld_send_cmd_none, .-sdc_lld_send_cmd_none
 568              		.section	.text.sdc_lld_send_cmd_short,"ax",%progbits
 569              		.align	1
 570              		.global	sdc_lld_send_cmd_short
ARM GAS  C:\cygwin64\tmp\ccX3iSAo.s 			page 11


 571              		.syntax unified
 572              		.thumb
 573              		.thumb_func
 574              		.fpu fpv4-sp-d16
 575              		.type	sdc_lld_send_cmd_short, %function
 576              	sdc_lld_send_cmd_short:
 577              	.LFB292:
 578              		.loc 1 539 0
 579              		.cfi_startproc
 580              		@ args = 0, pretend = 0, frame = 0
 581              		@ frame_needed = 0, uses_anonymous_args = 0
 582              	.LVL44:
 583 0000 10B5     		push	{r4, lr}
 584              		.cfi_def_cfa_offset 8
 585              		.cfi_offset 4, -8
 586              		.cfi_offset 14, -4
 587              		.loc 1 542 0
 588 0002 846C     		ldr	r4, [r0, #72]
 589              		.loc 1 543 0
 590 0004 41F48861 		orr	r1, r1, #1088
 591              	.LVL45:
 592              		.loc 1 542 0
 593 0008 A260     		str	r2, [r4, #8]
 594              		.loc 1 543 0
 595 000a E160     		str	r1, [r4, #12]
 596              	.LVL46:
 597              	.L58:
 598              		.loc 1 544 0 discriminator 1
 599 000c 616B     		ldr	r1, [r4, #52]
 600              	.LVL47:
 601 000e 11F04502 		ands	r2, r1, #69
 602 0012 FBD0     		beq	.L58
 603              		.loc 1 547 0
 604 0014 A263     		str	r2, [r4, #56]
 605              		.loc 1 549 0
 606 0016 11F00402 		ands	r2, r1, #4
 607 001a 04D0     		beq	.L59
 608              		.loc 1 550 0
 609 001c 3430     		adds	r0, r0, #52
 610              	.LVL48:
 611 001e FFF7FEFF 		bl	sdc_lld_collect_errors.isra.0
 612              	.LVL49:
 613              		.loc 1 551 0
 614 0022 0120     		movs	r0, #1
 615              	.LVL50:
 616 0024 10BD     		pop	{r4, pc}
 617              	.LVL51:
 618              	.L59:
 619              		.loc 1 553 0
 620 0026 6169     		ldr	r1, [r4, #20]
 621              	.LVL52:
 622 0028 1960     		str	r1, [r3]
 623              		.loc 1 554 0
 624 002a 1046     		mov	r0, r2
 625              	.LVL53:
 626              		.loc 1 555 0
 627 002c 10BD     		pop	{r4, pc}
ARM GAS  C:\cygwin64\tmp\ccX3iSAo.s 			page 12


 628              		.cfi_endproc
 629              	.LFE292:
 630              		.size	sdc_lld_send_cmd_short, .-sdc_lld_send_cmd_short
 631              		.section	.text.sdc_lld_send_cmd_short_crc,"ax",%progbits
 632              		.align	1
 633              		.global	sdc_lld_send_cmd_short_crc
 634              		.syntax unified
 635              		.thumb
 636              		.thumb_func
 637              		.fpu fpv4-sp-d16
 638              		.type	sdc_lld_send_cmd_short_crc, %function
 639              	sdc_lld_send_cmd_short_crc:
 640              	.LFB293:
 641              		.loc 1 572 0
 642              		.cfi_startproc
 643              		@ args = 0, pretend = 0, frame = 0
 644              		@ frame_needed = 0, uses_anonymous_args = 0
 645              	.LVL54:
 646 0000 10B5     		push	{r4, lr}
 647              		.cfi_def_cfa_offset 8
 648              		.cfi_offset 4, -8
 649              		.cfi_offset 14, -4
 650              		.loc 1 575 0
 651 0002 846C     		ldr	r4, [r0, #72]
 652              		.loc 1 576 0
 653 0004 41F48861 		orr	r1, r1, #1088
 654              	.LVL55:
 655              		.loc 1 575 0
 656 0008 A260     		str	r2, [r4, #8]
 657              		.loc 1 576 0
 658 000a E160     		str	r1, [r4, #12]
 659              	.LVL56:
 660              	.L64:
 661              		.loc 1 577 0 discriminator 1
 662 000c 616B     		ldr	r1, [r4, #52]
 663              	.LVL57:
 664 000e 11F04502 		ands	r2, r1, #69
 665 0012 FBD0     		beq	.L64
 666              		.loc 1 580 0
 667 0014 A263     		str	r2, [r4, #56]
 668              		.loc 1 581 0
 669 0016 11F00502 		ands	r2, r1, #5
 670 001a 04D0     		beq	.L65
 671              		.loc 1 582 0
 672 001c 3430     		adds	r0, r0, #52
 673              	.LVL58:
 674 001e FFF7FEFF 		bl	sdc_lld_collect_errors.isra.0
 675              	.LVL59:
 676              		.loc 1 583 0
 677 0022 0120     		movs	r0, #1
 678              	.LVL60:
 679 0024 10BD     		pop	{r4, pc}
 680              	.LVL61:
 681              	.L65:
 682              		.loc 1 585 0
 683 0026 6169     		ldr	r1, [r4, #20]
 684              	.LVL62:
ARM GAS  C:\cygwin64\tmp\ccX3iSAo.s 			page 13


 685 0028 1960     		str	r1, [r3]
 686              		.loc 1 586 0
 687 002a 1046     		mov	r0, r2
 688              	.LVL63:
 689              		.loc 1 587 0
 690 002c 10BD     		pop	{r4, pc}
 691              		.cfi_endproc
 692              	.LFE293:
 693              		.size	sdc_lld_send_cmd_short_crc, .-sdc_lld_send_cmd_short_crc
 694              		.section	.text.sdc_lld_wait_transaction_end,"ax",%progbits
 695              		.align	1
 696              		.syntax unified
 697              		.thumb
 698              		.thumb_func
 699              		.fpu fpv4-sp-d16
 700              		.type	sdc_lld_wait_transaction_end, %function
 701              	sdc_lld_wait_transaction_end:
 702              	.LFB280:
 703              		.loc 1 211 0
 704              		.cfi_startproc
 705              		@ args = 0, pretend = 0, frame = 0
 706              		@ frame_needed = 0, uses_anonymous_args = 0
 707              	.LVL64:
 708 0000 2DE9F041 		push	{r4, r5, r6, r7, r8, lr}
 709              		.cfi_def_cfa_offset 24
 710              		.cfi_offset 4, -24
 711              		.cfi_offset 5, -20
 712              		.cfi_offset 6, -16
 713              		.cfi_offset 7, -12
 714              		.cfi_offset 8, -8
 715              		.cfi_offset 14, -4
 716              	.LBB122:
 717              	.LBB123:
 718              	.LBB124:
 719              	.LBB125:
 720              	.LBB126:
 721              	.LBB127:
 722              		.loc 2 264 0
 723 0004 2023     		movs	r3, #32
 724              	.LBE127:
 725              	.LBE126:
 726              	.LBE125:
 727              	.LBE124:
 728              	.LBE123:
 729              	.LBE122:
 730              		.loc 1 211 0
 731 0006 0546     		mov	r5, r0
 732              	.LVL65:
 733 0008 0F46     		mov	r7, r1
 734 000a 1646     		mov	r6, r2
 735              	.LBB133:
 736              	.LBB132:
 737              	.LBB131:
 738              	.LBB130:
 739              	.LBB129:
 740              	.LBB128:
 741              		.loc 2 264 0
ARM GAS  C:\cygwin64\tmp\ccX3iSAo.s 			page 14


 742              		.syntax unified
 743              	@ 264 "../../modules/ChibiOS/os/common/ext/CMSIS/include/cmsis_gcc.h" 1
 744 000c 83F31188 		MSR basepri, r3
 745              	@ 0 "" 2
 746              	.LVL66:
 747              		.thumb
 748              		.syntax unified
 749              	.LBE128:
 750              	.LBE129:
 751              	.LBE130:
 752              		.loc 3 377 0
 753 0010 FFF7FEFF 		bl	_stats_start_measure_crit_thd
 754              	.LVL67:
 755              	.LBE131:
 756              	.LBE132:
 757              	.LBE133:
 758              		.loc 1 216 0
 759 0014 AB6C     		ldr	r3, [r5, #72]
 760 0016 DB6B     		ldr	r3, [r3, #60]
 761 0018 1BB1     		cbz	r3, .L70
 762              	.LVL68:
 763              	.LBB134:
 764              	.LBB135:
 765              		.loc 4 688 0
 766 001a 05F13C00 		add	r0, r5, #60
 767              	.LVL69:
 768 001e FFF7FEFF 		bl	chThdSuspendS
 769              	.LVL70:
 770              	.L70:
 771              	.LBE135:
 772              	.LBE134:
 773              		.loc 1 218 0
 774 0022 AA6C     		ldr	r2, [r5, #72]
 775 0024 546B     		ldr	r4, [r2, #52]
 776 0026 14F48074 		ands	r4, r4, #256
 777 002a 06D1     		bne	.L71
 778              	.LBB136:
 779              	.LBB137:
 780              	.LBB138:
 781              		.loc 3 389 0
 782 002c FFF7FEFF 		bl	_stats_stop_measure_crit_thd
 783              	.LVL71:
 784              	.LBB139:
 785              	.LBB140:
 786              	.LBB141:
 787              		.loc 2 264 0
 788              		.syntax unified
 789              	@ 264 "../../modules/ChibiOS/os/common/ext/CMSIS/include/cmsis_gcc.h" 1
 790 0030 84F31188 		MSR basepri, r4
 791              	@ 0 "" 2
 792              	.LVL72:
 793              		.thumb
 794              		.syntax unified
 795              	.LBE141:
 796              	.LBE140:
 797              	.LBE139:
 798              	.LBE138:
ARM GAS  C:\cygwin64\tmp\ccX3iSAo.s 			page 15


 799              	.LBE137:
 800              	.LBE136:
 801              		.loc 1 220 0
 802 0034 0120     		movs	r0, #1
 803 0036 BDE8F081 		pop	{r4, r5, r6, r7, r8, pc}
 804              	.LVL73:
 805              	.L71:
 806              		.loc 1 225 0
 807 003a 6B6C     		ldr	r3, [r5, #68]
 808 003c 1968     		ldr	r1, [r3]
 809              	.L73:
 810              		.loc 1 225 0 is_stmt 0 discriminator 1
 811 003e 0C68     		ldr	r4, [r1]
 812 0040 14F00104 		ands	r4, r4, #1
 813 0044 FBD1     		bne	.L73
 814              		.loc 1 229 0 is_stmt 1
 815 0046 187A     		ldrb	r0, [r3, #8]	@ zero_extendqisi2
 816 0048 5968     		ldr	r1, [r3, #4]
 817 004a 3D23     		movs	r3, #61
 818 004c 8340     		lsls	r3, r3, r0
 819 004e 0B60     		str	r3, [r1]
 820              		.loc 1 231 0
 821 0050 094B     		ldr	r3, .L79
 822 0052 9363     		str	r3, [r2, #56]
 823              		.loc 1 232 0
 824 0054 D462     		str	r4, [r2, #44]
 825              	.LBB142:
 826              	.LBB143:
 827              	.LBB144:
 828              		.loc 3 389 0
 829 0056 FFF7FEFF 		bl	_stats_stop_measure_crit_thd
 830              	.LVL74:
 831              	.LBB145:
 832              	.LBB146:
 833              	.LBB147:
 834              		.loc 2 264 0
 835              		.syntax unified
 836              	@ 264 "../../modules/ChibiOS/os/common/ext/CMSIS/include/cmsis_gcc.h" 1
 837 005a 84F31188 		MSR basepri, r4
 838              	@ 0 "" 2
 839              	.LVL75:
 840              		.thumb
 841              		.syntax unified
 842              	.LBE147:
 843              	.LBE146:
 844              	.LBE145:
 845              	.LBE144:
 846              	.LBE143:
 847              	.LBE142:
 848              		.loc 1 249 0
 849 005e 012F     		cmp	r7, #1
 850 0060 07D9     		bls	.L74
 851              	.LVL76:
 852              	.LBB148:
 853              	.LBB149:
 854              		.loc 1 250 0
 855 0062 3346     		mov	r3, r6
ARM GAS  C:\cygwin64\tmp\ccX3iSAo.s 			page 16


 856 0064 2246     		mov	r2, r4
 857 0066 2846     		mov	r0, r5
 858 0068 0C21     		movs	r1, #12
 859              	.LBE149:
 860              	.LBE148:
 861              		.loc 1 253 0
 862 006a BDE8F041 		pop	{r4, r5, r6, r7, r8, lr}
 863              		.cfi_remember_state
 864              		.cfi_restore 14
 865              		.cfi_restore 8
 866              		.cfi_restore 7
 867              		.cfi_restore 6
 868              		.cfi_restore 5
 869              		.cfi_restore 4
 870              		.cfi_def_cfa_offset 0
 871              	.LVL77:
 872              	.LBB151:
 873              	.LBB150:
 874              		.loc 1 250 0
 875 006e FFF7FEBF 		b	sdc_lld_send_cmd_short_crc
 876              	.LVL78:
 877              	.L74:
 878              		.cfi_restore_state
 879              	.LBE150:
 880              	.LBE151:
 881              		.loc 1 252 0
 882 0072 2046     		mov	r0, r4
 883              		.loc 1 253 0
 884 0074 BDE8F081 		pop	{r4, r5, r6, r7, r8, pc}
 885              	.LVL79:
 886              	.L80:
 887              		.align	2
 888              	.L79:
 889 0078 FF07C000 		.word	12584959
 890              		.cfi_endproc
 891              	.LFE280:
 892              		.size	sdc_lld_wait_transaction_end, .-sdc_lld_wait_transaction_end
 893              		.section	.text.sdc_lld_error_cleanup,"ax",%progbits
 894              		.align	1
 895              		.syntax unified
 896              		.thumb
 897              		.thumb_func
 898              		.fpu fpv4-sp-d16
 899              		.type	sdc_lld_error_cleanup, %function
 900              	sdc_lld_error_cleanup:
 901              	.LFB282:
 902              		.loc 1 295 0
 903              		.cfi_startproc
 904              		@ args = 0, pretend = 0, frame = 0
 905              		@ frame_needed = 0, uses_anonymous_args = 0
 906              	.LVL80:
 907 0000 2DE9F041 		push	{r4, r5, r6, r7, r8, lr}
 908              		.cfi_def_cfa_offset 24
 909              		.cfi_offset 4, -24
 910              		.cfi_offset 5, -20
 911              		.cfi_offset 6, -16
 912              		.cfi_offset 7, -12
ARM GAS  C:\cygwin64\tmp\ccX3iSAo.s 			page 17


 913              		.cfi_offset 8, -8
 914              		.cfi_offset 14, -4
 915              		.loc 1 298 0
 916 0004 446C     		ldr	r4, [r0, #68]
 917 0006 267A     		ldrb	r6, [r4, #8]	@ zero_extendqisi2
 918 0008 6368     		ldr	r3, [r4, #4]
 919              		.loc 1 295 0
 920 000a 0546     		mov	r5, r0
 921 000c 9046     		mov	r8, r2
 922              		.loc 1 296 0
 923 000e 826C     		ldr	r2, [r0, #72]
 924              	.LVL81:
 925              		.loc 1 298 0
 926 0010 3D20     		movs	r0, #61
 927              	.LVL82:
 928 0012 B040     		lsls	r0, r0, r6
 929              		.loc 1 299 0
 930 0014 2668     		ldr	r6, [r4]
 931              		.loc 1 295 0
 932 0016 0F46     		mov	r7, r1
 933              		.loc 1 296 0
 934 0018 516B     		ldr	r1, [r2, #52]
 935              	.LVL83:
 936              		.loc 1 298 0
 937 001a 1860     		str	r0, [r3]
 938              		.loc 1 299 0
 939 001c 3468     		ldr	r4, [r6]
 940 001e 24F01F04 		bic	r4, r4, #31
 941 0022 3460     		str	r4, [r6]
 942              	.L82:
 943              		.loc 1 299 0 is_stmt 0 discriminator 2
 944 0024 3468     		ldr	r4, [r6]
 945 0026 14F00104 		ands	r4, r4, #1
 946 002a FBD1     		bne	.L82
 947              		.loc 1 299 0 discriminator 3
 948 002c 1860     		str	r0, [r3]
 949              		.loc 1 300 0 is_stmt 1 discriminator 3
 950 002e 0A4B     		ldr	r3, .L85
 951 0030 9363     		str	r3, [r2, #56]
 952              		.loc 1 303 0 discriminator 3
 953 0032 05F13400 		add	r0, r5, #52
 954              		.loc 1 301 0 discriminator 3
 955 0036 D463     		str	r4, [r2, #60]
 956              		.loc 1 302 0 discriminator 3
 957 0038 D462     		str	r4, [r2, #44]
 958              		.loc 1 303 0 discriminator 3
 959 003a FFF7FEFF 		bl	sdc_lld_collect_errors.isra.0
 960              	.LVL84:
 961              		.loc 1 304 0 discriminator 3
 962 003e 012F     		cmp	r7, #1
 963 0040 07D9     		bls	.L81
 964              	.LVL85:
 965              	.LBB154:
 966              	.LBB155:
 967              		.loc 1 305 0
 968 0042 4346     		mov	r3, r8
 969 0044 2246     		mov	r2, r4
ARM GAS  C:\cygwin64\tmp\ccX3iSAo.s 			page 18


 970 0046 2846     		mov	r0, r5
 971 0048 0C21     		movs	r1, #12
 972              	.LVL86:
 973              	.LBE155:
 974              	.LBE154:
 975              		.loc 1 306 0
 976 004a BDE8F041 		pop	{r4, r5, r6, r7, r8, lr}
 977              		.cfi_remember_state
 978              		.cfi_restore 14
 979              		.cfi_restore 8
 980              		.cfi_restore 7
 981              		.cfi_restore 6
 982              		.cfi_restore 5
 983              		.cfi_restore 4
 984              		.cfi_def_cfa_offset 0
 985              	.LVL87:
 986              	.LBB157:
 987              	.LBB156:
 988              		.loc 1 305 0
 989 004e FFF7FEBF 		b	sdc_lld_send_cmd_short_crc
 990              	.LVL88:
 991              	.L81:
 992              		.cfi_restore_state
 993 0052 BDE8F081 		pop	{r4, r5, r6, r7, r8, pc}
 994              	.LVL89:
 995              	.L86:
 996 0056 00BF     		.align	2
 997              	.L85:
 998 0058 FF07C000 		.word	12584959
 999              	.LBE156:
 1000              	.LBE157:
 1001              		.cfi_endproc
 1002              	.LFE282:
 1003              		.size	sdc_lld_error_cleanup, .-sdc_lld_error_cleanup
 1004              		.section	.text.sdc_lld_send_cmd_long_crc,"ax",%progbits
 1005              		.align	1
 1006              		.global	sdc_lld_send_cmd_long_crc
 1007              		.syntax unified
 1008              		.thumb
 1009              		.thumb_func
 1010              		.fpu fpv4-sp-d16
 1011              		.type	sdc_lld_send_cmd_long_crc, %function
 1012              	sdc_lld_send_cmd_long_crc:
 1013              	.LFB294:
 1014              		.loc 1 604 0
 1015              		.cfi_startproc
 1016              		@ args = 0, pretend = 0, frame = 0
 1017              		@ frame_needed = 0, uses_anonymous_args = 0
 1018              	.LVL90:
 1019 0000 10B5     		push	{r4, lr}
 1020              		.cfi_def_cfa_offset 8
 1021              		.cfi_offset 4, -8
 1022              		.cfi_offset 14, -4
 1023              		.loc 1 609 0
 1024 0002 846C     		ldr	r4, [r0, #72]
 1025              		.loc 1 610 0
 1026 0004 41F49861 		orr	r1, r1, #1216
ARM GAS  C:\cygwin64\tmp\ccX3iSAo.s 			page 19


 1027              	.LVL91:
 1028              		.loc 1 609 0
 1029 0008 A260     		str	r2, [r4, #8]
 1030              		.loc 1 610 0
 1031 000a E160     		str	r1, [r4, #12]
 1032              	.LVL92:
 1033              	.L88:
 1034              		.loc 1 612 0 discriminator 1
 1035 000c 616B     		ldr	r1, [r4, #52]
 1036              	.LVL93:
 1037 000e 11F04502 		ands	r2, r1, #69
 1038 0012 FBD0     		beq	.L88
 1039              		.loc 1 615 0
 1040 0014 A263     		str	r2, [r4, #56]
 1041              		.loc 1 617 0
 1042 0016 11F03F02 		ands	r2, r1, #63
 1043 001a 04D0     		beq	.L89
 1044              		.loc 1 618 0
 1045 001c 3430     		adds	r0, r0, #52
 1046              	.LVL94:
 1047 001e FFF7FEFF 		bl	sdc_lld_collect_errors.isra.0
 1048              	.LVL95:
 1049              		.loc 1 619 0
 1050 0022 0120     		movs	r0, #1
 1051              	.LVL96:
 1052 0024 10BD     		pop	{r4, pc}
 1053              	.LVL97:
 1054              	.L89:
 1055              		.loc 1 622 0
 1056 0026 216A     		ldr	r1, [r4, #32]
 1057              	.LVL98:
 1058 0028 1960     		str	r1, [r3]
 1059              	.LVL99:
 1060              		.loc 1 623 0
 1061 002a E169     		ldr	r1, [r4, #28]
 1062 002c 5960     		str	r1, [r3, #4]
 1063              	.LVL100:
 1064              		.loc 1 624 0
 1065 002e A169     		ldr	r1, [r4, #24]
 1066 0030 9960     		str	r1, [r3, #8]
 1067              		.loc 1 625 0
 1068 0032 6169     		ldr	r1, [r4, #20]
 1069 0034 D960     		str	r1, [r3, #12]
 1070              		.loc 1 626 0
 1071 0036 1046     		mov	r0, r2
 1072              	.LVL101:
 1073              		.loc 1 627 0
 1074 0038 10BD     		pop	{r4, pc}
 1075              		.cfi_endproc
 1076              	.LFE294:
 1077              		.size	sdc_lld_send_cmd_long_crc, .-sdc_lld_send_cmd_long_crc
 1078              		.section	.text.sdc_lld_read_special,"ax",%progbits
 1079              		.align	1
 1080              		.global	sdc_lld_read_special
 1081              		.syntax unified
 1082              		.thumb
 1083              		.thumb_func
ARM GAS  C:\cygwin64\tmp\ccX3iSAo.s 			page 20


 1084              		.fpu fpv4-sp-d16
 1085              		.type	sdc_lld_read_special, %function
 1086              	sdc_lld_read_special:
 1087              	.LFB295:
 1088              		.loc 1 646 0
 1089              		.cfi_startproc
 1090              		@ args = 4, pretend = 0, frame = 16
 1091              		@ frame_needed = 0, uses_anonymous_args = 0
 1092              	.LVL102:
 1093 0000 F0B5     		push	{r4, r5, r6, r7, lr}
 1094              		.cfi_def_cfa_offset 20
 1095              		.cfi_offset 4, -20
 1096              		.cfi_offset 5, -16
 1097              		.cfi_offset 6, -12
 1098              		.cfi_offset 7, -8
 1099              		.cfi_offset 14, -4
 1100 0002 85B0     		sub	sp, sp, #20
 1101              		.cfi_def_cfa_offset 40
 1102              		.loc 1 646 0
 1103 0004 0446     		mov	r4, r0
 1104 0006 04A8     		add	r0, sp, #16
 1105              	.LVL103:
 1106 0008 1646     		mov	r6, r2
 1107 000a 40F80C1D 		str	r1, [r0, #-12]!
 1108              		.loc 1 649 0
 1109 000e 0146     		mov	r1, r0
 1110              	.LVL104:
 1111 0010 E06C     		ldr	r0, [r4, #76]
 1112              	.LVL105:
 1113              		.loc 1 646 0
 1114 0012 1D46     		mov	r5, r3
 1115              		.loc 1 649 0
 1116 0014 FFF7FEFF 		bl	bouncebuffer_setup_read
 1117              	.LVL106:
 1118              	.LBB160:
 1119              	.LBB161:
 1120              		.loc 1 93 0
 1121 0018 A36C     		ldr	r3, [r4, #72]
 1122 001a 214A     		ldr	r2, .L96
 1123 001c 5A62     		str	r2, [r3, #36]
 1124              		.loc 1 96 0
 1125 001e 2046     		mov	r0, r4
 1126              	.LBE161:
 1127              	.LBE160:
 1128              		.loc 1 651 0
 1129 0020 019F     		ldr	r7, [sp, #4]
 1130              	.LVL107:
 1131              	.LBB164:
 1132              	.LBB162:
 1133              		.loc 1 96 0
 1134 0022 FFF7FEFF 		bl	_sdc_wait_for_transfer_state
 1135              	.LVL108:
 1136 0026 0028     		cmp	r0, #0
 1137 0028 2DD1     		bne	.L94
 1138              		.loc 1 100 0
 1139 002a 636C     		ldr	r3, [r4, #68]
 1140 002c 1B68     		ldr	r3, [r3]
ARM GAS  C:\cygwin64\tmp\ccX3iSAo.s 			page 21


 1141              		.loc 1 101 0
 1142 002e B208     		lsrs	r2, r6, #2
 1143              		.loc 1 100 0
 1144 0030 DF60     		str	r7, [r3, #12]
 1145              		.loc 1 101 0
 1146 0032 5A60     		str	r2, [r3, #4]
 1147              		.loc 1 102 0
 1148 0034 226C     		ldr	r2, [r4, #64]
 1149 0036 1A60     		str	r2, [r3]
 1150              		.loc 1 103 0
 1151 0038 1A68     		ldr	r2, [r3]
 1152 003a 42F00102 		orr	r2, r2, #1
 1153 003e 1A60     		str	r2, [r3]
 1154              		.loc 1 106 0
 1155 0040 A36C     		ldr	r3, [r4, #72]
 1156 0042 184A     		ldr	r2, .L96+4
 1157 0044 9A63     		str	r2, [r3, #56]
 1158              		.loc 1 107 0
 1159 0046 40F22A32 		movw	r2, #810
 1160 004a DA63     		str	r2, [r3, #60]
 1161              		.loc 1 115 0
 1162 004c 0F22     		movs	r2, #15
 1163              		.loc 1 112 0
 1164 004e 9E62     		str	r6, [r3, #40]
 1165              	.LBE162:
 1166              	.LBE164:
 1167              		.loc 1 654 0
 1168 0050 2946     		mov	r1, r5
 1169              	.LBB165:
 1170              	.LBB163:
 1171              		.loc 1 115 0
 1172 0052 DA62     		str	r2, [r3, #44]
 1173              	.LVL109:
 1174              	.LBE163:
 1175              	.LBE165:
 1176              		.loc 1 654 0
 1177 0054 2046     		mov	r0, r4
 1178 0056 03AB     		add	r3, sp, #12
 1179 0058 0A9A     		ldr	r2, [sp, #40]
 1180 005a FFF7FEFF 		bl	sdc_lld_send_cmd_short_crc
 1181              	.LVL110:
 1182 005e 90B9     		cbnz	r0, .L94
 1183              		.loc 1 655 0
 1184 0060 114B     		ldr	r3, .L96+8
 1185 0062 039A     		ldr	r2, [sp, #12]
 1186 0064 1340     		ands	r3, r3, r2
 1187 0066 73B9     		cbnz	r3, .L94
 1188              		.loc 1 658 0
 1189 0068 03AA     		add	r2, sp, #12
 1190 006a 0121     		movs	r1, #1
 1191 006c 2046     		mov	r0, r4
 1192 006e FFF7FEFF 		bl	sdc_lld_wait_transaction_end
 1193              	.LVL111:
 1194 0072 0546     		mov	r5, r0
 1195 0074 38B9     		cbnz	r0, .L94
 1196              		.loc 1 661 0
 1197 0076 3246     		mov	r2, r6
ARM GAS  C:\cygwin64\tmp\ccX3iSAo.s 			page 22


 1198 0078 0199     		ldr	r1, [sp, #4]
 1199 007a E06C     		ldr	r0, [r4, #76]
 1200 007c FFF7FEFF 		bl	bouncebuffer_finish_read
 1201              	.LVL112:
 1202              	.L95:
 1203              		.loc 1 669 0
 1204 0080 2846     		mov	r0, r5
 1205 0082 05B0     		add	sp, sp, #20
 1206              		.cfi_remember_state
 1207              		.cfi_def_cfa_offset 20
 1208              		@ sp needed
 1209 0084 F0BD     		pop	{r4, r5, r6, r7, pc}
 1210              	.LVL113:
 1211              	.L94:
 1212              		.cfi_restore_state
 1213              	.LDL1:
 1214              		.loc 1 666 0
 1215 0086 0022     		movs	r2, #0
 1216 0088 0199     		ldr	r1, [sp, #4]
 1217 008a E06C     		ldr	r0, [r4, #76]
 1218 008c FFF7FEFF 		bl	bouncebuffer_finish_read
 1219              	.LVL114:
 1220              		.loc 1 667 0
 1221 0090 03AA     		add	r2, sp, #12
 1222 0092 0121     		movs	r1, #1
 1223 0094 2046     		mov	r0, r4
 1224 0096 FFF7FEFF 		bl	sdc_lld_error_cleanup
 1225              	.LVL115:
 1226              		.loc 1 668 0
 1227 009a 0125     		movs	r5, #1
 1228 009c F0E7     		b	.L95
 1229              	.L97:
 1230 009e 00BF     		.align	2
 1231              	.L96:
 1232 00a0 00366E01 		.word	24000000
 1233 00a4 FF07C000 		.word	12584959
 1234 00a8 08E0FFFD 		.word	-33562616
 1235              		.cfi_endproc
 1236              	.LFE295:
 1237              		.size	sdc_lld_read_special, .-sdc_lld_read_special
 1238              		.section	.text.sdc_lld_read_aligned,"ax",%progbits
 1239              		.align	1
 1240              		.global	sdc_lld_read_aligned
 1241              		.syntax unified
 1242              		.thumb
 1243              		.thumb_func
 1244              		.fpu fpv4-sp-d16
 1245              		.type	sdc_lld_read_aligned, %function
 1246              	sdc_lld_read_aligned:
 1247              	.LFB296:
 1248              		.loc 1 686 0
 1249              		.cfi_startproc
 1250              		@ args = 0, pretend = 0, frame = 16
 1251              		@ frame_needed = 0, uses_anonymous_args = 0
 1252              	.LVL116:
 1253 0000 2DE9FF41 		push	{r0, r1, r2, r3, r4, r5, r6, r7, r8, lr}
 1254              		.cfi_def_cfa_offset 40
ARM GAS  C:\cygwin64\tmp\ccX3iSAo.s 			page 23


 1255              		.cfi_offset 4, -24
 1256              		.cfi_offset 5, -20
 1257              		.cfi_offset 6, -16
 1258              		.cfi_offset 7, -12
 1259              		.cfi_offset 8, -8
 1260              		.cfi_offset 14, -4
 1261              		.loc 1 686 0
 1262 0004 1F46     		mov	r7, r3
 1263              		.loc 1 691 0
 1264 0006 836C     		ldr	r3, [r0, #72]
 1265              	.LVL117:
 1266              		.loc 1 686 0
 1267 0008 0192     		str	r2, [sp, #4]
 1268              		.loc 1 691 0
 1269 000a 2A4A     		ldr	r2, .L109
 1270              	.LVL118:
 1271 000c 5A62     		str	r2, [r3, #36]
 1272              		.loc 1 686 0
 1273 000e 0446     		mov	r4, r0
 1274 0010 8846     		mov	r8, r1
 1275              		.loc 1 694 0
 1276 0012 FFF7FEFF 		bl	_sdc_wait_for_transfer_state
 1277              	.LVL119:
 1278 0016 0546     		mov	r5, r0
 1279 0018 0028     		cmp	r0, #0
 1280 001a 46D1     		bne	.L105
 1281              		.loc 1 697 0
 1282 001c 7E02     		lsls	r6, r7, #9
 1283 001e 01A9     		add	r1, sp, #4
 1284 0020 3246     		mov	r2, r6
 1285 0022 E06C     		ldr	r0, [r4, #76]
 1286 0024 FFF7FEFF 		bl	bouncebuffer_setup_read
 1287              	.LVL120:
 1288              		.loc 1 700 0
 1289 0028 636C     		ldr	r3, [r4, #68]
 1290 002a 019A     		ldr	r2, [sp, #4]
 1291 002c 1B68     		ldr	r3, [r3]
 1292 002e DA60     		str	r2, [r3, #12]
 1293              		.loc 1 701 0
 1294 0030 B208     		lsrs	r2, r6, #2
 1295 0032 5A60     		str	r2, [r3, #4]
 1296              		.loc 1 703 0
 1297 0034 226C     		ldr	r2, [r4, #64]
 1298 0036 1A60     		str	r2, [r3]
 1299              		.loc 1 704 0
 1300 0038 1A68     		ldr	r2, [r3]
 1301 003a 42F00102 		orr	r2, r2, #1
 1302 003e 1A60     		str	r2, [r3]
 1303              		.loc 1 707 0
 1304 0040 A36C     		ldr	r3, [r4, #72]
 1305 0042 1D4A     		ldr	r2, .L109+4
 1306 0044 9A63     		str	r2, [r3, #56]
 1307              		.loc 1 708 0
 1308 0046 40F22A32 		movw	r2, #810
 1309 004a DA63     		str	r2, [r3, #60]
 1310              		.loc 1 716 0
 1311 004c 9B22     		movs	r2, #155
ARM GAS  C:\cygwin64\tmp\ccX3iSAo.s 			page 24


 1312              		.loc 1 713 0
 1313 004e 9E62     		str	r6, [r3, #40]
 1314              		.loc 1 716 0
 1315 0050 DA62     		str	r2, [r3, #44]
 1316              	.LVL121:
 1317              	.LBB168:
 1318              	.LBB169:
 1319              		.loc 1 142 0
 1320 0052 236B     		ldr	r3, [r4, #48]
 1321 0054 DB06     		lsls	r3, r3, #27
 1322              		.loc 1 143 0
 1323 0056 58BF     		it	pl
 1324 0058 4FEA4828 		lslpl	r8, r8, #9
 1325              	.LVL122:
 1326              		.loc 1 145 0
 1327 005c 012F     		cmp	r7, #1
 1328              		.loc 1 147 0
 1329 005e 8CBF     		ite	hi
 1330 0060 1221     		movhi	r1, #18
 1331              		.loc 1 153 0
 1332 0062 1121     		movls	r1, #17
 1333              		.loc 1 147 0
 1334 0064 03AB     		add	r3, sp, #12
 1335              	.LVL123:
 1336 0066 4246     		mov	r2, r8
 1337              		.loc 1 153 0
 1338 0068 2046     		mov	r0, r4
 1339 006a FFF7FEFF 		bl	sdc_lld_send_cmd_short_crc
 1340              	.LVL124:
 1341 006e 18B9     		cbnz	r0, .L102
 1342              		.loc 1 154 0
 1343 0070 124B     		ldr	r3, .L109+8
 1344 0072 039A     		ldr	r2, [sp, #12]
 1345 0074 1340     		ands	r3, r3, r2
 1346 0076 5BB1     		cbz	r3, .L103
 1347              	.LVL125:
 1348              	.L102:
 1349              	.LDL2:
 1350              	.LBE169:
 1351              	.LBE168:
 1352              		.loc 1 733 0
 1353 0078 0022     		movs	r2, #0
 1354 007a 0199     		ldr	r1, [sp, #4]
 1355 007c E06C     		ldr	r0, [r4, #76]
 1356 007e FFF7FEFF 		bl	bouncebuffer_finish_read
 1357              	.LVL126:
 1358              		.loc 1 734 0
 1359 0082 03AA     		add	r2, sp, #12
 1360 0084 3946     		mov	r1, r7
 1361 0086 2046     		mov	r0, r4
 1362 0088 FFF7FEFF 		bl	sdc_lld_error_cleanup
 1363              	.LVL127:
 1364              		.loc 1 735 0
 1365 008c 0125     		movs	r5, #1
 1366 008e 0CE0     		b	.L105
 1367              	.LVL128:
 1368              	.L103:
ARM GAS  C:\cygwin64\tmp\ccX3iSAo.s 			page 25


 1369              		.loc 1 725 0
 1370 0090 03AA     		add	r2, sp, #12
 1371 0092 3946     		mov	r1, r7
 1372 0094 2046     		mov	r0, r4
 1373 0096 FFF7FEFF 		bl	sdc_lld_wait_transaction_end
 1374              	.LVL129:
 1375 009a 0546     		mov	r5, r0
 1376 009c 0028     		cmp	r0, #0
 1377 009e EBD1     		bne	.L102
 1378              		.loc 1 728 0
 1379 00a0 3246     		mov	r2, r6
 1380 00a2 0199     		ldr	r1, [sp, #4]
 1381 00a4 E06C     		ldr	r0, [r4, #76]
 1382 00a6 FFF7FEFF 		bl	bouncebuffer_finish_read
 1383              	.LVL130:
 1384              	.L105:
 1385              		.loc 1 736 0
 1386 00aa 2846     		mov	r0, r5
 1387 00ac 04B0     		add	sp, sp, #16
 1388              		.cfi_def_cfa_offset 24
 1389              		@ sp needed
 1390 00ae BDE8F081 		pop	{r4, r5, r6, r7, r8, pc}
 1391              	.LVL131:
 1392              	.L110:
 1393 00b2 00BF     		.align	2
 1394              	.L109:
 1395 00b4 00366E01 		.word	24000000
 1396 00b8 FF07C000 		.word	12584959
 1397 00bc 08E0FFFD 		.word	-33562616
 1398              		.cfi_endproc
 1399              	.LFE296:
 1400              		.size	sdc_lld_read_aligned, .-sdc_lld_read_aligned
 1401              		.section	.text.sdc_lld_write_aligned,"ax",%progbits
 1402              		.align	1
 1403              		.global	sdc_lld_write_aligned
 1404              		.syntax unified
 1405              		.thumb
 1406              		.thumb_func
 1407              		.fpu fpv4-sp-d16
 1408              		.type	sdc_lld_write_aligned, %function
 1409              	sdc_lld_write_aligned:
 1410              	.LFB297:
 1411              		.loc 1 753 0
 1412              		.cfi_startproc
 1413              		@ args = 0, pretend = 0, frame = 16
 1414              		@ frame_needed = 0, uses_anonymous_args = 0
 1415              	.LVL132:
 1416 0000 F0B5     		push	{r4, r5, r6, r7, lr}
 1417              		.cfi_def_cfa_offset 20
 1418              		.cfi_offset 4, -20
 1419              		.cfi_offset 5, -16
 1420              		.cfi_offset 6, -12
 1421              		.cfi_offset 7, -8
 1422              		.cfi_offset 14, -4
 1423 0002 85B0     		sub	sp, sp, #20
 1424              		.cfi_def_cfa_offset 40
 1425              		.loc 1 753 0
ARM GAS  C:\cygwin64\tmp\ccX3iSAo.s 			page 26


 1426 0004 1E46     		mov	r6, r3
 1427              		.loc 1 758 0
 1428 0006 836C     		ldr	r3, [r0, #72]
 1429              	.LVL133:
 1430              		.loc 1 753 0
 1431 0008 0192     		str	r2, [sp, #4]
 1432              		.loc 1 758 0
 1433 000a 294A     		ldr	r2, .L122
 1434              	.LVL134:
 1435 000c 5A62     		str	r2, [r3, #36]
 1436              		.loc 1 753 0
 1437 000e 0446     		mov	r4, r0
 1438 0010 0F46     		mov	r7, r1
 1439              		.loc 1 761 0
 1440 0012 FFF7FEFF 		bl	_sdc_wait_for_transfer_state
 1441              	.LVL135:
 1442 0016 0546     		mov	r5, r0
 1443 0018 0028     		cmp	r0, #0
 1444 001a 46D1     		bne	.L118
 1445              		.loc 1 764 0
 1446 001c 7502     		lsls	r5, r6, #9
 1447 001e 01A9     		add	r1, sp, #4
 1448 0020 2A46     		mov	r2, r5
 1449 0022 E06C     		ldr	r0, [r4, #76]
 1450 0024 FFF7FEFF 		bl	bouncebuffer_setup_write
 1451              	.LVL136:
 1452              		.loc 1 767 0
 1453 0028 636C     		ldr	r3, [r4, #68]
 1454 002a 019A     		ldr	r2, [sp, #4]
 1455 002c 1B68     		ldr	r3, [r3]
 1456 002e DA60     		str	r2, [r3, #12]
 1457              		.loc 1 768 0
 1458 0030 AA08     		lsrs	r2, r5, #2
 1459 0032 5A60     		str	r2, [r3, #4]
 1460              		.loc 1 770 0
 1461 0034 226C     		ldr	r2, [r4, #64]
 1462 0036 42F04002 		orr	r2, r2, #64
 1463 003a 1A60     		str	r2, [r3]
 1464              		.loc 1 771 0
 1465 003c 1A68     		ldr	r2, [r3]
 1466 003e 42F00102 		orr	r2, r2, #1
 1467 0042 1A60     		str	r2, [r3]
 1468              		.loc 1 774 0
 1469 0044 A36C     		ldr	r3, [r4, #72]
 1470 0046 1B4A     		ldr	r2, .L122+4
 1471 0048 9A63     		str	r2, [r3, #56]
 1472              		.loc 1 775 0
 1473 004a 40F21A32 		movw	r2, #794
 1474 004e DA63     		str	r2, [r3, #60]
 1475              		.loc 1 780 0
 1476 0050 9D62     		str	r5, [r3, #40]
 1477              	.LVL137:
 1478              	.LBB172:
 1479              	.LBB173:
 1480              		.loc 1 180 0
 1481 0052 236B     		ldr	r3, [r4, #48]
 1482 0054 DB06     		lsls	r3, r3, #27
ARM GAS  C:\cygwin64\tmp\ccX3iSAo.s 			page 27


 1483              		.loc 1 181 0
 1484 0056 58BF     		it	pl
 1485 0058 7F02     		lslpl	r7, r7, #9
 1486              	.LVL138:
 1487              		.loc 1 183 0
 1488 005a 012E     		cmp	r6, #1
 1489              		.loc 1 185 0
 1490 005c 8CBF     		ite	hi
 1491 005e 1921     		movhi	r1, #25
 1492              		.loc 1 191 0
 1493 0060 1821     		movls	r1, #24
 1494              		.loc 1 185 0
 1495 0062 03AB     		add	r3, sp, #12
 1496              	.LVL139:
 1497 0064 3A46     		mov	r2, r7
 1498              		.loc 1 191 0
 1499 0066 2046     		mov	r0, r4
 1500 0068 FFF7FEFF 		bl	sdc_lld_send_cmd_short_crc
 1501              	.LVL140:
 1502 006c 18B9     		cbnz	r0, .L115
 1503              		.loc 1 192 0
 1504 006e 124B     		ldr	r3, .L122+8
 1505 0070 039A     		ldr	r2, [sp, #12]
 1506 0072 1340     		ands	r3, r3, r2
 1507 0074 53B1     		cbz	r3, .L116
 1508              	.LVL141:
 1509              	.L115:
 1510              	.LDL3:
 1511              	.LBE173:
 1512              	.LBE172:
 1513              		.loc 1 800 0
 1514 0076 0199     		ldr	r1, [sp, #4]
 1515 0078 E06C     		ldr	r0, [r4, #76]
 1516 007a FFF7FEFF 		bl	bouncebuffer_finish_write
 1517              	.LVL142:
 1518              		.loc 1 801 0
 1519 007e 03AA     		add	r2, sp, #12
 1520 0080 3146     		mov	r1, r6
 1521 0082 2046     		mov	r0, r4
 1522 0084 FFF7FEFF 		bl	sdc_lld_error_cleanup
 1523              	.LVL143:
 1524              		.loc 1 802 0
 1525 0088 0125     		movs	r5, #1
 1526 008a 0EE0     		b	.L118
 1527              	.LVL144:
 1528              	.L116:
 1529              		.loc 1 787 0
 1530 008c A36C     		ldr	r3, [r4, #72]
 1531 008e 9922     		movs	r2, #153
 1532 0090 DA62     		str	r2, [r3, #44]
 1533              		.loc 1 792 0
 1534 0092 3146     		mov	r1, r6
 1535 0094 03AA     		add	r2, sp, #12
 1536 0096 2046     		mov	r0, r4
 1537 0098 FFF7FEFF 		bl	sdc_lld_wait_transaction_end
 1538              	.LVL145:
 1539 009c 0546     		mov	r5, r0
ARM GAS  C:\cygwin64\tmp\ccX3iSAo.s 			page 28


 1540 009e 0028     		cmp	r0, #0
 1541 00a0 E9D1     		bne	.L115
 1542              		.loc 1 795 0
 1543 00a2 0199     		ldr	r1, [sp, #4]
 1544 00a4 E06C     		ldr	r0, [r4, #76]
 1545 00a6 FFF7FEFF 		bl	bouncebuffer_finish_write
 1546              	.LVL146:
 1547              	.L118:
 1548              		.loc 1 803 0
 1549 00aa 2846     		mov	r0, r5
 1550 00ac 05B0     		add	sp, sp, #20
 1551              		.cfi_def_cfa_offset 20
 1552              		@ sp needed
 1553 00ae F0BD     		pop	{r4, r5, r6, r7, pc}
 1554              	.LVL147:
 1555              	.L123:
 1556              		.align	2
 1557              	.L122:
 1558 00b0 00366E01 		.word	24000000
 1559 00b4 FF07C000 		.word	12584959
 1560 00b8 08E0FFFD 		.word	-33562616
 1561              		.cfi_endproc
 1562              	.LFE297:
 1563              		.size	sdc_lld_write_aligned, .-sdc_lld_write_aligned
 1564              		.section	.text.sdc_lld_read,"ax",%progbits
 1565              		.align	1
 1566              		.global	sdc_lld_read
 1567              		.syntax unified
 1568              		.thumb
 1569              		.thumb_func
 1570              		.fpu fpv4-sp-d16
 1571              		.type	sdc_lld_read, %function
 1572              	sdc_lld_read:
 1573              	.LFB298:
 1574              		.loc 1 820 0
 1575              		.cfi_startproc
 1576              		@ args = 0, pretend = 0, frame = 0
 1577              		@ frame_needed = 0, uses_anonymous_args = 0
 1578              	.LVL148:
 1579              		.loc 1 823 0
 1580 0000 12F0030F 		tst	r2, #3
 1581              		.loc 1 820 0
 1582 0004 2DE9F041 		push	{r4, r5, r6, r7, r8, lr}
 1583              		.cfi_def_cfa_offset 24
 1584              		.cfi_offset 4, -24
 1585              		.cfi_offset 5, -20
 1586              		.cfi_offset 6, -16
 1587              		.cfi_offset 7, -12
 1588              		.cfi_offset 8, -8
 1589              		.cfi_offset 14, -4
 1590              		.loc 1 820 0
 1591 0008 0746     		mov	r7, r0
 1592 000a 0C46     		mov	r4, r1
 1593 000c 1E46     		mov	r6, r3
 1594              		.loc 1 823 0
 1595 000e 1BD0     		beq	.L125
 1596 0010 C1EBC153 		rsb	r3, r1, r1, lsl #23
ARM GAS  C:\cygwin64\tmp\ccX3iSAo.s 			page 29


 1597              	.LVL149:
 1598              	.LBB174:
 1599              		.loc 1 826 0
 1600 0014 DFF83C80 		ldr	r8, .L129
 1601 0018 0E44     		add	r6, r6, r1
 1602              	.LVL150:
 1603 001a 02EB4325 		add	r5, r2, r3, lsl #9
 1604              	.LVL151:
 1605              	.L126:
 1606              		.loc 1 825 0 discriminator 1
 1607 001e B442     		cmp	r4, r6
 1608 0020 02D1     		bne	.L128
 1609              		.loc 1 832 0
 1610 0022 0020     		movs	r0, #0
 1611 0024 BDE8F081 		pop	{r4, r5, r6, r7, r8, pc}
 1612              	.LVL152:
 1613              	.L128:
 1614              		.loc 1 826 0
 1615 0028 0123     		movs	r3, #1
 1616 002a 0A4A     		ldr	r2, .L129
 1617 002c 2146     		mov	r1, r4
 1618 002e 3846     		mov	r0, r7
 1619 0030 FFF7FEFF 		bl	sdc_lld_read_aligned
 1620              	.LVL153:
 1621 0034 60B9     		cbnz	r0, .L127
 1622              		.loc 1 828 0 discriminator 2
 1623 0036 05EB4420 		add	r0, r5, r4, lsl #9
 1624 003a 4FF40072 		mov	r2, #512
 1625 003e 4146     		mov	r1, r8
 1626 0040 FFF7FEFF 		bl	memcpy
 1627              	.LVL154:
 1628              		.loc 1 830 0 discriminator 2
 1629 0044 0134     		adds	r4, r4, #1
 1630              	.LVL155:
 1631 0046 EAE7     		b	.L126
 1632              	.LVL156:
 1633              	.L125:
 1634              	.LBE174:
 1635              		.loc 1 838 0
 1636 0048 BDE8F041 		pop	{r4, r5, r6, r7, r8, lr}
 1637              		.cfi_remember_state
 1638              		.cfi_restore 14
 1639              		.cfi_restore 8
 1640              		.cfi_restore 7
 1641              		.cfi_restore 6
 1642              		.cfi_restore 5
 1643              		.cfi_restore 4
 1644              		.cfi_def_cfa_offset 0
 1645              		.loc 1 837 0
 1646 004c FFF7FEBF 		b	sdc_lld_read_aligned
 1647              	.LVL157:
 1648              	.L127:
 1649              		.cfi_restore_state
 1650              		.loc 1 838 0
 1651 0050 BDE8F081 		pop	{r4, r5, r6, r7, r8, pc}
 1652              	.LVL158:
 1653              	.L130:
ARM GAS  C:\cygwin64\tmp\ccX3iSAo.s 			page 30


 1654              		.align	2
 1655              	.L129:
 1656 0054 00000000 		.word	.LANCHOR2
 1657              		.cfi_endproc
 1658              	.LFE298:
 1659              		.size	sdc_lld_read, .-sdc_lld_read
 1660              		.section	.text.sdc_lld_write,"ax",%progbits
 1661              		.align	1
 1662              		.global	sdc_lld_write
 1663              		.syntax unified
 1664              		.thumb
 1665              		.thumb_func
 1666              		.fpu fpv4-sp-d16
 1667              		.type	sdc_lld_write, %function
 1668              	sdc_lld_write:
 1669              	.LFB299:
 1670              		.loc 1 855 0
 1671              		.cfi_startproc
 1672              		@ args = 0, pretend = 0, frame = 0
 1673              		@ frame_needed = 0, uses_anonymous_args = 0
 1674              	.LVL159:
 1675 0000 2DE9F041 		push	{r4, r5, r6, r7, r8, lr}
 1676              		.cfi_def_cfa_offset 24
 1677              		.cfi_offset 4, -24
 1678              		.cfi_offset 5, -20
 1679              		.cfi_offset 6, -16
 1680              		.cfi_offset 7, -12
 1681              		.cfi_offset 8, -8
 1682              		.cfi_offset 14, -4
 1683              		.loc 1 858 0
 1684 0004 9707     		lsls	r7, r2, #30
 1685              		.loc 1 855 0
 1686 0006 8046     		mov	r8, r0
 1687 0008 0C46     		mov	r4, r1
 1688 000a 1E46     		mov	r6, r3
 1689              		.loc 1 858 0
 1690 000c 1AD0     		beq	.L132
 1691 000e C1EBC153 		rsb	r3, r1, r1, lsl #23
 1692              	.LVL160:
 1693              	.LBB175:
 1694              		.loc 1 861 0
 1695 0012 0F4F     		ldr	r7, .L136
 1696 0014 0E44     		add	r6, r6, r1
 1697              	.LVL161:
 1698 0016 02EB4325 		add	r5, r2, r3, lsl #9
 1699              	.LVL162:
 1700              	.L133:
 1701              		.loc 1 860 0 discriminator 1
 1702 001a B442     		cmp	r4, r6
 1703 001c 02D1     		bne	.L135
 1704              		.loc 1 867 0
 1705 001e 0020     		movs	r0, #0
 1706 0020 BDE8F081 		pop	{r4, r5, r6, r7, r8, pc}
 1707              	.LVL163:
 1708              	.L135:
 1709              		.loc 1 861 0
 1710 0024 4FF40072 		mov	r2, #512
ARM GAS  C:\cygwin64\tmp\ccX3iSAo.s 			page 31


 1711 0028 05EB4421 		add	r1, r5, r4, lsl #9
 1712 002c 3846     		mov	r0, r7
 1713 002e FFF7FEFF 		bl	memcpy
 1714              	.LVL164:
 1715              		.loc 1 863 0
 1716 0032 0123     		movs	r3, #1
 1717 0034 3A46     		mov	r2, r7
 1718 0036 2146     		mov	r1, r4
 1719 0038 4046     		mov	r0, r8
 1720 003a FFF7FEFF 		bl	sdc_lld_write_aligned
 1721              	.LVL165:
 1722 003e 28B9     		cbnz	r0, .L134
 1723              		.loc 1 865 0 discriminator 2
 1724 0040 0134     		adds	r4, r4, #1
 1725              	.LVL166:
 1726 0042 EAE7     		b	.L133
 1727              	.LVL167:
 1728              	.L132:
 1729              	.LBE175:
 1730              		.loc 1 873 0
 1731 0044 BDE8F041 		pop	{r4, r5, r6, r7, r8, lr}
 1732              		.cfi_remember_state
 1733              		.cfi_restore 14
 1734              		.cfi_restore 8
 1735              		.cfi_restore 7
 1736              		.cfi_restore 6
 1737              		.cfi_restore 5
 1738              		.cfi_restore 4
 1739              		.cfi_def_cfa_offset 0
 1740              		.loc 1 872 0
 1741 0048 FFF7FEBF 		b	sdc_lld_write_aligned
 1742              	.LVL168:
 1743              	.L134:
 1744              		.cfi_restore_state
 1745              		.loc 1 873 0
 1746 004c BDE8F081 		pop	{r4, r5, r6, r7, r8, pc}
 1747              	.LVL169:
 1748              	.L137:
 1749              		.align	2
 1750              	.L136:
 1751 0050 00000000 		.word	.LANCHOR2
 1752              		.cfi_endproc
 1753              	.LFE299:
 1754              		.size	sdc_lld_write, .-sdc_lld_write
 1755              		.section	.text.sdc_lld_sync,"ax",%progbits
 1756              		.align	1
 1757              		.global	sdc_lld_sync
 1758              		.syntax unified
 1759              		.thumb
 1760              		.thumb_func
 1761              		.fpu fpv4-sp-d16
 1762              		.type	sdc_lld_sync, %function
 1763              	sdc_lld_sync:
 1764              	.LFB300:
 1765              		.loc 1 886 0
 1766              		.cfi_startproc
 1767              		@ args = 0, pretend = 0, frame = 0
ARM GAS  C:\cygwin64\tmp\ccX3iSAo.s 			page 32


 1768              		@ frame_needed = 0, uses_anonymous_args = 0
 1769              		@ link register save eliminated.
 1770              	.LVL170:
 1771              		.loc 1 891 0
 1772 0000 0020     		movs	r0, #0
 1773              	.LVL171:
 1774 0002 7047     		bx	lr
 1775              		.cfi_endproc
 1776              	.LFE300:
 1777              		.size	sdc_lld_sync, .-sdc_lld_sync
 1778              		.global	SDCD1
 1779              		.section	.bss.SDCD1,"aw",%nobits
 1780              		.align	2
 1781              		.set	.LANCHOR0,. + 0
 1782              		.type	SDCD1, %object
 1783              		.size	SDCD1, 80
 1784              	SDCD1:
 1785 0000 00000000 		.space	80
 1785      00000000 
 1785      00000000 
 1785      00000000 
 1785      00000000 
 1786              		.section	.bss.u,"aw",%nobits
 1787              		.align	2
 1788              		.set	.LANCHOR2,. + 0
 1789              		.type	u, %object
 1790              		.size	u, 512
 1791              	u:
 1792 0000 00000000 		.space	512
 1792      00000000 
 1792      00000000 
 1792      00000000 
 1792      00000000 
 1793              		.section	.rodata.sdc_default_cfg,"a",%progbits
 1794              		.align	2
 1795              		.set	.LANCHOR1,. + 0
 1796              		.type	sdc_default_cfg, %object
 1797              		.size	sdc_default_cfg, 8
 1798              	sdc_default_cfg:
 1799 0000 00000000 		.word	0
 1800 0004 01       		.byte	1
 1801 0005 00       		.byte	0
 1802 0006 0000     		.space	2
 1803              		.text
 1804              	.Letext0:
 1805              		.file 5 "c:\\program files (x86)\\gnu tools arm embedded\\6 2017-q2-update\\lib\\gcc\\arm-none-eab
 1806              		.file 6 "c:\\program files (x86)\\gnu tools arm embedded\\6 2017-q2-update\\arm-none-eabi\\include
 1807              		.file 7 "c:\\program files (x86)\\gnu tools arm embedded\\6 2017-q2-update\\arm-none-eabi\\include
 1808              		.file 8 "c:\\program files (x86)\\gnu tools arm embedded\\6 2017-q2-update\\arm-none-eabi\\include
 1809              		.file 9 "c:\\program files (x86)\\gnu tools arm embedded\\6 2017-q2-update\\arm-none-eabi\\include
 1810              		.file 10 "c:\\program files (x86)\\gnu tools arm embedded\\6 2017-q2-update\\arm-none-eabi\\includ
 1811              		.file 11 "../../modules/ChibiOS/os/common/ports/ARMCMx/compilers/GCC/chtypes.h"
 1812              		.file 12 "../../modules/ChibiOS/os/rt/include/chsystypes.h"
 1813              		.file 13 "../../modules/ChibiOS/os/rt/include/chschd.h"
 1814              		.file 14 "../../modules/ChibiOS/os/common/ext/CMSIS/include/core_cm4.h"
 1815              		.file 15 "../../modules/ChibiOS/os/common/ext/CMSIS/ST/STM32F4xx/system_stm32f4xx.h"
 1816              		.file 16 "../../modules/ChibiOS/os/common/ext/CMSIS/ST/STM32F4xx/stm32f427xx.h"
ARM GAS  C:\cygwin64\tmp\ccX3iSAo.s 			page 33


 1817              		.file 17 "../../modules/ChibiOS/os/common/ports/ARMCMx/chcore.h"
 1818              		.file 18 "../../modules/ChibiOS/os/common/ports/ARMCMx/chcore_v7m.h"
 1819              		.file 19 "../../modules/ChibiOS/os/hal/ports/STM32/LLD/TIMv1/stm32_tim.h"
 1820              		.file 20 "../../modules/ChibiOS/os/rt/include/chtm.h"
 1821              		.file 21 "../../modules/ChibiOS/os/rt/include/chstats.h"
 1822              		.file 22 "../../modules/ChibiOS/os/rt/include/chsem.h"
 1823              		.file 23 "../../modules/ChibiOS/os/rt/include/chmtx.h"
 1824              		.file 24 "../../modules/ChibiOS/os/rt/include/chregistry.h"
 1825              		.file 25 "../../modules/ChibiOS/os/rt/include/chevents.h"
 1826              		.file 26 "../../modules/ChibiOS/os/hal/ports/STM32/LLD/DMAv2/stm32_dma.h"
 1827              		.file 27 "../../modules/ChibiOS/os/hal/include/hal_ioblock.h"
 1828              		.file 28 "../../modules/ChibiOS/os/hal/include/hal_queues.h"
 1829              		.file 29 "../../modules/ChibiOS/os/hal/ports/STM32/LLD/GPIOv2/hal_pal_lld.h"
 1830              		.file 30 "../../modules/ChibiOS/os/hal/include/hal_adc.h"
 1831              		.file 31 "../../modules/ChibiOS/os/hal/ports/STM32/LLD/ADCv2/hal_adc_lld.h"
 1832              		.file 32 "../../modules/ChibiOS/os/hal/include/hal_ext.h"
 1833              		.file 33 "../../modules/ChibiOS/os/hal/ports/STM32/LLD/EXTIv1/hal_ext_lld.h"
 1834              		.file 34 "../../modules/ChibiOS/os/hal/include/hal_i2c.h"
 1835              		.file 35 "../../modules/ChibiOS/os/hal/ports/STM32/LLD/I2Cv1/hal_i2c_lld.h"
 1836              		.file 36 "../../modules/ChibiOS/os/hal/include/hal_pwm.h"
 1837              		.file 37 "../../modules/ChibiOS/os/hal/ports/STM32/LLD/TIMv1/hal_pwm_lld.h"
 1838              		.file 38 "../../modules/ChibiOS/os/hal/include/hal_serial.h"
 1839              		.file 39 "../../modules/ChibiOS/os/hal/ports/STM32/LLD/USARTv1/hal_serial_lld.h"
 1840              		.file 40 "../../modules/ChibiOS/os/hal/include/hal_sdc.h"
 1841              		.file 41 "../../modules/ChibiOS/os/hal/ports/STM32/LLD/SDIOv1/hal_sdc_lld.h"
 1842              		.file 42 "../../libraries/AP_HAL_ChibiOS/hwdef/common/bouncebuffer.h"
 1843              		.file 43 "../../modules/ChibiOS/os/hal/include/hal_spi.h"
 1844              		.file 44 "../../modules/ChibiOS/os/hal/ports/STM32/LLD/SPIv1/hal_spi_lld.h"
 1845              		.file 45 "../../modules/ChibiOS/os/hal/include/hal_usb.h"
 1846              		.file 46 "../../modules/ChibiOS/os/hal/ports/STM32/LLD/OTGv1/hal_usb_lld.h"
 1847              		.file 47 "../../modules/ChibiOS/os/hal/ports/STM32/LLD/OTGv1/stm32_otg.h"
 1848              		.file 48 "../../modules/ChibiOS/os/rt/include/chthreads.h"
 1849              		.file 49 "../../modules/ChibiOS/os/hal/ports/common/ARMCMx/nvic.h"