ARM GAS  C:\cygwin64\tmp\ccNGOLY4.s 			page 1


   1              		.cpu cortex-m4
   2              		.eabi_attribute 27, 1
   3              		.eabi_attribute 28, 1
   4              		.eabi_attribute 20, 1
   5              		.eabi_attribute 21, 1
   6              		.eabi_attribute 23, 3
   7              		.eabi_attribute 24, 1
   8              		.eabi_attribute 25, 1
   9              		.eabi_attribute 26, 1
  10              		.eabi_attribute 30, 4
  11              		.eabi_attribute 34, 1
  12              		.eabi_attribute 18, 4
  13              		.file	"hal_pal.c"
  14              		.text
  15              	.Ltext0:
  16              		.cfi_sections	.debug_frame
  17              		.section	.text.palReadBus,"ax",%progbits
  18              		.align	1
  19              		.global	palReadBus
  20              		.syntax unified
  21              		.thumb
  22              		.thumb_func
  23              		.fpu fpv4-sp-d16
  24              		.type	palReadBus, %function
  25              	palReadBus:
  26              	.LFB277:
  27              		.file 1 "../../modules/ChibiOS/os/hal/src/hal_pal.c"
  28              		.loc 1 65 0
  29              		.cfi_startproc
  30              		@ args = 0, pretend = 0, frame = 0
  31              		@ frame_needed = 0, uses_anonymous_args = 0
  32              		@ link register save eliminated.
  33              	.LVL0:
  34              		.loc 1 69 0
  35 0000 0368     		ldr	r3, [r0]
  36 0002 8268     		ldr	r2, [r0, #8]
  37 0004 1B69     		ldr	r3, [r3, #16]
  38 0006 4068     		ldr	r0, [r0, #4]
  39              	.LVL1:
  40 0008 D340     		lsrs	r3, r3, r2
  41              		.loc 1 70 0
  42 000a 1840     		ands	r0, r0, r3
  43 000c 7047     		bx	lr
  44              		.cfi_endproc
  45              	.LFE277:
  46              		.size	palReadBus, .-palReadBus
  47              		.section	.text.palWriteBus,"ax",%progbits
  48              		.align	1
  49              		.global	palWriteBus
  50              		.syntax unified
  51              		.thumb
  52              		.thumb_func
  53              		.fpu fpv4-sp-d16
  54              		.type	palWriteBus, %function
  55              	palWriteBus:
  56              	.LFB278:
  57              		.loc 1 90 0
ARM GAS  C:\cygwin64\tmp\ccNGOLY4.s 			page 2


  58              		.cfi_startproc
  59              		@ args = 0, pretend = 0, frame = 0
  60              		@ frame_needed = 0, uses_anonymous_args = 0
  61              	.LVL2:
  62 0000 30B5     		push	{r4, r5, lr}
  63              		.cfi_def_cfa_offset 12
  64              		.cfi_offset 4, -12
  65              		.cfi_offset 5, -8
  66              		.cfi_offset 14, -4
  67              		.loc 1 94 0
  68 0002 8268     		ldr	r2, [r0, #8]
  69 0004 4468     		ldr	r4, [r0, #4]
  70 0006 0568     		ldr	r5, [r0]
  71 0008 24EA0103 		bic	r3, r4, r1
  72 000c 02F11000 		add	r0, r2, #16
  73              	.LVL3:
  74 0010 2140     		ands	r1, r1, r4
  75              	.LVL4:
  76 0012 8340     		lsls	r3, r3, r0
  77 0014 9140     		lsls	r1, r1, r2
  78 0016 1943     		orrs	r1, r1, r3
  79 0018 A961     		str	r1, [r5, #24]
  80 001a 30BD     		pop	{r4, r5, pc}
  81              		.cfi_endproc
  82              	.LFE278:
  83              		.size	palWriteBus, .-palWriteBus
  84              		.section	.text.palSetBusMode,"ax",%progbits
  85              		.align	1
  86              		.global	palSetBusMode
  87              		.syntax unified
  88              		.thumb
  89              		.thumb_func
  90              		.fpu fpv4-sp-d16
  91              		.type	palSetBusMode, %function
  92              	palSetBusMode:
  93              	.LFB279:
  94              		.loc 1 113 0
  95              		.cfi_startproc
  96              		@ args = 0, pretend = 0, frame = 0
  97              		@ frame_needed = 0, uses_anonymous_args = 0
  98              		@ link register save eliminated.
  99              	.LVL5:
 100 0000 10B4     		push	{r4}
 101              		.cfi_def_cfa_offset 4
 102              		.cfi_offset 4, -4
 103              		.loc 1 117 0
 104 0002 8368     		ldr	r3, [r0, #8]
 105 0004 4468     		ldr	r4, [r0, #4]
 106 0006 0068     		ldr	r0, [r0]
 107              	.LVL6:
 108 0008 0A46     		mov	r2, r1
 109 000a 04FA03F1 		lsl	r1, r4, r3
 110              	.LVL7:
 111              		.loc 1 118 0
 112 000e 5DF8044B 		ldr	r4, [sp], #4
 113              		.cfi_restore 4
 114              		.cfi_def_cfa_offset 0
ARM GAS  C:\cygwin64\tmp\ccNGOLY4.s 			page 3


 115              		.loc 1 117 0
 116 0012 FFF7FEBF 		b	_pal_lld_setgroupmode
 117              	.LVL8:
 118              		.cfi_endproc
 119              	.LFE279:
 120              		.size	palSetBusMode, .-palSetBusMode
 121              		.text
 122              	.Letext0:
 123              		.file 2 "c:\\program files (x86)\\gnu tools arm embedded\\6 2017-q2-update\\lib\\gcc\\arm-none-eab
 124              		.file 3 "c:\\program files (x86)\\gnu tools arm embedded\\6 2017-q2-update\\arm-none-eabi\\include
 125              		.file 4 "c:\\program files (x86)\\gnu tools arm embedded\\6 2017-q2-update\\arm-none-eabi\\include
 126              		.file 5 "c:\\program files (x86)\\gnu tools arm embedded\\6 2017-q2-update\\arm-none-eabi\\include
 127              		.file 6 "../../modules/ChibiOS/os/common/ports/ARMCMx/compilers/GCC/chtypes.h"
 128              		.file 7 "../../modules/ChibiOS/os/rt/include/chsystypes.h"
 129              		.file 8 "../../modules/ChibiOS/os/rt/include/chschd.h"
 130              		.file 9 "../../modules/ChibiOS/os/common/ext/CMSIS/include/core_cm4.h"
 131              		.file 10 "../../modules/ChibiOS/os/common/ext/CMSIS/ST/STM32F4xx/system_stm32f4xx.h"
 132              		.file 11 "../../modules/ChibiOS/os/common/ext/CMSIS/ST/STM32F4xx/stm32f427xx.h"
 133              		.file 12 "../../modules/ChibiOS/os/common/ports/ARMCMx/chcore.h"
 134              		.file 13 "../../modules/ChibiOS/os/common/ports/ARMCMx/chcore_v7m.h"
 135              		.file 14 "../../modules/ChibiOS/os/hal/ports/STM32/LLD/TIMv1/stm32_tim.h"
 136              		.file 15 "../../modules/ChibiOS/os/rt/include/chtm.h"
 137              		.file 16 "../../modules/ChibiOS/os/rt/include/chstats.h"
 138              		.file 17 "../../modules/ChibiOS/os/rt/include/chsem.h"
 139              		.file 18 "../../modules/ChibiOS/os/rt/include/chmtx.h"
 140              		.file 19 "../../modules/ChibiOS/os/rt/include/chsys.h"
 141              		.file 20 "../../modules/ChibiOS/os/rt/include/chregistry.h"
 142              		.file 21 "../../modules/ChibiOS/os/rt/include/chevents.h"
 143              		.file 22 "../../modules/ChibiOS/os/hal/ports/STM32/LLD/DMAv2/stm32_dma.h"
 144              		.file 23 "../../modules/ChibiOS/os/hal/include/hal_ioblock.h"
 145              		.file 24 "../../modules/ChibiOS/os/hal/include/hal_queues.h"
 146              		.file 25 "../../modules/ChibiOS/os/hal/ports/STM32/LLD/GPIOv2/hal_pal_lld.h"
 147              		.file 26 "../../modules/ChibiOS/os/hal/include/hal_pal.h"
 148              		.file 27 "../../modules/ChibiOS/os/hal/include/hal_adc.h"
 149              		.file 28 "../../modules/ChibiOS/os/hal/ports/STM32/LLD/ADCv2/hal_adc_lld.h"
 150              		.file 29 "../../modules/ChibiOS/os/hal/include/hal_ext.h"
 151              		.file 30 "../../modules/ChibiOS/os/hal/ports/STM32/LLD/EXTIv1/hal_ext_lld.h"
 152              		.file 31 "../../modules/ChibiOS/os/hal/include/hal_i2c.h"
 153              		.file 32 "../../modules/ChibiOS/os/hal/ports/STM32/LLD/I2Cv1/hal_i2c_lld.h"
 154              		.file 33 "../../modules/ChibiOS/os/hal/include/hal_pwm.h"
 155              		.file 34 "../../modules/ChibiOS/os/hal/ports/STM32/LLD/TIMv1/hal_pwm_lld.h"
 156              		.file 35 "../../modules/ChibiOS/os/hal/include/hal_serial.h"
 157              		.file 36 "../../modules/ChibiOS/os/hal/ports/STM32/LLD/USARTv1/hal_serial_lld.h"
 158              		.file 37 "../../modules/ChibiOS/os/hal/include/hal_sdc.h"
 159              		.file 38 "../../modules/ChibiOS/os/hal/ports/STM32/LLD/SDIOv1/hal_sdc_lld.h"
 160              		.file 39 "../../modules/ChibiOS/os/hal/include/hal_spi.h"
 161              		.file 40 "../../modules/ChibiOS/os/hal/ports/STM32/LLD/SPIv1/hal_spi_lld.h"
 162              		.file 41 "../../modules/ChibiOS/os/hal/include/hal_usb.h"
 163              		.file 42 "../../modules/ChibiOS/os/hal/ports/STM32/LLD/OTGv1/hal_usb_lld.h"
 164              		.file 43 "../../modules/ChibiOS/os/hal/ports/STM32/LLD/OTGv1/stm32_otg.h"