ARM GAS  C:\cygwin64\tmp\ccRGO8vd.s 			page 1


   1              		.cpu cortex-m4
   2              		.eabi_attribute 27, 1
   3              		.eabi_attribute 28, 1
   4              		.eabi_attribute 20, 1
   5              		.eabi_attribute 21, 1
   6              		.eabi_attribute 23, 3
   7              		.eabi_attribute 24, 1
   8              		.eabi_attribute 25, 1
   9              		.eabi_attribute 26, 1
  10              		.eabi_attribute 30, 4
  11              		.eabi_attribute 34, 1
  12              		.eabi_attribute 18, 4
  13              		.file	"hal_serial_usb.c"
  14              		.text
  15              	.Ltext0:
  16              		.cfi_sections	.debug_frame
  17              		.section	.text.obnotify,"ax",%progbits
  18              		.align	1
  19              		.syntax unified
  20              		.thumb
  21              		.thumb_func
  22              		.fpu fpv4-sp-d16
  23              		.type	obnotify, %function
  24              	obnotify:
  25              	.LFB287:
  26              		.file 1 "../../modules/ChibiOS/os/hal/src/hal_serial_usb.c"
  27              		.loc 1 147 0
  28              		.cfi_startproc
  29              		@ args = 0, pretend = 0, frame = 8
  30              		@ frame_needed = 0, uses_anonymous_args = 0
  31              	.LVL0:
  32 0000 13B5     		push	{r0, r1, r4, lr}
  33              		.cfi_def_cfa_offset 16
  34              		.cfi_offset 4, -8
  35              		.cfi_offset 14, -4
  36              		.loc 1 149 0
  37 0002 446B     		ldr	r4, [r0, #52]
  38              	.LVL1:
  39              		.loc 1 153 0
  40 0004 D4F88C34 		ldr	r3, [r4, #1164]
  41 0008 1A68     		ldr	r2, [r3]
  42 000a 1178     		ldrb	r1, [r2]	@ zero_extendqisi2
  43 000c 0429     		cmp	r1, #4
  44 000e 16D1     		bne	.L1
  45              		.loc 1 153 0 is_stmt 0 discriminator 1
  46 0010 217A     		ldrb	r1, [r4, #8]	@ zero_extendqisi2
  47 0012 0229     		cmp	r1, #2
  48 0014 13D1     		bne	.L1
  49              		.loc 1 159 0 is_stmt 1
  50 0016 1979     		ldrb	r1, [r3, #4]	@ zero_extendqisi2
  51 0018 1289     		ldrh	r2, [r2, #8]
  52 001a 0123     		movs	r3, #1
  53 001c 8B40     		lsls	r3, r3, r1
  54 001e 1342     		tst	r3, r2
  55 0020 0DD1     		bne	.L1
  56              	.LBB72:
  57              		.loc 1 161 0
ARM GAS  C:\cygwin64\tmp\ccRGO8vd.s 			page 2


  58 0022 01A9     		add	r1, sp, #4
  59 0024 04F14400 		add	r0, r4, #68
  60              	.LVL2:
  61 0028 FFF7FEFF 		bl	obqGetFullBufferI
  62              	.LVL3:
  63              		.loc 1 162 0
  64 002c 0246     		mov	r2, r0
  65 002e 30B1     		cbz	r0, .L1
  66              		.loc 1 164 0
  67 0030 D4F88C44 		ldr	r4, [r4, #1164]
  68              	.LVL4:
  69 0034 019B     		ldr	r3, [sp, #4]
  70 0036 2179     		ldrb	r1, [r4, #4]	@ zero_extendqisi2
  71 0038 2068     		ldr	r0, [r4]
  72              	.LVL5:
  73 003a FFF7FEFF 		bl	usbStartTransmitI
  74              	.LVL6:
  75              	.L1:
  76              	.LBE72:
  77              		.loc 1 167 0
  78 003e 02B0     		add	sp, sp, #8
  79              		.cfi_def_cfa_offset 8
  80              		@ sp needed
  81 0040 10BD     		pop	{r4, pc}
  82              		.cfi_endproc
  83              	.LFE287:
  84              		.size	obnotify, .-obnotify
  85              		.section	.text._readt,"ax",%progbits
  86              		.align	1
  87              		.syntax unified
  88              		.thumb
  89              		.thumb_func
  90              		.fpu fpv4-sp-d16
  91              		.type	_readt, %function
  92              	_readt:
  93              	.LFB285:
  94              		.loc 1 122 0
  95              		.cfi_startproc
  96              		@ args = 0, pretend = 0, frame = 0
  97              		@ frame_needed = 0, uses_anonymous_args = 0
  98              		@ link register save eliminated.
  99              	.LVL7:
 100              		.loc 1 124 0
 101 0000 0C30     		adds	r0, r0, #12
 102              	.LVL8:
 103 0002 FFF7FEBF 		b	ibqReadTimeout
 104              	.LVL9:
 105              		.cfi_endproc
 106              	.LFE285:
 107              		.size	_readt, .-_readt
 108              		.section	.text._read,"ax",%progbits
 109              		.align	1
 110              		.syntax unified
 111              		.thumb
 112              		.thumb_func
 113              		.fpu fpv4-sp-d16
 114              		.type	_read, %function
ARM GAS  C:\cygwin64\tmp\ccRGO8vd.s 			page 3


 115              	_read:
 116              	.LFB279:
 117              		.loc 1 91 0
 118              		.cfi_startproc
 119              		@ args = 0, pretend = 0, frame = 0
 120              		@ frame_needed = 0, uses_anonymous_args = 0
 121              		@ link register save eliminated.
 122              	.LVL10:
 123              		.loc 1 93 0
 124 0000 4FF0FF33 		mov	r3, #-1
 125 0004 0C30     		adds	r0, r0, #12
 126              	.LVL11:
 127 0006 FFF7FEBF 		b	ibqReadTimeout
 128              	.LVL12:
 129              		.cfi_endproc
 130              	.LFE279:
 131              		.size	_read, .-_read
 132              		.section	.text._writet,"ax",%progbits
 133              		.align	1
 134              		.syntax unified
 135              		.thumb
 136              		.thumb_func
 137              		.fpu fpv4-sp-d16
 138              		.type	_writet, %function
 139              	_writet:
 140              	.LFB284:
 141              		.loc 1 117 0
 142              		.cfi_startproc
 143              		@ args = 0, pretend = 0, frame = 0
 144              		@ frame_needed = 0, uses_anonymous_args = 0
 145              		@ link register save eliminated.
 146              	.LVL13:
 147              		.loc 1 119 0
 148 0000 4430     		adds	r0, r0, #68
 149              	.LVL14:
 150 0002 FFF7FEBF 		b	obqWriteTimeout
 151              	.LVL15:
 152              		.cfi_endproc
 153              	.LFE284:
 154              		.size	_writet, .-_writet
 155              		.section	.text._write,"ax",%progbits
 156              		.align	1
 157              		.syntax unified
 158              		.thumb
 159              		.thumb_func
 160              		.fpu fpv4-sp-d16
 161              		.type	_write, %function
 162              	_write:
 163              	.LFB278:
 164              		.loc 1 85 0
 165              		.cfi_startproc
 166              		@ args = 0, pretend = 0, frame = 0
 167              		@ frame_needed = 0, uses_anonymous_args = 0
 168              		@ link register save eliminated.
 169              	.LVL16:
 170              		.loc 1 87 0
 171 0000 4FF0FF33 		mov	r3, #-1
ARM GAS  C:\cygwin64\tmp\ccRGO8vd.s 			page 4


 172 0004 4430     		adds	r0, r0, #68
 173              	.LVL17:
 174 0006 FFF7FEBF 		b	obqWriteTimeout
 175              	.LVL18:
 176              		.cfi_endproc
 177              	.LFE278:
 178              		.size	_write, .-_write
 179              		.section	.text._gett,"ax",%progbits
 180              		.align	1
 181              		.syntax unified
 182              		.thumb
 183              		.thumb_func
 184              		.fpu fpv4-sp-d16
 185              		.type	_gett, %function
 186              	_gett:
 187              	.LFB283:
 188              		.loc 1 112 0
 189              		.cfi_startproc
 190              		@ args = 0, pretend = 0, frame = 0
 191              		@ frame_needed = 0, uses_anonymous_args = 0
 192              		@ link register save eliminated.
 193              	.LVL19:
 194              		.loc 1 114 0
 195 0000 0C30     		adds	r0, r0, #12
 196              	.LVL20:
 197 0002 FFF7FEBF 		b	ibqGetTimeout
 198              	.LVL21:
 199              		.cfi_endproc
 200              	.LFE283:
 201              		.size	_gett, .-_gett
 202              		.section	.text._get,"ax",%progbits
 203              		.align	1
 204              		.syntax unified
 205              		.thumb
 206              		.thumb_func
 207              		.fpu fpv4-sp-d16
 208              		.type	_get, %function
 209              	_get:
 210              	.LFB281:
 211              		.loc 1 102 0
 212              		.cfi_startproc
 213              		@ args = 0, pretend = 0, frame = 0
 214              		@ frame_needed = 0, uses_anonymous_args = 0
 215              		@ link register save eliminated.
 216              	.LVL22:
 217              		.loc 1 104 0
 218 0000 4FF0FF31 		mov	r1, #-1
 219 0004 0C30     		adds	r0, r0, #12
 220              	.LVL23:
 221 0006 FFF7FEBF 		b	ibqGetTimeout
 222              	.LVL24:
 223              		.cfi_endproc
 224              	.LFE281:
 225              		.size	_get, .-_get
 226              		.section	.text._putt,"ax",%progbits
 227              		.align	1
 228              		.syntax unified
ARM GAS  C:\cygwin64\tmp\ccRGO8vd.s 			page 5


 229              		.thumb
 230              		.thumb_func
 231              		.fpu fpv4-sp-d16
 232              		.type	_putt, %function
 233              	_putt:
 234              	.LFB282:
 235              		.loc 1 107 0
 236              		.cfi_startproc
 237              		@ args = 0, pretend = 0, frame = 0
 238              		@ frame_needed = 0, uses_anonymous_args = 0
 239              		@ link register save eliminated.
 240              	.LVL25:
 241              		.loc 1 109 0
 242 0000 4430     		adds	r0, r0, #68
 243              	.LVL26:
 244 0002 FFF7FEBF 		b	obqPutTimeout
 245              	.LVL27:
 246              		.cfi_endproc
 247              	.LFE282:
 248              		.size	_putt, .-_putt
 249              		.section	.text._put,"ax",%progbits
 250              		.align	1
 251              		.syntax unified
 252              		.thumb
 253              		.thumb_func
 254              		.fpu fpv4-sp-d16
 255              		.type	_put, %function
 256              	_put:
 257              	.LFB280:
 258              		.loc 1 97 0
 259              		.cfi_startproc
 260              		@ args = 0, pretend = 0, frame = 0
 261              		@ frame_needed = 0, uses_anonymous_args = 0
 262              		@ link register save eliminated.
 263              	.LVL28:
 264              		.loc 1 99 0
 265 0000 4FF0FF32 		mov	r2, #-1
 266 0004 4430     		adds	r0, r0, #68
 267              	.LVL29:
 268 0006 FFF7FEBF 		b	obqPutTimeout
 269              	.LVL30:
 270              		.cfi_endproc
 271              	.LFE280:
 272              		.size	_put, .-_put
 273              		.section	.text.sdu_start_receive,"ax",%progbits
 274              		.align	1
 275              		.syntax unified
 276              		.thumb
 277              		.thumb_func
 278              		.fpu fpv4-sp-d16
 279              		.type	sdu_start_receive, %function
 280              	sdu_start_receive:
 281              	.LFB277:
 282              		.loc 1 53 0
 283              		.cfi_startproc
 284              		@ args = 0, pretend = 0, frame = 0
 285              		@ frame_needed = 0, uses_anonymous_args = 0
ARM GAS  C:\cygwin64\tmp\ccRGO8vd.s 			page 6


 286              	.LVL31:
 287              		.loc 1 58 0
 288 0000 D0F88C24 		ldr	r2, [r0, #1164]
 289              		.loc 1 53 0
 290 0004 38B5     		push	{r3, r4, r5, lr}
 291              		.cfi_def_cfa_offset 16
 292              		.cfi_offset 3, -16
 293              		.cfi_offset 4, -12
 294              		.cfi_offset 5, -8
 295              		.cfi_offset 14, -4
 296              		.loc 1 58 0
 297 0006 1368     		ldr	r3, [r2]
 298 0008 1978     		ldrb	r1, [r3]	@ zero_extendqisi2
 299 000a 0429     		cmp	r1, #4
 300              		.loc 1 53 0
 301 000c 0546     		mov	r5, r0
 302              		.loc 1 58 0
 303 000e 01D0     		beq	.L16
 304              	.LVL32:
 305              	.L18:
 306              		.loc 1 60 0
 307 0010 0120     		movs	r0, #1
 308 0012 38BD     		pop	{r3, r4, r5, pc}
 309              	.LVL33:
 310              	.L16:
 311              		.loc 1 58 0 discriminator 1
 312 0014 017A     		ldrb	r1, [r0, #8]	@ zero_extendqisi2
 313 0016 0229     		cmp	r1, #2
 314 0018 FAD1     		bne	.L18
 315              		.loc 1 64 0
 316 001a 1279     		ldrb	r2, [r2, #4]	@ zero_extendqisi2
 317 001c 5C89     		ldrh	r4, [r3, #10]
 318 001e 0120     		movs	r0, #1
 319              	.LVL34:
 320 0020 9040     		lsls	r0, r0, r2
 321 0022 0440     		ands	r4, r0, r4
 322 0024 F4D1     		bne	.L18
 323              	.LVL35:
 324              	.LBB75:
 325              	.LBB76:
 326              		.loc 1 69 0
 327 0026 05F10C00 		add	r0, r5, #12
 328 002a FFF7FEFF 		bl	ibqGetEmptyBufferI
 329              	.LVL36:
 330              		.loc 1 70 0
 331 002e 0246     		mov	r2, r0
 332 0030 0028     		cmp	r0, #0
 333 0032 EDD0     		beq	.L18
 334              		.loc 1 75 0
 335 0034 D5F88C54 		ldr	r5, [r5, #1164]
 336              	.LVL37:
 337 0038 4FF48073 		mov	r3, #256
 338 003c 2868     		ldr	r0, [r5]
 339              	.LVL38:
 340 003e 6979     		ldrb	r1, [r5, #5]	@ zero_extendqisi2
 341 0040 FFF7FEFF 		bl	usbStartReceiveI
 342              	.LVL39:
ARM GAS  C:\cygwin64\tmp\ccRGO8vd.s 			page 7


 343              		.loc 1 78 0
 344 0044 2046     		mov	r0, r4
 345              	.LBE76:
 346              	.LBE75:
 347              		.loc 1 79 0
 348 0046 38BD     		pop	{r3, r4, r5, pc}
 349              		.cfi_endproc
 350              	.LFE277:
 351              		.size	sdu_start_receive, .-sdu_start_receive
 352              		.section	.text.ibnotify,"ax",%progbits
 353              		.align	1
 354              		.syntax unified
 355              		.thumb
 356              		.thumb_func
 357              		.fpu fpv4-sp-d16
 358              		.type	ibnotify, %function
 359              	ibnotify:
 360              	.LFB286:
 361              		.loc 1 137 0
 362              		.cfi_startproc
 363              		@ args = 0, pretend = 0, frame = 0
 364              		@ frame_needed = 0, uses_anonymous_args = 0
 365              		@ link register save eliminated.
 366              	.LVL40:
 367              		.loc 1 139 0
 368 0000 406B     		ldr	r0, [r0, #52]
 369              	.LVL41:
 370 0002 FFF7FEBF 		b	sdu_start_receive
 371              	.LVL42:
 372              		.cfi_endproc
 373              	.LFE286:
 374              		.size	ibnotify, .-ibnotify
 375              		.section	.text.sduInit,"ax",%progbits
 376              		.align	1
 377              		.global	sduInit
 378              		.syntax unified
 379              		.thumb
 380              		.thumb_func
 381              		.fpu fpv4-sp-d16
 382              		.type	sduInit, %function
 383              	sduInit:
 384              	.LFB288:
 385              		.loc 1 180 0
 386              		.cfi_startproc
 387              		@ args = 0, pretend = 0, frame = 0
 388              		@ frame_needed = 0, uses_anonymous_args = 0
 389              		@ link register save eliminated.
 390 0000 7047     		bx	lr
 391              		.cfi_endproc
 392              	.LFE288:
 393              		.size	sduInit, .-sduInit
 394              		.section	.text.sduObjectInit,"ax",%progbits
 395              		.align	1
 396              		.global	sduObjectInit
 397              		.syntax unified
 398              		.thumb
 399              		.thumb_func
ARM GAS  C:\cygwin64\tmp\ccRGO8vd.s 			page 8


 400              		.fpu fpv4-sp-d16
 401              		.type	sduObjectInit, %function
 402              	sduObjectInit:
 403              	.LFB289:
 404              		.loc 1 192 0
 405              		.cfi_startproc
 406              		@ args = 0, pretend = 0, frame = 0
 407              		@ frame_needed = 0, uses_anonymous_args = 0
 408              	.LVL43:
 409              		.loc 1 192 0
 410 0000 7FB5     		push	{r0, r1, r2, r3, r4, r5, r6, lr}
 411              		.cfi_def_cfa_offset 32
 412              		.cfi_offset 4, -16
 413              		.cfi_offset 5, -12
 414              		.cfi_offset 6, -8
 415              		.cfi_offset 14, -4
 416              		.loc 1 194 0
 417 0002 0346     		mov	r3, r0
 418 0004 114A     		ldr	r2, .L25
 419 0006 43F8042B 		str	r2, [r3], #4
 420              	.LVL44:
 421              		.loc 1 196 0
 422 000a 0125     		movs	r5, #1
 423              	.LBB77:
 424              	.LBB78:
 425              	.LBB79:
 426              		.file 2 "../../modules/ChibiOS/os/rt/include/chevents.h"
 427              		.loc 2 172 0
 428 000c 4360     		str	r3, [r0, #4]
 429              	.LVL45:
 430              	.LBE79:
 431              	.LBE78:
 432              	.LBE77:
 433              		.loc 1 197 0
 434 000e 0226     		movs	r6, #2
 435 0010 0F4B     		ldr	r3, .L25+4
 436              		.loc 1 196 0
 437 0012 0572     		strb	r5, [r0, #8]
 438              		.loc 1 192 0
 439 0014 0446     		mov	r4, r0
 440              		.loc 1 197 0
 441 0016 0290     		str	r0, [sp, #8]
 442 0018 0193     		str	r3, [sp, #4]
 443 001a 00F17C02 		add	r2, r0, #124
 444 001e 2946     		mov	r1, r5
 445 0020 0096     		str	r6, [sp]
 446 0022 4FF48073 		mov	r3, #256
 447 0026 0C30     		adds	r0, r0, #12
 448              	.LVL46:
 449 0028 FFF7FEFF 		bl	ibqObjectInit
 450              	.LVL47:
 451              		.loc 1 200 0
 452 002c 094B     		ldr	r3, .L25+8
 453 002e 0193     		str	r3, [sp, #4]
 454 0030 0294     		str	r4, [sp, #8]
 455 0032 0096     		str	r6, [sp]
 456 0034 4FF48073 		mov	r3, #256
ARM GAS  C:\cygwin64\tmp\ccRGO8vd.s 			page 9


 457 0038 04F52172 		add	r2, r4, #644
 458 003c 2946     		mov	r1, r5
 459 003e 04F14400 		add	r0, r4, #68
 460 0042 FFF7FEFF 		bl	obqObjectInit
 461              	.LVL48:
 462              		.loc 1 203 0
 463 0046 04B0     		add	sp, sp, #16
 464              		.cfi_def_cfa_offset 16
 465              		@ sp needed
 466 0048 70BD     		pop	{r4, r5, r6, pc}
 467              	.LVL49:
 468              	.L26:
 469 004a 00BF     		.align	2
 470              	.L25:
 471 004c 00000000 		.word	.LANCHOR0
 472 0050 00000000 		.word	ibnotify
 473 0054 00000000 		.word	obnotify
 474              		.cfi_endproc
 475              	.LFE289:
 476              		.size	sduObjectInit, .-sduObjectInit
 477              		.section	.text.sduStart,"ax",%progbits
 478              		.align	1
 479              		.global	sduStart
 480              		.syntax unified
 481              		.thumb
 482              		.thumb_func
 483              		.fpu fpv4-sp-d16
 484              		.type	sduStart, %function
 485              	sduStart:
 486              	.LFB290:
 487              		.loc 1 213 0
 488              		.cfi_startproc
 489              		@ args = 0, pretend = 0, frame = 0
 490              		@ frame_needed = 0, uses_anonymous_args = 0
 491              	.LVL50:
 492 0000 70B5     		push	{r4, r5, r6, lr}
 493              		.cfi_def_cfa_offset 16
 494              		.cfi_offset 4, -16
 495              		.cfi_offset 5, -12
 496              		.cfi_offset 6, -8
 497              		.cfi_offset 14, -4
 498              	.LBB94:
 499              	.LBB95:
 500              	.LBB96:
 501              	.LBB97:
 502              	.LBB98:
 503              	.LBB99:
 504              		.file 3 "../../modules/ChibiOS/os/common/ext/CMSIS/include/cmsis_gcc.h"
 505              		.loc 3 264 0
 506 0002 2023     		movs	r3, #32
 507              	.LBE99:
 508              	.LBE98:
 509              	.LBE97:
 510              	.LBE96:
 511              	.LBE95:
 512              	.LBE94:
 513              		.loc 1 213 0
ARM GAS  C:\cygwin64\tmp\ccRGO8vd.s 			page 10


 514 0004 0446     		mov	r4, r0
 515 0006 0D46     		mov	r5, r1
 516              		.loc 1 214 0
 517 0008 0E68     		ldr	r6, [r1]
 518              	.LVL51:
 519              	.LBB105:
 520              	.LBB104:
 521              	.LBB103:
 522              	.LBB102:
 523              	.LBB101:
 524              	.LBB100:
 525              		.loc 3 264 0
 526              		.syntax unified
 527              	@ 264 "../../modules/ChibiOS/os/common/ext/CMSIS/include/cmsis_gcc.h" 1
 528 000a 83F31188 		MSR basepri, r3
 529              	@ 0 "" 2
 530              	.LVL52:
 531              		.thumb
 532              		.syntax unified
 533              	.LBE100:
 534              	.LBE101:
 535              	.LBE102:
 536              		.file 4 "../../modules/ChibiOS/os/rt/include/chsys.h"
 537              		.loc 4 377 0
 538 000e FFF7FEFF 		bl	_stats_start_measure_crit_thd
 539              	.LVL53:
 540              	.LBE103:
 541              	.LBE104:
 542              	.LBE105:
 543              		.loc 1 221 0
 544 0012 2B79     		ldrb	r3, [r5, #4]	@ zero_extendqisi2
 545 0014 06EB8303 		add	r3, r6, r3, lsl #2
 546 0018 9C61     		str	r4, [r3, #24]
 547              		.loc 1 222 0
 548 001a 6B79     		ldrb	r3, [r5, #5]	@ zero_extendqisi2
 549 001c 0933     		adds	r3, r3, #9
 550 001e 46F82340 		str	r4, [r6, r3, lsl #2]
 551              		.loc 1 223 0
 552 0022 AB79     		ldrb	r3, [r5, #6]	@ zero_extendqisi2
 553 0024 13B1     		cbz	r3, .L28
 554              		.loc 1 224 0
 555 0026 06EB8306 		add	r6, r6, r3, lsl #2
 556              	.LVL54:
 557 002a B461     		str	r4, [r6, #24]
 558              	.L28:
 559              		.loc 1 227 0
 560 002c 0223     		movs	r3, #2
 561 002e 2372     		strb	r3, [r4, #8]
 562              		.loc 1 226 0
 563 0030 C4F88C54 		str	r5, [r4, #1164]
 564              	.LBB106:
 565              	.LBB107:
 566              	.LBB108:
 567              		.loc 4 389 0
 568 0034 FFF7FEFF 		bl	_stats_stop_measure_crit_thd
 569              	.LVL55:
 570              	.LBB109:
ARM GAS  C:\cygwin64\tmp\ccRGO8vd.s 			page 11


 571              	.LBB110:
 572              	.LBB111:
 573              		.loc 3 264 0
 574 0038 0023     		movs	r3, #0
 575              		.syntax unified
 576              	@ 264 "../../modules/ChibiOS/os/common/ext/CMSIS/include/cmsis_gcc.h" 1
 577 003a 83F31188 		MSR basepri, r3
 578              	@ 0 "" 2
 579              	.LVL56:
 580              		.thumb
 581              		.syntax unified
 582 003e 70BD     		pop	{r4, r5, r6, pc}
 583              	.LBE111:
 584              	.LBE110:
 585              	.LBE109:
 586              	.LBE108:
 587              	.LBE107:
 588              	.LBE106:
 589              		.cfi_endproc
 590              	.LFE290:
 591              		.size	sduStart, .-sduStart
 592              		.section	.text.sduStop,"ax",%progbits
 593              		.align	1
 594              		.global	sduStop
 595              		.syntax unified
 596              		.thumb
 597              		.thumb_func
 598              		.fpu fpv4-sp-d16
 599              		.type	sduStop, %function
 600              	sduStop:
 601              	.LFB291:
 602              		.loc 1 240 0
 603              		.cfi_startproc
 604              		@ args = 0, pretend = 0, frame = 0
 605              		@ frame_needed = 0, uses_anonymous_args = 0
 606              	.LVL57:
 607 0000 38B5     		push	{r3, r4, r5, lr}
 608              		.cfi_def_cfa_offset 16
 609              		.cfi_offset 3, -16
 610              		.cfi_offset 4, -12
 611              		.cfi_offset 5, -8
 612              		.cfi_offset 14, -4
 613              		.loc 1 241 0
 614 0002 D0F88C34 		ldr	r3, [r0, #1164]
 615              		.loc 1 240 0
 616 0006 0446     		mov	r4, r0
 617              		.loc 1 241 0
 618 0008 1D68     		ldr	r5, [r3]
 619              	.LVL58:
 620              	.LBB130:
 621              	.LBB131:
 622              	.LBB132:
 623              	.LBB133:
 624              	.LBB134:
 625              	.LBB135:
 626              		.loc 3 264 0
 627 000a 2023     		movs	r3, #32
ARM GAS  C:\cygwin64\tmp\ccRGO8vd.s 			page 12


 628              		.syntax unified
 629              	@ 264 "../../modules/ChibiOS/os/common/ext/CMSIS/include/cmsis_gcc.h" 1
 630 000c 83F31188 		MSR basepri, r3
 631              	@ 0 "" 2
 632              	.LVL59:
 633              		.thumb
 634              		.syntax unified
 635              	.LBE135:
 636              	.LBE134:
 637              	.LBE133:
 638              		.loc 4 377 0
 639 0010 FFF7FEFF 		bl	_stats_start_measure_crit_thd
 640              	.LVL60:
 641              	.LBE132:
 642              	.LBE131:
 643              	.LBE130:
 644              		.loc 1 251 0
 645 0014 D4F88C14 		ldr	r1, [r4, #1164]
 646 0018 0B79     		ldrb	r3, [r1, #4]	@ zero_extendqisi2
 647 001a 0533     		adds	r3, r3, #5
 648 001c 05EB8303 		add	r3, r5, r3, lsl #2
 649 0020 0022     		movs	r2, #0
 650 0022 5A60     		str	r2, [r3, #4]
 651              		.loc 1 252 0
 652 0024 4B79     		ldrb	r3, [r1, #5]	@ zero_extendqisi2
 653 0026 0933     		adds	r3, r3, #9
 654 0028 45F82320 		str	r2, [r5, r3, lsl #2]
 655              		.loc 1 253 0
 656 002c 8B79     		ldrb	r3, [r1, #6]	@ zero_extendqisi2
 657 002e 1BB1     		cbz	r3, .L33
 658              		.loc 1 254 0
 659 0030 0533     		adds	r3, r3, #5
 660 0032 05EB8305 		add	r5, r5, r3, lsl #2
 661              	.LVL61:
 662 0036 6A60     		str	r2, [r5, #4]
 663              	.L33:
 664              		.loc 1 257 0
 665 0038 0123     		movs	r3, #1
 666              		.loc 1 256 0
 667 003a 0025     		movs	r5, #0
 668              		.loc 1 257 0
 669 003c 2372     		strb	r3, [r4, #8]
 670              	.LVL62:
 671              	.LBB136:
 672              	.LBB137:
 673              		.file 5 "../../modules/ChibiOS/os/hal/osal/rt/osal.h"
 674              		.loc 5 844 0
 675 003e 0221     		movs	r1, #2
 676 0040 201D     		adds	r0, r4, #4
 677              	.LVL63:
 678              	.LBE137:
 679              	.LBE136:
 680              		.loc 1 256 0
 681 0042 C4F88C54 		str	r5, [r4, #1164]
 682              	.LBB139:
 683              	.LBB138:
 684              		.loc 5 844 0
ARM GAS  C:\cygwin64\tmp\ccRGO8vd.s 			page 13


 685 0046 FFF7FEFF 		bl	chEvtBroadcastFlagsI
 686              	.LVL64:
 687              	.LBE138:
 688              	.LBE139:
 689              		.loc 1 261 0
 690 004a 04F10C00 		add	r0, r4, #12
 691 004e FFF7FEFF 		bl	ibqResetI
 692              	.LVL65:
 693              		.loc 1 262 0
 694 0052 04F14400 		add	r0, r4, #68
 695 0056 FFF7FEFF 		bl	obqResetI
 696              	.LVL66:
 697              	.LBB140:
 698              	.LBB141:
 699              		.loc 5 600 0
 700 005a FFF7FEFF 		bl	chSchRescheduleS
 701              	.LVL67:
 702              	.LBE141:
 703              	.LBE140:
 704              	.LBB142:
 705              	.LBB143:
 706              	.LBB144:
 707              		.loc 4 389 0
 708 005e FFF7FEFF 		bl	_stats_stop_measure_crit_thd
 709              	.LVL68:
 710              	.LBB145:
 711              	.LBB146:
 712              	.LBB147:
 713              		.loc 3 264 0
 714              		.syntax unified
 715              	@ 264 "../../modules/ChibiOS/os/common/ext/CMSIS/include/cmsis_gcc.h" 1
 716 0062 85F31188 		MSR basepri, r5
 717              	@ 0 "" 2
 718              	.LVL69:
 719              		.thumb
 720              		.syntax unified
 721 0066 38BD     		pop	{r3, r4, r5, pc}
 722              	.LBE147:
 723              	.LBE146:
 724              	.LBE145:
 725              	.LBE144:
 726              	.LBE143:
 727              	.LBE142:
 728              		.cfi_endproc
 729              	.LFE291:
 730              		.size	sduStop, .-sduStop
 731              		.section	.text.sduSuspendHookI,"ax",%progbits
 732              		.align	1
 733              		.global	sduSuspendHookI
 734              		.syntax unified
 735              		.thumb
 736              		.thumb_func
 737              		.fpu fpv4-sp-d16
 738              		.type	sduSuspendHookI, %function
 739              	sduSuspendHookI:
 740              	.LFB292:
 741              		.loc 1 280 0
ARM GAS  C:\cygwin64\tmp\ccRGO8vd.s 			page 14


 742              		.cfi_startproc
 743              		@ args = 0, pretend = 0, frame = 0
 744              		@ frame_needed = 0, uses_anonymous_args = 0
 745              	.LVL70:
 746 0000 38B5     		push	{r3, r4, r5, lr}
 747              		.cfi_def_cfa_offset 16
 748              		.cfi_offset 3, -16
 749              		.cfi_offset 4, -12
 750              		.cfi_offset 5, -8
 751              		.cfi_offset 14, -4
 752              		.loc 1 280 0
 753 0002 0446     		mov	r4, r0
 754              		.loc 1 283 0
 755 0004 0125     		movs	r5, #1
 756              	.LBB148:
 757              	.LBB149:
 758              		.loc 5 844 0
 759 0006 0221     		movs	r1, #2
 760 0008 0430     		adds	r0, r0, #4
 761              	.LVL71:
 762 000a FFF7FEFF 		bl	chEvtBroadcastFlagsI
 763              	.LVL72:
 764              	.LBE149:
 765              	.LBE148:
 766              	.LBB150:
 767              	.LBB151:
 768              		.loc 5 810 0
 769 000e 04F10C00 		add	r0, r4, #12
 770              	.LBE151:
 771              	.LBE150:
 772              		.loc 1 283 0
 773 0012 2575     		strb	r5, [r4, #20]
 774              	.LVL73:
 775              	.LBB153:
 776              	.LBB152:
 777              		.loc 5 810 0
 778 0014 6FF00101 		mvn	r1, #1
 779 0018 FFF7FEFF 		bl	chThdDequeueAllI
 780              	.LVL74:
 781              	.LBE152:
 782              	.LBE153:
 783              		.loc 1 284 0
 784 001c 84F84C50 		strb	r5, [r4, #76]
 785              	.LVL75:
 786              	.LBB154:
 787              	.LBB155:
 788              		.loc 5 810 0
 789 0020 04F14400 		add	r0, r4, #68
 790              	.LVL76:
 791 0024 6FF00101 		mvn	r1, #1
 792              	.LBE155:
 793              	.LBE154:
 794              		.loc 1 285 0
 795 0028 BDE83840 		pop	{r3, r4, r5, lr}
 796              		.cfi_restore 14
 797              		.cfi_restore 5
 798              		.cfi_restore 4
ARM GAS  C:\cygwin64\tmp\ccRGO8vd.s 			page 15


 799              		.cfi_restore 3
 800              		.cfi_def_cfa_offset 0
 801              	.LVL77:
 802              	.LBB157:
 803              	.LBB156:
 804              		.loc 5 810 0
 805 002c FFF7FEBF 		b	chThdDequeueAllI
 806              	.LVL78:
 807              	.LBE156:
 808              	.LBE157:
 809              		.cfi_endproc
 810              	.LFE292:
 811              		.size	sduSuspendHookI, .-sduSuspendHookI
 812              		.section	.text.sduWakeupHookI,"ax",%progbits
 813              		.align	1
 814              		.global	sduWakeupHookI
 815              		.syntax unified
 816              		.thumb
 817              		.thumb_func
 818              		.fpu fpv4-sp-d16
 819              		.type	sduWakeupHookI, %function
 820              	sduWakeupHookI:
 821              	.LFB293:
 822              		.loc 1 299 0
 823              		.cfi_startproc
 824              		@ args = 0, pretend = 0, frame = 0
 825              		@ frame_needed = 0, uses_anonymous_args = 0
 826              	.LVL79:
 827 0000 10B5     		push	{r4, lr}
 828              		.cfi_def_cfa_offset 8
 829              		.cfi_offset 4, -8
 830              		.cfi_offset 14, -4
 831              	.LBB158:
 832              	.LBB159:
 833              		.loc 5 844 0
 834 0002 0121     		movs	r1, #1
 835              	.LBE159:
 836              	.LBE158:
 837              		.loc 1 299 0
 838 0004 0446     		mov	r4, r0
 839              	.LBB161:
 840              	.LBB160:
 841              		.loc 5 844 0
 842 0006 0430     		adds	r0, r0, #4
 843              	.LVL80:
 844 0008 FFF7FEFF 		bl	chEvtBroadcastFlagsI
 845              	.LVL81:
 846              	.LBE160:
 847              	.LBE161:
 848              		.loc 1 302 0
 849 000c 0023     		movs	r3, #0
 850 000e 2375     		strb	r3, [r4, #20]
 851              		.loc 1 303 0
 852 0010 84F84C30 		strb	r3, [r4, #76]
 853 0014 10BD     		pop	{r4, pc}
 854              		.cfi_endproc
 855              	.LFE293:
ARM GAS  C:\cygwin64\tmp\ccRGO8vd.s 			page 16


 856              		.size	sduWakeupHookI, .-sduWakeupHookI
 857              		.section	.text.sduConfigureHookI,"ax",%progbits
 858              		.align	1
 859              		.global	sduConfigureHookI
 860              		.syntax unified
 861              		.thumb
 862              		.thumb_func
 863              		.fpu fpv4-sp-d16
 864              		.type	sduConfigureHookI, %function
 865              	sduConfigureHookI:
 866              	.LFB294:
 867              		.loc 1 313 0
 868              		.cfi_startproc
 869              		@ args = 0, pretend = 0, frame = 0
 870              		@ frame_needed = 0, uses_anonymous_args = 0
 871              	.LVL82:
 872 0000 38B5     		push	{r3, r4, r5, lr}
 873              		.cfi_def_cfa_offset 16
 874              		.cfi_offset 3, -16
 875              		.cfi_offset 4, -12
 876              		.cfi_offset 5, -8
 877              		.cfi_offset 14, -4
 878              		.loc 1 313 0
 879 0002 0446     		mov	r4, r0
 880              		.loc 1 316 0
 881 0004 0025     		movs	r5, #0
 882              		.loc 1 315 0
 883 0006 0C30     		adds	r0, r0, #12
 884              	.LVL83:
 885 0008 FFF7FEFF 		bl	ibqResetI
 886              	.LVL84:
 887              		.loc 1 317 0
 888 000c 04F14400 		add	r0, r4, #68
 889              		.loc 1 316 0
 890 0010 2575     		strb	r5, [r4, #20]
 891              		.loc 1 317 0
 892 0012 FFF7FEFF 		bl	obqResetI
 893              	.LVL85:
 894              	.LBB162:
 895              	.LBB163:
 896              		.loc 5 844 0
 897 0016 201D     		adds	r0, r4, #4
 898              	.LBE163:
 899              	.LBE162:
 900              		.loc 1 318 0
 901 0018 84F84C50 		strb	r5, [r4, #76]
 902              	.LVL86:
 903              	.LBB165:
 904              	.LBB164:
 905              		.loc 5 844 0
 906 001c 0121     		movs	r1, #1
 907 001e FFF7FEFF 		bl	chEvtBroadcastFlagsI
 908              	.LVL87:
 909              	.LBE164:
 910              	.LBE165:
 911              		.loc 1 320 0
 912 0022 2046     		mov	r0, r4
ARM GAS  C:\cygwin64\tmp\ccRGO8vd.s 			page 17


 913              		.loc 1 321 0
 914 0024 BDE83840 		pop	{r3, r4, r5, lr}
 915              		.cfi_restore 14
 916              		.cfi_restore 5
 917              		.cfi_restore 4
 918              		.cfi_restore 3
 919              		.cfi_def_cfa_offset 0
 920              	.LVL88:
 921              		.loc 1 320 0
 922 0028 FFF7FEBF 		b	sdu_start_receive
 923              	.LVL89:
 924              		.cfi_endproc
 925              	.LFE294:
 926              		.size	sduConfigureHookI, .-sduConfigureHookI
 927              		.section	.text.sduRequestsHook,"ax",%progbits
 928              		.align	1
 929              		.global	sduRequestsHook
 930              		.syntax unified
 931              		.thumb
 932              		.thumb_func
 933              		.fpu fpv4-sp-d16
 934              		.type	sduRequestsHook, %function
 935              	sduRequestsHook:
 936              	.LFB295:
 937              		.loc 1 338 0
 938              		.cfi_startproc
 939              		@ args = 0, pretend = 0, frame = 0
 940              		@ frame_needed = 0, uses_anonymous_args = 0
 941              		@ link register save eliminated.
 942              	.LVL90:
 943              		.loc 1 340 0
 944 0000 90F84430 		ldrb	r3, [r0, #68]	@ zero_extendqisi2
 945 0004 03F06003 		and	r3, r3, #96
 946 0008 202B     		cmp	r3, #32
 947 000a 19D1     		bne	.L45
 948              		.loc 1 341 0
 949 000c 90F84520 		ldrb	r2, [r0, #69]	@ zero_extendqisi2
 950 0010 212A     		cmp	r2, #33
 951 0012 0AD0     		beq	.L42
 952 0014 222A     		cmp	r2, #34
 953 0016 4FF00003 		mov	r3, #0
 954 001a 0ED0     		beq	.L43
 955 001c 202A     		cmp	r2, #32
 956 001e 0FD1     		bne	.L45
 957              		.loc 1 346 0
 958 0020 084A     		ldr	r2, .L49
 959 0022 8263     		str	r2, [r0, #56]
 960 0024 0722     		movs	r2, #7
 961 0026 C263     		str	r2, [r0, #60]
 962 0028 04E0     		b	.L48
 963              	.L42:
 964              		.loc 1 343 0
 965 002a 064B     		ldr	r3, .L49
 966 002c 8363     		str	r3, [r0, #56]
 967 002e 0723     		movs	r3, #7
 968 0030 C363     		str	r3, [r0, #60]
 969 0032 0023     		movs	r3, #0
ARM GAS  C:\cygwin64\tmp\ccRGO8vd.s 			page 18


 970              	.L48:
 971              		.loc 1 350 0
 972 0034 0364     		str	r3, [r0, #64]
 973              		.loc 1 351 0
 974 0036 0120     		movs	r0, #1
 975              	.LVL91:
 976 0038 7047     		bx	lr
 977              	.LVL92:
 978              	.L43:
 979              		.loc 1 350 0
 980 003a 8363     		str	r3, [r0, #56]
 981 003c C363     		str	r3, [r0, #60]
 982 003e F9E7     		b	.L48
 983              	.L45:
 984              		.loc 1 356 0
 985 0040 0020     		movs	r0, #0
 986              	.LVL93:
 987 0042 7047     		bx	lr
 988              	.L50:
 989              		.align	2
 990              	.L49:
 991 0044 00000000 		.word	.LANCHOR1
 992              		.cfi_endproc
 993              	.LFE295:
 994              		.size	sduRequestsHook, .-sduRequestsHook
 995              		.section	.text.sduSOFHookI,"ax",%progbits
 996              		.align	1
 997              		.global	sduSOFHookI
 998              		.syntax unified
 999              		.thumb
 1000              		.thumb_func
 1001              		.fpu fpv4-sp-d16
 1002              		.type	sduSOFHookI, %function
 1003              	sduSOFHookI:
 1004              	.LFB296:
 1005              		.loc 1 368 0
 1006              		.cfi_startproc
 1007              		@ args = 0, pretend = 0, frame = 8
 1008              		@ frame_needed = 0, uses_anonymous_args = 0
 1009              	.LVL94:
 1010              		.loc 1 372 0
 1011 0000 D0F88C34 		ldr	r3, [r0, #1164]
 1012              		.loc 1 368 0
 1013 0004 37B5     		push	{r0, r1, r2, r4, r5, lr}
 1014              		.cfi_def_cfa_offset 24
 1015              		.cfi_offset 4, -12
 1016              		.cfi_offset 5, -8
 1017              		.cfi_offset 14, -4
 1018              		.loc 1 372 0
 1019 0006 1A68     		ldr	r2, [r3]
 1020 0008 1178     		ldrb	r1, [r2]	@ zero_extendqisi2
 1021 000a 0429     		cmp	r1, #4
 1022              		.loc 1 368 0
 1023 000c 0446     		mov	r4, r0
 1024              		.loc 1 372 0
 1025 000e 1AD1     		bne	.L51
 1026              		.loc 1 372 0 is_stmt 0 discriminator 1
ARM GAS  C:\cygwin64\tmp\ccRGO8vd.s 			page 19


 1027 0010 017A     		ldrb	r1, [r0, #8]	@ zero_extendqisi2
 1028 0012 0229     		cmp	r1, #2
 1029 0014 17D1     		bne	.L51
 1030              		.loc 1 379 0 is_stmt 1
 1031 0016 1979     		ldrb	r1, [r3, #4]	@ zero_extendqisi2
 1032 0018 1289     		ldrh	r2, [r2, #8]
 1033 001a 0123     		movs	r3, #1
 1034 001c 8B40     		lsls	r3, r3, r1
 1035 001e 1342     		tst	r3, r2
 1036 0020 11D1     		bne	.L51
 1037              		.loc 1 385 0
 1038 0022 00F14405 		add	r5, r0, #68
 1039 0026 2846     		mov	r0, r5
 1040              	.LVL95:
 1041 0028 FFF7FEFF 		bl	obqTryFlushI
 1042              	.LVL96:
 1043 002c 58B1     		cbz	r0, .L51
 1044              	.LBB166:
 1045              		.loc 1 387 0
 1046 002e 01A9     		add	r1, sp, #4
 1047 0030 2846     		mov	r0, r5
 1048 0032 FFF7FEFF 		bl	obqGetFullBufferI
 1049              	.LVL97:
 1050              		.loc 1 391 0
 1051 0036 D4F88C44 		ldr	r4, [r4, #1164]
 1052              	.LVL98:
 1053 003a 019B     		ldr	r3, [sp, #4]
 1054 003c 2179     		ldrb	r1, [r4, #4]	@ zero_extendqisi2
 1055 003e 0246     		mov	r2, r0
 1056 0040 2068     		ldr	r0, [r4]
 1057              	.LVL99:
 1058 0042 FFF7FEFF 		bl	usbStartTransmitI
 1059              	.LVL100:
 1060              	.L51:
 1061              	.LBE166:
 1062              		.loc 1 393 0
 1063 0046 03B0     		add	sp, sp, #12
 1064              		.cfi_def_cfa_offset 12
 1065              		@ sp needed
 1066 0048 30BD     		pop	{r4, r5, pc}
 1067              		.cfi_endproc
 1068              	.LFE296:
 1069              		.size	sduSOFHookI, .-sduSOFHookI
 1070              		.section	.text.sduDataTransmitted,"ax",%progbits
 1071              		.align	1
 1072              		.global	sduDataTransmitted
 1073              		.syntax unified
 1074              		.thumb
 1075              		.thumb_func
 1076              		.fpu fpv4-sp-d16
 1077              		.type	sduDataTransmitted, %function
 1078              	sduDataTransmitted:
 1079              	.LFB297:
 1080              		.loc 1 403 0
 1081              		.cfi_startproc
 1082              		@ args = 0, pretend = 0, frame = 8
 1083              		@ frame_needed = 0, uses_anonymous_args = 0
ARM GAS  C:\cygwin64\tmp\ccRGO8vd.s 			page 20


 1084              	.LVL101:
 1085              		.loc 1 406 0
 1086 0000 00EB8103 		add	r3, r0, r1, lsl #2
 1087              		.loc 1 403 0
 1088 0004 F7B5     		push	{r0, r1, r2, r4, r5, r6, r7, lr}
 1089              		.cfi_def_cfa_offset 32
 1090              		.cfi_offset 4, -20
 1091              		.cfi_offset 5, -16
 1092              		.cfi_offset 6, -12
 1093              		.cfi_offset 7, -8
 1094              		.cfi_offset 14, -4
 1095              		.loc 1 406 0
 1096 0006 9C69     		ldr	r4, [r3, #24]
 1097              	.LVL102:
 1098              		.loc 1 403 0
 1099 0008 0546     		mov	r5, r0
 1100 000a 0E46     		mov	r6, r1
 1101              		.loc 1 408 0
 1102 000c 14B3     		cbz	r4, .L58
 1103              	.LVL103:
 1104              	.LBB185:
 1105              	.LBB186:
 1106              	.LBB187:
 1107              	.LBB188:
 1108              	.LBB189:
 1109              	.LBB190:
 1110              	.LBB191:
 1111              		.loc 3 264 0
 1112 000e 2023     		movs	r3, #32
 1113              		.syntax unified
 1114              	@ 264 "../../modules/ChibiOS/os/common/ext/CMSIS/include/cmsis_gcc.h" 1
 1115 0010 83F31188 		MSR basepri, r3
 1116              	@ 0 "" 2
 1117              	.LVL104:
 1118              		.thumb
 1119              		.syntax unified
 1120 0014 05EB8607 		add	r7, r5, r6, lsl #2
 1121              	.LBE191:
 1122              	.LBE190:
 1123              	.LBE189:
 1124              	.LBE188:
 1125              		.loc 4 417 0
 1126 0018 FFF7FEFF 		bl	_stats_start_measure_crit_isr
 1127              	.LVL105:
 1128              	.LBE187:
 1129              	.LBE186:
 1130              	.LBE185:
 1131              	.LBB192:
 1132              	.LBB193:
 1133              		.loc 5 844 0
 1134 001c 201D     		adds	r0, r4, #4
 1135              	.LVL106:
 1136 001e 0821     		movs	r1, #8
 1137 0020 FFF7FEFF 		bl	chEvtBroadcastFlagsI
 1138              	.LVL107:
 1139              	.LBE193:
 1140              	.LBE192:
ARM GAS  C:\cygwin64\tmp\ccRGO8vd.s 			page 21


 1141              		.loc 1 418 0
 1142 0024 FB68     		ldr	r3, [r7, #12]
 1143 0026 5B69     		ldr	r3, [r3, #20]
 1144 0028 1B68     		ldr	r3, [r3]
 1145 002a 4434     		adds	r4, r4, #68
 1146              	.LVL108:
 1147 002c 13B1     		cbz	r3, .L60
 1148              		.loc 1 419 0
 1149 002e 2046     		mov	r0, r4
 1150 0030 FFF7FEFF 		bl	obqReleaseEmptyBufferI
 1151              	.LVL109:
 1152              	.L60:
 1153              		.loc 1 423 0
 1154 0034 01A9     		add	r1, sp, #4
 1155 0036 2046     		mov	r0, r4
 1156 0038 FFF7FEFF 		bl	obqGetFullBufferI
 1157              	.LVL110:
 1158              		.loc 1 425 0
 1159 003c 0246     		mov	r2, r0
 1160 003e 58B1     		cbz	r0, .L61
 1161              		.loc 1 428 0
 1162 0040 019B     		ldr	r3, [sp, #4]
 1163              	.L73:
 1164              		.loc 1 437 0
 1165 0042 3146     		mov	r1, r6
 1166 0044 2846     		mov	r0, r5
 1167              	.LVL111:
 1168 0046 FFF7FEFF 		bl	usbStartTransmitI
 1169              	.LVL112:
 1170              	.L62:
 1171              	.LBB194:
 1172              	.LBB195:
 1173              	.LBB196:
 1174              		.loc 4 437 0
 1175 004a FFF7FEFF 		bl	_stats_stop_measure_crit_isr
 1176              	.LVL113:
 1177              	.LBB197:
 1178              	.LBB198:
 1179              	.LBB199:
 1180              	.LBB200:
 1181              		.loc 3 264 0
 1182 004e 0023     		movs	r3, #0
 1183              		.syntax unified
 1184              	@ 264 "../../modules/ChibiOS/os/common/ext/CMSIS/include/cmsis_gcc.h" 1
 1185 0050 83F31188 		MSR basepri, r3
 1186              	@ 0 "" 2
 1187              	.LVL114:
 1188              		.thumb
 1189              		.syntax unified
 1190              	.L58:
 1191              	.LBE200:
 1192              	.LBE199:
 1193              	.LBE198:
 1194              	.LBE197:
 1195              	.LBE196:
 1196              	.LBE195:
 1197              	.LBE194:
ARM GAS  C:\cygwin64\tmp\ccRGO8vd.s 			page 22


 1198              		.loc 1 445 0
 1199 0054 03B0     		add	sp, sp, #12
 1200              		.cfi_remember_state
 1201              		.cfi_def_cfa_offset 20
 1202              		@ sp needed
 1203 0056 F0BD     		pop	{r4, r5, r6, r7, pc}
 1204              	.LVL115:
 1205              	.L61:
 1206              		.cfi_restore_state
 1207              		.loc 1 430 0
 1208 0058 FB68     		ldr	r3, [r7, #12]
 1209 005a 5A69     		ldr	r2, [r3, #20]
 1210 005c 1268     		ldr	r2, [r2]
 1211 005e 002A     		cmp	r2, #0
 1212 0060 F3D0     		beq	.L62
 1213              		.loc 1 432 0 discriminator 1
 1214 0062 1B8A     		ldrh	r3, [r3, #16]
 1215 0064 013B     		subs	r3, r3, #1
 1216              		.loc 1 430 0 discriminator 1
 1217 0066 1340     		ands	r3, r3, r2
 1218 0068 EFD1     		bne	.L62
 1219              		.loc 1 437 0
 1220 006a 05F14402 		add	r2, r5, #68
 1221 006e E8E7     		b	.L73
 1222              		.cfi_endproc
 1223              	.LFE297:
 1224              		.size	sduDataTransmitted, .-sduDataTransmitted
 1225              		.section	.text.sduDataReceived,"ax",%progbits
 1226              		.align	1
 1227              		.global	sduDataReceived
 1228              		.syntax unified
 1229              		.thumb
 1230              		.thumb_func
 1231              		.fpu fpv4-sp-d16
 1232              		.type	sduDataReceived, %function
 1233              	sduDataReceived:
 1234              	.LFB298:
 1235              		.loc 1 455 0
 1236              		.cfi_startproc
 1237              		@ args = 0, pretend = 0, frame = 0
 1238              		@ frame_needed = 0, uses_anonymous_args = 0
 1239              	.LVL116:
 1240              		.loc 1 456 0
 1241 0000 0931     		adds	r1, r1, #9
 1242              	.LVL117:
 1243              		.loc 1 455 0
 1244 0002 10B5     		push	{r4, lr}
 1245              		.cfi_def_cfa_offset 8
 1246              		.cfi_offset 4, -8
 1247              		.cfi_offset 14, -4
 1248              		.loc 1 456 0
 1249 0004 50F82140 		ldr	r4, [r0, r1, lsl #2]
 1250              	.LVL118:
 1251              		.loc 1 457 0
 1252 0008 ECB1     		cbz	r4, .L74
 1253              	.LVL119:
 1254              	.LBB219:
ARM GAS  C:\cygwin64\tmp\ccRGO8vd.s 			page 23


 1255              	.LBB220:
 1256              	.LBB221:
 1257              	.LBB222:
 1258              	.LBB223:
 1259              	.LBB224:
 1260              	.LBB225:
 1261              		.loc 3 264 0
 1262 000a 2023     		movs	r3, #32
 1263              		.syntax unified
 1264              	@ 264 "../../modules/ChibiOS/os/common/ext/CMSIS/include/cmsis_gcc.h" 1
 1265 000c 83F31188 		MSR basepri, r3
 1266              	@ 0 "" 2
 1267              	.LVL120:
 1268              		.thumb
 1269              		.syntax unified
 1270              	.LBE225:
 1271              	.LBE224:
 1272              	.LBE223:
 1273              	.LBE222:
 1274              		.loc 4 417 0
 1275 0010 FFF7FEFF 		bl	_stats_start_measure_crit_isr
 1276              	.LVL121:
 1277              	.LBE221:
 1278              	.LBE220:
 1279              	.LBE219:
 1280              	.LBB226:
 1281              	.LBB227:
 1282              		.loc 5 844 0
 1283 0014 0421     		movs	r1, #4
 1284 0016 6018     		adds	r0, r4, r1
 1285              	.LVL122:
 1286 0018 FFF7FEFF 		bl	chEvtBroadcastFlagsI
 1287              	.LVL123:
 1288              	.LBE227:
 1289              	.LBE226:
 1290              		.loc 1 468 0
 1291 001c D4F88C24 		ldr	r2, [r4, #1164]
 1292 0020 1368     		ldr	r3, [r2]
 1293 0022 5279     		ldrb	r2, [r2, #5]	@ zero_extendqisi2
 1294 0024 03EB8203 		add	r3, r3, r2, lsl #2
 1295              		.loc 1 467 0
 1296 0028 04F10C00 		add	r0, r4, #12
 1297              		.loc 1 468 0
 1298 002c DB68     		ldr	r3, [r3, #12]
 1299              		.loc 1 467 0
 1300 002e 9B69     		ldr	r3, [r3, #24]
 1301 0030 5968     		ldr	r1, [r3, #4]
 1302 0032 FFF7FEFF 		bl	ibqPostFullBufferI
 1303              	.LVL124:
 1304              		.loc 1 474 0
 1305 0036 2046     		mov	r0, r4
 1306 0038 FFF7FEFF 		bl	sdu_start_receive
 1307              	.LVL125:
 1308              	.LBB228:
 1309              	.LBB229:
 1310              	.LBB230:
 1311              		.loc 4 437 0
ARM GAS  C:\cygwin64\tmp\ccRGO8vd.s 			page 24


 1312 003c FFF7FEFF 		bl	_stats_stop_measure_crit_isr
 1313              	.LVL126:
 1314              	.LBB231:
 1315              	.LBB232:
 1316              	.LBB233:
 1317              	.LBB234:
 1318              		.loc 3 264 0
 1319 0040 0023     		movs	r3, #0
 1320              		.syntax unified
 1321              	@ 264 "../../modules/ChibiOS/os/common/ext/CMSIS/include/cmsis_gcc.h" 1
 1322 0042 83F31188 		MSR basepri, r3
 1323              	@ 0 "" 2
 1324              	.LVL127:
 1325              		.thumb
 1326              		.syntax unified
 1327              	.L74:
 1328 0046 10BD     		pop	{r4, pc}
 1329              	.LBE234:
 1330              	.LBE233:
 1331              	.LBE232:
 1332              	.LBE231:
 1333              	.LBE230:
 1334              	.LBE229:
 1335              	.LBE228:
 1336              		.cfi_endproc
 1337              	.LFE298:
 1338              		.size	sduDataReceived, .-sduDataReceived
 1339              		.section	.text.sduInterruptTransmitted,"ax",%progbits
 1340              		.align	1
 1341              		.global	sduInterruptTransmitted
 1342              		.syntax unified
 1343              		.thumb
 1344              		.thumb_func
 1345              		.fpu fpv4-sp-d16
 1346              		.type	sduInterruptTransmitted, %function
 1347              	sduInterruptTransmitted:
 1348              	.LFB299:
 1349              		.loc 1 487 0
 1350              		.cfi_startproc
 1351              		@ args = 0, pretend = 0, frame = 0
 1352              		@ frame_needed = 0, uses_anonymous_args = 0
 1353              		@ link register save eliminated.
 1354              	.LVL128:
 1355 0000 7047     		bx	lr
 1356              		.cfi_endproc
 1357              	.LFE299:
 1358              		.size	sduInterruptTransmitted, .-sduInterruptTransmitted
 1359              		.section	.data.linecoding,"aw",%progbits
 1360              		.set	.LANCHOR1,. + 0
 1361              		.type	linecoding, %object
 1362              		.size	linecoding, 7
 1363              	linecoding:
 1364 0000 00       		.byte	0
 1365 0001 96       		.byte	-106
 1366 0002 00       		.byte	0
 1367 0003 00       		.byte	0
 1368 0004 00       		.byte	0
ARM GAS  C:\cygwin64\tmp\ccRGO8vd.s 			page 25


 1369 0005 00       		.byte	0
 1370 0006 08       		.byte	8
 1371              		.section	.rodata.vmt,"a",%progbits
 1372              		.align	2
 1373              		.set	.LANCHOR0,. + 0
 1374              		.type	vmt, %object
 1375              		.size	vmt, 32
 1376              	vmt:
 1377 0000 00000000 		.word	_write
 1378 0004 00000000 		.word	_read
 1379 0008 00000000 		.word	_put
 1380 000c 00000000 		.word	_get
 1381 0010 00000000 		.word	_putt
 1382 0014 00000000 		.word	_gett
 1383 0018 00000000 		.word	_writet
 1384 001c 00000000 		.word	_readt
 1385              		.text
 1386              	.Letext0:
 1387              		.file 6 "c:\\program files (x86)\\gnu tools arm embedded\\6 2017-q2-update\\lib\\gcc\\arm-none-eab
 1388              		.file 7 "c:\\program files (x86)\\gnu tools arm embedded\\6 2017-q2-update\\arm-none-eabi\\include
 1389              		.file 8 "c:\\program files (x86)\\gnu tools arm embedded\\6 2017-q2-update\\arm-none-eabi\\include
 1390              		.file 9 "../../modules/ChibiOS/os/common/ports/ARMCMx/compilers/GCC/chtypes.h"
 1391              		.file 10 "../../modules/ChibiOS/os/rt/include/chsystypes.h"
 1392              		.file 11 "../../modules/ChibiOS/os/rt/include/chschd.h"
 1393              		.file 12 "../../modules/ChibiOS/os/common/ext/CMSIS/include/core_cm4.h"
 1394              		.file 13 "../../modules/ChibiOS/os/common/ext/CMSIS/ST/STM32F4xx/system_stm32f4xx.h"
 1395              		.file 14 "../../modules/ChibiOS/os/common/ext/CMSIS/ST/STM32F4xx/stm32f427xx.h"
 1396              		.file 15 "../../modules/ChibiOS/os/common/ports/ARMCMx/chcore.h"
 1397              		.file 16 "../../modules/ChibiOS/os/common/ports/ARMCMx/chcore_v7m.h"
 1398              		.file 17 "../../modules/ChibiOS/os/hal/ports/STM32/LLD/TIMv1/stm32_tim.h"
 1399              		.file 18 "../../modules/ChibiOS/os/rt/include/chtm.h"
 1400              		.file 19 "../../modules/ChibiOS/os/rt/include/chstats.h"
 1401              		.file 20 "../../modules/ChibiOS/os/rt/include/chsem.h"
 1402              		.file 21 "../../modules/ChibiOS/os/rt/include/chmtx.h"
 1403              		.file 22 "../../modules/ChibiOS/os/rt/include/chregistry.h"
 1404              		.file 23 "../../modules/ChibiOS/os/hal/ports/STM32/LLD/DMAv2/stm32_dma.h"
 1405              		.file 24 "../../modules/ChibiOS/os/hal/include/hal_ioblock.h"
 1406              		.file 25 "../../modules/ChibiOS/os/hal/include/hal_buffers.h"
 1407              		.file 26 "../../modules/ChibiOS/os/hal/include/hal_queues.h"
 1408              		.file 27 "../../modules/ChibiOS/os/hal/ports/STM32/LLD/GPIOv2/hal_pal_lld.h"
 1409              		.file 28 "../../modules/ChibiOS/os/hal/include/hal_adc.h"
 1410              		.file 29 "../../modules/ChibiOS/os/hal/ports/STM32/LLD/ADCv2/hal_adc_lld.h"
 1411              		.file 30 "../../modules/ChibiOS/os/hal/include/hal_ext.h"
 1412              		.file 31 "../../modules/ChibiOS/os/hal/ports/STM32/LLD/EXTIv1/hal_ext_lld.h"
 1413              		.file 32 "../../modules/ChibiOS/os/hal/include/hal_i2c.h"
 1414              		.file 33 "../../modules/ChibiOS/os/hal/ports/STM32/LLD/I2Cv1/hal_i2c_lld.h"
 1415              		.file 34 "../../modules/ChibiOS/os/hal/include/hal_pwm.h"
 1416              		.file 35 "../../modules/ChibiOS/os/hal/ports/STM32/LLD/TIMv1/hal_pwm_lld.h"
 1417              		.file 36 "../../modules/ChibiOS/os/hal/include/hal_serial.h"
 1418              		.file 37 "../../modules/ChibiOS/os/hal/ports/STM32/LLD/USARTv1/hal_serial_lld.h"
 1419              		.file 38 "../../modules/ChibiOS/os/hal/include/hal_sdc.h"
 1420              		.file 39 "../../modules/ChibiOS/os/hal/ports/STM32/LLD/SDIOv1/hal_sdc_lld.h"
 1421              		.file 40 "../../modules/ChibiOS/os/hal/include/hal_spi.h"
 1422              		.file 41 "../../modules/ChibiOS/os/hal/ports/STM32/LLD/SPIv1/hal_spi_lld.h"
 1423              		.file 42 "../../modules/ChibiOS/os/hal/include/hal_usb.h"
 1424              		.file 43 "../../modules/ChibiOS/os/hal/ports/STM32/LLD/OTGv1/hal_usb_lld.h"
 1425              		.file 44 "../../modules/ChibiOS/os/hal/ports/STM32/LLD/OTGv1/stm32_otg.h"
ARM GAS  C:\cygwin64\tmp\ccRGO8vd.s 			page 26


 1426              		.file 45 "../../modules/ChibiOS/os/hal/include/hal_usb_cdc.h"
 1427              		.file 46 "../../modules/ChibiOS/os/hal/include/hal_serial_usb.h"
 1428              		.file 47 "../../modules/ChibiOS/os/rt/include/chthreads.h"