ARM GAS  C:\cygwin64\tmp\ccs11djw.s 			page 1


   1              		.cpu cortex-m4
   2              		.eabi_attribute 27, 1
   3              		.eabi_attribute 28, 1
   4              		.eabi_attribute 20, 1
   5              		.eabi_attribute 21, 1
   6              		.eabi_attribute 23, 3
   7              		.eabi_attribute 24, 1
   8              		.eabi_attribute 25, 1
   9              		.eabi_attribute 26, 1
  10              		.eabi_attribute 30, 4
  11              		.eabi_attribute 34, 1
  12              		.eabi_attribute 18, 4
  13              		.file	"hal_pwm.c"
  14              		.text
  15              	.Ltext0:
  16              		.cfi_sections	.debug_frame
  17              		.section	.text.chSysLock,"ax",%progbits
  18              		.align	1
  19              		.syntax unified
  20              		.thumb
  21              		.thumb_func
  22              		.fpu fpv4-sp-d16
  23              		.type	chSysLock, %function
  24              	chSysLock:
  25              	.LFB167:
  26              		.file 1 "../../modules/ChibiOS/os/rt/include/chsys.h"
  27              		.loc 1 374 0
  28              		.cfi_startproc
  29              		@ args = 0, pretend = 0, frame = 0
  30              		@ frame_needed = 0, uses_anonymous_args = 0
  31              		@ link register save eliminated.
  32              	.LVL0:
  33              	.LBB50:
  34              	.LBB51:
  35              	.LBB52:
  36              		.file 2 "../../modules/ChibiOS/os/common/ext/CMSIS/include/cmsis_gcc.h"
  37              		.loc 2 264 0
  38 0000 2023     		movs	r3, #32
  39              		.syntax unified
  40              	@ 264 "../../modules/ChibiOS/os/common/ext/CMSIS/include/cmsis_gcc.h" 1
  41 0002 83F31188 		MSR basepri, r3
  42              	@ 0 "" 2
  43              	.LVL1:
  44              		.thumb
  45              		.syntax unified
  46              	.LBE52:
  47              	.LBE51:
  48              	.LBE50:
  49              		.loc 1 377 0
  50 0006 FFF7FEBF 		b	_stats_start_measure_crit_thd
  51              	.LVL2:
  52              		.cfi_endproc
  53              	.LFE167:
  54              		.size	chSysLock, .-chSysLock
  55              		.section	.text.chSysUnlock,"ax",%progbits
  56              		.align	1
  57              		.syntax unified
ARM GAS  C:\cygwin64\tmp\ccs11djw.s 			page 2


  58              		.thumb
  59              		.thumb_func
  60              		.fpu fpv4-sp-d16
  61              		.type	chSysUnlock, %function
  62              	chSysUnlock:
  63              	.LFB168:
  64              		.loc 1 386 0
  65              		.cfi_startproc
  66              		@ args = 0, pretend = 0, frame = 0
  67              		@ frame_needed = 0, uses_anonymous_args = 0
  68 0000 08B5     		push	{r3, lr}
  69              		.cfi_def_cfa_offset 8
  70              		.cfi_offset 3, -8
  71              		.cfi_offset 14, -4
  72              		.loc 1 389 0
  73 0002 FFF7FEFF 		bl	_stats_stop_measure_crit_thd
  74              	.LVL3:
  75              	.LBB53:
  76              	.LBB54:
  77              	.LBB55:
  78              		.loc 2 264 0
  79 0006 0023     		movs	r3, #0
  80              		.syntax unified
  81              	@ 264 "../../modules/ChibiOS/os/common/ext/CMSIS/include/cmsis_gcc.h" 1
  82 0008 83F31188 		MSR basepri, r3
  83              	@ 0 "" 2
  84              	.LVL4:
  85              		.thumb
  86              		.syntax unified
  87 000c 08BD     		pop	{r3, pc}
  88              	.LBE55:
  89              	.LBE54:
  90              	.LBE53:
  91              		.cfi_endproc
  92              	.LFE168:
  93              		.size	chSysUnlock, .-chSysUnlock
  94              		.section	.text.pwmInit,"ax",%progbits
  95              		.align	1
  96              		.global	pwmInit
  97              		.syntax unified
  98              		.thumb
  99              		.thumb_func
 100              		.fpu fpv4-sp-d16
 101              		.type	pwmInit, %function
 102              	pwmInit:
 103              	.LFB277:
 104              		.file 3 "../../modules/ChibiOS/os/hal/src/hal_pwm.c"
 105              		.loc 3 56 0
 106              		.cfi_startproc
 107              		@ args = 0, pretend = 0, frame = 0
 108              		@ frame_needed = 0, uses_anonymous_args = 0
 109              		@ link register save eliminated.
 110              		.loc 3 58 0
 111 0000 FFF7FEBF 		b	pwm_lld_init
 112              	.LVL5:
 113              		.cfi_endproc
 114              	.LFE277:
ARM GAS  C:\cygwin64\tmp\ccs11djw.s 			page 3


 115              		.size	pwmInit, .-pwmInit
 116              		.section	.text.pwmObjectInit,"ax",%progbits
 117              		.align	1
 118              		.global	pwmObjectInit
 119              		.syntax unified
 120              		.thumb
 121              		.thumb_func
 122              		.fpu fpv4-sp-d16
 123              		.type	pwmObjectInit, %function
 124              	pwmObjectInit:
 125              	.LFB278:
 126              		.loc 3 68 0
 127              		.cfi_startproc
 128              		@ args = 0, pretend = 0, frame = 0
 129              		@ frame_needed = 0, uses_anonymous_args = 0
 130              		@ link register save eliminated.
 131              	.LVL6:
 132              		.loc 3 70 0
 133 0000 0123     		movs	r3, #1
 134 0002 0370     		strb	r3, [r0]
 135              		.loc 3 71 0
 136 0004 0023     		movs	r3, #0
 137 0006 4360     		str	r3, [r0, #4]
 138              		.loc 3 72 0
 139 0008 C360     		str	r3, [r0, #12]
 140              		.loc 3 73 0
 141 000a 0374     		strb	r3, [r0, #16]
 142 000c 7047     		bx	lr
 143              		.cfi_endproc
 144              	.LFE278:
 145              		.size	pwmObjectInit, .-pwmObjectInit
 146              		.section	.text.pwmStart,"ax",%progbits
 147              		.align	1
 148              		.global	pwmStart
 149              		.syntax unified
 150              		.thumb
 151              		.thumb_func
 152              		.fpu fpv4-sp-d16
 153              		.type	pwmStart, %function
 154              	pwmStart:
 155              	.LFB279:
 156              		.loc 3 89 0
 157              		.cfi_startproc
 158              		@ args = 0, pretend = 0, frame = 0
 159              		@ frame_needed = 0, uses_anonymous_args = 0
 160              	.LVL7:
 161 0000 38B5     		push	{r3, r4, r5, lr}
 162              		.cfi_def_cfa_offset 16
 163              		.cfi_offset 3, -16
 164              		.cfi_offset 4, -12
 165              		.cfi_offset 5, -8
 166              		.cfi_offset 14, -4
 167              		.loc 3 89 0
 168 0002 0D46     		mov	r5, r1
 169 0004 0446     		mov	r4, r0
 170              	.LBB56:
 171              	.LBB57:
ARM GAS  C:\cygwin64\tmp\ccs11djw.s 			page 4


 172              		.file 4 "../../modules/ChibiOS/os/hal/osal/rt/osal.h"
 173              		.loc 4 493 0
 174 0006 FFF7FEFF 		bl	chSysLock
 175              	.LVL8:
 176              	.LBE57:
 177              	.LBE56:
 178              		.loc 3 97 0
 179 000a 6B68     		ldr	r3, [r5, #4]
 180 000c A360     		str	r3, [r4, #8]
 181              		.loc 3 96 0
 182 000e 6560     		str	r5, [r4, #4]
 183              		.loc 3 98 0
 184 0010 2046     		mov	r0, r4
 185 0012 FFF7FEFF 		bl	pwm_lld_start
 186              	.LVL9:
 187              		.loc 3 99 0
 188 0016 0023     		movs	r3, #0
 189 0018 E360     		str	r3, [r4, #12]
 190              		.loc 3 100 0
 191 001a 0223     		movs	r3, #2
 192 001c 2370     		strb	r3, [r4]
 193              		.loc 3 102 0
 194 001e BDE83840 		pop	{r3, r4, r5, lr}
 195              		.cfi_restore 14
 196              		.cfi_restore 5
 197              		.cfi_restore 4
 198              		.cfi_restore 3
 199              		.cfi_def_cfa_offset 0
 200              	.LVL10:
 201              	.LBB58:
 202              	.LBB59:
 203              		.loc 4 504 0
 204 0022 FFF7FEBF 		b	chSysUnlock
 205              	.LVL11:
 206              	.LBE59:
 207              	.LBE58:
 208              		.cfi_endproc
 209              	.LFE279:
 210              		.size	pwmStart, .-pwmStart
 211              		.section	.text.pwmStop,"ax",%progbits
 212              		.align	1
 213              		.global	pwmStop
 214              		.syntax unified
 215              		.thumb
 216              		.thumb_func
 217              		.fpu fpv4-sp-d16
 218              		.type	pwmStop, %function
 219              	pwmStop:
 220              	.LFB280:
 221              		.loc 3 111 0
 222              		.cfi_startproc
 223              		@ args = 0, pretend = 0, frame = 0
 224              		@ frame_needed = 0, uses_anonymous_args = 0
 225              	.LVL12:
 226 0000 10B5     		push	{r4, lr}
 227              		.cfi_def_cfa_offset 8
 228              		.cfi_offset 4, -8
ARM GAS  C:\cygwin64\tmp\ccs11djw.s 			page 5


 229              		.cfi_offset 14, -4
 230              		.loc 3 111 0
 231 0002 0446     		mov	r4, r0
 232              	.LBB60:
 233              	.LBB61:
 234              		.loc 4 493 0
 235 0004 FFF7FEFF 		bl	chSysLock
 236              	.LVL13:
 237              	.LBE61:
 238              	.LBE60:
 239              		.loc 3 120 0
 240 0008 2046     		mov	r0, r4
 241 000a FFF7FEFF 		bl	pwm_lld_stop
 242              	.LVL14:
 243              		.loc 3 121 0
 244 000e 0023     		movs	r3, #0
 245 0010 E360     		str	r3, [r4, #12]
 246              		.loc 3 122 0
 247 0012 6360     		str	r3, [r4, #4]
 248              		.loc 3 123 0
 249 0014 0123     		movs	r3, #1
 250 0016 2370     		strb	r3, [r4]
 251              		.loc 3 126 0
 252 0018 BDE81040 		pop	{r4, lr}
 253              		.cfi_restore 14
 254              		.cfi_restore 4
 255              		.cfi_def_cfa_offset 0
 256              	.LVL15:
 257              	.LBB62:
 258              	.LBB63:
 259              		.loc 4 504 0
 260 001c FFF7FEBF 		b	chSysUnlock
 261              	.LVL16:
 262              	.LBE63:
 263              	.LBE62:
 264              		.cfi_endproc
 265              	.LFE280:
 266              		.size	pwmStop, .-pwmStop
 267              		.section	.text.pwmChangePeriod,"ax",%progbits
 268              		.align	1
 269              		.global	pwmChangePeriod
 270              		.syntax unified
 271              		.thumb
 272              		.thumb_func
 273              		.fpu fpv4-sp-d16
 274              		.type	pwmChangePeriod, %function
 275              	pwmChangePeriod:
 276              	.LFB281:
 277              		.loc 3 143 0
 278              		.cfi_startproc
 279              		@ args = 0, pretend = 0, frame = 0
 280              		@ frame_needed = 0, uses_anonymous_args = 0
 281              	.LVL17:
 282 0000 38B5     		push	{r3, r4, r5, lr}
 283              		.cfi_def_cfa_offset 16
 284              		.cfi_offset 3, -16
 285              		.cfi_offset 4, -12
ARM GAS  C:\cygwin64\tmp\ccs11djw.s 			page 6


 286              		.cfi_offset 5, -8
 287              		.cfi_offset 14, -4
 288              		.loc 3 143 0
 289 0002 0546     		mov	r5, r0
 290 0004 0C46     		mov	r4, r1
 291              	.LBB64:
 292              	.LBB65:
 293              		.loc 4 493 0
 294 0006 FFF7FEFF 		bl	chSysLock
 295              	.LVL18:
 296              	.LBE65:
 297              	.LBE64:
 298              		.loc 3 149 0
 299 000a AB69     		ldr	r3, [r5, #24]
 300 000c AC60     		str	r4, [r5, #8]
 301 000e 013C     		subs	r4, r4, #1
 302              	.LVL19:
 303 0010 DC62     		str	r4, [r3, #44]
 304              		.loc 3 151 0
 305 0012 BDE83840 		pop	{r3, r4, r5, lr}
 306              		.cfi_restore 14
 307              		.cfi_restore 5
 308              		.cfi_restore 4
 309              		.cfi_restore 3
 310              		.cfi_def_cfa_offset 0
 311              	.LVL20:
 312              	.LBB66:
 313              	.LBB67:
 314              		.loc 4 504 0
 315 0016 FFF7FEBF 		b	chSysUnlock
 316              	.LVL21:
 317              	.LBE67:
 318              	.LBE66:
 319              		.cfi_endproc
 320              	.LFE281:
 321              		.size	pwmChangePeriod, .-pwmChangePeriod
 322              		.section	.text.pwmEnableChannel,"ax",%progbits
 323              		.align	1
 324              		.global	pwmEnableChannel
 325              		.syntax unified
 326              		.thumb
 327              		.thumb_func
 328              		.fpu fpv4-sp-d16
 329              		.type	pwmEnableChannel, %function
 330              	pwmEnableChannel:
 331              	.LFB282:
 332              		.loc 3 169 0
 333              		.cfi_startproc
 334              		@ args = 0, pretend = 0, frame = 0
 335              		@ frame_needed = 0, uses_anonymous_args = 0
 336              	.LVL22:
 337 0000 70B5     		push	{r4, r5, r6, lr}
 338              		.cfi_def_cfa_offset 16
 339              		.cfi_offset 4, -16
 340              		.cfi_offset 5, -12
 341              		.cfi_offset 6, -8
 342              		.cfi_offset 14, -4
ARM GAS  C:\cygwin64\tmp\ccs11djw.s 			page 7


 343              		.loc 3 169 0
 344 0002 0446     		mov	r4, r0
 345 0004 0D46     		mov	r5, r1
 346 0006 1646     		mov	r6, r2
 347              	.LBB68:
 348              	.LBB69:
 349              		.loc 4 493 0
 350 0008 FFF7FEFF 		bl	chSysLock
 351              	.LVL23:
 352              	.LBE69:
 353              	.LBE68:
 354              		.loc 3 177 0
 355 000c 0123     		movs	r3, #1
 356 000e 03FA05F0 		lsl	r0, r3, r5
 357 0012 E368     		ldr	r3, [r4, #12]
 358 0014 0343     		orrs	r3, r3, r0
 359 0016 E360     		str	r3, [r4, #12]
 360 0018 3246     		mov	r2, r6
 361 001a 2946     		mov	r1, r5
 362 001c 2046     		mov	r0, r4
 363 001e FFF7FEFF 		bl	pwm_lld_enable_channel
 364              	.LVL24:
 365              		.loc 3 180 0
 366 0022 BDE87040 		pop	{r4, r5, r6, lr}
 367              		.cfi_restore 14
 368              		.cfi_restore 6
 369              		.cfi_restore 5
 370              		.cfi_restore 4
 371              		.cfi_def_cfa_offset 0
 372              	.LVL25:
 373              	.LBB70:
 374              	.LBB71:
 375              		.loc 4 504 0
 376 0026 FFF7FEBF 		b	chSysUnlock
 377              	.LVL26:
 378              	.LBE71:
 379              	.LBE70:
 380              		.cfi_endproc
 381              	.LFE282:
 382              		.size	pwmEnableChannel, .-pwmEnableChannel
 383              		.section	.text.pwmDisableChannel,"ax",%progbits
 384              		.align	1
 385              		.global	pwmDisableChannel
 386              		.syntax unified
 387              		.thumb
 388              		.thumb_func
 389              		.fpu fpv4-sp-d16
 390              		.type	pwmDisableChannel, %function
 391              	pwmDisableChannel:
 392              	.LFB283:
 393              		.loc 3 196 0
 394              		.cfi_startproc
 395              		@ args = 0, pretend = 0, frame = 0
 396              		@ frame_needed = 0, uses_anonymous_args = 0
 397              	.LVL27:
 398 0000 38B5     		push	{r3, r4, r5, lr}
 399              		.cfi_def_cfa_offset 16
ARM GAS  C:\cygwin64\tmp\ccs11djw.s 			page 8


 400              		.cfi_offset 3, -16
 401              		.cfi_offset 4, -12
 402              		.cfi_offset 5, -8
 403              		.cfi_offset 14, -4
 404              		.loc 3 196 0
 405 0002 0446     		mov	r4, r0
 406 0004 0D46     		mov	r5, r1
 407              	.LBB72:
 408              	.LBB73:
 409              		.loc 4 493 0
 410 0006 FFF7FEFF 		bl	chSysLock
 411              	.LVL28:
 412              	.LBE73:
 413              	.LBE72:
 414              		.loc 3 204 0
 415 000a 0123     		movs	r3, #1
 416 000c 03FA05F2 		lsl	r2, r3, r5
 417 0010 E368     		ldr	r3, [r4, #12]
 418 0012 23EA0203 		bic	r3, r3, r2
 419 0016 E360     		str	r3, [r4, #12]
 420 0018 2946     		mov	r1, r5
 421 001a 2046     		mov	r0, r4
 422 001c FFF7FEFF 		bl	pwm_lld_disable_channel
 423              	.LVL29:
 424              		.loc 3 207 0
 425 0020 BDE83840 		pop	{r3, r4, r5, lr}
 426              		.cfi_restore 14
 427              		.cfi_restore 5
 428              		.cfi_restore 4
 429              		.cfi_restore 3
 430              		.cfi_def_cfa_offset 0
 431              	.LVL30:
 432              	.LBB74:
 433              	.LBB75:
 434              		.loc 4 504 0
 435 0024 FFF7FEBF 		b	chSysUnlock
 436              	.LVL31:
 437              	.LBE75:
 438              	.LBE74:
 439              		.cfi_endproc
 440              	.LFE283:
 441              		.size	pwmDisableChannel, .-pwmDisableChannel
 442              		.section	.text.pwmEnablePeriodicNotification,"ax",%progbits
 443              		.align	1
 444              		.global	pwmEnablePeriodicNotification
 445              		.syntax unified
 446              		.thumb
 447              		.thumb_func
 448              		.fpu fpv4-sp-d16
 449              		.type	pwmEnablePeriodicNotification, %function
 450              	pwmEnablePeriodicNotification:
 451              	.LFB284:
 452              		.loc 3 218 0
 453              		.cfi_startproc
 454              		@ args = 0, pretend = 0, frame = 0
 455              		@ frame_needed = 0, uses_anonymous_args = 0
 456              	.LVL32:
ARM GAS  C:\cygwin64\tmp\ccs11djw.s 			page 9


 457 0000 10B5     		push	{r4, lr}
 458              		.cfi_def_cfa_offset 8
 459              		.cfi_offset 4, -8
 460              		.cfi_offset 14, -4
 461              		.loc 3 218 0
 462 0002 0446     		mov	r4, r0
 463              	.LBB76:
 464              	.LBB77:
 465              		.loc 4 493 0
 466 0004 FFF7FEFF 		bl	chSysLock
 467              	.LVL33:
 468              	.LBE77:
 469              	.LBE76:
 470              		.loc 3 227 0
 471 0008 2046     		mov	r0, r4
 472 000a FFF7FEFF 		bl	pwm_lld_enable_periodic_notification
 473              	.LVL34:
 474              		.loc 3 230 0
 475 000e BDE81040 		pop	{r4, lr}
 476              		.cfi_restore 14
 477              		.cfi_restore 4
 478              		.cfi_def_cfa_offset 0
 479              	.LVL35:
 480              	.LBB78:
 481              	.LBB79:
 482              		.loc 4 504 0
 483 0012 FFF7FEBF 		b	chSysUnlock
 484              	.LVL36:
 485              	.LBE79:
 486              	.LBE78:
 487              		.cfi_endproc
 488              	.LFE284:
 489              		.size	pwmEnablePeriodicNotification, .-pwmEnablePeriodicNotification
 490              		.section	.text.pwmDisablePeriodicNotification,"ax",%progbits
 491              		.align	1
 492              		.global	pwmDisablePeriodicNotification
 493              		.syntax unified
 494              		.thumb
 495              		.thumb_func
 496              		.fpu fpv4-sp-d16
 497              		.type	pwmDisablePeriodicNotification, %function
 498              	pwmDisablePeriodicNotification:
 499              	.LFB285:
 500              		.loc 3 241 0
 501              		.cfi_startproc
 502              		@ args = 0, pretend = 0, frame = 0
 503              		@ frame_needed = 0, uses_anonymous_args = 0
 504              	.LVL37:
 505 0000 10B5     		push	{r4, lr}
 506              		.cfi_def_cfa_offset 8
 507              		.cfi_offset 4, -8
 508              		.cfi_offset 14, -4
 509              		.loc 3 241 0
 510 0002 0446     		mov	r4, r0
 511              	.LBB80:
 512              	.LBB81:
 513              		.loc 4 493 0
ARM GAS  C:\cygwin64\tmp\ccs11djw.s 			page 10


 514 0004 FFF7FEFF 		bl	chSysLock
 515              	.LVL38:
 516              	.LBE81:
 517              	.LBE80:
 518              		.loc 3 250 0
 519 0008 2046     		mov	r0, r4
 520 000a FFF7FEFF 		bl	pwm_lld_disable_periodic_notification
 521              	.LVL39:
 522              		.loc 3 253 0
 523 000e BDE81040 		pop	{r4, lr}
 524              		.cfi_restore 14
 525              		.cfi_restore 4
 526              		.cfi_def_cfa_offset 0
 527              	.LVL40:
 528              	.LBB82:
 529              	.LBB83:
 530              		.loc 4 504 0
 531 0012 FFF7FEBF 		b	chSysUnlock
 532              	.LVL41:
 533              	.LBE83:
 534              	.LBE82:
 535              		.cfi_endproc
 536              	.LFE285:
 537              		.size	pwmDisablePeriodicNotification, .-pwmDisablePeriodicNotification
 538              		.section	.text.pwmEnableChannelNotification,"ax",%progbits
 539              		.align	1
 540              		.global	pwmEnableChannelNotification
 541              		.syntax unified
 542              		.thumb
 543              		.thumb_func
 544              		.fpu fpv4-sp-d16
 545              		.type	pwmEnableChannelNotification, %function
 546              	pwmEnableChannelNotification:
 547              	.LFB286:
 548              		.loc 3 266 0
 549              		.cfi_startproc
 550              		@ args = 0, pretend = 0, frame = 0
 551              		@ frame_needed = 0, uses_anonymous_args = 0
 552              	.LVL42:
 553 0000 38B5     		push	{r3, r4, r5, lr}
 554              		.cfi_def_cfa_offset 16
 555              		.cfi_offset 3, -16
 556              		.cfi_offset 4, -12
 557              		.cfi_offset 5, -8
 558              		.cfi_offset 14, -4
 559              		.loc 3 266 0
 560 0002 0446     		mov	r4, r0
 561 0004 0D46     		mov	r5, r1
 562              	.LBB84:
 563              	.LBB85:
 564              		.loc 4 493 0
 565 0006 FFF7FEFF 		bl	chSysLock
 566              	.LVL43:
 567              	.LBE85:
 568              	.LBE84:
 569              		.loc 3 278 0
 570 000a 2946     		mov	r1, r5
ARM GAS  C:\cygwin64\tmp\ccs11djw.s 			page 11


 571 000c 2046     		mov	r0, r4
 572 000e FFF7FEFF 		bl	pwm_lld_enable_channel_notification
 573              	.LVL44:
 574              		.loc 3 281 0
 575 0012 BDE83840 		pop	{r3, r4, r5, lr}
 576              		.cfi_restore 14
 577              		.cfi_restore 5
 578              		.cfi_restore 4
 579              		.cfi_restore 3
 580              		.cfi_def_cfa_offset 0
 581              	.LVL45:
 582              	.LBB86:
 583              	.LBB87:
 584              		.loc 4 504 0
 585 0016 FFF7FEBF 		b	chSysUnlock
 586              	.LVL46:
 587              	.LBE87:
 588              	.LBE86:
 589              		.cfi_endproc
 590              	.LFE286:
 591              		.size	pwmEnableChannelNotification, .-pwmEnableChannelNotification
 592              		.section	.text.pwmDisableChannelNotification,"ax",%progbits
 593              		.align	1
 594              		.global	pwmDisableChannelNotification
 595              		.syntax unified
 596              		.thumb
 597              		.thumb_func
 598              		.fpu fpv4-sp-d16
 599              		.type	pwmDisableChannelNotification, %function
 600              	pwmDisableChannelNotification:
 601              	.LFB287:
 602              		.loc 3 294 0
 603              		.cfi_startproc
 604              		@ args = 0, pretend = 0, frame = 0
 605              		@ frame_needed = 0, uses_anonymous_args = 0
 606              	.LVL47:
 607 0000 38B5     		push	{r3, r4, r5, lr}
 608              		.cfi_def_cfa_offset 16
 609              		.cfi_offset 3, -16
 610              		.cfi_offset 4, -12
 611              		.cfi_offset 5, -8
 612              		.cfi_offset 14, -4
 613              		.loc 3 294 0
 614 0002 0446     		mov	r4, r0
 615 0004 0D46     		mov	r5, r1
 616              	.LBB88:
 617              	.LBB89:
 618              		.loc 4 493 0
 619 0006 FFF7FEFF 		bl	chSysLock
 620              	.LVL48:
 621              	.LBE89:
 622              	.LBE88:
 623              		.loc 3 306 0
 624 000a 2946     		mov	r1, r5
 625 000c 2046     		mov	r0, r4
 626 000e FFF7FEFF 		bl	pwm_lld_disable_channel_notification
 627              	.LVL49:
ARM GAS  C:\cygwin64\tmp\ccs11djw.s 			page 12


 628              		.loc 3 309 0
 629 0012 BDE83840 		pop	{r3, r4, r5, lr}
 630              		.cfi_restore 14
 631              		.cfi_restore 5
 632              		.cfi_restore 4
 633              		.cfi_restore 3
 634              		.cfi_def_cfa_offset 0
 635              	.LVL50:
 636              	.LBB90:
 637              	.LBB91:
 638              		.loc 4 504 0
 639 0016 FFF7FEBF 		b	chSysUnlock
 640              	.LVL51:
 641              	.LBE91:
 642              	.LBE90:
 643              		.cfi_endproc
 644              	.LFE287:
 645              		.size	pwmDisableChannelNotification, .-pwmDisableChannelNotification
 646              		.text
 647              	.Letext0:
 648              		.file 5 "c:\\program files (x86)\\gnu tools arm embedded\\6 2017-q2-update\\lib\\gcc\\arm-none-eab
 649              		.file 6 "c:\\program files (x86)\\gnu tools arm embedded\\6 2017-q2-update\\arm-none-eabi\\include
 650              		.file 7 "c:\\program files (x86)\\gnu tools arm embedded\\6 2017-q2-update\\arm-none-eabi\\include
 651              		.file 8 "../../modules/ChibiOS/os/common/ports/ARMCMx/compilers/GCC/chtypes.h"
 652              		.file 9 "../../modules/ChibiOS/os/rt/include/chsystypes.h"
 653              		.file 10 "../../modules/ChibiOS/os/rt/include/chschd.h"
 654              		.file 11 "../../modules/ChibiOS/os/common/ext/CMSIS/include/core_cm4.h"
 655              		.file 12 "../../modules/ChibiOS/os/common/ext/CMSIS/ST/STM32F4xx/system_stm32f4xx.h"
 656              		.file 13 "../../modules/ChibiOS/os/common/ext/CMSIS/ST/STM32F4xx/stm32f427xx.h"
 657              		.file 14 "../../modules/ChibiOS/os/common/ports/ARMCMx/chcore.h"
 658              		.file 15 "../../modules/ChibiOS/os/common/ports/ARMCMx/chcore_v7m.h"
 659              		.file 16 "../../modules/ChibiOS/os/hal/ports/STM32/LLD/TIMv1/stm32_tim.h"
 660              		.file 17 "../../modules/ChibiOS/os/rt/include/chtm.h"
 661              		.file 18 "../../modules/ChibiOS/os/rt/include/chstats.h"
 662              		.file 19 "../../modules/ChibiOS/os/rt/include/chsem.h"
 663              		.file 20 "../../modules/ChibiOS/os/rt/include/chmtx.h"
 664              		.file 21 "../../modules/ChibiOS/os/rt/include/chregistry.h"
 665              		.file 22 "../../modules/ChibiOS/os/rt/include/chevents.h"
 666              		.file 23 "../../modules/ChibiOS/os/hal/ports/STM32/LLD/DMAv2/stm32_dma.h"
 667              		.file 24 "../../modules/ChibiOS/os/hal/include/hal_ioblock.h"
 668              		.file 25 "../../modules/ChibiOS/os/hal/include/hal_queues.h"
 669              		.file 26 "../../modules/ChibiOS/os/hal/ports/STM32/LLD/GPIOv2/hal_pal_lld.h"
 670              		.file 27 "../../modules/ChibiOS/os/hal/include/hal_adc.h"
 671              		.file 28 "../../modules/ChibiOS/os/hal/ports/STM32/LLD/ADCv2/hal_adc_lld.h"
 672              		.file 29 "../../modules/ChibiOS/os/hal/include/hal_ext.h"
 673              		.file 30 "../../modules/ChibiOS/os/hal/ports/STM32/LLD/EXTIv1/hal_ext_lld.h"
 674              		.file 31 "../../modules/ChibiOS/os/hal/include/hal_i2c.h"
 675              		.file 32 "../../modules/ChibiOS/os/hal/ports/STM32/LLD/I2Cv1/hal_i2c_lld.h"
 676              		.file 33 "../../modules/ChibiOS/os/hal/include/hal_pwm.h"
 677              		.file 34 "../../modules/ChibiOS/os/hal/ports/STM32/LLD/TIMv1/hal_pwm_lld.h"
 678              		.file 35 "../../modules/ChibiOS/os/hal/include/hal_serial.h"
 679              		.file 36 "../../modules/ChibiOS/os/hal/ports/STM32/LLD/USARTv1/hal_serial_lld.h"
 680              		.file 37 "../../modules/ChibiOS/os/hal/include/hal_sdc.h"
 681              		.file 38 "../../modules/ChibiOS/os/hal/ports/STM32/LLD/SDIOv1/hal_sdc_lld.h"
 682              		.file 39 "../../modules/ChibiOS/os/hal/include/hal_spi.h"
 683              		.file 40 "../../modules/ChibiOS/os/hal/ports/STM32/LLD/SPIv1/hal_spi_lld.h"
 684              		.file 41 "../../modules/ChibiOS/os/hal/include/hal_usb.h"
ARM GAS  C:\cygwin64\tmp\ccs11djw.s 			page 13


 685              		.file 42 "../../modules/ChibiOS/os/hal/ports/STM32/LLD/OTGv1/hal_usb_lld.h"
 686              		.file 43 "../../modules/ChibiOS/os/hal/ports/STM32/LLD/OTGv1/stm32_otg.h"