ARM GAS  C:\cygwin64\tmp\ccqqoHDf.s 			page 1


   1              		.cpu cortex-m4
   2              		.eabi_attribute 27, 1
   3              		.eabi_attribute 28, 1
   4              		.eabi_attribute 20, 1
   5              		.eabi_attribute 21, 1
   6              		.eabi_attribute 23, 3
   7              		.eabi_attribute 24, 1
   8              		.eabi_attribute 25, 1
   9              		.eabi_attribute 26, 1
  10              		.eabi_attribute 30, 4
  11              		.eabi_attribute 34, 1
  12              		.eabi_attribute 18, 4
  13              		.file	"hal_buffers.c"
  14              		.text
  15              	.Ltext0:
  16              		.cfi_sections	.debug_frame
  17              		.section	.text.chSysLock,"ax",%progbits
  18              		.align	1
  19              		.syntax unified
  20              		.thumb
  21              		.thumb_func
  22              		.fpu fpv4-sp-d16
  23              		.type	chSysLock, %function
  24              	chSysLock:
  25              	.LFB167:
  26              		.file 1 "../../modules/ChibiOS/os/rt/include/chsys.h"
  27              		.loc 1 374 0
  28              		.cfi_startproc
  29              		@ args = 0, pretend = 0, frame = 0
  30              		@ frame_needed = 0, uses_anonymous_args = 0
  31              		@ link register save eliminated.
  32              	.LVL0:
  33              	.LBB144:
  34              	.LBB145:
  35              	.LBB146:
  36              		.file 2 "../../modules/ChibiOS/os/common/ext/CMSIS/include/cmsis_gcc.h"
  37              		.loc 2 264 0
  38 0000 2023     		movs	r3, #32
  39              		.syntax unified
  40              	@ 264 "../../modules/ChibiOS/os/common/ext/CMSIS/include/cmsis_gcc.h" 1
  41 0002 83F31188 		MSR basepri, r3
  42              	@ 0 "" 2
  43              	.LVL1:
  44              		.thumb
  45              		.syntax unified
  46              	.LBE146:
  47              	.LBE145:
  48              	.LBE144:
  49              		.loc 1 377 0
  50 0006 FFF7FEBF 		b	_stats_start_measure_crit_thd
  51              	.LVL2:
  52              		.cfi_endproc
  53              	.LFE167:
  54              		.size	chSysLock, .-chSysLock
  55              		.section	.text.chSysUnlock,"ax",%progbits
  56              		.align	1
  57              		.syntax unified
ARM GAS  C:\cygwin64\tmp\ccqqoHDf.s 			page 2


  58              		.thumb
  59              		.thumb_func
  60              		.fpu fpv4-sp-d16
  61              		.type	chSysUnlock, %function
  62              	chSysUnlock:
  63              	.LFB168:
  64              		.loc 1 386 0
  65              		.cfi_startproc
  66              		@ args = 0, pretend = 0, frame = 0
  67              		@ frame_needed = 0, uses_anonymous_args = 0
  68 0000 08B5     		push	{r3, lr}
  69              		.cfi_def_cfa_offset 8
  70              		.cfi_offset 3, -8
  71              		.cfi_offset 14, -4
  72              		.loc 1 389 0
  73 0002 FFF7FEFF 		bl	_stats_stop_measure_crit_thd
  74              	.LVL3:
  75              	.LBB147:
  76              	.LBB148:
  77              	.LBB149:
  78              		.loc 2 264 0
  79 0006 0023     		movs	r3, #0
  80              		.syntax unified
  81              	@ 264 "../../modules/ChibiOS/os/common/ext/CMSIS/include/cmsis_gcc.h" 1
  82 0008 83F31188 		MSR basepri, r3
  83              	@ 0 "" 2
  84              	.LVL4:
  85              		.thumb
  86              		.syntax unified
  87 000c 08BD     		pop	{r3, pc}
  88              	.LBE149:
  89              	.LBE148:
  90              	.LBE147:
  91              		.cfi_endproc
  92              	.LFE168:
  93              		.size	chSysUnlock, .-chSysUnlock
  94              		.section	.text.ibqObjectInit,"ax",%progbits
  95              		.align	1
  96              		.global	ibqObjectInit
  97              		.syntax unified
  98              		.thumb
  99              		.thumb_func
 100              		.fpu fpv4-sp-d16
 101              		.type	ibqObjectInit, %function
 102              	ibqObjectInit:
 103              	.LFB277:
 104              		.file 3 "../../modules/ChibiOS/os/hal/src/hal_buffers.c"
 105              		.loc 3 77 0
 106              		.cfi_startproc
 107              		@ args = 12, pretend = 0, frame = 0
 108              		@ frame_needed = 0, uses_anonymous_args = 0
 109              	.LVL5:
 110 0000 30B5     		push	{r4, r5, lr}
 111              		.cfi_def_cfa_offset 12
 112              		.cfi_offset 4, -12
 113              		.cfi_offset 5, -8
 114              		.cfi_offset 14, -4
ARM GAS  C:\cygwin64\tmp\ccqqoHDf.s 			page 3


 115              		.loc 3 77 0
 116 0002 039C     		ldr	r4, [sp, #12]
 117              		.loc 3 82 0
 118 0004 0172     		strb	r1, [r0, #8]
 119              		.loc 3 86 0
 120 0006 0433     		adds	r3, r3, #4
 121              	.LVL6:
 122 0008 04FB0325 		mla	r5, r4, r3, r2
 123              		.loc 3 87 0
 124 000c C361     		str	r3, [r0, #28]
 125              		.loc 3 92 0
 126 000e 049B     		ldr	r3, [sp, #16]
 127              	.LVL7:
 128 0010 0363     		str	r3, [r0, #48]
 129              		.loc 3 83 0
 130 0012 0021     		movs	r1, #0
 131              	.LVL8:
 132              		.loc 3 93 0
 133 0014 059B     		ldr	r3, [sp, #20]
 134              	.LBB150:
 135              	.LBB151:
 136              	.LBB152:
 137              	.LBB153:
 138              		.file 4 "../../modules/ChibiOS/os/rt/include/chschd.h"
 139              		.loc 4 550 0
 140 0016 0060     		str	r0, [r0]
 141              		.loc 4 551 0
 142 0018 4060     		str	r0, [r0, #4]
 143              	.LVL9:
 144              	.LBE153:
 145              	.LBE152:
 146              	.LBE151:
 147              	.LBE150:
 148              		.loc 3 83 0
 149 001a C160     		str	r1, [r0, #12]
 150              		.loc 3 84 0
 151 001c 4261     		str	r2, [r0, #20]
 152              		.loc 3 85 0
 153 001e 0261     		str	r2, [r0, #16]
 154              		.loc 3 86 0
 155 0020 8561     		str	r5, [r0, #24]
 156              		.loc 3 88 0
 157 0022 0462     		str	r4, [r0, #32]
 158              		.loc 3 89 0
 159 0024 4262     		str	r2, [r0, #36]
 160              		.loc 3 90 0
 161 0026 8162     		str	r1, [r0, #40]
 162              		.loc 3 91 0
 163 0028 C162     		str	r1, [r0, #44]
 164              		.loc 3 93 0
 165 002a 4363     		str	r3, [r0, #52]
 166 002c 30BD     		pop	{r4, r5, pc}
 167              		.cfi_endproc
 168              	.LFE277:
 169              		.size	ibqObjectInit, .-ibqObjectInit
 170              		.section	.text.ibqResetI,"ax",%progbits
 171              		.align	1
ARM GAS  C:\cygwin64\tmp\ccqqoHDf.s 			page 4


 172              		.global	ibqResetI
 173              		.syntax unified
 174              		.thumb
 175              		.thumb_func
 176              		.fpu fpv4-sp-d16
 177              		.type	ibqResetI, %function
 178              	ibqResetI:
 179              	.LFB278:
 180              		.loc 3 107 0
 181              		.cfi_startproc
 182              		@ args = 0, pretend = 0, frame = 0
 183              		@ frame_needed = 0, uses_anonymous_args = 0
 184              		@ link register save eliminated.
 185              	.LVL10:
 186              		.loc 3 111 0
 187 0000 0022     		movs	r2, #0
 188              		.loc 3 112 0
 189 0002 416A     		ldr	r1, [r0, #36]
 190 0004 4161     		str	r1, [r0, #20]
 191              		.loc 3 113 0
 192 0006 0161     		str	r1, [r0, #16]
 193              		.loc 3 111 0
 194 0008 C260     		str	r2, [r0, #12]
 195              		.loc 3 114 0
 196 000a 8262     		str	r2, [r0, #40]
 197              		.loc 3 115 0
 198 000c C262     		str	r2, [r0, #44]
 199              	.LVL11:
 200              	.LBB154:
 201              	.LBB155:
 202              		.file 5 "../../modules/ChibiOS/os/hal/osal/rt/osal.h"
 203              		.loc 5 810 0
 204 000e 6FF00101 		mvn	r1, #1
 205 0012 FFF7FEBF 		b	chThdDequeueAllI
 206              	.LVL12:
 207              	.LBE155:
 208              	.LBE154:
 209              		.cfi_endproc
 210              	.LFE278:
 211              		.size	ibqResetI, .-ibqResetI
 212              		.section	.text.ibqGetEmptyBufferI,"ax",%progbits
 213              		.align	1
 214              		.global	ibqGetEmptyBufferI
 215              		.syntax unified
 216              		.thumb
 217              		.thumb_func
 218              		.fpu fpv4-sp-d16
 219              		.type	ibqGetEmptyBufferI, %function
 220              	ibqGetEmptyBufferI:
 221              	.LFB279:
 222              		.loc 3 129 0
 223              		.cfi_startproc
 224              		@ args = 0, pretend = 0, frame = 0
 225              		@ frame_needed = 0, uses_anonymous_args = 0
 226              		@ link register save eliminated.
 227              	.LVL13:
 228              		.loc 3 133 0
ARM GAS  C:\cygwin64\tmp\ccqqoHDf.s 			page 5


 229 0000 0369     		ldr	r3, [r0, #16]
 230 0002 4269     		ldr	r2, [r0, #20]
 231 0004 9342     		cmp	r3, r2
 232 0006 03D1     		bne	.L6
 233              		.loc 3 133 0 is_stmt 0 discriminator 1
 234 0008 C268     		ldr	r2, [r0, #12]
 235 000a 0AB1     		cbz	r2, .L6
 236              		.loc 3 134 0 is_stmt 1
 237 000c 0020     		movs	r0, #0
 238              	.LVL14:
 239 000e 7047     		bx	lr
 240              	.LVL15:
 241              	.L6:
 242              		.loc 3 137 0
 243 0010 181D     		adds	r0, r3, #4
 244              	.LVL16:
 245              		.loc 3 138 0
 246 0012 7047     		bx	lr
 247              		.cfi_endproc
 248              	.LFE279:
 249              		.size	ibqGetEmptyBufferI, .-ibqGetEmptyBufferI
 250              		.section	.text.ibqPostFullBufferI,"ax",%progbits
 251              		.align	1
 252              		.global	ibqPostFullBufferI
 253              		.syntax unified
 254              		.thumb
 255              		.thumb_func
 256              		.fpu fpv4-sp-d16
 257              		.type	ibqPostFullBufferI, %function
 258              	ibqPostFullBufferI:
 259              	.LFB280:
 260              		.loc 3 148 0
 261              		.cfi_startproc
 262              		@ args = 0, pretend = 0, frame = 0
 263              		@ frame_needed = 0, uses_anonymous_args = 0
 264              		@ link register save eliminated.
 265              	.LVL17:
 266              		.loc 3 156 0
 267 0000 0369     		ldr	r3, [r0, #16]
 268 0002 1960     		str	r1, [r3]
 269              		.loc 3 159 0
 270 0004 C268     		ldr	r2, [r0, #12]
 271 0006 0132     		adds	r2, r2, #1
 272 0008 C260     		str	r2, [r0, #12]
 273              		.loc 3 160 0
 274 000a C269     		ldr	r2, [r0, #28]
 275 000c 1344     		add	r3, r3, r2
 276              		.loc 3 161 0
 277 000e 8269     		ldr	r2, [r0, #24]
 278              		.loc 3 160 0
 279 0010 0361     		str	r3, [r0, #16]
 280              		.loc 3 161 0
 281 0012 9342     		cmp	r3, r2
 282              		.loc 3 162 0
 283 0014 24BF     		itt	cs
 284 0016 436A     		ldrcs	r3, [r0, #36]
 285 0018 0361     		strcs	r3, [r0, #16]
ARM GAS  C:\cygwin64\tmp\ccqqoHDf.s 			page 6


 286              	.LVL18:
 287              	.LBB156:
 288              	.LBB157:
 289              		.loc 5 797 0
 290 001a 0021     		movs	r1, #0
 291              	.LVL19:
 292 001c FFF7FEBF 		b	chThdDequeueNextI
 293              	.LVL20:
 294              	.LBE157:
 295              	.LBE156:
 296              		.cfi_endproc
 297              	.LFE280:
 298              		.size	ibqPostFullBufferI, .-ibqPostFullBufferI
 299              		.section	.text.ibqGetFullBufferTimeoutS,"ax",%progbits
 300              		.align	1
 301              		.global	ibqGetFullBufferTimeoutS
 302              		.syntax unified
 303              		.thumb
 304              		.thumb_func
 305              		.fpu fpv4-sp-d16
 306              		.type	ibqGetFullBufferTimeoutS, %function
 307              	ibqGetFullBufferTimeoutS:
 308              	.LFB282:
 309              		.loc 3 223 0
 310              		.cfi_startproc
 311              		@ args = 0, pretend = 0, frame = 0
 312              		@ frame_needed = 0, uses_anonymous_args = 0
 313              	.LVL21:
 314 0000 38B5     		push	{r3, r4, r5, lr}
 315              		.cfi_def_cfa_offset 16
 316              		.cfi_offset 3, -16
 317              		.cfi_offset 4, -12
 318              		.cfi_offset 5, -8
 319              		.cfi_offset 14, -4
 320 0002 0446     		mov	r4, r0
 321 0004 0D46     		mov	r5, r1
 322              	.LVL22:
 323              	.L14:
 324              		.loc 3 227 0
 325 0006 E368     		ldr	r3, [r4, #12]
 326 0008 3BB1     		cbz	r3, .L16
 327              	.LVL23:
 328              	.LBB166:
 329              	.LBB167:
 330              		.loc 3 240 0
 331 000a 6269     		ldr	r2, [r4, #20]
 332 000c 131D     		adds	r3, r2, #4
 333              		.loc 3 241 0
 334 000e 1268     		ldr	r2, [r2]
 335              		.loc 3 240 0
 336 0010 A362     		str	r3, [r4, #40]
 337              		.loc 3 241 0
 338 0012 1344     		add	r3, r3, r2
 339 0014 E362     		str	r3, [r4, #44]
 340              	.LVL24:
 341 0016 0020     		movs	r0, #0
 342 0018 38BD     		pop	{r3, r4, r5, pc}
ARM GAS  C:\cygwin64\tmp\ccqqoHDf.s 			page 7


 343              	.LVL25:
 344              	.L16:
 345              	.LBE167:
 346              	.LBE166:
 347              	.LBB168:
 348              		.loc 3 228 0
 349 001a 237A     		ldrb	r3, [r4, #8]	@ zero_extendqisi2
 350 001c 33B9     		cbnz	r3, .L17
 351              	.LVL26:
 352              	.LBB169:
 353              	.LBB170:
 354              		.loc 5 784 0
 355 001e 2946     		mov	r1, r5
 356 0020 2046     		mov	r0, r4
 357 0022 FFF7FEFF 		bl	chThdEnqueueTimeoutS
 358              	.LVL27:
 359              	.LBE170:
 360              	.LBE169:
 361              		.loc 3 232 0
 362 0026 0028     		cmp	r0, #0
 363 0028 EDDA     		bge	.L14
 364              	.L13:
 365              	.LBE168:
 366              		.loc 3 244 0
 367 002a 38BD     		pop	{r3, r4, r5, pc}
 368              	.LVL28:
 369              	.L17:
 370              	.LBB171:
 371              		.loc 3 229 0
 372 002c 6FF00100 		mvn	r0, #1
 373 0030 FBE7     		b	.L13
 374              	.LBE171:
 375              		.cfi_endproc
 376              	.LFE282:
 377              		.size	ibqGetFullBufferTimeoutS, .-ibqGetFullBufferTimeoutS
 378              		.section	.text.ibqGetFullBufferTimeout,"ax",%progbits
 379              		.align	1
 380              		.global	ibqGetFullBufferTimeout
 381              		.syntax unified
 382              		.thumb
 383              		.thumb_func
 384              		.fpu fpv4-sp-d16
 385              		.type	ibqGetFullBufferTimeout, %function
 386              	ibqGetFullBufferTimeout:
 387              	.LFB281:
 388              		.loc 3 191 0
 389              		.cfi_startproc
 390              		@ args = 0, pretend = 0, frame = 0
 391              		@ frame_needed = 0, uses_anonymous_args = 0
 392              	.LVL29:
 393 0000 38B5     		push	{r3, r4, r5, lr}
 394              		.cfi_def_cfa_offset 16
 395              		.cfi_offset 3, -16
 396              		.cfi_offset 4, -12
 397              		.cfi_offset 5, -8
 398              		.cfi_offset 14, -4
 399              		.loc 3 191 0
ARM GAS  C:\cygwin64\tmp\ccqqoHDf.s 			page 8


 400 0002 0446     		mov	r4, r0
 401 0004 0D46     		mov	r5, r1
 402              	.LBB172:
 403              	.LBB173:
 404              		.loc 5 493 0
 405 0006 FFF7FEFF 		bl	chSysLock
 406              	.LVL30:
 407              	.LBE173:
 408              	.LBE172:
 409              		.loc 3 195 0
 410 000a 2946     		mov	r1, r5
 411 000c 2046     		mov	r0, r4
 412 000e FFF7FEFF 		bl	ibqGetFullBufferTimeoutS
 413              	.LVL31:
 414 0012 0446     		mov	r4, r0
 415              	.LVL32:
 416              	.LBB174:
 417              	.LBB175:
 418              		.loc 5 504 0
 419 0014 FFF7FEFF 		bl	chSysUnlock
 420              	.LVL33:
 421              	.LBE175:
 422              	.LBE174:
 423              		.loc 3 199 0
 424 0018 2046     		mov	r0, r4
 425 001a 38BD     		pop	{r3, r4, r5, pc}
 426              		.cfi_endproc
 427              	.LFE281:
 428              		.size	ibqGetFullBufferTimeout, .-ibqGetFullBufferTimeout
 429              		.section	.text.ibqReleaseEmptyBufferS,"ax",%progbits
 430              		.align	1
 431              		.global	ibqReleaseEmptyBufferS
 432              		.syntax unified
 433              		.thumb
 434              		.thumb_func
 435              		.fpu fpv4-sp-d16
 436              		.type	ibqReleaseEmptyBufferS, %function
 437              	ibqReleaseEmptyBufferS:
 438              	.LFB284:
 439              		.loc 3 269 0
 440              		.cfi_startproc
 441              		@ args = 0, pretend = 0, frame = 0
 442              		@ frame_needed = 0, uses_anonymous_args = 0
 443              		@ link register save eliminated.
 444              	.LVL34:
 445              		.loc 3 275 0
 446 0000 C368     		ldr	r3, [r0, #12]
 447              		.loc 3 276 0
 448 0002 C269     		ldr	r2, [r0, #28]
 449              		.loc 3 275 0
 450 0004 013B     		subs	r3, r3, #1
 451 0006 C360     		str	r3, [r0, #12]
 452              		.loc 3 276 0
 453 0008 4369     		ldr	r3, [r0, #20]
 454 000a 1344     		add	r3, r3, r2
 455              		.loc 3 277 0
 456 000c 8269     		ldr	r2, [r0, #24]
ARM GAS  C:\cygwin64\tmp\ccqqoHDf.s 			page 9


 457              		.loc 3 276 0
 458 000e 4361     		str	r3, [r0, #20]
 459              		.loc 3 277 0
 460 0010 9342     		cmp	r3, r2
 461              		.loc 3 278 0
 462 0012 24BF     		itt	cs
 463 0014 436A     		ldrcs	r3, [r0, #36]
 464 0016 4361     		strcs	r3, [r0, #20]
 465              		.loc 3 282 0
 466 0018 0023     		movs	r3, #0
 467 001a 8362     		str	r3, [r0, #40]
 468              		.loc 3 285 0
 469 001c 036B     		ldr	r3, [r0, #48]
 470 001e 03B1     		cbz	r3, .L19
 471              		.loc 3 286 0
 472 0020 1847     		bx	r3	@ indirect register sibling call
 473              	.LVL35:
 474              	.L19:
 475 0022 7047     		bx	lr
 476              		.cfi_endproc
 477              	.LFE284:
 478              		.size	ibqReleaseEmptyBufferS, .-ibqReleaseEmptyBufferS
 479              		.section	.text.ibqReleaseEmptyBuffer,"ax",%progbits
 480              		.align	1
 481              		.global	ibqReleaseEmptyBuffer
 482              		.syntax unified
 483              		.thumb
 484              		.thumb_func
 485              		.fpu fpv4-sp-d16
 486              		.type	ibqReleaseEmptyBuffer, %function
 487              	ibqReleaseEmptyBuffer:
 488              	.LFB283:
 489              		.loc 3 254 0
 490              		.cfi_startproc
 491              		@ args = 0, pretend = 0, frame = 0
 492              		@ frame_needed = 0, uses_anonymous_args = 0
 493              	.LVL36:
 494 0000 10B5     		push	{r4, lr}
 495              		.cfi_def_cfa_offset 8
 496              		.cfi_offset 4, -8
 497              		.cfi_offset 14, -4
 498              		.loc 3 254 0
 499 0002 0446     		mov	r4, r0
 500              	.LBB176:
 501              	.LBB177:
 502              		.loc 5 493 0
 503 0004 FFF7FEFF 		bl	chSysLock
 504              	.LVL37:
 505              	.LBE177:
 506              	.LBE176:
 507              		.loc 3 257 0
 508 0008 2046     		mov	r0, r4
 509 000a FFF7FEFF 		bl	ibqReleaseEmptyBufferS
 510              	.LVL38:
 511              		.loc 3 259 0
 512 000e BDE81040 		pop	{r4, lr}
 513              		.cfi_restore 14
ARM GAS  C:\cygwin64\tmp\ccqqoHDf.s 			page 10


 514              		.cfi_restore 4
 515              		.cfi_def_cfa_offset 0
 516              	.LVL39:
 517              	.LBB178:
 518              	.LBB179:
 519              		.loc 5 504 0
 520 0012 FFF7FEBF 		b	chSysUnlock
 521              	.LVL40:
 522              	.LBE179:
 523              	.LBE178:
 524              		.cfi_endproc
 525              	.LFE283:
 526              		.size	ibqReleaseEmptyBuffer, .-ibqReleaseEmptyBuffer
 527              		.section	.text.ibqGetTimeout,"ax",%progbits
 528              		.align	1
 529              		.global	ibqGetTimeout
 530              		.syntax unified
 531              		.thumb
 532              		.thumb_func
 533              		.fpu fpv4-sp-d16
 534              		.type	ibqGetTimeout, %function
 535              	ibqGetTimeout:
 536              	.LFB285:
 537              		.loc 3 309 0
 538              		.cfi_startproc
 539              		@ args = 0, pretend = 0, frame = 0
 540              		@ frame_needed = 0, uses_anonymous_args = 0
 541              	.LVL41:
 542 0000 38B5     		push	{r3, r4, r5, lr}
 543              		.cfi_def_cfa_offset 16
 544              		.cfi_offset 3, -16
 545              		.cfi_offset 4, -12
 546              		.cfi_offset 5, -8
 547              		.cfi_offset 14, -4
 548              		.loc 3 309 0
 549 0002 0446     		mov	r4, r0
 550 0004 0D46     		mov	r5, r1
 551              	.LBB180:
 552              	.LBB181:
 553              		.loc 5 493 0
 554 0006 FFF7FEFF 		bl	chSysLock
 555              	.LVL42:
 556              	.LBE181:
 557              	.LBE180:
 558              		.loc 3 315 0
 559 000a A36A     		ldr	r3, [r4, #40]
 560 000c 4BB9     		cbnz	r3, .L24
 561              		.loc 3 316 0
 562 000e 2946     		mov	r1, r5
 563 0010 2046     		mov	r0, r4
 564 0012 FFF7FEFF 		bl	ibqGetFullBufferTimeoutS
 565              	.LVL43:
 566              		.loc 3 317 0
 567 0016 0546     		mov	r5, r0
 568              	.LVL44:
 569 0018 18B1     		cbz	r0, .L24
 570              	.LVL45:
ARM GAS  C:\cygwin64\tmp\ccqqoHDf.s 			page 11


 571              	.L26:
 572              	.LBB182:
 573              	.LBB183:
 574              		.loc 5 504 0
 575 001a FFF7FEFF 		bl	chSysUnlock
 576              	.LVL46:
 577              	.LBE183:
 578              	.LBE182:
 579              		.loc 3 335 0
 580 001e 2846     		mov	r0, r5
 581 0020 38BD     		pop	{r3, r4, r5, pc}
 582              	.LVL47:
 583              	.L24:
 584              		.loc 3 324 0
 585 0022 A36A     		ldr	r3, [r4, #40]
 586              		.loc 3 329 0
 587 0024 E26A     		ldr	r2, [r4, #44]
 588              		.loc 3 324 0
 589 0026 13F8015B 		ldrb	r5, [r3], #1	@ zero_extendqisi2
 590              	.LVL48:
 591              		.loc 3 325 0
 592 002a A362     		str	r3, [r4, #40]
 593              		.loc 3 329 0
 594 002c 9342     		cmp	r3, r2
 595 002e F4D3     		bcc	.L26
 596              		.loc 3 330 0
 597 0030 2046     		mov	r0, r4
 598 0032 FFF7FEFF 		bl	ibqReleaseEmptyBufferS
 599              	.LVL49:
 600 0036 F0E7     		b	.L26
 601              		.cfi_endproc
 602              	.LFE285:
 603              		.size	ibqGetTimeout, .-ibqGetTimeout
 604              		.section	.text.ibqReadTimeout,"ax",%progbits
 605              		.align	1
 606              		.global	ibqReadTimeout
 607              		.syntax unified
 608              		.thumb
 609              		.thumb_func
 610              		.fpu fpv4-sp-d16
 611              		.type	ibqReadTimeout, %function
 612              	ibqReadTimeout:
 613              	.LFB286:
 614              		.loc 3 359 0
 615              		.cfi_startproc
 616              		@ args = 0, pretend = 0, frame = 8
 617              		@ frame_needed = 0, uses_anonymous_args = 0
 618              	.LVL50:
 619 0000 2DE9F74F 		push	{r0, r1, r2, r4, r5, r6, r7, r8, r9, r10, fp, lr}
 620              		.cfi_def_cfa_offset 48
 621              		.cfi_offset 4, -36
 622              		.cfi_offset 5, -32
 623              		.cfi_offset 6, -28
 624              		.cfi_offset 7, -24
 625              		.cfi_offset 8, -20
 626              		.cfi_offset 9, -16
 627              		.cfi_offset 10, -12
ARM GAS  C:\cygwin64\tmp\ccqqoHDf.s 			page 12


 628              		.cfi_offset 11, -8
 629              		.cfi_offset 14, -4
 630              		.loc 3 359 0
 631 0004 1F46     		mov	r7, r3
 632 0006 9246     		mov	r10, r2
 633 0008 0446     		mov	r4, r0
 634 000a 0E46     		mov	r6, r1
 635              	.LBB184:
 636              	.LBB185:
 637              		.loc 5 493 0
 638 000c FFF7FEFF 		bl	chSysLock
 639              	.LVL51:
 640              	.LBE185:
 641              	.LBE184:
 642              	.LBB186:
 643              	.LBB187:
 644              	.LBB188:
 645              	.LBB189:
 646              	.LBB190:
 647              		.file 6 "../../modules/ChibiOS/os/hal/ports/STM32/LLD/TIMv1/hal_st_lld.h"
 648              		.loc 6 141 0
 649 0010 274B     		ldr	r3, .L46
 650 0012 5A6A     		ldr	r2, [r3, #36]
 651              	.LBE190:
 652              	.LBE189:
 653              	.LBE188:
 654              	.LBE187:
 655              	.LBE186:
 656              		.loc 3 360 0
 657 0014 0025     		movs	r5, #0
 658              		.loc 3 368 0
 659 0016 07EB0209 		add	r9, r7, r2
 660              	.LVL52:
 661              	.LBB191:
 662              	.LBB192:
 663              		.loc 3 379 0
 664 001a 07F1FF3B 		add	fp, r7, #-1
 665              	.LBB193:
 666              	.LBB194:
 667              	.LBB195:
 668              	.LBB196:
 669              	.LBB197:
 670              	.LBB198:
 671              		.loc 6 141 0
 672 001e 9846     		mov	r8, r3
 673              	.LVL53:
 674              	.L40:
 675              	.LBE198:
 676              	.LBE197:
 677              	.LBE196:
 678              	.LBE195:
 679              	.LBE194:
 680              	.LBE193:
 681              	.LBE192:
 682              		.loc 3 374 0
 683 0020 A36A     		ldr	r3, [r4, #40]
 684 0022 3BB9     		cbnz	r3, .L31
ARM GAS  C:\cygwin64\tmp\ccqqoHDf.s 			page 13


 685              	.LBB208:
 686              		.loc 3 379 0
 687 0024 1BF1030F 		cmn	fp, #3
 688 0028 2AD9     		bls	.L32
 689              		.loc 3 380 0
 690 002a 3946     		mov	r1, r7
 691              	.L34:
 692              	.LBB204:
 693              		.loc 3 392 0
 694 002c 2046     		mov	r0, r4
 695 002e FFF7FEFF 		bl	ibqGetFullBufferTimeoutS
 696              	.LVL54:
 697              	.LBE204:
 698              		.loc 3 396 0
 699 0032 58BB     		cbnz	r0, .L45
 700              	.LVL55:
 701              	.L31:
 702              	.LBE208:
 703              		.loc 3 403 0
 704 0034 A16A     		ldr	r1, [r4, #40]
 705 0036 E36A     		ldr	r3, [r4, #44]
 706              		.loc 3 404 0
 707 0038 AAEB0502 		sub	r2, r10, r5
 708              		.loc 3 403 0
 709 003c 5B1A     		subs	r3, r3, r1
 710              	.LVL56:
 711 003e 9342     		cmp	r3, r2
 712 0040 28BF     		it	cs
 713 0042 1346     		movcs	r3, r2
 714              	.LVL57:
 715              		.loc 3 410 0
 716 0044 402B     		cmp	r3, #64
 717 0046 27D9     		bls	.L36
 718              		.loc 3 412 0
 719 0048 3346     		mov	r3, r6
 720              	.LVL58:
 721 004a 01F14002 		add	r2, r1, #64
 722              	.LVL59:
 723              	.L37:
 724 004e 51F8040B 		ldr	r0, [r1], #4	@ unaligned
 725 0052 43F8040B 		str	r0, [r3], #4	@ unaligned
 726 0056 9142     		cmp	r1, r2
 727 0058 F9D1     		bne	.L37
 728              		.loc 3 414 0
 729 005a A36A     		ldr	r3, [r4, #40]
 730 005c 4033     		adds	r3, r3, #64
 731              		.loc 3 413 0
 732 005e 4036     		adds	r6, r6, #64
 733              	.LVL60:
 734              		.loc 3 414 0
 735 0060 A362     		str	r3, [r4, #40]
 736              		.loc 3 415 0
 737 0062 4035     		adds	r5, r5, #64
 738              	.LVL61:
 739              	.L38:
 740              		.loc 3 425 0
 741 0064 A26A     		ldr	r2, [r4, #40]
ARM GAS  C:\cygwin64\tmp\ccqqoHDf.s 			page 14


 742 0066 E36A     		ldr	r3, [r4, #44]
 743 0068 9A42     		cmp	r2, r3
 744 006a 02D3     		bcc	.L39
 745              		.loc 3 426 0
 746 006c 2046     		mov	r0, r4
 747 006e FFF7FEFF 		bl	ibqReleaseEmptyBufferS
 748              	.LVL62:
 749              	.L39:
 750              	.LBB209:
 751              	.LBB210:
 752              		.loc 5 504 0
 753 0072 FFF7FEFF 		bl	chSysUnlock
 754              	.LVL63:
 755              	.LBE210:
 756              	.LBE209:
 757              		.loc 3 431 0
 758 0076 5545     		cmp	r5, r10
 759 0078 0AD2     		bcs	.L30
 760              	.LBB211:
 761              	.LBB212:
 762              		.loc 5 493 0
 763 007a FFF7FEFF 		bl	chSysLock
 764              	.LVL64:
 765 007e CFE7     		b	.L40
 766              	.L32:
 767              	.LBE212:
 768              	.LBE211:
 769              	.LBB213:
 770              	.LBB205:
 771              	.LBB203:
 772              	.LBB202:
 773              	.LBB201:
 774              	.LBB200:
 775              	.LBB199:
 776              		.loc 6 141 0
 777 0080 D8F82410 		ldr	r1, [r8, #36]
 778              	.LBE199:
 779              	.LBE200:
 780              	.LBE201:
 781              	.LBE202:
 782              	.LBE203:
 783              		.loc 3 383 0
 784 0084 A9EB0101 		sub	r1, r9, r1
 785              	.LVL65:
 786              		.loc 3 388 0
 787 0088 8F42     		cmp	r7, r1
 788 008a CFD2     		bcs	.L34
 789              	.LVL66:
 790              	.L45:
 791              	.LBE205:
 792              	.LBB206:
 793              	.LBB207:
 794              		.loc 5 504 0
 795 008c FFF7FEFF 		bl	chSysUnlock
 796              	.LVL67:
 797              	.L30:
 798              	.LBE207:
ARM GAS  C:\cygwin64\tmp\ccqqoHDf.s 			page 15


 799              	.LBE206:
 800              	.LBE213:
 801              	.LBE191:
 802              		.loc 3 436 0
 803 0090 2846     		mov	r0, r5
 804 0092 03B0     		add	sp, sp, #12
 805              		.cfi_remember_state
 806              		.cfi_def_cfa_offset 36
 807              		@ sp needed
 808 0094 BDE8F08F 		pop	{r4, r5, r6, r7, r8, r9, r10, fp, pc}
 809              	.LVL68:
 810              	.L36:
 811              		.cfi_restore_state
 812              	.LBB214:
 813              		.loc 3 418 0
 814 0098 1A46     		mov	r2, r3
 815 009a 3046     		mov	r0, r6
 816 009c 0193     		str	r3, [sp, #4]
 817 009e FFF7FEFF 		bl	memcpy
 818              	.LVL69:
 819              		.loc 3 419 0
 820 00a2 019B     		ldr	r3, [sp, #4]
 821              		.loc 3 420 0
 822 00a4 A26A     		ldr	r2, [r4, #40]
 823 00a6 1A44     		add	r2, r2, r3
 824              		.loc 3 419 0
 825 00a8 1E44     		add	r6, r6, r3
 826              	.LVL70:
 827              		.loc 3 420 0
 828 00aa A262     		str	r2, [r4, #40]
 829              		.loc 3 421 0
 830 00ac 1D44     		add	r5, r5, r3
 831              	.LVL71:
 832 00ae D9E7     		b	.L38
 833              	.L47:
 834              		.align	2
 835              	.L46:
 836 00b0 000C0040 		.word	1073744896
 837              	.LBE214:
 838              		.cfi_endproc
 839              	.LFE286:
 840              		.size	ibqReadTimeout, .-ibqReadTimeout
 841              		.section	.text.obqObjectInit,"ax",%progbits
 842              		.align	1
 843              		.global	obqObjectInit
 844              		.syntax unified
 845              		.thumb
 846              		.thumb_func
 847              		.fpu fpv4-sp-d16
 848              		.type	obqObjectInit, %function
 849              	obqObjectInit:
 850              	.LFB287:
 851              		.loc 3 452 0
 852              		.cfi_startproc
 853              		@ args = 12, pretend = 0, frame = 0
 854              		@ frame_needed = 0, uses_anonymous_args = 0
 855              	.LVL72:
ARM GAS  C:\cygwin64\tmp\ccqqoHDf.s 			page 16


 856 0000 10B5     		push	{r4, lr}
 857              		.cfi_def_cfa_offset 8
 858              		.cfi_offset 4, -8
 859              		.cfi_offset 14, -4
 860              		.loc 3 452 0
 861 0002 029C     		ldr	r4, [sp, #8]
 862              		.loc 3 457 0
 863 0004 0172     		strb	r1, [r0, #8]
 864              		.loc 3 461 0
 865 0006 0433     		adds	r3, r3, #4
 866              	.LVL73:
 867 0008 03FB0421 		mla	r1, r3, r4, r2
 868              	.LVL74:
 869              		.loc 3 462 0
 870 000c C361     		str	r3, [r0, #28]
 871              		.loc 3 465 0
 872 000e 0023     		movs	r3, #0
 873              	.LVL75:
 874 0010 8362     		str	r3, [r0, #40]
 875              		.loc 3 466 0
 876 0012 C362     		str	r3, [r0, #44]
 877              		.loc 3 467 0
 878 0014 039B     		ldr	r3, [sp, #12]
 879 0016 0363     		str	r3, [r0, #48]
 880              		.loc 3 468 0
 881 0018 049B     		ldr	r3, [sp, #16]
 882              	.LBB215:
 883              	.LBB216:
 884              	.LBB217:
 885              	.LBB218:
 886              		.loc 4 550 0
 887 001a 0060     		str	r0, [r0]
 888              		.loc 4 551 0
 889 001c 4060     		str	r0, [r0, #4]
 890              	.LVL76:
 891              	.LBE218:
 892              	.LBE217:
 893              	.LBE216:
 894              	.LBE215:
 895              		.loc 3 458 0
 896 001e C460     		str	r4, [r0, #12]
 897              		.loc 3 459 0
 898 0020 4261     		str	r2, [r0, #20]
 899              		.loc 3 460 0
 900 0022 0261     		str	r2, [r0, #16]
 901              		.loc 3 461 0
 902 0024 8161     		str	r1, [r0, #24]
 903              		.loc 3 463 0
 904 0026 0462     		str	r4, [r0, #32]
 905              		.loc 3 464 0
 906 0028 4262     		str	r2, [r0, #36]
 907              		.loc 3 468 0
 908 002a 4363     		str	r3, [r0, #52]
 909 002c 10BD     		pop	{r4, pc}
 910              		.cfi_endproc
 911              	.LFE287:
 912              		.size	obqObjectInit, .-obqObjectInit
ARM GAS  C:\cygwin64\tmp\ccqqoHDf.s 			page 17


 913              		.section	.text.obqResetI,"ax",%progbits
 914              		.align	1
 915              		.global	obqResetI
 916              		.syntax unified
 917              		.thumb
 918              		.thumb_func
 919              		.fpu fpv4-sp-d16
 920              		.type	obqResetI, %function
 921              	obqResetI:
 922              	.LFB288:
 923              		.loc 3 482 0
 924              		.cfi_startproc
 925              		@ args = 0, pretend = 0, frame = 0
 926              		@ frame_needed = 0, uses_anonymous_args = 0
 927              		@ link register save eliminated.
 928              	.LVL77:
 929              		.loc 3 486 0
 930 0000 026A     		ldr	r2, [r0, #32]
 931 0002 C260     		str	r2, [r0, #12]
 932              		.loc 3 487 0
 933 0004 426A     		ldr	r2, [r0, #36]
 934 0006 4261     		str	r2, [r0, #20]
 935              		.loc 3 488 0
 936 0008 0261     		str	r2, [r0, #16]
 937              		.loc 3 489 0
 938 000a 0022     		movs	r2, #0
 939 000c 8262     		str	r2, [r0, #40]
 940              		.loc 3 490 0
 941 000e C262     		str	r2, [r0, #44]
 942              	.LVL78:
 943              	.LBB219:
 944              	.LBB220:
 945              		.loc 5 810 0
 946 0010 6FF00101 		mvn	r1, #1
 947 0014 FFF7FEBF 		b	chThdDequeueAllI
 948              	.LVL79:
 949              	.LBE220:
 950              	.LBE219:
 951              		.cfi_endproc
 952              	.LFE288:
 953              		.size	obqResetI, .-obqResetI
 954              		.section	.text.obqGetFullBufferI,"ax",%progbits
 955              		.align	1
 956              		.global	obqGetFullBufferI
 957              		.syntax unified
 958              		.thumb
 959              		.thumb_func
 960              		.fpu fpv4-sp-d16
 961              		.type	obqGetFullBufferI, %function
 962              	obqGetFullBufferI:
 963              	.LFB289:
 964              		.loc 3 506 0
 965              		.cfi_startproc
 966              		@ args = 0, pretend = 0, frame = 0
 967              		@ frame_needed = 0, uses_anonymous_args = 0
 968              		@ link register save eliminated.
 969              	.LVL80:
ARM GAS  C:\cygwin64\tmp\ccqqoHDf.s 			page 18


 970              		.loc 3 510 0
 971 0000 4369     		ldr	r3, [r0, #20]
 972 0002 0269     		ldr	r2, [r0, #16]
 973 0004 9A42     		cmp	r2, r3
 974 0006 03D1     		bne	.L51
 975              		.loc 3 510 0 is_stmt 0 discriminator 1
 976 0008 C268     		ldr	r2, [r0, #12]
 977 000a 0AB1     		cbz	r2, .L51
 978              		.loc 3 511 0 is_stmt 1
 979 000c 0020     		movs	r0, #0
 980              	.LVL81:
 981 000e 7047     		bx	lr
 982              	.LVL82:
 983              	.L51:
 984              		.loc 3 515 0
 985 0010 1846     		mov	r0, r3
 986              	.LVL83:
 987 0012 50F8043B 		ldr	r3, [r0], #4
 988 0016 0B60     		str	r3, [r1]
 989              		.loc 3 518 0
 990 0018 7047     		bx	lr
 991              		.cfi_endproc
 992              	.LFE289:
 993              		.size	obqGetFullBufferI, .-obqGetFullBufferI
 994              		.section	.text.obqReleaseEmptyBufferI,"ax",%progbits
 995              		.align	1
 996              		.global	obqReleaseEmptyBufferI
 997              		.syntax unified
 998              		.thumb
 999              		.thumb_func
 1000              		.fpu fpv4-sp-d16
 1001              		.type	obqReleaseEmptyBufferI, %function
 1002              	obqReleaseEmptyBufferI:
 1003              	.LFB290:
 1004              		.loc 3 527 0
 1005              		.cfi_startproc
 1006              		@ args = 0, pretend = 0, frame = 0
 1007              		@ frame_needed = 0, uses_anonymous_args = 0
 1008              		@ link register save eliminated.
 1009              	.LVL84:
 1010              		.loc 3 533 0
 1011 0000 C368     		ldr	r3, [r0, #12]
 1012              		.loc 3 534 0
 1013 0002 C269     		ldr	r2, [r0, #28]
 1014              		.loc 3 533 0
 1015 0004 0133     		adds	r3, r3, #1
 1016 0006 C360     		str	r3, [r0, #12]
 1017              		.loc 3 534 0
 1018 0008 4369     		ldr	r3, [r0, #20]
 1019 000a 1344     		add	r3, r3, r2
 1020              		.loc 3 535 0
 1021 000c 8269     		ldr	r2, [r0, #24]
 1022              		.loc 3 534 0
 1023 000e 4361     		str	r3, [r0, #20]
 1024              		.loc 3 535 0
 1025 0010 9342     		cmp	r3, r2
 1026              		.loc 3 536 0
ARM GAS  C:\cygwin64\tmp\ccqqoHDf.s 			page 19


 1027 0012 24BF     		itt	cs
 1028 0014 436A     		ldrcs	r3, [r0, #36]
 1029 0016 4361     		strcs	r3, [r0, #20]
 1030              	.LVL85:
 1031              	.LBB221:
 1032              	.LBB222:
 1033              		.loc 5 797 0
 1034 0018 0021     		movs	r1, #0
 1035 001a FFF7FEBF 		b	chThdDequeueNextI
 1036              	.LVL86:
 1037              	.LBE222:
 1038              	.LBE221:
 1039              		.cfi_endproc
 1040              	.LFE290:
 1041              		.size	obqReleaseEmptyBufferI, .-obqReleaseEmptyBufferI
 1042              		.section	.text.obqGetEmptyBufferTimeoutS,"ax",%progbits
 1043              		.align	1
 1044              		.global	obqGetEmptyBufferTimeoutS
 1045              		.syntax unified
 1046              		.thumb
 1047              		.thumb_func
 1048              		.fpu fpv4-sp-d16
 1049              		.type	obqGetEmptyBufferTimeoutS, %function
 1050              	obqGetEmptyBufferTimeoutS:
 1051              	.LFB292:
 1052              		.loc 3 597 0
 1053              		.cfi_startproc
 1054              		@ args = 0, pretend = 0, frame = 0
 1055              		@ frame_needed = 0, uses_anonymous_args = 0
 1056              	.LVL87:
 1057 0000 38B5     		push	{r3, r4, r5, lr}
 1058              		.cfi_def_cfa_offset 16
 1059              		.cfi_offset 3, -16
 1060              		.cfi_offset 4, -12
 1061              		.cfi_offset 5, -8
 1062              		.cfi_offset 14, -4
 1063 0002 0446     		mov	r4, r0
 1064 0004 0D46     		mov	r5, r1
 1065              	.LVL88:
 1066              	.L59:
 1067              		.loc 3 601 0
 1068 0006 E368     		ldr	r3, [r4, #12]
 1069 0008 3BB1     		cbz	r3, .L61
 1070              	.LVL89:
 1071              	.LBB231:
 1072              	.LBB232:
 1073              		.loc 3 614 0
 1074 000a 2369     		ldr	r3, [r4, #16]
 1075 000c 1A1D     		adds	r2, r3, #4
 1076 000e A262     		str	r2, [r4, #40]
 1077              		.loc 3 615 0
 1078 0010 E269     		ldr	r2, [r4, #28]
 1079 0012 1344     		add	r3, r3, r2
 1080 0014 E362     		str	r3, [r4, #44]
 1081              	.LVL90:
 1082 0016 0020     		movs	r0, #0
 1083 0018 38BD     		pop	{r3, r4, r5, pc}
ARM GAS  C:\cygwin64\tmp\ccqqoHDf.s 			page 20


 1084              	.LVL91:
 1085              	.L61:
 1086              	.LBE232:
 1087              	.LBE231:
 1088              	.LBB233:
 1089              		.loc 3 602 0
 1090 001a 237A     		ldrb	r3, [r4, #8]	@ zero_extendqisi2
 1091 001c 33B9     		cbnz	r3, .L62
 1092              	.LVL92:
 1093              	.LBB234:
 1094              	.LBB235:
 1095              		.loc 5 784 0
 1096 001e 2946     		mov	r1, r5
 1097 0020 2046     		mov	r0, r4
 1098 0022 FFF7FEFF 		bl	chThdEnqueueTimeoutS
 1099              	.LVL93:
 1100              	.LBE235:
 1101              	.LBE234:
 1102              		.loc 3 606 0
 1103 0026 0028     		cmp	r0, #0
 1104 0028 EDDA     		bge	.L59
 1105              	.L58:
 1106              	.LBE233:
 1107              		.loc 3 618 0
 1108 002a 38BD     		pop	{r3, r4, r5, pc}
 1109              	.LVL94:
 1110              	.L62:
 1111              	.LBB236:
 1112              		.loc 3 603 0
 1113 002c 6FF00100 		mvn	r0, #1
 1114 0030 FBE7     		b	.L58
 1115              	.LBE236:
 1116              		.cfi_endproc
 1117              	.LFE292:
 1118              		.size	obqGetEmptyBufferTimeoutS, .-obqGetEmptyBufferTimeoutS
 1119              		.section	.text.obqGetEmptyBufferTimeout,"ax",%progbits
 1120              		.align	1
 1121              		.global	obqGetEmptyBufferTimeout
 1122              		.syntax unified
 1123              		.thumb
 1124              		.thumb_func
 1125              		.fpu fpv4-sp-d16
 1126              		.type	obqGetEmptyBufferTimeout, %function
 1127              	obqGetEmptyBufferTimeout:
 1128              	.LFB291:
 1129              		.loc 3 565 0
 1130              		.cfi_startproc
 1131              		@ args = 0, pretend = 0, frame = 0
 1132              		@ frame_needed = 0, uses_anonymous_args = 0
 1133              	.LVL95:
 1134 0000 38B5     		push	{r3, r4, r5, lr}
 1135              		.cfi_def_cfa_offset 16
 1136              		.cfi_offset 3, -16
 1137              		.cfi_offset 4, -12
 1138              		.cfi_offset 5, -8
 1139              		.cfi_offset 14, -4
 1140              		.loc 3 565 0
ARM GAS  C:\cygwin64\tmp\ccqqoHDf.s 			page 21


 1141 0002 0446     		mov	r4, r0
 1142 0004 0D46     		mov	r5, r1
 1143              	.LBB237:
 1144              	.LBB238:
 1145              		.loc 5 493 0
 1146 0006 FFF7FEFF 		bl	chSysLock
 1147              	.LVL96:
 1148              	.LBE238:
 1149              	.LBE237:
 1150              		.loc 3 569 0
 1151 000a 2946     		mov	r1, r5
 1152 000c 2046     		mov	r0, r4
 1153 000e FFF7FEFF 		bl	obqGetEmptyBufferTimeoutS
 1154              	.LVL97:
 1155 0012 0446     		mov	r4, r0
 1156              	.LVL98:
 1157              	.LBB239:
 1158              	.LBB240:
 1159              		.loc 5 504 0
 1160 0014 FFF7FEFF 		bl	chSysUnlock
 1161              	.LVL99:
 1162              	.LBE240:
 1163              	.LBE239:
 1164              		.loc 3 573 0
 1165 0018 2046     		mov	r0, r4
 1166 001a 38BD     		pop	{r3, r4, r5, pc}
 1167              		.cfi_endproc
 1168              	.LFE291:
 1169              		.size	obqGetEmptyBufferTimeout, .-obqGetEmptyBufferTimeout
 1170              		.section	.text.obqPostFullBufferS,"ax",%progbits
 1171              		.align	1
 1172              		.global	obqPostFullBufferS
 1173              		.syntax unified
 1174              		.thumb
 1175              		.thumb_func
 1176              		.fpu fpv4-sp-d16
 1177              		.type	obqPostFullBufferS, %function
 1178              	obqPostFullBufferS:
 1179              	.LFB294:
 1180              		.loc 3 645 0
 1181              		.cfi_startproc
 1182              		@ args = 0, pretend = 0, frame = 0
 1183              		@ frame_needed = 0, uses_anonymous_args = 0
 1184              		@ link register save eliminated.
 1185              	.LVL100:
 1186              		.loc 3 652 0
 1187 0000 0369     		ldr	r3, [r0, #16]
 1188 0002 1960     		str	r1, [r3]
 1189              		.loc 3 655 0
 1190 0004 C268     		ldr	r2, [r0, #12]
 1191 0006 013A     		subs	r2, r2, #1
 1192 0008 C260     		str	r2, [r0, #12]
 1193              		.loc 3 656 0
 1194 000a C269     		ldr	r2, [r0, #28]
 1195 000c 1344     		add	r3, r3, r2
 1196              		.loc 3 657 0
 1197 000e 8269     		ldr	r2, [r0, #24]
ARM GAS  C:\cygwin64\tmp\ccqqoHDf.s 			page 22


 1198              		.loc 3 656 0
 1199 0010 0361     		str	r3, [r0, #16]
 1200              		.loc 3 657 0
 1201 0012 9342     		cmp	r3, r2
 1202              		.loc 3 658 0
 1203 0014 24BF     		itt	cs
 1204 0016 436A     		ldrcs	r3, [r0, #36]
 1205 0018 0361     		strcs	r3, [r0, #16]
 1206              		.loc 3 662 0
 1207 001a 0023     		movs	r3, #0
 1208 001c 8362     		str	r3, [r0, #40]
 1209              		.loc 3 665 0
 1210 001e 036B     		ldr	r3, [r0, #48]
 1211 0020 03B1     		cbz	r3, .L64
 1212              		.loc 3 666 0
 1213 0022 1847     		bx	r3	@ indirect register sibling call
 1214              	.LVL101:
 1215              	.L64:
 1216 0024 7047     		bx	lr
 1217              		.cfi_endproc
 1218              	.LFE294:
 1219              		.size	obqPostFullBufferS, .-obqPostFullBufferS
 1220              		.section	.text.obqPostFullBuffer,"ax",%progbits
 1221              		.align	1
 1222              		.global	obqPostFullBuffer
 1223              		.syntax unified
 1224              		.thumb
 1225              		.thumb_func
 1226              		.fpu fpv4-sp-d16
 1227              		.type	obqPostFullBuffer, %function
 1228              	obqPostFullBuffer:
 1229              	.LFB293:
 1230              		.loc 3 629 0
 1231              		.cfi_startproc
 1232              		@ args = 0, pretend = 0, frame = 0
 1233              		@ frame_needed = 0, uses_anonymous_args = 0
 1234              	.LVL102:
 1235 0000 38B5     		push	{r3, r4, r5, lr}
 1236              		.cfi_def_cfa_offset 16
 1237              		.cfi_offset 3, -16
 1238              		.cfi_offset 4, -12
 1239              		.cfi_offset 5, -8
 1240              		.cfi_offset 14, -4
 1241              		.loc 3 629 0
 1242 0002 0446     		mov	r4, r0
 1243 0004 0D46     		mov	r5, r1
 1244              	.LBB241:
 1245              	.LBB242:
 1246              		.loc 5 493 0
 1247 0006 FFF7FEFF 		bl	chSysLock
 1248              	.LVL103:
 1249              	.LBE242:
 1250              	.LBE241:
 1251              		.loc 3 632 0
 1252 000a 2946     		mov	r1, r5
 1253 000c 2046     		mov	r0, r4
 1254 000e FFF7FEFF 		bl	obqPostFullBufferS
ARM GAS  C:\cygwin64\tmp\ccqqoHDf.s 			page 23


 1255              	.LVL104:
 1256              		.loc 3 634 0
 1257 0012 BDE83840 		pop	{r3, r4, r5, lr}
 1258              		.cfi_restore 14
 1259              		.cfi_restore 5
 1260              		.cfi_restore 4
 1261              		.cfi_restore 3
 1262              		.cfi_def_cfa_offset 0
 1263              	.LVL105:
 1264              	.LBB243:
 1265              	.LBB244:
 1266              		.loc 5 504 0
 1267 0016 FFF7FEBF 		b	chSysUnlock
 1268              	.LVL106:
 1269              	.LBE244:
 1270              	.LBE243:
 1271              		.cfi_endproc
 1272              	.LFE293:
 1273              		.size	obqPostFullBuffer, .-obqPostFullBuffer
 1274              		.section	.text.obqPutTimeout,"ax",%progbits
 1275              		.align	1
 1276              		.global	obqPutTimeout
 1277              		.syntax unified
 1278              		.thumb
 1279              		.thumb_func
 1280              		.fpu fpv4-sp-d16
 1281              		.type	obqPutTimeout, %function
 1282              	obqPutTimeout:
 1283              	.LFB295:
 1284              		.loc 3 691 0
 1285              		.cfi_startproc
 1286              		@ args = 0, pretend = 0, frame = 0
 1287              		@ frame_needed = 0, uses_anonymous_args = 0
 1288              	.LVL107:
 1289 0000 70B5     		push	{r4, r5, r6, lr}
 1290              		.cfi_def_cfa_offset 16
 1291              		.cfi_offset 4, -16
 1292              		.cfi_offset 5, -12
 1293              		.cfi_offset 6, -8
 1294              		.cfi_offset 14, -4
 1295              		.loc 3 691 0
 1296 0002 0446     		mov	r4, r0
 1297 0004 0E46     		mov	r6, r1
 1298 0006 1546     		mov	r5, r2
 1299              	.LBB245:
 1300              	.LBB246:
 1301              		.loc 5 493 0
 1302 0008 FFF7FEFF 		bl	chSysLock
 1303              	.LVL108:
 1304              	.LBE246:
 1305              	.LBE245:
 1306              		.loc 3 697 0
 1307 000c A36A     		ldr	r3, [r4, #40]
 1308 000e 4BB9     		cbnz	r3, .L69
 1309              		.loc 3 698 0
 1310 0010 2946     		mov	r1, r5
 1311 0012 2046     		mov	r0, r4
ARM GAS  C:\cygwin64\tmp\ccqqoHDf.s 			page 24


 1312 0014 FFF7FEFF 		bl	obqGetEmptyBufferTimeoutS
 1313              	.LVL109:
 1314              		.loc 3 699 0
 1315 0018 0546     		mov	r5, r0
 1316              	.LVL110:
 1317 001a 18B1     		cbz	r0, .L69
 1318              	.LBB247:
 1319              	.LBB248:
 1320              		.loc 5 504 0
 1321 001c FFF7FEFF 		bl	chSysUnlock
 1322              	.LVL111:
 1323              	.L68:
 1324              	.LBE248:
 1325              	.LBE247:
 1326              		.loc 3 717 0
 1327 0020 2846     		mov	r0, r5
 1328 0022 70BD     		pop	{r4, r5, r6, pc}
 1329              	.LVL112:
 1330              	.L69:
 1331              		.loc 3 706 0
 1332 0024 A36A     		ldr	r3, [r4, #40]
 1333 0026 1E70     		strb	r6, [r3]
 1334              		.loc 3 707 0
 1335 0028 A36A     		ldr	r3, [r4, #40]
 1336              		.loc 3 711 0
 1337 002a E26A     		ldr	r2, [r4, #44]
 1338              		.loc 3 707 0
 1339 002c 0133     		adds	r3, r3, #1
 1340              		.loc 3 711 0
 1341 002e 9342     		cmp	r3, r2
 1342              		.loc 3 707 0
 1343 0030 A362     		str	r3, [r4, #40]
 1344              		.loc 3 711 0
 1345 0032 04D3     		bcc	.L71
 1346              		.loc 3 712 0
 1347 0034 E169     		ldr	r1, [r4, #28]
 1348 0036 2046     		mov	r0, r4
 1349 0038 0439     		subs	r1, r1, #4
 1350 003a FFF7FEFF 		bl	obqPostFullBufferS
 1351              	.LVL113:
 1352              	.L71:
 1353              	.LBB249:
 1354              	.LBB250:
 1355              		.loc 5 504 0
 1356 003e FFF7FEFF 		bl	chSysUnlock
 1357              	.LVL114:
 1358              	.LBE250:
 1359              	.LBE249:
 1360              		.loc 3 716 0
 1361 0042 0025     		movs	r5, #0
 1362 0044 ECE7     		b	.L68
 1363              		.cfi_endproc
 1364              	.LFE295:
 1365              		.size	obqPutTimeout, .-obqPutTimeout
 1366              		.section	.text.obqWriteTimeout,"ax",%progbits
 1367              		.align	1
 1368              		.global	obqWriteTimeout
ARM GAS  C:\cygwin64\tmp\ccqqoHDf.s 			page 25


 1369              		.syntax unified
 1370              		.thumb
 1371              		.thumb_func
 1372              		.fpu fpv4-sp-d16
 1373              		.type	obqWriteTimeout, %function
 1374              	obqWriteTimeout:
 1375              	.LFB296:
 1376              		.loc 3 741 0
 1377              		.cfi_startproc
 1378              		@ args = 0, pretend = 0, frame = 8
 1379              		@ frame_needed = 0, uses_anonymous_args = 0
 1380              	.LVL115:
 1381 0000 2DE9F74F 		push	{r0, r1, r2, r4, r5, r6, r7, r8, r9, r10, fp, lr}
 1382              		.cfi_def_cfa_offset 48
 1383              		.cfi_offset 4, -36
 1384              		.cfi_offset 5, -32
 1385              		.cfi_offset 6, -28
 1386              		.cfi_offset 7, -24
 1387              		.cfi_offset 8, -20
 1388              		.cfi_offset 9, -16
 1389              		.cfi_offset 10, -12
 1390              		.cfi_offset 11, -8
 1391              		.cfi_offset 14, -4
 1392              		.loc 3 741 0
 1393 0004 1F46     		mov	r7, r3
 1394 0006 9246     		mov	r10, r2
 1395 0008 0446     		mov	r4, r0
 1396              	.LVL116:
 1397 000a 0D46     		mov	r5, r1
 1398              	.LBB251:
 1399              	.LBB252:
 1400              		.loc 5 493 0
 1401 000c FFF7FEFF 		bl	chSysLock
 1402              	.LVL117:
 1403              	.LBE252:
 1404              	.LBE251:
 1405              	.LBB253:
 1406              	.LBB254:
 1407              	.LBB255:
 1408              	.LBB256:
 1409              	.LBB257:
 1410              		.loc 6 141 0
 1411 0010 274B     		ldr	r3, .L91
 1412 0012 5A6A     		ldr	r2, [r3, #36]
 1413              	.LBE257:
 1414              	.LBE256:
 1415              	.LBE255:
 1416              	.LBE254:
 1417              	.LBE253:
 1418              		.loc 3 742 0
 1419 0014 0026     		movs	r6, #0
 1420              		.loc 3 750 0
 1421 0016 07EB0209 		add	r9, r7, r2
 1422              	.LVL118:
 1423              	.LBB258:
 1424              	.LBB259:
 1425              		.loc 3 761 0
ARM GAS  C:\cygwin64\tmp\ccqqoHDf.s 			page 26


 1426 001a 07F1FF3B 		add	fp, r7, #-1
 1427              	.LBB260:
 1428              	.LBB261:
 1429              	.LBB262:
 1430              	.LBB263:
 1431              	.LBB264:
 1432              	.LBB265:
 1433              		.loc 6 141 0
 1434 001e 9846     		mov	r8, r3
 1435              	.LVL119:
 1436              	.L85:
 1437              	.LBE265:
 1438              	.LBE264:
 1439              	.LBE263:
 1440              	.LBE262:
 1441              	.LBE261:
 1442              	.LBE260:
 1443              	.LBE259:
 1444              		.loc 3 756 0
 1445 0020 A36A     		ldr	r3, [r4, #40]
 1446 0022 3BB9     		cbnz	r3, .L76
 1447              	.LBB275:
 1448              		.loc 3 761 0
 1449 0024 1BF1030F 		cmn	fp, #3
 1450 0028 2AD9     		bls	.L77
 1451              		.loc 3 762 0
 1452 002a 3946     		mov	r1, r7
 1453              	.L79:
 1454              	.LBB271:
 1455              		.loc 3 774 0
 1456 002c 2046     		mov	r0, r4
 1457 002e FFF7FEFF 		bl	obqGetEmptyBufferTimeoutS
 1458              	.LVL120:
 1459              	.LBE271:
 1460              		.loc 3 778 0
 1461 0032 58BB     		cbnz	r0, .L90
 1462              	.LVL121:
 1463              	.L76:
 1464              	.LBE275:
 1465              		.loc 3 785 0
 1466 0034 A06A     		ldr	r0, [r4, #40]
 1467 0036 E36A     		ldr	r3, [r4, #44]
 1468              		.loc 3 786 0
 1469 0038 AAEB0602 		sub	r2, r10, r6
 1470              		.loc 3 785 0
 1471 003c 1B1A     		subs	r3, r3, r0
 1472              	.LVL122:
 1473 003e 9342     		cmp	r3, r2
 1474 0040 28BF     		it	cs
 1475 0042 1346     		movcs	r3, r2
 1476              	.LVL123:
 1477              		.loc 3 792 0
 1478 0044 402B     		cmp	r3, #64
 1479 0046 27D9     		bls	.L81
 1480              		.loc 3 794 0
 1481 0048 05F14003 		add	r3, r5, #64
 1482              	.LVL124:
ARM GAS  C:\cygwin64\tmp\ccqqoHDf.s 			page 27


 1483              	.L82:
 1484 004c 55F8042B 		ldr	r2, [r5], #4	@ unaligned
 1485 0050 40F8042B 		str	r2, [r0], #4	@ unaligned
 1486 0054 9D42     		cmp	r5, r3
 1487 0056 F9D1     		bne	.L82
 1488              	.LVL125:
 1489              		.loc 3 796 0
 1490 0058 A36A     		ldr	r3, [r4, #40]
 1491 005a 4033     		adds	r3, r3, #64
 1492 005c A362     		str	r3, [r4, #40]
 1493              		.loc 3 797 0
 1494 005e 4036     		adds	r6, r6, #64
 1495              	.LVL126:
 1496              	.L83:
 1497              		.loc 3 807 0
 1498 0060 A26A     		ldr	r2, [r4, #40]
 1499 0062 E36A     		ldr	r3, [r4, #44]
 1500 0064 9A42     		cmp	r2, r3
 1501 0066 04D3     		bcc	.L84
 1502              		.loc 3 808 0
 1503 0068 E169     		ldr	r1, [r4, #28]
 1504 006a 2046     		mov	r0, r4
 1505 006c 0439     		subs	r1, r1, #4
 1506 006e FFF7FEFF 		bl	obqPostFullBufferS
 1507              	.LVL127:
 1508              	.L84:
 1509              	.LBB276:
 1510              	.LBB277:
 1511              		.loc 5 504 0
 1512 0072 FFF7FEFF 		bl	chSysUnlock
 1513              	.LVL128:
 1514              	.LBE277:
 1515              	.LBE276:
 1516              		.loc 3 813 0
 1517 0076 5645     		cmp	r6, r10
 1518 0078 0AD2     		bcs	.L75
 1519              	.LBB278:
 1520              	.LBB279:
 1521              		.loc 5 493 0
 1522 007a FFF7FEFF 		bl	chSysLock
 1523              	.LVL129:
 1524 007e CFE7     		b	.L85
 1525              	.L77:
 1526              	.LBE279:
 1527              	.LBE278:
 1528              	.LBB280:
 1529              	.LBB272:
 1530              	.LBB270:
 1531              	.LBB269:
 1532              	.LBB268:
 1533              	.LBB267:
 1534              	.LBB266:
 1535              		.loc 6 141 0
 1536 0080 D8F82410 		ldr	r1, [r8, #36]
 1537              	.LBE266:
 1538              	.LBE267:
 1539              	.LBE268:
ARM GAS  C:\cygwin64\tmp\ccqqoHDf.s 			page 28


 1540              	.LBE269:
 1541              	.LBE270:
 1542              		.loc 3 765 0
 1543 0084 A9EB0101 		sub	r1, r9, r1
 1544              	.LVL130:
 1545              		.loc 3 770 0
 1546 0088 8F42     		cmp	r7, r1
 1547 008a CFD2     		bcs	.L79
 1548              	.LVL131:
 1549              	.L90:
 1550              	.LBE272:
 1551              	.LBB273:
 1552              	.LBB274:
 1553              		.loc 5 504 0
 1554 008c FFF7FEFF 		bl	chSysUnlock
 1555              	.LVL132:
 1556              	.L75:
 1557              	.LBE274:
 1558              	.LBE273:
 1559              	.LBE280:
 1560              	.LBE258:
 1561              		.loc 3 818 0
 1562 0090 3046     		mov	r0, r6
 1563 0092 03B0     		add	sp, sp, #12
 1564              		.cfi_remember_state
 1565              		.cfi_def_cfa_offset 36
 1566              		@ sp needed
 1567 0094 BDE8F08F 		pop	{r4, r5, r6, r7, r8, r9, r10, fp, pc}
 1568              	.LVL133:
 1569              	.L81:
 1570              		.cfi_restore_state
 1571              	.LBB281:
 1572              		.loc 3 800 0
 1573 0098 1A46     		mov	r2, r3
 1574 009a 2946     		mov	r1, r5
 1575 009c 0193     		str	r3, [sp, #4]
 1576 009e FFF7FEFF 		bl	memcpy
 1577              	.LVL134:
 1578              		.loc 3 801 0
 1579 00a2 019B     		ldr	r3, [sp, #4]
 1580              		.loc 3 802 0
 1581 00a4 A26A     		ldr	r2, [r4, #40]
 1582 00a6 1A44     		add	r2, r2, r3
 1583              		.loc 3 801 0
 1584 00a8 1D44     		add	r5, r5, r3
 1585              	.LVL135:
 1586              		.loc 3 802 0
 1587 00aa A262     		str	r2, [r4, #40]
 1588              		.loc 3 803 0
 1589 00ac 1E44     		add	r6, r6, r3
 1590              	.LVL136:
 1591 00ae D7E7     		b	.L83
 1592              	.L92:
 1593              		.align	2
 1594              	.L91:
 1595 00b0 000C0040 		.word	1073744896
 1596              	.LBE281:
ARM GAS  C:\cygwin64\tmp\ccqqoHDf.s 			page 29


 1597              		.cfi_endproc
 1598              	.LFE296:
 1599              		.size	obqWriteTimeout, .-obqWriteTimeout
 1600              		.section	.text.obqTryFlushI,"ax",%progbits
 1601              		.align	1
 1602              		.global	obqTryFlushI
 1603              		.syntax unified
 1604              		.thumb
 1605              		.thumb_func
 1606              		.fpu fpv4-sp-d16
 1607              		.type	obqTryFlushI, %function
 1608              	obqTryFlushI:
 1609              	.LFB297:
 1610              		.loc 3 833 0
 1611              		.cfi_startproc
 1612              		@ args = 0, pretend = 0, frame = 0
 1613              		@ frame_needed = 0, uses_anonymous_args = 0
 1614              		@ link register save eliminated.
 1615              	.LVL137:
 1616              		.loc 3 839 0
 1617 0000 0269     		ldr	r2, [r0, #16]
 1618 0002 4369     		ldr	r3, [r0, #20]
 1619 0004 9A42     		cmp	r2, r3
 1620 0006 03D1     		bne	.L98
 1621              		.loc 3 839 0 is_stmt 0 discriminator 1
 1622 0008 C368     		ldr	r3, [r0, #12]
 1623 000a 1BB9     		cbnz	r3, .L95
 1624              	.L100:
 1625              		.loc 3 861 0 is_stmt 1
 1626 000c 1846     		mov	r0, r3
 1627              	.LVL138:
 1628 000e 7047     		bx	lr
 1629              	.LVL139:
 1630              	.L98:
 1631              		.loc 3 860 0
 1632 0010 0023     		movs	r3, #0
 1633 0012 FBE7     		b	.L100
 1634              	.L95:
 1635              		.loc 3 839 0
 1636 0014 836A     		ldr	r3, [r0, #40]
 1637 0016 002B     		cmp	r3, #0
 1638 0018 F8D0     		beq	.L100
 1639              	.LBB282:
 1640              		.loc 3 840 0
 1641 001a 043B     		subs	r3, r3, #4
 1642              	.LVL140:
 1643              		.loc 3 842 0
 1644 001c 9B1A     		subs	r3, r3, r2
 1645              	.LVL141:
 1646 001e F5D0     		beq	.L100
 1647              		.loc 3 845 0
 1648 0020 1360     		str	r3, [r2]
 1649              		.loc 3 848 0
 1650 0022 C368     		ldr	r3, [r0, #12]
 1651              	.LVL142:
 1652 0024 013B     		subs	r3, r3, #1
 1653 0026 C360     		str	r3, [r0, #12]
ARM GAS  C:\cygwin64\tmp\ccqqoHDf.s 			page 30


 1654              	.LVL143:
 1655              		.loc 3 849 0
 1656 0028 C369     		ldr	r3, [r0, #28]
 1657 002a 1A44     		add	r2, r2, r3
 1658              	.LVL144:
 1659              		.loc 3 850 0
 1660 002c 8369     		ldr	r3, [r0, #24]
 1661              		.loc 3 849 0
 1662 002e 0261     		str	r2, [r0, #16]
 1663              	.LVL145:
 1664              		.loc 3 850 0
 1665 0030 9A42     		cmp	r2, r3
 1666              		.loc 3 851 0
 1667 0032 24BF     		itt	cs
 1668 0034 436A     		ldrcs	r3, [r0, #36]
 1669 0036 0361     		strcs	r3, [r0, #16]
 1670              		.loc 3 855 0
 1671 0038 0023     		movs	r3, #0
 1672 003a 8362     		str	r3, [r0, #40]
 1673              		.loc 3 857 0
 1674 003c 0123     		movs	r3, #1
 1675 003e E5E7     		b	.L100
 1676              	.LBE282:
 1677              		.cfi_endproc
 1678              	.LFE297:
 1679              		.size	obqTryFlushI, .-obqTryFlushI
 1680              		.section	.text.obqFlush,"ax",%progbits
 1681              		.align	1
 1682              		.global	obqFlush
 1683              		.syntax unified
 1684              		.thumb
 1685              		.thumb_func
 1686              		.fpu fpv4-sp-d16
 1687              		.type	obqFlush, %function
 1688              	obqFlush:
 1689              	.LFB298:
 1690              		.loc 3 870 0
 1691              		.cfi_startproc
 1692              		@ args = 0, pretend = 0, frame = 0
 1693              		@ frame_needed = 0, uses_anonymous_args = 0
 1694              	.LVL146:
 1695 0000 10B5     		push	{r4, lr}
 1696              		.cfi_def_cfa_offset 8
 1697              		.cfi_offset 4, -8
 1698              		.cfi_offset 14, -4
 1699              		.loc 3 870 0
 1700 0002 0446     		mov	r4, r0
 1701              	.LBB283:
 1702              	.LBB284:
 1703              		.loc 5 493 0
 1704 0004 FFF7FEFF 		bl	chSysLock
 1705              	.LVL147:
 1706              	.LBE284:
 1707              	.LBE283:
 1708              		.loc 3 875 0
 1709 0008 A16A     		ldr	r1, [r4, #40]
 1710 000a 31B1     		cbz	r1, .L102
ARM GAS  C:\cygwin64\tmp\ccqqoHDf.s 			page 31


 1711              	.LBB285:
 1712              		.loc 3 876 0
 1713 000c 2369     		ldr	r3, [r4, #16]
 1714 000e 0439     		subs	r1, r1, #4
 1715              	.LVL148:
 1716              		.loc 3 878 0
 1717 0010 C91A     		subs	r1, r1, r3
 1718              	.LVL149:
 1719 0012 02D0     		beq	.L102
 1720              		.loc 3 879 0
 1721 0014 2046     		mov	r0, r4
 1722 0016 FFF7FEFF 		bl	obqPostFullBufferS
 1723              	.LVL150:
 1724              	.L102:
 1725              	.LBE285:
 1726              		.loc 3 884 0
 1727 001a BDE81040 		pop	{r4, lr}
 1728              		.cfi_restore 14
 1729              		.cfi_restore 4
 1730              		.cfi_def_cfa_offset 0
 1731              	.LVL151:
 1732              	.LBB286:
 1733              	.LBB287:
 1734              		.loc 5 504 0
 1735 001e FFF7FEBF 		b	chSysUnlock
 1736              	.LVL152:
 1737              	.LBE287:
 1738              	.LBE286:
 1739              		.cfi_endproc
 1740              	.LFE298:
 1741              		.size	obqFlush, .-obqFlush
 1742              		.text
 1743              	.Letext0:
 1744              		.file 7 "c:\\program files (x86)\\gnu tools arm embedded\\6 2017-q2-update\\lib\\gcc\\arm-none-eab
 1745              		.file 8 "c:\\program files (x86)\\gnu tools arm embedded\\6 2017-q2-update\\arm-none-eabi\\include
 1746              		.file 9 "c:\\program files (x86)\\gnu tools arm embedded\\6 2017-q2-update\\arm-none-eabi\\include
 1747              		.file 10 "c:\\program files (x86)\\gnu tools arm embedded\\6 2017-q2-update\\arm-none-eabi\\includ
 1748              		.file 11 "c:\\program files (x86)\\gnu tools arm embedded\\6 2017-q2-update\\arm-none-eabi\\includ
 1749              		.file 12 "c:\\program files (x86)\\gnu tools arm embedded\\6 2017-q2-update\\arm-none-eabi\\includ
 1750              		.file 13 "../../modules/ChibiOS/os/common/ports/ARMCMx/compilers/GCC/chtypes.h"
 1751              		.file 14 "../../modules/ChibiOS/os/rt/include/chsystypes.h"
 1752              		.file 15 "../../modules/ChibiOS/os/common/ext/CMSIS/include/core_cm4.h"
 1753              		.file 16 "../../modules/ChibiOS/os/common/ext/CMSIS/ST/STM32F4xx/system_stm32f4xx.h"
 1754              		.file 17 "../../modules/ChibiOS/os/common/ext/CMSIS/ST/STM32F4xx/stm32f427xx.h"
 1755              		.file 18 "../../modules/ChibiOS/os/common/ports/ARMCMx/chcore.h"
 1756              		.file 19 "../../modules/ChibiOS/os/common/ports/ARMCMx/chcore_v7m.h"
 1757              		.file 20 "../../modules/ChibiOS/os/hal/ports/STM32/LLD/TIMv1/stm32_tim.h"
 1758              		.file 21 "../../modules/ChibiOS/os/rt/include/chtm.h"
 1759              		.file 22 "../../modules/ChibiOS/os/rt/include/chstats.h"
 1760              		.file 23 "../../modules/ChibiOS/os/rt/include/chsem.h"
 1761              		.file 24 "../../modules/ChibiOS/os/rt/include/chmtx.h"
 1762              		.file 25 "../../modules/ChibiOS/os/rt/include/chregistry.h"
 1763              		.file 26 "../../modules/ChibiOS/os/rt/include/chevents.h"
 1764              		.file 27 "../../modules/ChibiOS/os/hal/ports/STM32/LLD/DMAv2/stm32_dma.h"
 1765              		.file 28 "../../modules/ChibiOS/os/hal/include/hal_ioblock.h"
 1766              		.file 29 "../../modules/ChibiOS/os/hal/include/hal_buffers.h"
 1767              		.file 30 "../../modules/ChibiOS/os/hal/include/hal_queues.h"
ARM GAS  C:\cygwin64\tmp\ccqqoHDf.s 			page 32


 1768              		.file 31 "../../modules/ChibiOS/os/hal/ports/STM32/LLD/GPIOv2/hal_pal_lld.h"
 1769              		.file 32 "../../modules/ChibiOS/os/hal/include/hal_adc.h"
 1770              		.file 33 "../../modules/ChibiOS/os/hal/ports/STM32/LLD/ADCv2/hal_adc_lld.h"
 1771              		.file 34 "../../modules/ChibiOS/os/hal/include/hal_ext.h"
 1772              		.file 35 "../../modules/ChibiOS/os/hal/ports/STM32/LLD/EXTIv1/hal_ext_lld.h"
 1773              		.file 36 "../../modules/ChibiOS/os/hal/include/hal_i2c.h"
 1774              		.file 37 "../../modules/ChibiOS/os/hal/ports/STM32/LLD/I2Cv1/hal_i2c_lld.h"
 1775              		.file 38 "../../modules/ChibiOS/os/hal/include/hal_pwm.h"
 1776              		.file 39 "../../modules/ChibiOS/os/hal/ports/STM32/LLD/TIMv1/hal_pwm_lld.h"
 1777              		.file 40 "../../modules/ChibiOS/os/hal/include/hal_serial.h"
 1778              		.file 41 "../../modules/ChibiOS/os/hal/ports/STM32/LLD/USARTv1/hal_serial_lld.h"
 1779              		.file 42 "../../modules/ChibiOS/os/hal/include/hal_sdc.h"
 1780              		.file 43 "../../modules/ChibiOS/os/hal/ports/STM32/LLD/SDIOv1/hal_sdc_lld.h"
 1781              		.file 44 "../../modules/ChibiOS/os/hal/include/hal_spi.h"
 1782              		.file 45 "../../modules/ChibiOS/os/hal/ports/STM32/LLD/SPIv1/hal_spi_lld.h"
 1783              		.file 46 "../../modules/ChibiOS/os/hal/include/hal_usb.h"
 1784              		.file 47 "../../modules/ChibiOS/os/hal/ports/STM32/LLD/OTGv1/hal_usb_lld.h"
 1785              		.file 48 "../../modules/ChibiOS/os/hal/ports/STM32/LLD/OTGv1/stm32_otg.h"
 1786              		.file 49 "../../modules/ChibiOS/os/rt/include/chvt.h"
 1787              		.file 50 "../../modules/ChibiOS/os/rt/include/chthreads.h"
 1788              		.file 51 "../../modules/ChibiOS/os/common/ports/ARMCMx/chcore_timer.h"