ARM GAS  C:\cygwin64\tmp\ccbRgMgR.s 			page 1


   1              		.cpu cortex-m4
   2              		.eabi_attribute 27, 1
   3              		.eabi_attribute 28, 1
   4              		.eabi_attribute 20, 1
   5              		.eabi_attribute 21, 1
   6              		.eabi_attribute 23, 3
   7              		.eabi_attribute 24, 1
   8              		.eabi_attribute 25, 1
   9              		.eabi_attribute 26, 1
  10              		.eabi_attribute 30, 4
  11              		.eabi_attribute 34, 1
  12              		.eabi_attribute 18, 4
  13              		.file	"hal_spi.c"
  14              		.text
  15              	.Ltext0:
  16              		.cfi_sections	.debug_frame
  17              		.section	.text.chSysLock,"ax",%progbits
  18              		.align	1
  19              		.syntax unified
  20              		.thumb
  21              		.thumb_func
  22              		.fpu fpv4-sp-d16
  23              		.type	chSysLock, %function
  24              	chSysLock:
  25              	.LFB167:
  26              		.file 1 "../../modules/ChibiOS/os/rt/include/chsys.h"
  27              		.loc 1 374 0
  28              		.cfi_startproc
  29              		@ args = 0, pretend = 0, frame = 0
  30              		@ frame_needed = 0, uses_anonymous_args = 0
  31              		@ link register save eliminated.
  32              	.LVL0:
  33              	.LBB68:
  34              	.LBB69:
  35              	.LBB70:
  36              		.file 2 "../../modules/ChibiOS/os/common/ext/CMSIS/include/cmsis_gcc.h"
  37              		.loc 2 264 0
  38 0000 2023     		movs	r3, #32
  39              		.syntax unified
  40              	@ 264 "../../modules/ChibiOS/os/common/ext/CMSIS/include/cmsis_gcc.h" 1
  41 0002 83F31188 		MSR basepri, r3
  42              	@ 0 "" 2
  43              	.LVL1:
  44              		.thumb
  45              		.syntax unified
  46              	.LBE70:
  47              	.LBE69:
  48              	.LBE68:
  49              		.loc 1 377 0
  50 0006 FFF7FEBF 		b	_stats_start_measure_crit_thd
  51              	.LVL2:
  52              		.cfi_endproc
  53              	.LFE167:
  54              		.size	chSysLock, .-chSysLock
  55              		.section	.text.chSysUnlock,"ax",%progbits
  56              		.align	1
  57              		.syntax unified
ARM GAS  C:\cygwin64\tmp\ccbRgMgR.s 			page 2


  58              		.thumb
  59              		.thumb_func
  60              		.fpu fpv4-sp-d16
  61              		.type	chSysUnlock, %function
  62              	chSysUnlock:
  63              	.LFB168:
  64              		.loc 1 386 0
  65              		.cfi_startproc
  66              		@ args = 0, pretend = 0, frame = 0
  67              		@ frame_needed = 0, uses_anonymous_args = 0
  68 0000 08B5     		push	{r3, lr}
  69              		.cfi_def_cfa_offset 8
  70              		.cfi_offset 3, -8
  71              		.cfi_offset 14, -4
  72              		.loc 1 389 0
  73 0002 FFF7FEFF 		bl	_stats_stop_measure_crit_thd
  74              	.LVL3:
  75              	.LBB71:
  76              	.LBB72:
  77              	.LBB73:
  78              		.loc 2 264 0
  79 0006 0023     		movs	r3, #0
  80              		.syntax unified
  81              	@ 264 "../../modules/ChibiOS/os/common/ext/CMSIS/include/cmsis_gcc.h" 1
  82 0008 83F31188 		MSR basepri, r3
  83              	@ 0 "" 2
  84              	.LVL4:
  85              		.thumb
  86              		.syntax unified
  87 000c 08BD     		pop	{r3, pc}
  88              	.LBE73:
  89              	.LBE72:
  90              	.LBE71:
  91              		.cfi_endproc
  92              	.LFE168:
  93              		.size	chSysUnlock, .-chSysUnlock
  94              		.section	.text.spiInit,"ax",%progbits
  95              		.align	1
  96              		.global	spiInit
  97              		.syntax unified
  98              		.thumb
  99              		.thumb_func
 100              		.fpu fpv4-sp-d16
 101              		.type	spiInit, %function
 102              	spiInit:
 103              	.LFB277:
 104              		.file 3 "../../modules/ChibiOS/os/hal/src/hal_spi.c"
 105              		.loc 3 56 0
 106              		.cfi_startproc
 107              		@ args = 0, pretend = 0, frame = 0
 108              		@ frame_needed = 0, uses_anonymous_args = 0
 109              		@ link register save eliminated.
 110              		.loc 3 58 0
 111 0000 FFF7FEBF 		b	spi_lld_init
 112              	.LVL5:
 113              		.cfi_endproc
 114              	.LFE277:
ARM GAS  C:\cygwin64\tmp\ccbRgMgR.s 			page 3


 115              		.size	spiInit, .-spiInit
 116              		.section	.text.spiObjectInit,"ax",%progbits
 117              		.align	1
 118              		.global	spiObjectInit
 119              		.syntax unified
 120              		.thumb
 121              		.thumb_func
 122              		.fpu fpv4-sp-d16
 123              		.type	spiObjectInit, %function
 124              	spiObjectInit:
 125              	.LFB278:
 126              		.loc 3 68 0
 127              		.cfi_startproc
 128              		@ args = 0, pretend = 0, frame = 0
 129              		@ frame_needed = 0, uses_anonymous_args = 0
 130              		@ link register save eliminated.
 131              	.LVL6:
 132              		.loc 3 70 0
 133 0000 0123     		movs	r3, #1
 134 0002 0370     		strb	r3, [r0]
 135              		.loc 3 71 0
 136 0004 0023     		movs	r3, #0
 137 0006 4360     		str	r3, [r0, #4]
 138              		.loc 3 73 0
 139 0008 8360     		str	r3, [r0, #8]
 140              	.LVL7:
 141              	.LBB74:
 142              	.LBB75:
 143              		.file 4 "../../modules/ChibiOS/os/hal/osal/rt/osal.h"
 144              		.loc 4 887 0
 145 000a 0C30     		adds	r0, r0, #12
 146              	.LVL8:
 147 000c FFF7FEBF 		b	chMtxObjectInit
 148              	.LVL9:
 149              	.LBE75:
 150              	.LBE74:
 151              		.cfi_endproc
 152              	.LFE278:
 153              		.size	spiObjectInit, .-spiObjectInit
 154              		.section	.text.spiStart,"ax",%progbits
 155              		.align	1
 156              		.global	spiStart
 157              		.syntax unified
 158              		.thumb
 159              		.thumb_func
 160              		.fpu fpv4-sp-d16
 161              		.type	spiStart, %function
 162              	spiStart:
 163              	.LFB279:
 164              		.loc 3 91 0
 165              		.cfi_startproc
 166              		@ args = 0, pretend = 0, frame = 0
 167              		@ frame_needed = 0, uses_anonymous_args = 0
 168              	.LVL10:
 169 0000 38B5     		push	{r3, r4, r5, lr}
 170              		.cfi_def_cfa_offset 16
 171              		.cfi_offset 3, -16
ARM GAS  C:\cygwin64\tmp\ccbRgMgR.s 			page 4


 172              		.cfi_offset 4, -12
 173              		.cfi_offset 5, -8
 174              		.cfi_offset 14, -4
 175              		.loc 3 91 0
 176 0002 0446     		mov	r4, r0
 177 0004 0D46     		mov	r5, r1
 178              	.LBB76:
 179              	.LBB77:
 180              		.loc 4 493 0
 181 0006 FFF7FEFF 		bl	chSysLock
 182              	.LVL11:
 183              	.LBE77:
 184              	.LBE76:
 185              		.loc 3 98 0
 186 000a 6560     		str	r5, [r4, #4]
 187              		.loc 3 99 0
 188 000c 2046     		mov	r0, r4
 189 000e FFF7FEFF 		bl	spi_lld_start
 190              	.LVL12:
 191              		.loc 3 100 0
 192 0012 0223     		movs	r3, #2
 193 0014 2370     		strb	r3, [r4]
 194              		.loc 3 102 0
 195 0016 BDE83840 		pop	{r3, r4, r5, lr}
 196              		.cfi_restore 14
 197              		.cfi_restore 5
 198              		.cfi_restore 4
 199              		.cfi_restore 3
 200              		.cfi_def_cfa_offset 0
 201              	.LVL13:
 202              	.LBB78:
 203              	.LBB79:
 204              		.loc 4 504 0
 205 001a FFF7FEBF 		b	chSysUnlock
 206              	.LVL14:
 207              	.LBE79:
 208              	.LBE78:
 209              		.cfi_endproc
 210              	.LFE279:
 211              		.size	spiStart, .-spiStart
 212              		.section	.text.spiStop,"ax",%progbits
 213              		.align	1
 214              		.global	spiStop
 215              		.syntax unified
 216              		.thumb
 217              		.thumb_func
 218              		.fpu fpv4-sp-d16
 219              		.type	spiStop, %function
 220              	spiStop:
 221              	.LFB280:
 222              		.loc 3 113 0
 223              		.cfi_startproc
 224              		@ args = 0, pretend = 0, frame = 0
 225              		@ frame_needed = 0, uses_anonymous_args = 0
 226              	.LVL15:
 227 0000 10B5     		push	{r4, lr}
 228              		.cfi_def_cfa_offset 8
ARM GAS  C:\cygwin64\tmp\ccbRgMgR.s 			page 5


 229              		.cfi_offset 4, -8
 230              		.cfi_offset 14, -4
 231              		.loc 3 113 0
 232 0002 0446     		mov	r4, r0
 233              	.LBB80:
 234              	.LBB81:
 235              		.loc 4 493 0
 236 0004 FFF7FEFF 		bl	chSysLock
 237              	.LVL16:
 238              	.LBE81:
 239              	.LBE80:
 240              		.loc 3 122 0
 241 0008 2046     		mov	r0, r4
 242 000a FFF7FEFF 		bl	spi_lld_stop
 243              	.LVL17:
 244              		.loc 3 123 0
 245 000e 0023     		movs	r3, #0
 246 0010 6360     		str	r3, [r4, #4]
 247              		.loc 3 124 0
 248 0012 0123     		movs	r3, #1
 249 0014 2370     		strb	r3, [r4]
 250              		.loc 3 127 0
 251 0016 BDE81040 		pop	{r4, lr}
 252              		.cfi_restore 14
 253              		.cfi_restore 4
 254              		.cfi_def_cfa_offset 0
 255              	.LVL18:
 256              	.LBB82:
 257              	.LBB83:
 258              		.loc 4 504 0
 259 001a FFF7FEBF 		b	chSysUnlock
 260              	.LVL19:
 261              	.LBE83:
 262              	.LBE82:
 263              		.cfi_endproc
 264              	.LFE280:
 265              		.size	spiStop, .-spiStop
 266              		.section	.text.spiSelect,"ax",%progbits
 267              		.align	1
 268              		.global	spiSelect
 269              		.syntax unified
 270              		.thumb
 271              		.thumb_func
 272              		.fpu fpv4-sp-d16
 273              		.type	spiSelect, %function
 274              	spiSelect:
 275              	.LFB281:
 276              		.loc 3 136 0
 277              		.cfi_startproc
 278              		@ args = 0, pretend = 0, frame = 0
 279              		@ frame_needed = 0, uses_anonymous_args = 0
 280              	.LVL20:
 281 0000 10B5     		push	{r4, lr}
 282              		.cfi_def_cfa_offset 8
 283              		.cfi_offset 4, -8
 284              		.cfi_offset 14, -4
 285              		.loc 3 136 0
ARM GAS  C:\cygwin64\tmp\ccbRgMgR.s 			page 6


 286 0002 0446     		mov	r4, r0
 287              	.LBB84:
 288              	.LBB85:
 289              		.loc 4 493 0
 290 0004 FFF7FEFF 		bl	chSysLock
 291              	.LVL21:
 292              	.LBE85:
 293              	.LBE84:
 294              		.loc 3 142 0
 295 0008 2046     		mov	r0, r4
 296 000a FFF7FEFF 		bl	spi_lld_select
 297              	.LVL22:
 298              		.loc 3 144 0
 299 000e BDE81040 		pop	{r4, lr}
 300              		.cfi_restore 14
 301              		.cfi_restore 4
 302              		.cfi_def_cfa_offset 0
 303              	.LVL23:
 304              	.LBB86:
 305              	.LBB87:
 306              		.loc 4 504 0
 307 0012 FFF7FEBF 		b	chSysUnlock
 308              	.LVL24:
 309              	.LBE87:
 310              	.LBE86:
 311              		.cfi_endproc
 312              	.LFE281:
 313              		.size	spiSelect, .-spiSelect
 314              		.section	.text.spiUnselect,"ax",%progbits
 315              		.align	1
 316              		.global	spiUnselect
 317              		.syntax unified
 318              		.thumb
 319              		.thumb_func
 320              		.fpu fpv4-sp-d16
 321              		.type	spiUnselect, %function
 322              	spiUnselect:
 323              	.LFB282:
 324              		.loc 3 154 0
 325              		.cfi_startproc
 326              		@ args = 0, pretend = 0, frame = 0
 327              		@ frame_needed = 0, uses_anonymous_args = 0
 328              	.LVL25:
 329 0000 10B5     		push	{r4, lr}
 330              		.cfi_def_cfa_offset 8
 331              		.cfi_offset 4, -8
 332              		.cfi_offset 14, -4
 333              		.loc 3 154 0
 334 0002 0446     		mov	r4, r0
 335              	.LBB88:
 336              	.LBB89:
 337              		.loc 4 493 0
 338 0004 FFF7FEFF 		bl	chSysLock
 339              	.LVL26:
 340              	.LBE89:
 341              	.LBE88:
 342              		.loc 3 160 0
ARM GAS  C:\cygwin64\tmp\ccbRgMgR.s 			page 7


 343 0008 2046     		mov	r0, r4
 344 000a FFF7FEFF 		bl	spi_lld_unselect
 345              	.LVL27:
 346              		.loc 3 162 0
 347 000e BDE81040 		pop	{r4, lr}
 348              		.cfi_restore 14
 349              		.cfi_restore 4
 350              		.cfi_def_cfa_offset 0
 351              	.LVL28:
 352              	.LBB90:
 353              	.LBB91:
 354              		.loc 4 504 0
 355 0012 FFF7FEBF 		b	chSysUnlock
 356              	.LVL29:
 357              	.LBE91:
 358              	.LBE90:
 359              		.cfi_endproc
 360              	.LFE282:
 361              		.size	spiUnselect, .-spiUnselect
 362              		.section	.text.spiStartIgnore,"ax",%progbits
 363              		.align	1
 364              		.global	spiStartIgnore
 365              		.syntax unified
 366              		.thumb
 367              		.thumb_func
 368              		.fpu fpv4-sp-d16
 369              		.type	spiStartIgnore, %function
 370              	spiStartIgnore:
 371              	.LFB283:
 372              		.loc 3 177 0
 373              		.cfi_startproc
 374              		@ args = 0, pretend = 0, frame = 0
 375              		@ frame_needed = 0, uses_anonymous_args = 0
 376              	.LVL30:
 377 0000 38B5     		push	{r3, r4, r5, lr}
 378              		.cfi_def_cfa_offset 16
 379              		.cfi_offset 3, -16
 380              		.cfi_offset 4, -12
 381              		.cfi_offset 5, -8
 382              		.cfi_offset 14, -4
 383              		.loc 3 177 0
 384 0002 0446     		mov	r4, r0
 385 0004 0D46     		mov	r5, r1
 386              	.LBB92:
 387              	.LBB93:
 388              		.loc 4 493 0
 389 0006 FFF7FEFF 		bl	chSysLock
 390              	.LVL31:
 391              	.LBE93:
 392              	.LBE92:
 393              		.loc 3 183 0
 394 000a 0323     		movs	r3, #3
 395 000c 2370     		strb	r3, [r4]
 396 000e 2946     		mov	r1, r5
 397 0010 2046     		mov	r0, r4
 398 0012 FFF7FEFF 		bl	spi_lld_ignore
 399              	.LVL32:
ARM GAS  C:\cygwin64\tmp\ccbRgMgR.s 			page 8


 400              		.loc 3 185 0
 401 0016 BDE83840 		pop	{r3, r4, r5, lr}
 402              		.cfi_restore 14
 403              		.cfi_restore 5
 404              		.cfi_restore 4
 405              		.cfi_restore 3
 406              		.cfi_def_cfa_offset 0
 407              	.LVL33:
 408              	.LBB94:
 409              	.LBB95:
 410              		.loc 4 504 0
 411 001a FFF7FEBF 		b	chSysUnlock
 412              	.LVL34:
 413              	.LBE95:
 414              	.LBE94:
 415              		.cfi_endproc
 416              	.LFE283:
 417              		.size	spiStartIgnore, .-spiStartIgnore
 418              		.section	.text.spiStartExchange,"ax",%progbits
 419              		.align	1
 420              		.global	spiStartExchange
 421              		.syntax unified
 422              		.thumb
 423              		.thumb_func
 424              		.fpu fpv4-sp-d16
 425              		.type	spiStartExchange, %function
 426              	spiStartExchange:
 427              	.LFB284:
 428              		.loc 3 205 0
 429              		.cfi_startproc
 430              		@ args = 0, pretend = 0, frame = 0
 431              		@ frame_needed = 0, uses_anonymous_args = 0
 432              	.LVL35:
 433 0000 F8B5     		push	{r3, r4, r5, r6, r7, lr}
 434              		.cfi_def_cfa_offset 24
 435              		.cfi_offset 3, -24
 436              		.cfi_offset 4, -20
 437              		.cfi_offset 5, -16
 438              		.cfi_offset 6, -12
 439              		.cfi_offset 7, -8
 440              		.cfi_offset 14, -4
 441              		.loc 3 205 0
 442 0002 0446     		mov	r4, r0
 443 0004 1F46     		mov	r7, r3
 444 0006 0D46     		mov	r5, r1
 445 0008 1646     		mov	r6, r2
 446              	.LBB96:
 447              	.LBB97:
 448              		.loc 4 493 0
 449 000a FFF7FEFF 		bl	chSysLock
 450              	.LVL36:
 451              	.LBE97:
 452              	.LBE96:
 453              		.loc 3 212 0
 454 000e 0323     		movs	r3, #3
 455 0010 2370     		strb	r3, [r4]
 456 0012 3246     		mov	r2, r6
ARM GAS  C:\cygwin64\tmp\ccbRgMgR.s 			page 9


 457 0014 3B46     		mov	r3, r7
 458 0016 2946     		mov	r1, r5
 459 0018 2046     		mov	r0, r4
 460 001a FFF7FEFF 		bl	spi_lld_exchange
 461              	.LVL37:
 462              		.loc 3 214 0
 463 001e BDE8F840 		pop	{r3, r4, r5, r6, r7, lr}
 464              		.cfi_restore 14
 465              		.cfi_restore 7
 466              		.cfi_restore 6
 467              		.cfi_restore 5
 468              		.cfi_restore 4
 469              		.cfi_restore 3
 470              		.cfi_def_cfa_offset 0
 471              	.LVL38:
 472              	.LBB98:
 473              	.LBB99:
 474              		.loc 4 504 0
 475 0022 FFF7FEBF 		b	chSysUnlock
 476              	.LVL39:
 477              	.LBE99:
 478              	.LBE98:
 479              		.cfi_endproc
 480              	.LFE284:
 481              		.size	spiStartExchange, .-spiStartExchange
 482              		.section	.text.spiStartSend,"ax",%progbits
 483              		.align	1
 484              		.global	spiStartSend
 485              		.syntax unified
 486              		.thumb
 487              		.thumb_func
 488              		.fpu fpv4-sp-d16
 489              		.type	spiStartSend, %function
 490              	spiStartSend:
 491              	.LFB285:
 492              		.loc 3 231 0
 493              		.cfi_startproc
 494              		@ args = 0, pretend = 0, frame = 0
 495              		@ frame_needed = 0, uses_anonymous_args = 0
 496              	.LVL40:
 497 0000 70B5     		push	{r4, r5, r6, lr}
 498              		.cfi_def_cfa_offset 16
 499              		.cfi_offset 4, -16
 500              		.cfi_offset 5, -12
 501              		.cfi_offset 6, -8
 502              		.cfi_offset 14, -4
 503              		.loc 3 231 0
 504 0002 0446     		mov	r4, r0
 505 0004 0D46     		mov	r5, r1
 506 0006 1646     		mov	r6, r2
 507              	.LBB100:
 508              	.LBB101:
 509              		.loc 4 493 0
 510 0008 FFF7FEFF 		bl	chSysLock
 511              	.LVL41:
 512              	.LBE101:
 513              	.LBE100:
ARM GAS  C:\cygwin64\tmp\ccbRgMgR.s 			page 10


 514              		.loc 3 237 0
 515 000c 0323     		movs	r3, #3
 516 000e 2370     		strb	r3, [r4]
 517 0010 3246     		mov	r2, r6
 518 0012 2946     		mov	r1, r5
 519 0014 2046     		mov	r0, r4
 520 0016 FFF7FEFF 		bl	spi_lld_send
 521              	.LVL42:
 522              		.loc 3 239 0
 523 001a BDE87040 		pop	{r4, r5, r6, lr}
 524              		.cfi_restore 14
 525              		.cfi_restore 6
 526              		.cfi_restore 5
 527              		.cfi_restore 4
 528              		.cfi_def_cfa_offset 0
 529              	.LVL43:
 530              	.LBB102:
 531              	.LBB103:
 532              		.loc 4 504 0
 533 001e FFF7FEBF 		b	chSysUnlock
 534              	.LVL44:
 535              	.LBE103:
 536              	.LBE102:
 537              		.cfi_endproc
 538              	.LFE285:
 539              		.size	spiStartSend, .-spiStartSend
 540              		.section	.text.spiStartReceive,"ax",%progbits
 541              		.align	1
 542              		.global	spiStartReceive
 543              		.syntax unified
 544              		.thumb
 545              		.thumb_func
 546              		.fpu fpv4-sp-d16
 547              		.type	spiStartReceive, %function
 548              	spiStartReceive:
 549              	.LFB286:
 550              		.loc 3 256 0
 551              		.cfi_startproc
 552              		@ args = 0, pretend = 0, frame = 0
 553              		@ frame_needed = 0, uses_anonymous_args = 0
 554              	.LVL45:
 555 0000 70B5     		push	{r4, r5, r6, lr}
 556              		.cfi_def_cfa_offset 16
 557              		.cfi_offset 4, -16
 558              		.cfi_offset 5, -12
 559              		.cfi_offset 6, -8
 560              		.cfi_offset 14, -4
 561              		.loc 3 256 0
 562 0002 0446     		mov	r4, r0
 563 0004 0D46     		mov	r5, r1
 564 0006 1646     		mov	r6, r2
 565              	.LBB104:
 566              	.LBB105:
 567              		.loc 4 493 0
 568 0008 FFF7FEFF 		bl	chSysLock
 569              	.LVL46:
 570              	.LBE105:
ARM GAS  C:\cygwin64\tmp\ccbRgMgR.s 			page 11


 571              	.LBE104:
 572              		.loc 3 262 0
 573 000c 0323     		movs	r3, #3
 574 000e 2370     		strb	r3, [r4]
 575 0010 3246     		mov	r2, r6
 576 0012 2946     		mov	r1, r5
 577 0014 2046     		mov	r0, r4
 578 0016 FFF7FEFF 		bl	spi_lld_receive
 579              	.LVL47:
 580              		.loc 3 264 0
 581 001a BDE87040 		pop	{r4, r5, r6, lr}
 582              		.cfi_restore 14
 583              		.cfi_restore 6
 584              		.cfi_restore 5
 585              		.cfi_restore 4
 586              		.cfi_def_cfa_offset 0
 587              	.LVL48:
 588              	.LBB106:
 589              	.LBB107:
 590              		.loc 4 504 0
 591 001e FFF7FEBF 		b	chSysUnlock
 592              	.LVL49:
 593              	.LBE107:
 594              	.LBE106:
 595              		.cfi_endproc
 596              	.LFE286:
 597              		.size	spiStartReceive, .-spiStartReceive
 598              		.section	.text.spiIgnore,"ax",%progbits
 599              		.align	1
 600              		.global	spiIgnore
 601              		.syntax unified
 602              		.thumb
 603              		.thumb_func
 604              		.fpu fpv4-sp-d16
 605              		.type	spiIgnore, %function
 606              	spiIgnore:
 607              	.LFB287:
 608              		.loc 3 281 0
 609              		.cfi_startproc
 610              		@ args = 0, pretend = 0, frame = 0
 611              		@ frame_needed = 0, uses_anonymous_args = 0
 612              	.LVL50:
 613 0000 38B5     		push	{r3, r4, r5, lr}
 614              		.cfi_def_cfa_offset 16
 615              		.cfi_offset 3, -16
 616              		.cfi_offset 4, -12
 617              		.cfi_offset 5, -8
 618              		.cfi_offset 14, -4
 619              		.loc 3 281 0
 620 0002 0446     		mov	r4, r0
 621 0004 0D46     		mov	r5, r1
 622              	.LBB114:
 623              	.LBB115:
 624              		.loc 4 493 0
 625 0006 FFF7FEFF 		bl	chSysLock
 626              	.LVL51:
 627              	.LBE115:
ARM GAS  C:\cygwin64\tmp\ccbRgMgR.s 			page 12


 628              	.LBE114:
 629              		.loc 3 288 0
 630 000a 0323     		movs	r3, #3
 631 000c 2370     		strb	r3, [r4]
 632 000e 2946     		mov	r1, r5
 633 0010 2046     		mov	r0, r4
 634 0012 FFF7FEFF 		bl	spi_lld_ignore
 635              	.LVL52:
 636              	.LBB116:
 637              	.LBB117:
 638              		.loc 4 688 0
 639 0016 04F10800 		add	r0, r4, #8
 640              	.LVL53:
 641 001a FFF7FEFF 		bl	chThdSuspendS
 642              	.LVL54:
 643              	.LBE117:
 644              	.LBE116:
 645              		.loc 3 291 0
 646 001e BDE83840 		pop	{r3, r4, r5, lr}
 647              		.cfi_restore 14
 648              		.cfi_restore 5
 649              		.cfi_restore 4
 650              		.cfi_restore 3
 651              		.cfi_def_cfa_offset 0
 652              	.LVL55:
 653              	.LBB118:
 654              	.LBB119:
 655              		.loc 4 504 0
 656 0022 FFF7FEBF 		b	chSysUnlock
 657              	.LVL56:
 658              	.LBE119:
 659              	.LBE118:
 660              		.cfi_endproc
 661              	.LFE287:
 662              		.size	spiIgnore, .-spiIgnore
 663              		.section	.text.spiExchange,"ax",%progbits
 664              		.align	1
 665              		.global	spiExchange
 666              		.syntax unified
 667              		.thumb
 668              		.thumb_func
 669              		.fpu fpv4-sp-d16
 670              		.type	spiExchange, %function
 671              	spiExchange:
 672              	.LFB288:
 673              		.loc 3 312 0
 674              		.cfi_startproc
 675              		@ args = 0, pretend = 0, frame = 0
 676              		@ frame_needed = 0, uses_anonymous_args = 0
 677              	.LVL57:
 678 0000 F8B5     		push	{r3, r4, r5, r6, r7, lr}
 679              		.cfi_def_cfa_offset 24
 680              		.cfi_offset 3, -24
 681              		.cfi_offset 4, -20
 682              		.cfi_offset 5, -16
 683              		.cfi_offset 6, -12
 684              		.cfi_offset 7, -8
ARM GAS  C:\cygwin64\tmp\ccbRgMgR.s 			page 13


 685              		.cfi_offset 14, -4
 686              		.loc 3 312 0
 687 0002 0446     		mov	r4, r0
 688 0004 1F46     		mov	r7, r3
 689 0006 0D46     		mov	r5, r1
 690 0008 1646     		mov	r6, r2
 691              	.LBB126:
 692              	.LBB127:
 693              		.loc 4 493 0
 694 000a FFF7FEFF 		bl	chSysLock
 695              	.LVL58:
 696              	.LBE127:
 697              	.LBE126:
 698              		.loc 3 320 0
 699 000e 0323     		movs	r3, #3
 700 0010 2370     		strb	r3, [r4]
 701 0012 3246     		mov	r2, r6
 702 0014 3B46     		mov	r3, r7
 703 0016 2946     		mov	r1, r5
 704 0018 2046     		mov	r0, r4
 705 001a FFF7FEFF 		bl	spi_lld_exchange
 706              	.LVL59:
 707              	.LBB128:
 708              	.LBB129:
 709              		.loc 4 688 0
 710 001e 04F10800 		add	r0, r4, #8
 711              	.LVL60:
 712 0022 FFF7FEFF 		bl	chThdSuspendS
 713              	.LVL61:
 714              	.LBE129:
 715              	.LBE128:
 716              		.loc 3 323 0
 717 0026 BDE8F840 		pop	{r3, r4, r5, r6, r7, lr}
 718              		.cfi_restore 14
 719              		.cfi_restore 7
 720              		.cfi_restore 6
 721              		.cfi_restore 5
 722              		.cfi_restore 4
 723              		.cfi_restore 3
 724              		.cfi_def_cfa_offset 0
 725              	.LVL62:
 726              	.LBB130:
 727              	.LBB131:
 728              		.loc 4 504 0
 729 002a FFF7FEBF 		b	chSysUnlock
 730              	.LVL63:
 731              	.LBE131:
 732              	.LBE130:
 733              		.cfi_endproc
 734              	.LFE288:
 735              		.size	spiExchange, .-spiExchange
 736              		.section	.text.spiSend,"ax",%progbits
 737              		.align	1
 738              		.global	spiSend
 739              		.syntax unified
 740              		.thumb
 741              		.thumb_func
ARM GAS  C:\cygwin64\tmp\ccbRgMgR.s 			page 14


 742              		.fpu fpv4-sp-d16
 743              		.type	spiSend, %function
 744              	spiSend:
 745              	.LFB289:
 746              		.loc 3 341 0
 747              		.cfi_startproc
 748              		@ args = 0, pretend = 0, frame = 0
 749              		@ frame_needed = 0, uses_anonymous_args = 0
 750              	.LVL64:
 751 0000 70B5     		push	{r4, r5, r6, lr}
 752              		.cfi_def_cfa_offset 16
 753              		.cfi_offset 4, -16
 754              		.cfi_offset 5, -12
 755              		.cfi_offset 6, -8
 756              		.cfi_offset 14, -4
 757              		.loc 3 341 0
 758 0002 0446     		mov	r4, r0
 759 0004 0D46     		mov	r5, r1
 760 0006 1646     		mov	r6, r2
 761              	.LBB138:
 762              	.LBB139:
 763              		.loc 4 493 0
 764 0008 FFF7FEFF 		bl	chSysLock
 765              	.LVL65:
 766              	.LBE139:
 767              	.LBE138:
 768              		.loc 3 348 0
 769 000c 0323     		movs	r3, #3
 770 000e 2370     		strb	r3, [r4]
 771 0010 3246     		mov	r2, r6
 772 0012 2946     		mov	r1, r5
 773 0014 2046     		mov	r0, r4
 774 0016 FFF7FEFF 		bl	spi_lld_send
 775              	.LVL66:
 776              	.LBB140:
 777              	.LBB141:
 778              		.loc 4 688 0
 779 001a 04F10800 		add	r0, r4, #8
 780              	.LVL67:
 781 001e FFF7FEFF 		bl	chThdSuspendS
 782              	.LVL68:
 783              	.LBE141:
 784              	.LBE140:
 785              		.loc 3 351 0
 786 0022 BDE87040 		pop	{r4, r5, r6, lr}
 787              		.cfi_restore 14
 788              		.cfi_restore 6
 789              		.cfi_restore 5
 790              		.cfi_restore 4
 791              		.cfi_def_cfa_offset 0
 792              	.LVL69:
 793              	.LBB142:
 794              	.LBB143:
 795              		.loc 4 504 0
 796 0026 FFF7FEBF 		b	chSysUnlock
 797              	.LVL70:
 798              	.LBE143:
ARM GAS  C:\cygwin64\tmp\ccbRgMgR.s 			page 15


 799              	.LBE142:
 800              		.cfi_endproc
 801              	.LFE289:
 802              		.size	spiSend, .-spiSend
 803              		.section	.text.spiReceive,"ax",%progbits
 804              		.align	1
 805              		.global	spiReceive
 806              		.syntax unified
 807              		.thumb
 808              		.thumb_func
 809              		.fpu fpv4-sp-d16
 810              		.type	spiReceive, %function
 811              	spiReceive:
 812              	.LFB290:
 813              		.loc 3 369 0
 814              		.cfi_startproc
 815              		@ args = 0, pretend = 0, frame = 0
 816              		@ frame_needed = 0, uses_anonymous_args = 0
 817              	.LVL71:
 818 0000 70B5     		push	{r4, r5, r6, lr}
 819              		.cfi_def_cfa_offset 16
 820              		.cfi_offset 4, -16
 821              		.cfi_offset 5, -12
 822              		.cfi_offset 6, -8
 823              		.cfi_offset 14, -4
 824              		.loc 3 369 0
 825 0002 0446     		mov	r4, r0
 826 0004 0D46     		mov	r5, r1
 827 0006 1646     		mov	r6, r2
 828              	.LBB150:
 829              	.LBB151:
 830              		.loc 4 493 0
 831 0008 FFF7FEFF 		bl	chSysLock
 832              	.LVL72:
 833              	.LBE151:
 834              	.LBE150:
 835              		.loc 3 376 0
 836 000c 0323     		movs	r3, #3
 837 000e 2370     		strb	r3, [r4]
 838 0010 3246     		mov	r2, r6
 839 0012 2946     		mov	r1, r5
 840 0014 2046     		mov	r0, r4
 841 0016 FFF7FEFF 		bl	spi_lld_receive
 842              	.LVL73:
 843              	.LBB152:
 844              	.LBB153:
 845              		.loc 4 688 0
 846 001a 04F10800 		add	r0, r4, #8
 847              	.LVL74:
 848 001e FFF7FEFF 		bl	chThdSuspendS
 849              	.LVL75:
 850              	.LBE153:
 851              	.LBE152:
 852              		.loc 3 379 0
 853 0022 BDE87040 		pop	{r4, r5, r6, lr}
 854              		.cfi_restore 14
 855              		.cfi_restore 6
ARM GAS  C:\cygwin64\tmp\ccbRgMgR.s 			page 16


 856              		.cfi_restore 5
 857              		.cfi_restore 4
 858              		.cfi_def_cfa_offset 0
 859              	.LVL76:
 860              	.LBB154:
 861              	.LBB155:
 862              		.loc 4 504 0
 863 0026 FFF7FEBF 		b	chSysUnlock
 864              	.LVL77:
 865              	.LBE155:
 866              	.LBE154:
 867              		.cfi_endproc
 868              	.LFE290:
 869              		.size	spiReceive, .-spiReceive
 870              		.section	.text.spiAcquireBus,"ax",%progbits
 871              		.align	1
 872              		.global	spiAcquireBus
 873              		.syntax unified
 874              		.thumb
 875              		.thumb_func
 876              		.fpu fpv4-sp-d16
 877              		.type	spiAcquireBus, %function
 878              	spiAcquireBus:
 879              	.LFB291:
 880              		.loc 3 394 0
 881              		.cfi_startproc
 882              		@ args = 0, pretend = 0, frame = 0
 883              		@ frame_needed = 0, uses_anonymous_args = 0
 884              		@ link register save eliminated.
 885              	.LVL78:
 886              	.LBB156:
 887              	.LBB157:
 888              		.loc 4 907 0
 889 0000 0C30     		adds	r0, r0, #12
 890              	.LVL79:
 891 0002 FFF7FEBF 		b	chMtxLock
 892              	.LVL80:
 893              	.LBE157:
 894              	.LBE156:
 895              		.cfi_endproc
 896              	.LFE291:
 897              		.size	spiAcquireBus, .-spiAcquireBus
 898              		.section	.text.spiReleaseBus,"ax",%progbits
 899              		.align	1
 900              		.global	spiReleaseBus
 901              		.syntax unified
 902              		.thumb
 903              		.thumb_func
 904              		.fpu fpv4-sp-d16
 905              		.type	spiReleaseBus, %function
 906              	spiReleaseBus:
 907              	.LFB292:
 908              		.loc 3 410 0
 909              		.cfi_startproc
 910              		@ args = 0, pretend = 0, frame = 0
 911              		@ frame_needed = 0, uses_anonymous_args = 0
 912              		@ link register save eliminated.
ARM GAS  C:\cygwin64\tmp\ccbRgMgR.s 			page 17


 913              	.LVL81:
 914              	.LBB158:
 915              	.LBB159:
 916              		.loc 4 931 0
 917 0000 0C30     		adds	r0, r0, #12
 918              	.LVL82:
 919 0002 FFF7FEBF 		b	chMtxUnlock
 920              	.LVL83:
 921              	.LBE159:
 922              	.LBE158:
 923              		.cfi_endproc
 924              	.LFE292:
 925              		.size	spiReleaseBus, .-spiReleaseBus
 926              		.text
 927              	.Letext0:
 928              		.file 5 "c:\\program files (x86)\\gnu tools arm embedded\\6 2017-q2-update\\lib\\gcc\\arm-none-eab
 929              		.file 6 "c:\\program files (x86)\\gnu tools arm embedded\\6 2017-q2-update\\arm-none-eabi\\include
 930              		.file 7 "c:\\program files (x86)\\gnu tools arm embedded\\6 2017-q2-update\\arm-none-eabi\\include
 931              		.file 8 "../../modules/ChibiOS/os/common/ports/ARMCMx/compilers/GCC/chtypes.h"
 932              		.file 9 "../../modules/ChibiOS/os/rt/include/chsystypes.h"
 933              		.file 10 "../../modules/ChibiOS/os/rt/include/chschd.h"
 934              		.file 11 "../../modules/ChibiOS/os/common/ext/CMSIS/include/core_cm4.h"
 935              		.file 12 "../../modules/ChibiOS/os/common/ext/CMSIS/ST/STM32F4xx/system_stm32f4xx.h"
 936              		.file 13 "../../modules/ChibiOS/os/common/ext/CMSIS/ST/STM32F4xx/stm32f427xx.h"
 937              		.file 14 "../../modules/ChibiOS/os/common/ports/ARMCMx/chcore.h"
 938              		.file 15 "../../modules/ChibiOS/os/common/ports/ARMCMx/chcore_v7m.h"
 939              		.file 16 "../../modules/ChibiOS/os/hal/ports/STM32/LLD/TIMv1/stm32_tim.h"
 940              		.file 17 "../../modules/ChibiOS/os/rt/include/chtm.h"
 941              		.file 18 "../../modules/ChibiOS/os/rt/include/chstats.h"
 942              		.file 19 "../../modules/ChibiOS/os/rt/include/chsem.h"
 943              		.file 20 "../../modules/ChibiOS/os/rt/include/chmtx.h"
 944              		.file 21 "../../modules/ChibiOS/os/rt/include/chregistry.h"
 945              		.file 22 "../../modules/ChibiOS/os/rt/include/chevents.h"
 946              		.file 23 "../../modules/ChibiOS/os/hal/ports/STM32/LLD/DMAv2/stm32_dma.h"
 947              		.file 24 "../../modules/ChibiOS/os/hal/include/hal_ioblock.h"
 948              		.file 25 "../../modules/ChibiOS/os/hal/include/hal_queues.h"
 949              		.file 26 "../../modules/ChibiOS/os/hal/ports/STM32/LLD/GPIOv2/hal_pal_lld.h"
 950              		.file 27 "../../modules/ChibiOS/os/hal/include/hal_adc.h"
 951              		.file 28 "../../modules/ChibiOS/os/hal/ports/STM32/LLD/ADCv2/hal_adc_lld.h"
 952              		.file 29 "../../modules/ChibiOS/os/hal/include/hal_ext.h"
 953              		.file 30 "../../modules/ChibiOS/os/hal/ports/STM32/LLD/EXTIv1/hal_ext_lld.h"
 954              		.file 31 "../../modules/ChibiOS/os/hal/include/hal_i2c.h"
 955              		.file 32 "../../modules/ChibiOS/os/hal/ports/STM32/LLD/I2Cv1/hal_i2c_lld.h"
 956              		.file 33 "../../modules/ChibiOS/os/hal/include/hal_pwm.h"
 957              		.file 34 "../../modules/ChibiOS/os/hal/ports/STM32/LLD/TIMv1/hal_pwm_lld.h"
 958              		.file 35 "../../modules/ChibiOS/os/hal/include/hal_serial.h"
 959              		.file 36 "../../modules/ChibiOS/os/hal/ports/STM32/LLD/USARTv1/hal_serial_lld.h"
 960              		.file 37 "../../modules/ChibiOS/os/hal/include/hal_sdc.h"
 961              		.file 38 "../../modules/ChibiOS/os/hal/ports/STM32/LLD/SDIOv1/hal_sdc_lld.h"
 962              		.file 39 "../../modules/ChibiOS/os/hal/include/hal_spi.h"
 963              		.file 40 "../../modules/ChibiOS/os/hal/ports/STM32/LLD/SPIv1/hal_spi_lld.h"
 964              		.file 41 "../../modules/ChibiOS/os/hal/include/hal_usb.h"
 965              		.file 42 "../../modules/ChibiOS/os/hal/ports/STM32/LLD/OTGv1/hal_usb_lld.h"
 966              		.file 43 "../../modules/ChibiOS/os/hal/ports/STM32/LLD/OTGv1/stm32_otg.h"
 967              		.file 44 "../../modules/ChibiOS/os/rt/include/chthreads.h"