ARM GAS  C:\cygwin64\tmp\ccqpmx21.s 			page 1


   1              		.cpu cortex-m4
   2              		.eabi_attribute 27, 1
   3              		.eabi_attribute 28, 1
   4              		.eabi_attribute 20, 1
   5              		.eabi_attribute 21, 1
   6              		.eabi_attribute 23, 3
   7              		.eabi_attribute 24, 1
   8              		.eabi_attribute 25, 1
   9              		.eabi_attribute 26, 1
  10              		.eabi_attribute 30, 4
  11              		.eabi_attribute 34, 1
  12              		.eabi_attribute 18, 4
  13              		.file	"hal_pal_lld.c"
  14              		.text
  15              	.Ltext0:
  16              		.cfi_sections	.debug_frame
  17              		.section	.text.initgpio,"ax",%progbits
  18              		.align	1
  19              		.syntax unified
  20              		.thumb
  21              		.thumb_func
  22              		.fpu fpv4-sp-d16
  23              		.type	initgpio, %function
  24              	initgpio:
  25              	.LFB277:
  26              		.file 1 "../../modules/ChibiOS/os/hal/ports/STM32/LLD/GPIOv2/hal_pal_lld.c"
  27              		.loc 1 61 0
  28              		.cfi_startproc
  29              		@ args = 0, pretend = 0, frame = 0
  30              		@ frame_needed = 0, uses_anonymous_args = 0
  31              		@ link register save eliminated.
  32              	.LVL0:
  33              		.loc 1 63 0
  34 0000 4B68     		ldr	r3, [r1, #4]
  35 0002 4360     		str	r3, [r0, #4]
  36              		.loc 1 64 0
  37 0004 8B68     		ldr	r3, [r1, #8]
  38 0006 8360     		str	r3, [r0, #8]
  39              		.loc 1 65 0
  40 0008 CB68     		ldr	r3, [r1, #12]
  41 000a C360     		str	r3, [r0, #12]
  42              		.loc 1 66 0
  43 000c 0B69     		ldr	r3, [r1, #16]
  44 000e 4361     		str	r3, [r0, #20]
  45              		.loc 1 67 0
  46 0010 4B69     		ldr	r3, [r1, #20]
  47 0012 0362     		str	r3, [r0, #32]
  48              		.loc 1 68 0
  49 0014 8B69     		ldr	r3, [r1, #24]
  50 0016 4362     		str	r3, [r0, #36]
  51              		.loc 1 69 0
  52 0018 0B68     		ldr	r3, [r1]
  53 001a 0360     		str	r3, [r0]
  54 001c 7047     		bx	lr
  55              		.cfi_endproc
  56              	.LFE277:
  57              		.size	initgpio, .-initgpio
ARM GAS  C:\cygwin64\tmp\ccqpmx21.s 			page 2


  58              		.section	.text._pal_lld_init,"ax",%progbits
  59              		.align	1
  60              		.global	_pal_lld_init
  61              		.syntax unified
  62              		.thumb
  63              		.thumb_func
  64              		.fpu fpv4-sp-d16
  65              		.type	_pal_lld_init, %function
  66              	_pal_lld_init:
  67              	.LFB278:
  68              		.loc 1 88 0
  69              		.cfi_startproc
  70              		@ args = 0, pretend = 0, frame = 0
  71              		@ frame_needed = 0, uses_anonymous_args = 0
  72              	.LVL1:
  73              		.loc 1 104 0
  74 0000 1C4B     		ldr	r3, .L3
  75              		.loc 1 88 0
  76 0002 0246     		mov	r2, r0
  77              		.loc 1 104 0
  78 0004 186B     		ldr	r0, [r3, #48]
  79              	.LVL2:
  80              		.loc 1 88 0
  81 0006 10B5     		push	{r4, lr}
  82              		.cfi_def_cfa_offset 8
  83              		.cfi_offset 4, -8
  84              		.cfi_offset 14, -4
  85              		.loc 1 104 0
  86 0008 40F2FF14 		movw	r4, #511
  87 000c 2043     		orrs	r0, r0, r4
  88 000e 1863     		str	r0, [r3, #48]
  89              		.loc 1 105 0
  90 0010 196D     		ldr	r1, [r3, #80]
  91              		.loc 1 112 0
  92 0012 1948     		ldr	r0, .L3+4
  93              		.loc 1 105 0
  94 0014 2143     		orrs	r1, r1, r4
  95 0016 1965     		str	r1, [r3, #80]
  96              		.loc 1 112 0
  97 0018 1146     		mov	r1, r2
  98 001a FFF7FEFF 		bl	initgpio
  99              	.LVL3:
 100              		.loc 1 115 0
 101 001e 1748     		ldr	r0, .L3+8
 102 0020 02F11C01 		add	r1, r2, #28
 103 0024 FFF7FEFF 		bl	initgpio
 104              	.LVL4:
 105              		.loc 1 118 0
 106 0028 1548     		ldr	r0, .L3+12
 107 002a 02F13801 		add	r1, r2, #56
 108 002e FFF7FEFF 		bl	initgpio
 109              	.LVL5:
 110              		.loc 1 121 0
 111 0032 1448     		ldr	r0, .L3+16
 112 0034 02F15401 		add	r1, r2, #84
 113 0038 FFF7FEFF 		bl	initgpio
 114              	.LVL6:
ARM GAS  C:\cygwin64\tmp\ccqpmx21.s 			page 3


 115              		.loc 1 124 0
 116 003c 1248     		ldr	r0, .L3+20
 117 003e 02F17001 		add	r1, r2, #112
 118 0042 FFF7FEFF 		bl	initgpio
 119              	.LVL7:
 120              		.loc 1 127 0
 121 0046 1148     		ldr	r0, .L3+24
 122 0048 02F18C01 		add	r1, r2, #140
 123 004c FFF7FEFF 		bl	initgpio
 124              	.LVL8:
 125              		.loc 1 130 0
 126 0050 0F48     		ldr	r0, .L3+28
 127 0052 02F1A801 		add	r1, r2, #168
 128 0056 FFF7FEFF 		bl	initgpio
 129              	.LVL9:
 130              		.loc 1 133 0
 131 005a 0E48     		ldr	r0, .L3+32
 132 005c 02F1C401 		add	r1, r2, #196
 133 0060 FFF7FEFF 		bl	initgpio
 134              	.LVL10:
 135              		.loc 1 136 0
 136 0064 0C48     		ldr	r0, .L3+36
 137 0066 02F1E001 		add	r1, r2, #224
 138              		.loc 1 144 0
 139 006a BDE81040 		pop	{r4, lr}
 140              		.cfi_restore 14
 141              		.cfi_restore 4
 142              		.cfi_def_cfa_offset 0
 143              		.loc 1 136 0
 144 006e FFF7FEBF 		b	initgpio
 145              	.LVL11:
 146              	.L4:
 147 0072 00BF     		.align	2
 148              	.L3:
 149 0074 00380240 		.word	1073887232
 150 0078 00000240 		.word	1073872896
 151 007c 00040240 		.word	1073873920
 152 0080 00080240 		.word	1073874944
 153 0084 000C0240 		.word	1073875968
 154 0088 00100240 		.word	1073876992
 155 008c 00140240 		.word	1073878016
 156 0090 00180240 		.word	1073879040
 157 0094 001C0240 		.word	1073880064
 158 0098 00200240 		.word	1073881088
 159              		.cfi_endproc
 160              	.LFE278:
 161              		.size	_pal_lld_init, .-_pal_lld_init
 162              		.section	.text._pal_lld_setgroupmode,"ax",%progbits
 163              		.align	1
 164              		.global	_pal_lld_setgroupmode
 165              		.syntax unified
 166              		.thumb
 167              		.thumb_func
 168              		.fpu fpv4-sp-d16
 169              		.type	_pal_lld_setgroupmode, %function
 170              	_pal_lld_setgroupmode:
 171              	.LFB279:
ARM GAS  C:\cygwin64\tmp\ccqpmx21.s 			page 4


 172              		.loc 1 161 0
 173              		.cfi_startproc
 174              		@ args = 0, pretend = 0, frame = 8
 175              		@ frame_needed = 0, uses_anonymous_args = 0
 176              	.LVL12:
 177 0000 2DE9F74F 		push	{r0, r1, r2, r4, r5, r6, r7, r8, r9, r10, fp, lr}
 178              		.cfi_def_cfa_offset 48
 179              		.cfi_offset 4, -36
 180              		.cfi_offset 5, -32
 181              		.cfi_offset 6, -28
 182              		.cfi_offset 7, -24
 183              		.cfi_offset 8, -20
 184              		.cfi_offset 9, -16
 185              		.cfi_offset 10, -12
 186              		.cfi_offset 11, -8
 187              		.cfi_offset 14, -4
 188              		.loc 1 167 0
 189 0004 C2F3C313 		ubfx	r3, r2, #7, #4
 190              		.loc 1 163 0
 191 0008 02F00308 		and	r8, r2, #3
 192              	.LVL13:
 193              		.loc 1 164 0
 194 000c C2F3800C 		ubfx	ip, r2, #2, #1
 195              	.LVL14:
 196              		.loc 1 165 0
 197 0010 C2F3C10E 		ubfx	lr, r2, #3, #2
 198              	.LVL15:
 199              		.loc 1 166 0
 200 0014 C2F34117 		ubfx	r7, r2, #5, #2
 201              	.LVL16:
 202              		.loc 1 167 0
 203 0018 0193     		str	r3, [sp, #4]
 204              	.LVL17:
 205              		.loc 1 163 0
 206 001a 4546     		mov	r5, r8
 207              		.loc 1 168 0
 208 001c 0024     		movs	r4, #0
 209              	.LBB2:
 210              		.loc 1 174 0
 211 001e 4FF00109 		mov	r9, #1
 212              		.loc 1 175 0
 213 0022 4FF0030A 		mov	r10, #3
 214              	.LVL18:
 215              	.L12:
 216              	.LBE2:
 217              		.loc 1 170 0
 218 0026 CB07     		lsls	r3, r1, #31
 219 0028 3CD5     		bpl	.L6
 220              	.LBB3:
 221              		.loc 1 173 0
 222 002a 019A     		ldr	r2, [sp, #4]
 223 002c 04F00703 		and	r3, r4, #7
 224 0030 9B00     		lsls	r3, r3, #2
 225 0032 02FA03F6 		lsl	r6, r2, r3
 226              	.LVL19:
 227              		.loc 1 176 0
 228 0036 0F22     		movs	r2, #15
ARM GAS  C:\cygwin64\tmp\ccqpmx21.s 			page 5


 229 0038 02FA03F3 		lsl	r3, r2, r3
 230              	.LVL20:
 231              		.loc 1 177 0
 232 003c 4268     		ldr	r2, [r0, #4]
 233              		.loc 1 174 0
 234 003e 09FA04FB 		lsl	fp, r9, r4
 235              		.loc 1 177 0
 236 0042 22EA0B02 		bic	r2, r2, fp
 237 0046 42EA0C02 		orr	r2, r2, ip
 238 004a 4260     		str	r2, [r0, #4]
 239              		.loc 1 175 0
 240 004c 6200     		lsls	r2, r4, #1
 241              		.loc 1 178 0
 242 004e D0F808B0 		ldr	fp, [r0, #8]
 243              		.loc 1 175 0
 244 0052 0AFA02F2 		lsl	r2, r10, r2
 245              		.loc 1 178 0
 246 0056 D243     		mvns	r2, r2
 247 0058 0BEA020B 		and	fp, fp, r2
 248 005c 4BEA0E0B 		orr	fp, fp, lr
 249 0060 C0F808B0 		str	fp, [r0, #8]
 250              		.loc 1 179 0
 251 0064 D0F80CB0 		ldr	fp, [r0, #12]
 252 0068 02EA0B0B 		and	fp, r2, fp
 253 006c 4BEA070B 		orr	fp, fp, r7
 254              		.loc 1 180 0
 255 0070 B8F1020F 		cmp	r8, #2
 256              		.loc 1 179 0
 257 0074 C0F80CB0 		str	fp, [r0, #12]
 258 0078 6FEA0303 		mvn	r3, r3
 259              	.LVL21:
 260              		.loc 1 180 0
 261 007c 1CD1     		bne	.L7
 262              		.loc 1 183 0
 263 007e 072C     		cmp	r4, #7
 264              		.loc 1 184 0
 265 0080 95BF     		itete	ls
 266 0082 D0F820B0 		ldrls	fp, [r0, #32]
 267              		.loc 1 186 0
 268 0086 D0F824B0 		ldrhi	fp, [r0, #36]
 269              		.loc 1 184 0
 270 008a 03EA0B03 		andls	r3, r3, fp
 271              	.LVL22:
 272              		.loc 1 186 0
 273 008e 03EA0B03 		andhi	r3, r3, fp
 274              		.loc 1 184 0
 275 0092 95BF     		itete	ls
 276 0094 3343     		orrls	r3, r3, r6
 277              		.loc 1 186 0
 278 0096 3343     		orrhi	r3, r3, r6
 279              		.loc 1 184 0
 280 0098 0362     		strls	r3, [r0, #32]
 281              		.loc 1 186 0
 282 009a 4362     		strhi	r3, [r0, #36]
 283              		.loc 1 187 0
 284 009c 0368     		ldr	r3, [r0]
 285 009e 1A40     		ands	r2, r2, r3
ARM GAS  C:\cygwin64\tmp\ccqpmx21.s 			page 6


 286 00a0 2A43     		orrs	r2, r2, r5
 287 00a2 0260     		str	r2, [r0]
 288              	.LVL23:
 289              	.L6:
 290              	.LBE3:
 291              		.loc 1 200 0
 292 00a4 4908     		lsrs	r1, r1, #1
 293              	.LVL24:
 294 00a6 19D0     		beq	.L5
 295              		.loc 1 202 0
 296 00a8 4FEA4C0C 		lsl	ip, ip, #1
 297              	.LVL25:
 298              		.loc 1 203 0
 299 00ac 4FEA8E0E 		lsl	lr, lr, #2
 300              	.LVL26:
 301              		.loc 1 204 0
 302 00b0 BF00     		lsls	r7, r7, #2
 303              	.LVL27:
 304              		.loc 1 205 0
 305 00b2 AD00     		lsls	r5, r5, #2
 306              	.LVL28:
 307              		.loc 1 206 0
 308 00b4 0134     		adds	r4, r4, #1
 309              	.LVL29:
 310              		.loc 1 170 0
 311 00b6 B6E7     		b	.L12
 312              	.LVL30:
 313              	.L7:
 314              	.LBB4:
 315              		.loc 1 192 0
 316 00b8 D0F800B0 		ldr	fp, [r0]
 317 00bc 02EA0B02 		and	r2, r2, fp
 318 00c0 2A43     		orrs	r2, r2, r5
 319              		.loc 1 193 0
 320 00c2 072C     		cmp	r4, #7
 321              		.loc 1 192 0
 322 00c4 0260     		str	r2, [r0]
 323              		.loc 1 194 0
 324 00c6 95BF     		itete	ls
 325 00c8 026A     		ldrls	r2, [r0, #32]
 326              		.loc 1 196 0
 327 00ca 426A     		ldrhi	r2, [r0, #36]
 328              		.loc 1 194 0
 329 00cc 1340     		andls	r3, r3, r2
 330              	.LVL31:
 331              		.loc 1 196 0
 332 00ce 1340     		andhi	r3, r3, r2
 333              		.loc 1 194 0
 334 00d0 95BF     		itete	ls
 335 00d2 1E43     		orrls	r6, r6, r3
 336              	.LVL32:
 337              		.loc 1 196 0
 338 00d4 1E43     		orrhi	r6, r6, r3
 339              		.loc 1 194 0
 340 00d6 0662     		strls	r6, [r0, #32]
 341              		.loc 1 196 0
 342 00d8 4662     		strhi	r6, [r0, #36]
ARM GAS  C:\cygwin64\tmp\ccqpmx21.s 			page 7


 343 00da E3E7     		b	.L6
 344              	.LVL33:
 345              	.L5:
 346              	.LBE4:
 347              		.loc 1 208 0
 348 00dc 03B0     		add	sp, sp, #12
 349              		.cfi_def_cfa_offset 36
 350              		@ sp needed
 351 00de BDE8F08F 		pop	{r4, r5, r6, r7, r8, r9, r10, fp, pc}
 352              		.cfi_endproc
 353              	.LFE279:
 354              		.size	_pal_lld_setgroupmode, .-_pal_lld_setgroupmode
 355              		.text
 356              	.Letext0:
 357              		.file 2 "c:\\program files (x86)\\gnu tools arm embedded\\6 2017-q2-update\\lib\\gcc\\arm-none-eab
 358              		.file 3 "c:\\program files (x86)\\gnu tools arm embedded\\6 2017-q2-update\\arm-none-eabi\\include
 359              		.file 4 "c:\\program files (x86)\\gnu tools arm embedded\\6 2017-q2-update\\arm-none-eabi\\include
 360              		.file 5 "../../modules/ChibiOS/os/common/ports/ARMCMx/compilers/GCC/chtypes.h"
 361              		.file 6 "../../modules/ChibiOS/os/rt/include/chsystypes.h"
 362              		.file 7 "../../modules/ChibiOS/os/rt/include/chschd.h"
 363              		.file 8 "../../modules/ChibiOS/os/common/ext/CMSIS/include/core_cm4.h"
 364              		.file 9 "../../modules/ChibiOS/os/common/ext/CMSIS/ST/STM32F4xx/system_stm32f4xx.h"
 365              		.file 10 "../../modules/ChibiOS/os/common/ext/CMSIS/ST/STM32F4xx/stm32f427xx.h"
 366              		.file 11 "../../modules/ChibiOS/os/common/ports/ARMCMx/chcore.h"
 367              		.file 12 "../../modules/ChibiOS/os/common/ports/ARMCMx/chcore_v7m.h"
 368              		.file 13 "../../modules/ChibiOS/os/hal/ports/STM32/LLD/TIMv1/stm32_tim.h"
 369              		.file 14 "../../modules/ChibiOS/os/rt/include/chtm.h"
 370              		.file 15 "../../modules/ChibiOS/os/rt/include/chstats.h"
 371              		.file 16 "../../modules/ChibiOS/os/rt/include/chsem.h"
 372              		.file 17 "../../modules/ChibiOS/os/rt/include/chmtx.h"
 373              		.file 18 "../../modules/ChibiOS/os/rt/include/chsys.h"
 374              		.file 19 "../../modules/ChibiOS/os/rt/include/chregistry.h"
 375              		.file 20 "../../modules/ChibiOS/os/rt/include/chevents.h"
 376              		.file 21 "../../modules/ChibiOS/os/hal/ports/STM32/LLD/DMAv2/stm32_dma.h"
 377              		.file 22 "../../modules/ChibiOS/os/hal/include/hal_ioblock.h"
 378              		.file 23 "../../modules/ChibiOS/os/hal/include/hal_queues.h"
 379              		.file 24 "../../modules/ChibiOS/os/hal/ports/STM32/LLD/GPIOv2/hal_pal_lld.h"
 380              		.file 25 "../../modules/ChibiOS/os/hal/include/hal_adc.h"
 381              		.file 26 "../../modules/ChibiOS/os/hal/ports/STM32/LLD/ADCv2/hal_adc_lld.h"
 382              		.file 27 "../../modules/ChibiOS/os/hal/include/hal_ext.h"
 383              		.file 28 "../../modules/ChibiOS/os/hal/ports/STM32/LLD/EXTIv1/hal_ext_lld.h"
 384              		.file 29 "../../modules/ChibiOS/os/hal/include/hal_i2c.h"
 385              		.file 30 "../../modules/ChibiOS/os/hal/ports/STM32/LLD/I2Cv1/hal_i2c_lld.h"
 386              		.file 31 "../../modules/ChibiOS/os/hal/include/hal_pwm.h"
 387              		.file 32 "../../modules/ChibiOS/os/hal/ports/STM32/LLD/TIMv1/hal_pwm_lld.h"
 388              		.file 33 "../../modules/ChibiOS/os/hal/include/hal_serial.h"
 389              		.file 34 "../../modules/ChibiOS/os/hal/ports/STM32/LLD/USARTv1/hal_serial_lld.h"
 390              		.file 35 "../../modules/ChibiOS/os/hal/include/hal_sdc.h"
 391              		.file 36 "../../modules/ChibiOS/os/hal/ports/STM32/LLD/SDIOv1/hal_sdc_lld.h"
 392              		.file 37 "../../modules/ChibiOS/os/hal/include/hal_spi.h"
 393              		.file 38 "../../modules/ChibiOS/os/hal/ports/STM32/LLD/SPIv1/hal_spi_lld.h"
 394              		.file 39 "../../modules/ChibiOS/os/hal/include/hal_usb.h"
 395              		.file 40 "../../modules/ChibiOS/os/hal/ports/STM32/LLD/OTGv1/hal_usb_lld.h"
 396              		.file 41 "../../modules/ChibiOS/os/hal/ports/STM32/LLD/OTGv1/stm32_otg.h"