ARM GAS  C:\cygwin64\tmp\ccQVoERk.s 			page 1


   1              		.cpu cortex-m4
   2              		.eabi_attribute 27, 1
   3              		.eabi_attribute 28, 1
   4              		.eabi_attribute 20, 1
   5              		.eabi_attribute 21, 1
   6              		.eabi_attribute 23, 3
   7              		.eabi_attribute 24, 1
   8              		.eabi_attribute 25, 1
   9              		.eabi_attribute 26, 1
  10              		.eabi_attribute 30, 4
  11              		.eabi_attribute 34, 1
  12              		.eabi_attribute 18, 4
  13              		.file	"hrt.c"
  14              		.text
  15              	.Ltext0:
  16              		.cfi_sections	.debug_frame
  17              		.section	.text.hrt_micros,"ax",%progbits
  18              		.align	1
  19              		.global	hrt_micros
  20              		.syntax unified
  21              		.thumb
  22              		.thumb_func
  23              		.fpu fpv4-sp-d16
  24              		.type	hrt_micros, %function
  25              	hrt_micros:
  26              	.LFB277:
  27              		.file 1 "../../libraries/AP_HAL_ChibiOS/hwdef/common/hrt.c"
  28              		.loc 1 26 0
  29              		.cfi_startproc
  30              		@ args = 0, pretend = 0, frame = 0
  31              		@ frame_needed = 0, uses_anonymous_args = 0
  32 0000 2DE9F843 		push	{r3, r4, r5, r6, r7, r8, r9, lr}
  33              		.cfi_def_cfa_offset 32
  34              		.cfi_offset 3, -32
  35              		.cfi_offset 4, -28
  36              		.cfi_offset 5, -24
  37              		.cfi_offset 6, -20
  38              		.cfi_offset 7, -16
  39              		.cfi_offset 8, -12
  40              		.cfi_offset 9, -8
  41              		.cfi_offset 14, -4
  42              		.loc 1 33 0
  43 0004 FFF7FEFF 		bl	chSysGetStatusAndLockX
  44              	.LVL0:
  45              		.loc 1 35 0
  46 0008 0F4A     		ldr	r2, .L3
  47              	.LBB14:
  48              	.LBB15:
  49              	.LBB16:
  50              	.LBB17:
  51              		.file 2 "../../modules/ChibiOS/os/hal/ports/STM32/LLD/TIMv1/hal_st_lld.h"
  52              		.loc 2 141 0
  53 000a 104B     		ldr	r3, .L3+4
  54              	.LBE17:
  55              	.LBE16:
  56              	.LBE15:
  57              	.LBE14:
ARM GAS  C:\cygwin64\tmp\ccQVoERk.s 			page 2


  58              		.loc 1 35 0
  59 000c D2E90067 		ldrd	r6, [r2]
  60              	.LBB21:
  61              	.LBB20:
  62              	.LBB19:
  63              	.LBB18:
  64              		.loc 2 141 0
  65 0010 5B6A     		ldr	r3, [r3, #36]
  66              	.LBE18:
  67              	.LBE19:
  68              	.LBE20:
  69              	.LBE21:
  70              		.loc 1 35 0
  71 0012 F418     		adds	r4, r6, r3
  72              		.loc 1 39 0
  73 0014 0E4B     		ldr	r3, .L3+8
  74 0016 D3E90089 		ldrd	r8, [r3]
  75              		.loc 1 35 0
  76 001a 47F10005 		adc	r5, r7, #0
  77              	.LVL1:
  78              		.loc 1 39 0
  79 001e 4D45     		cmp	r5, r9
  80 0020 08BF     		it	eq
  81 0022 4445     		cmpeq	r4, r8
  82 0024 07D2     		bcs	.L2
  83              	.LVL2:
  84              	.LBB22:
  85              		.loc 1 41 0
  86 0026 0036     		adds	r6, r6, #0
  87 0028 47F10107 		adc	r7, r7, #1
  88 002c C2E90067 		strd	r6, [r2]
  89              		.loc 1 42 0
  90 0030 0034     		adds	r4, r4, #0
  91              	.LVL3:
  92 0032 45F10105 		adc	r5, r5, #1
  93              	.LVL4:
  94              	.L2:
  95              	.LBE22:
  96              		.loc 1 44 0
  97 0036 C3E90045 		strd	r4, [r3]
  98              		.loc 1 45 0
  99 003a FFF7FEFF 		bl	chSysRestoreStatusX
 100              	.LVL5:
 101              		.loc 1 47 0
 102 003e 2046     		mov	r0, r4
 103 0040 2946     		mov	r1, r5
 104 0042 BDE8F883 		pop	{r3, r4, r5, r6, r7, r8, r9, pc}
 105              	.LVL6:
 106              	.L4:
 107 0046 00BF     		.align	2
 108              	.L3:
 109 0048 00000000 		.word	.LANCHOR0
 110 004c 000C0040 		.word	1073744896
 111 0050 00000000 		.word	.LANCHOR1
 112              		.cfi_endproc
 113              	.LFE277:
 114              		.size	hrt_micros, .-hrt_micros
ARM GAS  C:\cygwin64\tmp\ccQVoERk.s 			page 3


 115              		.section	.bss.last_micros.9605,"aw",%nobits
 116              		.align	3
 117              		.set	.LANCHOR1,. + 0
 118              		.type	last_micros.9605, %object
 119              		.size	last_micros.9605, 8
 120              	last_micros.9605:
 121 0000 00000000 		.space	8
 121      00000000 
 122              		.section	.bss.timer_base,"aw",%nobits
 123              		.align	3
 124              		.set	.LANCHOR0,. + 0
 125              		.type	timer_base, %object
 126              		.size	timer_base, 8
 127              	timer_base:
 128 0000 00000000 		.space	8
 128      00000000 
 129              		.text
 130              	.Letext0:
 131              		.file 3 "c:\\program files (x86)\\gnu tools arm embedded\\6 2017-q2-update\\lib\\gcc\\arm-none-eab
 132              		.file 4 "c:\\program files (x86)\\gnu tools arm embedded\\6 2017-q2-update\\arm-none-eabi\\include
 133              		.file 5 "c:\\program files (x86)\\gnu tools arm embedded\\6 2017-q2-update\\arm-none-eabi\\include
 134              		.file 6 "../../modules/ChibiOS/os/common/ports/ARMCMx/compilers/GCC/chtypes.h"
 135              		.file 7 "../../modules/ChibiOS/os/rt/include/chsystypes.h"
 136              		.file 8 "../../modules/ChibiOS/os/rt/include/chschd.h"
 137              		.file 9 "../../modules/ChibiOS/os/common/ext/CMSIS/include/core_cm4.h"
 138              		.file 10 "../../modules/ChibiOS/os/common/ext/CMSIS/ST/STM32F4xx/system_stm32f4xx.h"
 139              		.file 11 "../../modules/ChibiOS/os/common/ext/CMSIS/ST/STM32F4xx/stm32f427xx.h"
 140              		.file 12 "../../modules/ChibiOS/os/common/ports/ARMCMx/chcore.h"
 141              		.file 13 "../../modules/ChibiOS/os/common/ports/ARMCMx/chcore_v7m.h"
 142              		.file 14 "../../modules/ChibiOS/os/hal/ports/STM32/LLD/TIMv1/stm32_tim.h"
 143              		.file 15 "../../modules/ChibiOS/os/rt/include/chtm.h"
 144              		.file 16 "../../modules/ChibiOS/os/rt/include/chstats.h"
 145              		.file 17 "../../modules/ChibiOS/os/rt/include/chsem.h"
 146              		.file 18 "../../modules/ChibiOS/os/rt/include/chmtx.h"
 147              		.file 19 "../../modules/ChibiOS/os/rt/include/chsys.h"
 148              		.file 20 "../../modules/ChibiOS/os/rt/include/chregistry.h"
 149              		.file 21 "../../modules/ChibiOS/os/rt/include/chevents.h"
 150              		.file 22 "../../modules/ChibiOS/os/hal/ports/STM32/LLD/DMAv2/stm32_dma.h"
 151              		.file 23 "../../modules/ChibiOS/os/hal/include/hal_ioblock.h"
 152              		.file 24 "../../modules/ChibiOS/os/hal/include/hal_queues.h"
 153              		.file 25 "../../modules/ChibiOS/os/hal/ports/STM32/LLD/GPIOv2/hal_pal_lld.h"
 154              		.file 26 "../../modules/ChibiOS/os/hal/include/hal_adc.h"
 155              		.file 27 "../../modules/ChibiOS/os/hal/ports/STM32/LLD/ADCv2/hal_adc_lld.h"
 156              		.file 28 "../../modules/ChibiOS/os/hal/include/hal_ext.h"
 157              		.file 29 "../../modules/ChibiOS/os/hal/ports/STM32/LLD/EXTIv1/hal_ext_lld.h"
 158              		.file 30 "../../modules/ChibiOS/os/hal/include/hal_i2c.h"
 159              		.file 31 "../../modules/ChibiOS/os/hal/ports/STM32/LLD/I2Cv1/hal_i2c_lld.h"
 160              		.file 32 "../../modules/ChibiOS/os/hal/include/hal_pwm.h"
 161              		.file 33 "../../modules/ChibiOS/os/hal/ports/STM32/LLD/TIMv1/hal_pwm_lld.h"
 162              		.file 34 "../../modules/ChibiOS/os/hal/include/hal_serial.h"
 163              		.file 35 "../../modules/ChibiOS/os/hal/ports/STM32/LLD/USARTv1/hal_serial_lld.h"
 164              		.file 36 "../../modules/ChibiOS/os/hal/include/hal_sdc.h"
 165              		.file 37 "../../modules/ChibiOS/os/hal/ports/STM32/LLD/SDIOv1/hal_sdc_lld.h"
 166              		.file 38 "../../modules/ChibiOS/os/hal/include/hal_spi.h"
 167              		.file 39 "../../modules/ChibiOS/os/hal/ports/STM32/LLD/SPIv1/hal_spi_lld.h"
 168              		.file 40 "../../modules/ChibiOS/os/hal/include/hal_usb.h"
 169              		.file 41 "../../modules/ChibiOS/os/hal/ports/STM32/LLD/OTGv1/hal_usb_lld.h"
ARM GAS  C:\cygwin64\tmp\ccQVoERk.s 			page 4


 170              		.file 42 "../../modules/ChibiOS/os/hal/ports/STM32/LLD/OTGv1/stm32_otg.h"
 171              		.file 43 "../../modules/ChibiOS/os/rt/include/chvt.h"
 172              		.file 44 "../../modules/ChibiOS/os/common/ports/ARMCMx/chcore_timer.h"