ARM GAS  C:\cygwin64\tmp\ccYkGyT7.s 			page 1


   1              		.cpu cortex-m4
   2              		.eabi_attribute 27, 1
   3              		.eabi_attribute 28, 1
   4              		.eabi_attribute 20, 1
   5              		.eabi_attribute 21, 1
   6              		.eabi_attribute 23, 3
   7              		.eabi_attribute 24, 1
   8              		.eabi_attribute 25, 1
   9              		.eabi_attribute 26, 1
  10              		.eabi_attribute 30, 4
  11              		.eabi_attribute 34, 1
  12              		.eabi_attribute 18, 4
  13              		.file	"malloc.c"
  14              		.text
  15              	.Ltext0:
  16              		.cfi_sections	.debug_frame
  17              		.section	.text.malloc_init,"ax",%progbits
  18              		.align	1
  19              		.global	malloc_init
  20              		.syntax unified
  21              		.thumb
  22              		.thumb_func
  23              		.fpu fpv4-sp-d16
  24              		.type	malloc_init, %function
  25              	malloc_init:
  26              	.LFB277:
  27              		.file 1 "../../libraries/AP_HAL_ChibiOS/hwdef/common/malloc.c"
  28              		.loc 1 63 0
  29              		.cfi_startproc
  30              		@ args = 0, pretend = 0, frame = 0
  31              		@ frame_needed = 0, uses_anonymous_args = 0
  32 0000 08B5     		push	{r3, lr}
  33              		.cfi_def_cfa_offset 8
  34              		.cfi_offset 3, -8
  35              		.cfi_offset 14, -4
  36              		.loc 1 65 0
  37 0002 4FF48032 		mov	r2, #65536
  38 0006 4FF08051 		mov	r1, #268435456
  39 000a 0848     		ldr	r0, .L2
  40 000c FFF7FEFF 		bl	chHeapObjectInit
  41              	.LVL0:
  42              		.loc 1 78 0
  43 0010 0822     		movs	r2, #8
  44 0012 4FF48051 		mov	r1, #4096
  45 0016 0020     		movs	r0, #0
  46 0018 FFF7FEFF 		bl	chHeapAllocAligned
  47              	.LVL1:
  48              		.loc 1 80 0
  49 001c 4FF48052 		mov	r2, #4096
  50 0020 0146     		mov	r1, r0
  51              		.loc 1 81 0
  52 0022 BDE80840 		pop	{r3, lr}
  53              		.cfi_restore 14
  54              		.cfi_restore 3
  55              		.cfi_def_cfa_offset 0
  56              		.loc 1 80 0
  57 0026 0248     		ldr	r0, .L2+4
ARM GAS  C:\cygwin64\tmp\ccYkGyT7.s 			page 2


  58              	.LVL2:
  59 0028 FFF7FEBF 		b	chHeapObjectInit
  60              	.LVL3:
  61              	.L3:
  62              		.align	2
  63              	.L2:
  64 002c 00000000 		.word	.LANCHOR0
  65 0030 00000000 		.word	.LANCHOR1
  66              		.cfi_endproc
  67              	.LFE277:
  68              		.size	malloc_init, .-malloc_init
  69              		.section	.text.malloc_ccm,"ax",%progbits
  70              		.align	1
  71              		.global	malloc_ccm
  72              		.syntax unified
  73              		.thumb
  74              		.thumb_func
  75              		.fpu fpv4-sp-d16
  76              		.type	malloc_ccm, %function
  77              	malloc_ccm:
  78              	.LFB278:
  79              		.loc 1 84 0
  80              		.cfi_startproc
  81              		@ args = 0, pretend = 0, frame = 0
  82              		@ frame_needed = 0, uses_anonymous_args = 0
  83              	.LVL4:
  84 0000 38B5     		push	{r3, r4, r5, lr}
  85              		.cfi_def_cfa_offset 16
  86              		.cfi_offset 3, -16
  87              		.cfi_offset 4, -12
  88              		.cfi_offset 5, -8
  89              		.cfi_offset 14, -4
  90              		.loc 1 87 0
  91 0002 0146     		mov	r1, r0
  92              		.loc 1 84 0
  93 0004 0446     		mov	r4, r0
  94              		.loc 1 87 0
  95 0006 0822     		movs	r2, #8
  96 0008 0548     		ldr	r0, .L9
  97              	.LVL5:
  98 000a FFF7FEFF 		bl	chHeapAllocAligned
  99              	.LVL6:
 100              		.loc 1 88 0
 101 000e 0546     		mov	r5, r0
 102 0010 18B1     		cbz	r0, .L4
 103              		.loc 1 89 0
 104 0012 2246     		mov	r2, r4
 105 0014 0021     		movs	r1, #0
 106 0016 FFF7FEFF 		bl	memset
 107              	.LVL7:
 108              	.L4:
 109              		.loc 1 95 0
 110 001a 2846     		mov	r0, r5
 111 001c 38BD     		pop	{r3, r4, r5, pc}
 112              	.LVL8:
 113              	.L10:
 114 001e 00BF     		.align	2
ARM GAS  C:\cygwin64\tmp\ccYkGyT7.s 			page 3


 115              	.L9:
 116 0020 00000000 		.word	.LANCHOR0
 117              		.cfi_endproc
 118              	.LFE278:
 119              		.size	malloc_ccm, .-malloc_ccm
 120              		.section	.text.malloc,"ax",%progbits
 121              		.align	1
 122              		.global	malloc
 123              		.syntax unified
 124              		.thumb
 125              		.thumb_func
 126              		.fpu fpv4-sp-d16
 127              		.type	malloc, %function
 128              	malloc:
 129              	.LFB280:
 130              		.loc 1 112 0
 131              		.cfi_startproc
 132              		@ args = 0, pretend = 0, frame = 0
 133              		@ frame_needed = 0, uses_anonymous_args = 0
 134              	.LVL9:
 135 0000 38B5     		push	{r3, r4, r5, lr}
 136              		.cfi_def_cfa_offset 16
 137              		.cfi_offset 3, -16
 138              		.cfi_offset 4, -12
 139              		.cfi_offset 5, -8
 140              		.cfi_offset 14, -4
 141              		.loc 1 113 0
 142 0002 0446     		mov	r4, r0
 143 0004 D0B1     		cbz	r0, .L14
 144              		.loc 1 116 0
 145 0006 0146     		mov	r1, r0
 146 0008 0822     		movs	r2, #8
 147 000a 0020     		movs	r0, #0
 148              	.LVL10:
 149 000c FFF7FEFF 		bl	chHeapAllocAligned
 150              	.LVL11:
 151              		.loc 1 117 0
 152 0010 0546     		mov	r5, r0
 153 0012 20B1     		cbz	r0, .L13
 154              	.L18:
 155              		.loc 1 139 0
 156 0014 2246     		mov	r2, r4
 157 0016 0021     		movs	r1, #0
 158 0018 FFF7FEFF 		bl	memset
 159              	.LVL12:
 160              		.loc 1 140 0
 161 001c 0CE0     		b	.L11
 162              	.LVL13:
 163              	.L13:
 164              		.loc 1 123 0
 165 001e 2046     		mov	r0, r4
 166              	.LVL14:
 167 0020 FFF7FEFF 		bl	malloc_ccm
 168              	.LVL15:
 169              		.loc 1 124 0
 170 0024 0546     		mov	r5, r0
 171 0026 38B9     		cbnz	r0, .L11
ARM GAS  C:\cygwin64\tmp\ccYkGyT7.s 			page 4


 172              	.LVL16:
 173              		.loc 1 137 0
 174 0028 0822     		movs	r2, #8
 175 002a 2146     		mov	r1, r4
 176 002c 0448     		ldr	r0, .L19
 177 002e FFF7FEFF 		bl	chHeapAllocAligned
 178              	.LVL17:
 179              		.loc 1 138 0
 180 0032 0546     		mov	r5, r0
 181 0034 0028     		cmp	r0, #0
 182 0036 EDD1     		bne	.L18
 183              	.LVL18:
 184              	.L11:
 185              		.loc 1 144 0
 186 0038 2846     		mov	r0, r5
 187 003a 38BD     		pop	{r3, r4, r5, pc}
 188              	.LVL19:
 189              	.L14:
 190              		.loc 1 114 0
 191 003c 0546     		mov	r5, r0
 192 003e FBE7     		b	.L11
 193              	.L20:
 194              		.align	2
 195              	.L19:
 196 0040 00000000 		.word	.LANCHOR1
 197              		.cfi_endproc
 198              	.LFE280:
 199              		.size	malloc, .-malloc
 200              		.section	.text.malloc_dma,"ax",%progbits
 201              		.align	1
 202              		.global	malloc_dma
 203              		.syntax unified
 204              		.thumb
 205              		.thumb_func
 206              		.fpu fpv4-sp-d16
 207              		.type	malloc_dma, %function
 208              	malloc_dma:
 209              	.LFB281:
 210              		.loc 1 150 0
 211              		.cfi_startproc
 212              		@ args = 0, pretend = 0, frame = 0
 213              		@ frame_needed = 0, uses_anonymous_args = 0
 214              	.LVL20:
 215 0000 38B5     		push	{r3, r4, r5, lr}
 216              		.cfi_def_cfa_offset 16
 217              		.cfi_offset 3, -16
 218              		.cfi_offset 4, -12
 219              		.cfi_offset 5, -8
 220              		.cfi_offset 14, -4
 221              		.loc 1 156 0
 222 0002 0146     		mov	r1, r0
 223              		.loc 1 150 0
 224 0004 0546     		mov	r5, r0
 225              		.loc 1 156 0
 226 0006 0822     		movs	r2, #8
 227 0008 0020     		movs	r0, #0
 228              	.LVL21:
ARM GAS  C:\cygwin64\tmp\ccYkGyT7.s 			page 5


 229 000a FFF7FEFF 		bl	chHeapAllocAligned
 230              	.LVL22:
 231              		.loc 1 158 0
 232 000e 0446     		mov	r4, r0
 233 0010 30B9     		cbnz	r0, .L22
 234              		.loc 1 159 0
 235 0012 0822     		movs	r2, #8
 236 0014 2946     		mov	r1, r5
 237 0016 0648     		ldr	r0, .L27
 238              	.LVL23:
 239 0018 FFF7FEFF 		bl	chHeapAllocAligned
 240              	.LVL24:
 241              		.loc 1 161 0
 242 001c 0446     		mov	r4, r0
 243 001e 20B1     		cbz	r0, .L21
 244              	.L22:
 245              		.loc 1 162 0
 246 0020 2A46     		mov	r2, r5
 247 0022 0021     		movs	r1, #0
 248 0024 2046     		mov	r0, r4
 249 0026 FFF7FEFF 		bl	memset
 250              	.LVL25:
 251              	.L21:
 252              		.loc 1 165 0
 253 002a 2046     		mov	r0, r4
 254 002c 38BD     		pop	{r3, r4, r5, pc}
 255              	.LVL26:
 256              	.L28:
 257 002e 00BF     		.align	2
 258              	.L27:
 259 0030 00000000 		.word	.LANCHOR1
 260              		.cfi_endproc
 261              	.LFE281:
 262              		.size	malloc_dma, .-malloc_dma
 263              		.section	.text.calloc,"ax",%progbits
 264              		.align	1
 265              		.global	calloc
 266              		.syntax unified
 267              		.thumb
 268              		.thumb_func
 269              		.fpu fpv4-sp-d16
 270              		.type	calloc, %function
 271              	calloc:
 272              	.LFB282:
 273              		.loc 1 168 0
 274              		.cfi_startproc
 275              		@ args = 0, pretend = 0, frame = 0
 276              		@ frame_needed = 0, uses_anonymous_args = 0
 277              		@ link register save eliminated.
 278              	.LVL27:
 279              		.loc 1 169 0
 280 0000 4843     		muls	r0, r1, r0
 281              	.LVL28:
 282 0002 FFF7FEBF 		b	malloc
 283              	.LVL29:
 284              		.cfi_endproc
 285              	.LFE282:
ARM GAS  C:\cygwin64\tmp\ccYkGyT7.s 			page 6


 286              		.size	calloc, .-calloc
 287              		.section	.text.free,"ax",%progbits
 288              		.align	1
 289              		.global	free
 290              		.syntax unified
 291              		.thumb
 292              		.thumb_func
 293              		.fpu fpv4-sp-d16
 294              		.type	free, %function
 295              	free:
 296              	.LFB283:
 297              		.loc 1 173 0
 298              		.cfi_startproc
 299              		@ args = 0, pretend = 0, frame = 0
 300              		@ frame_needed = 0, uses_anonymous_args = 0
 301              		@ link register save eliminated.
 302              	.LVL30:
 303              		.loc 1 174 0
 304 0000 08B1     		cbz	r0, .L30
 305              		.loc 1 175 0
 306 0002 FFF7FEBF 		b	chHeapFree
 307              	.LVL31:
 308              	.L30:
 309 0006 7047     		bx	lr
 310              		.cfi_endproc
 311              	.LFE283:
 312              		.size	free, .-free
 313              		.section	.text.mem_available,"ax",%progbits
 314              		.align	1
 315              		.global	mem_available
 316              		.syntax unified
 317              		.thumb
 318              		.thumb_func
 319              		.fpu fpv4-sp-d16
 320              		.type	mem_available, %function
 321              	mem_available:
 322              	.LFB284:
 323              		.loc 1 183 0
 324              		.cfi_startproc
 325              		@ args = 0, pretend = 0, frame = 16
 326              		@ frame_needed = 0, uses_anonymous_args = 0
 327 0000 1FB5     		push	{r0, r1, r2, r3, r4, lr}
 328              		.cfi_def_cfa_offset 24
 329              		.cfi_offset 4, -8
 330              		.cfi_offset 14, -4
 331              		.loc 1 184 0
 332 0002 04A9     		add	r1, sp, #16
 333 0004 0024     		movs	r4, #0
 334 0006 41F80C4D 		str	r4, [r1, #-12]!
 335              		.loc 1 186 0
 336 000a 2246     		mov	r2, r4
 337 000c 2046     		mov	r0, r4
 338 000e FFF7FEFF 		bl	chHeapStatus
 339              	.LVL32:
 340              		.loc 1 189 0
 341 0012 FFF7FEFF 		bl	chCoreGetStatusX
 342              	.LVL33:
ARM GAS  C:\cygwin64\tmp\ccYkGyT7.s 			page 7


 343 0016 019B     		ldr	r3, [sp, #4]
 344              		.loc 1 192 0
 345 0018 04A9     		add	r1, sp, #16
 346              		.loc 1 189 0
 347 001a 1844     		add	r0, r0, r3
 348 001c 0190     		str	r0, [sp, #4]
 349              		.loc 1 192 0
 350 001e 41F8084D 		str	r4, [r1, #-8]!
 351              		.loc 1 193 0
 352 0022 2246     		mov	r2, r4
 353 0024 0948     		ldr	r0, .L33
 354 0026 FFF7FEFF 		bl	chHeapStatus
 355              	.LVL34:
 356              		.loc 1 194 0
 357 002a 029A     		ldr	r2, [sp, #8]
 358 002c 019B     		ldr	r3, [sp, #4]
 359              		.loc 1 204 0
 360 002e 0848     		ldr	r0, .L33+4
 361              		.loc 1 203 0
 362 0030 04A9     		add	r1, sp, #16
 363              		.loc 1 194 0
 364 0032 1344     		add	r3, r3, r2
 365              		.loc 1 203 0
 366 0034 41F8044D 		str	r4, [r1, #-4]!
 367              		.loc 1 204 0
 368 0038 2246     		mov	r2, r4
 369              		.loc 1 194 0
 370 003a 0193     		str	r3, [sp, #4]
 371              		.loc 1 204 0
 372 003c FFF7FEFF 		bl	chHeapStatus
 373              	.LVL35:
 374              		.loc 1 208 0
 375 0040 039B     		ldr	r3, [sp, #12]
 376 0042 0198     		ldr	r0, [sp, #4]
 377 0044 1844     		add	r0, r0, r3
 378 0046 04B0     		add	sp, sp, #16
 379              		.cfi_def_cfa_offset 8
 380              		@ sp needed
 381 0048 10BD     		pop	{r4, pc}
 382              	.L34:
 383 004a 00BF     		.align	2
 384              	.L33:
 385 004c 00000000 		.word	.LANCHOR0
 386 0050 00000000 		.word	.LANCHOR1
 387              		.cfi_endproc
 388              	.LFE284:
 389              		.size	mem_available, .-mem_available
 390              		.section	.bss.ccm_heap,"aw",%nobits
 391              		.align	3
 392              		.set	.LANCHOR0,. + 0
 393              		.type	ccm_heap, %object
 394              		.size	ccm_heap, 32
 395              	ccm_heap:
 396 0000 00000000 		.space	32
 396      00000000 
 396      00000000 
 396      00000000 
ARM GAS  C:\cygwin64\tmp\ccYkGyT7.s 			page 8


 396      00000000 
 397              		.section	.bss.dma_reserve_heap,"aw",%nobits
 398              		.align	3
 399              		.set	.LANCHOR1,. + 0
 400              		.type	dma_reserve_heap, %object
 401              		.size	dma_reserve_heap, 32
 402              	dma_reserve_heap:
 403 0000 00000000 		.space	32
 403      00000000 
 403      00000000 
 403      00000000 
 403      00000000 
 404              		.text
 405              	.Letext0:
 406              		.file 2 "c:\\program files (x86)\\gnu tools arm embedded\\6 2017-q2-update\\arm-none-eabi\\include
 407              		.file 3 "c:\\program files (x86)\\gnu tools arm embedded\\6 2017-q2-update\\arm-none-eabi\\include
 408              		.file 4 "c:\\program files (x86)\\gnu tools arm embedded\\6 2017-q2-update\\lib\\gcc\\arm-none-eab
 409              		.file 5 "../../modules/ChibiOS/os/common/ports/ARMCMx/compilers/GCC/chtypes.h"
 410              		.file 6 "../../modules/ChibiOS/os/rt/include/chsystypes.h"
 411              		.file 7 "../../modules/ChibiOS/os/rt/include/chschd.h"
 412              		.file 8 "../../modules/ChibiOS/os/common/ext/CMSIS/include/core_cm4.h"
 413              		.file 9 "../../modules/ChibiOS/os/common/ext/CMSIS/ST/STM32F4xx/system_stm32f4xx.h"
 414              		.file 10 "../../modules/ChibiOS/os/common/ext/CMSIS/ST/STM32F4xx/stm32f427xx.h"
 415              		.file 11 "../../modules/ChibiOS/os/common/ports/ARMCMx/chcore.h"
 416              		.file 12 "../../modules/ChibiOS/os/common/ports/ARMCMx/chcore_v7m.h"
 417              		.file 13 "../../modules/ChibiOS/os/hal/ports/STM32/LLD/TIMv1/stm32_tim.h"
 418              		.file 14 "../../modules/ChibiOS/os/rt/include/chtm.h"
 419              		.file 15 "../../modules/ChibiOS/os/rt/include/chstats.h"
 420              		.file 16 "../../modules/ChibiOS/os/rt/include/chsem.h"
 421              		.file 17 "../../modules/ChibiOS/os/rt/include/chmtx.h"
 422              		.file 18 "../../modules/ChibiOS/os/rt/include/chsys.h"
 423              		.file 19 "../../modules/ChibiOS/os/rt/include/chregistry.h"
 424              		.file 20 "../../modules/ChibiOS/os/rt/include/chevents.h"
 425              		.file 21 "../../modules/ChibiOS/os/common/oslib/include/chmemcore.h"
 426              		.file 22 "../../modules/ChibiOS/os/common/oslib/include/chheap.h"
 427              		.file 23 "c:\\program files (x86)\\gnu tools arm embedded\\6 2017-q2-update\\lib\\gcc\\arm-none-ea
 428              		.file 24 "<built-in>"
 429              		.file 25 "c:\\program files (x86)\\gnu tools arm embedded\\6 2017-q2-update\\arm-none-eabi\\includ
 430              		.file 26 "c:\\program files (x86)\\gnu tools arm embedded\\6 2017-q2-update\\arm-none-eabi\\includ
 431              		.file 27 "c:\\program files (x86)\\gnu tools arm embedded\\6 2017-q2-update\\arm-none-eabi\\includ
 432              		.file 28 "c:\\program files (x86)\\gnu tools arm embedded\\6 2017-q2-update\\arm-none-eabi\\includ
 433              		.file 29 "../../libraries/AP_HAL_ChibiOS/hwdef/common/posix.h"
 434              		.file 30 "../../libraries/AP_HAL_ChibiOS/hwdef/common/stdio.h"
 435              		.file 31 "../../modules/ChibiOS/os/hal/ports/STM32/LLD/DMAv2/stm32_dma.h"
 436              		.file 32 "../../modules/ChibiOS/os/hal/include/hal_ioblock.h"
 437              		.file 33 "../../modules/ChibiOS/os/hal/include/hal_queues.h"
 438              		.file 34 "../../modules/ChibiOS/os/hal/ports/STM32/LLD/GPIOv2/hal_pal_lld.h"
 439              		.file 35 "../../modules/ChibiOS/os/hal/include/hal_adc.h"
 440              		.file 36 "../../modules/ChibiOS/os/hal/ports/STM32/LLD/ADCv2/hal_adc_lld.h"
 441              		.file 37 "../../modules/ChibiOS/os/hal/include/hal_ext.h"
 442              		.file 38 "../../modules/ChibiOS/os/hal/ports/STM32/LLD/EXTIv1/hal_ext_lld.h"
 443              		.file 39 "../../modules/ChibiOS/os/hal/include/hal_i2c.h"
 444              		.file 40 "../../modules/ChibiOS/os/hal/ports/STM32/LLD/I2Cv1/hal_i2c_lld.h"
 445              		.file 41 "../../modules/ChibiOS/os/hal/include/hal_pwm.h"
 446              		.file 42 "../../modules/ChibiOS/os/hal/ports/STM32/LLD/TIMv1/hal_pwm_lld.h"
 447              		.file 43 "../../modules/ChibiOS/os/hal/include/hal_serial.h"
 448              		.file 44 "../../modules/ChibiOS/os/hal/ports/STM32/LLD/USARTv1/hal_serial_lld.h"
ARM GAS  C:\cygwin64\tmp\ccYkGyT7.s 			page 9


 449              		.file 45 "../../modules/ChibiOS/os/hal/include/hal_sdc.h"
 450              		.file 46 "../../modules/ChibiOS/os/hal/ports/STM32/LLD/SDIOv1/hal_sdc_lld.h"
 451              		.file 47 "../../modules/ChibiOS/os/hal/include/hal_spi.h"
 452              		.file 48 "../../modules/ChibiOS/os/hal/ports/STM32/LLD/SPIv1/hal_spi_lld.h"
 453              		.file 49 "../../modules/ChibiOS/os/hal/include/hal_usb.h"
 454              		.file 50 "../../modules/ChibiOS/os/hal/ports/STM32/LLD/OTGv1/hal_usb_lld.h"
 455              		.file 51 "../../modules/ChibiOS/os/hal/ports/STM32/LLD/OTGv1/stm32_otg.h"