ARM GAS  C:\cygwin64\tmp\ccxdpAIh.s 			page 1


   1              		.cpu cortex-m4
   2              		.eabi_attribute 27, 1
   3              		.eabi_attribute 28, 1
   4              		.eabi_attribute 20, 1
   5              		.eabi_attribute 21, 1
   6              		.eabi_attribute 23, 3
   7              		.eabi_attribute 24, 1
   8              		.eabi_attribute 25, 1
   9              		.eabi_attribute 26, 1
  10              		.eabi_attribute 30, 4
  11              		.eabi_attribute 34, 1
  12              		.eabi_attribute 18, 4
  13              		.file	"posix.c"
  14              		.text
  15              	.Ltext0:
  16              		.cfi_sections	.debug_frame
  17              		.section	.text.fatfs_getc,"ax",%progbits
  18              		.align	1
  19              		.global	fatfs_getc
  20              		.syntax unified
  21              		.thumb
  22              		.thumb_func
  23              		.fpu fpv4-sp-d16
  24              		.type	fatfs_getc, %function
  25              	fatfs_getc:
  26              	.LFB304:
  27              		.file 1 "../../libraries/AP_HAL_ChibiOS/hwdef/common/posix.c"
  28              		.loc 1 1998 0
  29              		.cfi_startproc
  30              		@ args = 0, pretend = 0, frame = 8
  31              		@ frame_needed = 0, uses_anonymous_args = 0
  32              	.LVL0:
  33 0000 73B5     		push	{r0, r1, r4, r5, r6, lr}
  34              		.cfi_def_cfa_offset 24
  35              		.cfi_offset 4, -16
  36              		.cfi_offset 5, -12
  37              		.cfi_offset 6, -8
  38              		.cfi_offset 14, -4
  39              		.loc 1 2005 0
  40 0002 214D     		ldr	r5, .L21
  41 0004 0023     		movs	r3, #0
  42 0006 2B60     		str	r3, [r5]
  43              		.loc 1 2007 0
  44 0008 0646     		mov	r6, r0
  45 000a 28B9     		cbnz	r0, .L2
  46              	.L4:
  47              		.loc 1 2009 0
  48 000c 0923     		movs	r3, #9
  49 000e 2B60     		str	r3, [r5]
  50              	.LVL1:
  51              	.L20:
  52              		.loc 1 2025 0
  53 0010 4FF0FF30 		mov	r0, #-1
  54              	.L1:
  55              		.loc 1 2072 0
  56 0014 02B0     		add	sp, sp, #8
  57              		.cfi_remember_state
ARM GAS  C:\cygwin64\tmp\ccxdpAIh.s 			page 2


  58              		.cfi_def_cfa_offset 16
  59              		@ sp needed
  60 0016 70BD     		pop	{r4, r5, r6, pc}
  61              	.LVL2:
  62              	.L2:
  63              		.cfi_restore_state
  64              		.loc 1 2013 0
  65 0018 8469     		ldr	r4, [r0, #24]
  66              	.LVL3:
  67              		.loc 1 2014 0
  68 001a 002C     		cmp	r4, #0
  69 001c F6D0     		beq	.L4
  70              		.loc 1 2020 0
  71 001e 01AB     		add	r3, sp, #4
  72 0020 0122     		movs	r2, #1
  73 0022 0DF10301 		add	r1, sp, #3
  74 0026 2046     		mov	r0, r4
  75              	.LVL4:
  76 0028 FFF7FEFF 		bl	f_read
  77              	.LVL5:
  78              		.loc 1 2021 0
  79 002c 50B9     		cbnz	r0, .L5
  80              		.loc 1 2021 0 is_stmt 0 discriminator 1
  81 002e 019A     		ldr	r2, [sp, #4]
  82 0030 012A     		cmp	r2, #1
  83 0032 0BD0     		beq	.L19
  84              	.L6:
  85              	.LVL6:
  86 0034 154B     		ldr	r3, .L21+4
  87 0036 1B56     		ldrsb	r3, [r3, r0]
  88              	.L8:
  89              	.LVL7:
  90              		.loc 1 2023 0 is_stmt 1
  91 0038 2B60     		str	r3, [r5]
  92              		.loc 1 2024 0
  93 003a 7379     		ldrb	r3, [r6, #5]	@ zero_extendqisi2
  94 003c 43F02003 		orr	r3, r3, #32
  95 0040 7371     		strb	r3, [r6, #5]
  96 0042 E5E7     		b	.L20
  97              	.L5:
  98              	.LVL8:
  99 0044 1328     		cmp	r0, #19
 100 0046 F5D9     		bls	.L6
 101              		.loc 1 2021 0
 102 0048 2323     		movs	r3, #35
 103 004a F5E7     		b	.L8
 104              	.LVL9:
 105              	.L19:
 106              		.loc 1 2051 0
 107 004c 9DF80330 		ldrb	r3, [sp, #3]	@ zero_extendqisi2
 108 0050 0D2B     		cmp	r3, #13
 109 0052 15D1     		bne	.L9
 110              		.loc 1 2056 0
 111 0054 01AB     		add	r3, sp, #4
 112 0056 0DF10301 		add	r1, sp, #3
 113 005a 2046     		mov	r0, r4
 114              	.LVL10:
ARM GAS  C:\cygwin64\tmp\ccxdpAIh.s 			page 3


 115              		.loc 1 2054 0
 116 005c 256B     		ldr	r5, [r4, #48]
 117              	.LVL11:
 118              		.loc 1 2056 0
 119 005e FFF7FEFF 		bl	f_read
 120              	.LVL12:
 121              		.loc 1 2057 0
 122 0062 58B9     		cbnz	r0, .L12
 123              		.loc 1 2057 0 is_stmt 0 discriminator 1
 124 0064 019B     		ldr	r3, [sp, #4]
 125 0066 012B     		cmp	r3, #1
 126 0068 08D1     		bne	.L12
 127              		.loc 1 2063 0 is_stmt 1
 128 006a 9DF80330 		ldrb	r3, [sp, #3]	@ zero_extendqisi2
 129 006e 0A2B     		cmp	r3, #10
 130 0070 06D0     		beq	.L9
 131              		.loc 1 2066 0
 132 0072 2A46     		mov	r2, r5
 133 0074 EB17     		asrs	r3, r5, #31
 134 0076 2046     		mov	r0, r4
 135              	.LVL13:
 136 0078 FFF7FEFF 		bl	f_lseek
 137              	.LVL14:
 138              	.L12:
 139              		.loc 1 2060 0
 140 007c 0A20     		movs	r0, #10
 141 007e C9E7     		b	.L1
 142              	.LVL15:
 143              	.L9:
 144              		.loc 1 2071 0
 145 0080 9DF80300 		ldrb	r0, [sp, #3]	@ zero_extendqisi2
 146 0084 C6E7     		b	.L1
 147              	.L22:
 148 0086 00BF     		.align	2
 149              	.L21:
 150 0088 00000000 		.word	.LANCHOR0
 151 008c 00000000 		.word	.LANCHOR1
 152              		.cfi_endproc
 153              	.LFE304:
 154              		.size	fatfs_getc, .-fatfs_getc
 155              		.section	.text.fatfs_putc,"ax",%progbits
 156              		.align	1
 157              		.global	fatfs_putc
 158              		.syntax unified
 159              		.thumb
 160              		.thumb_func
 161              		.fpu fpv4-sp-d16
 162              		.type	fatfs_putc, %function
 163              	fatfs_putc:
 164              	.LFB305:
 165              		.loc 1 2088 0
 166              		.cfi_startproc
 167              		@ args = 0, pretend = 0, frame = 16
 168              		@ frame_needed = 0, uses_anonymous_args = 0
 169              	.LVL16:
 170 0000 30B5     		push	{r4, r5, lr}
 171              		.cfi_def_cfa_offset 12
ARM GAS  C:\cygwin64\tmp\ccxdpAIh.s 			page 4


 172              		.cfi_offset 4, -12
 173              		.cfi_offset 5, -8
 174              		.cfi_offset 14, -4
 175              		.loc 1 2093 0
 176 0002 154C     		ldr	r4, .L37
 177              		.loc 1 2088 0
 178 0004 85B0     		sub	sp, sp, #20
 179              		.cfi_def_cfa_offset 32
 180              		.loc 1 2093 0
 181 0006 0023     		movs	r3, #0
 182              		.loc 1 2088 0
 183 0008 8DF80700 		strb	r0, [sp, #7]
 184              		.loc 1 2093 0
 185 000c 2360     		str	r3, [r4]
 186              		.loc 1 2094 0
 187 000e 0D46     		mov	r5, r1
 188 0010 29B9     		cbnz	r1, .L24
 189              	.LVL17:
 190              	.L26:
 191              		.loc 1 2096 0
 192 0012 0923     		movs	r3, #9
 193 0014 2360     		str	r3, [r4]
 194              	.LVL18:
 195              	.L36:
 196              		.loc 1 2112 0
 197 0016 4FF0FF30 		mov	r0, #-1
 198              	.L23:
 199              		.loc 1 2115 0
 200 001a 05B0     		add	sp, sp, #20
 201              		.cfi_remember_state
 202              		.cfi_def_cfa_offset 12
 203              		@ sp needed
 204 001c 30BD     		pop	{r4, r5, pc}
 205              	.LVL19:
 206              	.L24:
 207              		.cfi_restore_state
 208              		.loc 1 2100 0
 209 001e 8869     		ldr	r0, [r1, #24]
 210              	.LVL20:
 211              		.loc 1 2101 0
 212 0020 0028     		cmp	r0, #0
 213 0022 F6D0     		beq	.L26
 214              		.loc 1 2107 0
 215 0024 03AB     		add	r3, sp, #12
 216 0026 0122     		movs	r2, #1
 217 0028 0DF10701 		add	r1, sp, #7
 218              	.LVL21:
 219 002c FFF7FEFF 		bl	f_write
 220              	.LVL22:
 221              		.loc 1 2108 0
 222 0030 50B9     		cbnz	r0, .L27
 223              		.loc 1 2108 0 is_stmt 0 discriminator 1
 224 0032 039B     		ldr	r3, [sp, #12]
 225 0034 012B     		cmp	r3, #1
 226 0036 0BD0     		beq	.L35
 227              	.L28:
 228              	.LVL23:
ARM GAS  C:\cygwin64\tmp\ccxdpAIh.s 			page 5


 229 0038 084B     		ldr	r3, .L37+4
 230 003a 1B56     		ldrsb	r3, [r3, r0]
 231              	.L30:
 232              	.LVL24:
 233              		.loc 1 2110 0 is_stmt 1
 234 003c 2360     		str	r3, [r4]
 235              		.loc 1 2111 0
 236 003e 6B79     		ldrb	r3, [r5, #5]	@ zero_extendqisi2
 237 0040 43F02003 		orr	r3, r3, #32
 238 0044 6B71     		strb	r3, [r5, #5]
 239 0046 E6E7     		b	.L36
 240              	.L27:
 241              	.LVL25:
 242 0048 1328     		cmp	r0, #19
 243 004a F5D9     		bls	.L28
 244              		.loc 1 2108 0
 245 004c 2323     		movs	r3, #35
 246 004e F5E7     		b	.L30
 247              	.LVL26:
 248              	.L35:
 249              		.loc 1 2114 0
 250 0050 9DF80700 		ldrb	r0, [sp, #7]	@ zero_extendqisi2
 251              	.LVL27:
 252 0054 E1E7     		b	.L23
 253              	.L38:
 254 0056 00BF     		.align	2
 255              	.L37:
 256 0058 00000000 		.word	.LANCHOR0
 257 005c 00000000 		.word	.LANCHOR1
 258              		.cfi_endproc
 259              	.LFE305:
 260              		.size	fatfs_putc, .-fatfs_putc
 261              		.section	.text.isatty,"ax",%progbits
 262              		.align	1
 263              		.global	isatty
 264              		.syntax unified
 265              		.thumb
 266              		.thumb_func
 267              		.fpu fpv4-sp-d16
 268              		.type	isatty, %function
 269              	isatty:
 270              	.LFB246:
 271              		.loc 1 186 0
 272              		.cfi_startproc
 273              		@ args = 0, pretend = 0, frame = 0
 274              		@ frame_needed = 0, uses_anonymous_args = 0
 275              		@ link register save eliminated.
 276              	.LVL28:
 277              		.loc 1 191 0
 278 0000 0228     		cmp	r0, #2
 279 0002 8CBF     		ite	hi
 280 0004 0020     		movhi	r0, #0
 281              	.LVL29:
 282 0006 0120     		movls	r0, #1
 283 0008 7047     		bx	lr
 284              		.cfi_endproc
 285              	.LFE246:
ARM GAS  C:\cygwin64\tmp\ccxdpAIh.s 			page 6


 286              		.size	isatty, .-isatty
 287              		.section	.text.fgetc,"ax",%progbits
 288              		.align	1
 289              		.global	fgetc
 290              		.syntax unified
 291              		.thumb
 292              		.thumb_func
 293              		.fpu fpv4-sp-d16
 294              		.type	fgetc, %function
 295              	fgetc:
 296              	.LFB247:
 297              		.loc 1 206 0
 298              		.cfi_startproc
 299              		@ args = 0, pretend = 0, frame = 0
 300              		@ frame_needed = 0, uses_anonymous_args = 0
 301              	.LVL30:
 302 0000 10B5     		push	{r4, lr}
 303              		.cfi_def_cfa_offset 8
 304              		.cfi_offset 4, -8
 305              		.cfi_offset 14, -4
 306              		.loc 1 209 0
 307 0002 0446     		mov	r4, r0
 308 0004 28B9     		cbnz	r0, .L41
 309              		.loc 1 211 0
 310 0006 184B     		ldr	r3, .L52
 311 0008 0922     		movs	r2, #9
 312 000a 1A60     		str	r2, [r3]
 313              	.LVL31:
 314              	.L49:
 315              		.loc 1 216 0
 316 000c 4FF0FF30 		mov	r0, #-1
 317              		.loc 1 248 0
 318 0010 10BD     		pop	{r4, pc}
 319              	.LVL32:
 320              	.L41:
 321              		.loc 1 215 0
 322 0012 4379     		ldrb	r3, [r0, #5]	@ zero_extendqisi2
 323 0014 DA07     		lsls	r2, r3, #31
 324 0016 F9D5     		bpl	.L49
 325              		.loc 1 218 0
 326 0018 5906     		lsls	r1, r3, #25
 327 001a 07D5     		bpl	.L43
 328              		.loc 1 219 0
 329 001c 23F04003 		bic	r3, r3, #64
 330 0020 4371     		strb	r3, [r0, #5]
 331              		.loc 1 220 0
 332 0022 C368     		ldr	r3, [r0, #12]
 333 0024 0133     		adds	r3, r3, #1
 334 0026 C360     		str	r3, [r0, #12]
 335              		.loc 1 221 0
 336 0028 0079     		ldrb	r0, [r0, #4]	@ zero_extendqisi2
 337              	.LVL33:
 338 002a 10BD     		pop	{r4, pc}
 339              	.LVL34:
 340              	.L43:
 341              		.loc 1 224 0
 342 002c 5A07     		lsls	r2, r3, #29
ARM GAS  C:\cygwin64\tmp\ccxdpAIh.s 			page 7


 343 002e 0CD5     		bpl	.L44
 344              		.loc 1 225 0
 345 0030 0268     		ldr	r2, [r0]
 346 0032 1078     		ldrb	r0, [r2]	@ zero_extendqisi2
 347              	.LVL35:
 348              		.loc 1 226 0
 349 0034 18B9     		cbnz	r0, .L45
 350              		.loc 1 227 0
 351 0036 43F02003 		orr	r3, r3, #32
 352              	.LVL36:
 353              	.L51:
 354              		.loc 1 241 0
 355 003a 6371     		strb	r3, [r4, #5]
 356 003c E6E7     		b	.L49
 357              	.LVL37:
 358              	.L45:
 359              		.loc 1 230 0
 360 003e 0132     		adds	r2, r2, #1
 361 0040 2260     		str	r2, [r4]
 362              	.L46:
 363              		.loc 1 246 0
 364 0042 E368     		ldr	r3, [r4, #12]
 365 0044 0133     		adds	r3, r3, #1
 366 0046 E360     		str	r3, [r4, #12]
 367              		.loc 1 247 0
 368 0048 10BD     		pop	{r4, pc}
 369              	.LVL38:
 370              	.L44:
 371              		.loc 1 233 0
 372 004a 4369     		ldr	r3, [r0, #20]
 373 004c 002B     		cmp	r3, #0
 374 004e DDD0     		beq	.L49
 375              		.loc 1 238 0
 376 0050 9847     		blx	r3
 377              	.LVL39:
 378              		.loc 1 239 0
 379 0052 0028     		cmp	r0, #0
 380 0054 F5DA     		bge	.L46
 381              		.loc 1 241 0
 382 0056 0230     		adds	r0, r0, #2
 383              	.LVL40:
 384 0058 94F90520 		ldrsb	r2, [r4, #5]
 385 005c 0CBF     		ite	eq
 386 005e 1023     		moveq	r3, #16
 387 0060 2023     		movne	r3, #32
 388 0062 1343     		orrs	r3, r3, r2
 389 0064 E9E7     		b	.L51
 390              	.L53:
 391 0066 00BF     		.align	2
 392              	.L52:
 393 0068 00000000 		.word	.LANCHOR0
 394              		.cfi_endproc
 395              	.LFE247:
 396              		.size	fgetc, .-fgetc
 397              		.section	.text.getc,"ax",%progbits
 398              		.align	1
 399              		.global	getc
ARM GAS  C:\cygwin64\tmp\ccxdpAIh.s 			page 8


 400              		.syntax unified
 401              		.thumb
 402              		.thumb_func
 403              		.fpu fpv4-sp-d16
 404              		.type	getc, %function
 405              	getc:
 406              	.LFB248:
 407              		.loc 1 250 0
 408              		.cfi_startproc
 409              		@ args = 0, pretend = 0, frame = 0
 410              		@ frame_needed = 0, uses_anonymous_args = 0
 411              		@ link register save eliminated.
 412              	.LVL41:
 413              		.loc 1 251 0
 414 0000 FFF7FEBF 		b	fgetc
 415              	.LVL42:
 416              		.cfi_endproc
 417              	.LFE248:
 418              		.size	getc, .-getc
 419              		.section	.text.fputc,"ax",%progbits
 420              		.align	1
 421              		.global	fputc
 422              		.syntax unified
 423              		.thumb
 424              		.thumb_func
 425              		.fpu fpv4-sp-d16
 426              		.type	fputc, %function
 427              	fputc:
 428              	.LFB249:
 429              		.loc 1 265 0
 430              		.cfi_startproc
 431              		@ args = 0, pretend = 0, frame = 0
 432              		@ frame_needed = 0, uses_anonymous_args = 0
 433              	.LVL43:
 434              		.loc 1 266 0
 435 0000 164B     		ldr	r3, .L66
 436 0002 0022     		movs	r2, #0
 437              		.loc 1 265 0
 438 0004 10B5     		push	{r4, lr}
 439              		.cfi_def_cfa_offset 8
 440              		.cfi_offset 4, -8
 441              		.cfi_offset 14, -4
 442              		.loc 1 266 0
 443 0006 1A60     		str	r2, [r3]
 444              		.loc 1 269 0
 445 0008 154B     		ldr	r3, .L66+4
 446 000a 5A68     		ldr	r2, [r3, #4]
 447 000c 8A42     		cmp	r2, r1
 448              		.loc 1 265 0
 449 000e 0C46     		mov	r4, r1
 450              		.loc 1 269 0
 451 0010 07D0     		beq	.L56
 452              		.loc 1 269 0 is_stmt 0 discriminator 1
 453 0012 9B68     		ldr	r3, [r3, #8]
 454 0014 9942     		cmp	r1, r3
 455 0016 04D0     		beq	.L56
 456              		.loc 1 271 0 is_stmt 1
ARM GAS  C:\cygwin64\tmp\ccxdpAIh.s 			page 9


 457 0018 C0B2     		uxtb	r0, r0
 458              	.LVL44:
 459              		.loc 1 294 0
 460 001a BDE81040 		pop	{r4, lr}
 461              		.cfi_remember_state
 462              		.cfi_restore 14
 463              		.cfi_restore 4
 464              		.cfi_def_cfa_offset 0
 465              		.loc 1 271 0
 466 001e FFF7FEBF 		b	fatfs_putc
 467              	.LVL45:
 468              	.L56:
 469              		.cfi_restore_state
 470              		.loc 1 276 0
 471 0022 6379     		ldrb	r3, [r4, #5]	@ zero_extendqisi2
 472 0024 9907     		lsls	r1, r3, #30
 473              	.LVL46:
 474 0026 15D5     		bpl	.L61
 475              		.loc 1 279 0
 476 0028 5A07     		lsls	r2, r3, #29
 477 002a 0BD5     		bpl	.L58
 478              		.loc 1 280 0
 479 002c E268     		ldr	r2, [r4, #12]
 480 002e A368     		ldr	r3, [r4, #8]
 481 0030 9A42     		cmp	r2, r3
 482 0032 03DA     		bge	.L65
 483              		.loc 1 281 0
 484 0034 2368     		ldr	r3, [r4]
 485 0036 5A1C     		adds	r2, r3, #1
 486 0038 2260     		str	r2, [r4]
 487 003a 1870     		strb	r0, [r3]
 488              	.LVL47:
 489              	.L65:
 490              	.LBB80:
 491              	.LBB81:
 492              		.loc 1 291 0
 493 003c E368     		ldr	r3, [r4, #12]
 494 003e 0133     		adds	r3, r3, #1
 495 0040 E360     		str	r3, [r4, #12]
 496 0042 10BD     		pop	{r4, pc}
 497              	.LVL48:
 498              	.L58:
 499              		.loc 1 285 0
 500 0044 2369     		ldr	r3, [r4, #16]
 501 0046 2BB1     		cbz	r3, .L61
 502              		.loc 1 289 0
 503 0048 2146     		mov	r1, r4
 504 004a C0B2     		uxtb	r0, r0
 505              	.LVL49:
 506 004c 9847     		blx	r3
 507              	.LVL50:
 508              		.loc 1 290 0
 509 004e 431C     		adds	r3, r0, #1
 510 0050 F4D1     		bne	.L65
 511              	.LVL51:
 512              	.L57:
 513              	.LBE81:
ARM GAS  C:\cygwin64\tmp\ccxdpAIh.s 			page 10


 514              	.LBE80:
 515              		.loc 1 294 0
 516 0052 10BD     		pop	{r4, pc}
 517              	.LVL52:
 518              	.L61:
 519              		.loc 1 277 0
 520 0054 4FF0FF30 		mov	r0, #-1
 521              	.LVL53:
 522 0058 FBE7     		b	.L57
 523              	.L67:
 524 005a 00BF     		.align	2
 525              	.L66:
 526 005c 00000000 		.word	.LANCHOR0
 527 0060 00000000 		.word	.LANCHOR2
 528              		.cfi_endproc
 529              	.LFE249:
 530              		.size	fputc, .-fputc
 531              		.section	.text.clearerr,"ax",%progbits
 532              		.align	1
 533              		.global	clearerr
 534              		.syntax unified
 535              		.thumb
 536              		.thumb_func
 537              		.fpu fpv4-sp-d16
 538              		.type	clearerr, %function
 539              	clearerr:
 540              	.LFB250:
 541              		.loc 1 297 0
 542              		.cfi_startproc
 543              		@ args = 0, pretend = 0, frame = 0
 544              		@ frame_needed = 0, uses_anonymous_args = 0
 545              		@ link register save eliminated.
 546              	.LVL54:
 547              		.loc 1 298 0
 548 0000 0023     		movs	r3, #0
 549 0002 4371     		strb	r3, [r0, #5]
 550 0004 7047     		bx	lr
 551              		.cfi_endproc
 552              	.LFE250:
 553              		.size	clearerr, .-clearerr
 554              		.section	.text.getchar,"ax",%progbits
 555              		.align	1
 556              		.global	getchar
 557              		.syntax unified
 558              		.thumb
 559              		.thumb_func
 560              		.fpu fpv4-sp-d16
 561              		.type	getchar, %function
 562              	getchar:
 563              	.LFB251:
 564              		.loc 1 315 0
 565              		.cfi_startproc
 566              		@ args = 0, pretend = 0, frame = 0
 567              		@ frame_needed = 0, uses_anonymous_args = 0
 568              		@ link register save eliminated.
 569              		.loc 1 316 0
 570 0000 014B     		ldr	r3, .L70
ARM GAS  C:\cygwin64\tmp\ccxdpAIh.s 			page 11


 571 0002 1868     		ldr	r0, [r3]
 572 0004 FFF7FEBF 		b	fgetc
 573              	.LVL55:
 574              	.L71:
 575              		.align	2
 576              	.L70:
 577 0008 00000000 		.word	.LANCHOR2
 578              		.cfi_endproc
 579              	.LFE251:
 580              		.size	getchar, .-getchar
 581              		.section	.text.putchar,"ax",%progbits
 582              		.align	1
 583              		.global	putchar
 584              		.syntax unified
 585              		.thumb
 586              		.thumb_func
 587              		.fpu fpv4-sp-d16
 588              		.type	putchar, %function
 589              	putchar:
 590              	.LFB252:
 591              		.loc 1 330 0
 592              		.cfi_startproc
 593              		@ args = 0, pretend = 0, frame = 0
 594              		@ frame_needed = 0, uses_anonymous_args = 0
 595              		@ link register save eliminated.
 596              	.LVL56:
 597              		.loc 1 331 0
 598 0000 014B     		ldr	r3, .L73
 599 0002 5968     		ldr	r1, [r3, #4]
 600 0004 FFF7FEBF 		b	fputc
 601              	.LVL57:
 602              	.L74:
 603              		.align	2
 604              	.L73:
 605 0008 00000000 		.word	.LANCHOR2
 606              		.cfi_endproc
 607              	.LFE252:
 608              		.size	putchar, .-putchar
 609              		.section	.text.putc,"ax",%progbits
 610              		.align	1
 611              		.global	putc
 612              		.syntax unified
 613              		.thumb
 614              		.thumb_func
 615              		.fpu fpv4-sp-d16
 616              		.type	putc, %function
 617              	putc:
 618              	.LFB253:
 619              		.loc 1 380 0
 620              		.cfi_startproc
 621              		@ args = 0, pretend = 0, frame = 0
 622              		@ frame_needed = 0, uses_anonymous_args = 0
 623              		@ link register save eliminated.
 624              	.LVL58:
 625              		.loc 1 381 0
 626 0000 FFF7FEBF 		b	fputc
 627              	.LVL59:
ARM GAS  C:\cygwin64\tmp\ccxdpAIh.s 			page 12


 628              		.cfi_endproc
 629              	.LFE253:
 630              		.size	putc, .-putc
 631              		.section	.text.fgets,"ax",%progbits
 632              		.align	1
 633              		.global	fgets
 634              		.syntax unified
 635              		.thumb
 636              		.thumb_func
 637              		.fpu fpv4-sp-d16
 638              		.type	fgets, %function
 639              	fgets:
 640              	.LFB254:
 641              		.loc 1 399 0
 642              		.cfi_startproc
 643              		@ args = 0, pretend = 0, frame = 0
 644              		@ frame_needed = 0, uses_anonymous_args = 0
 645              	.LVL60:
 646 0000 F8B5     		push	{r3, r4, r5, r6, r7, lr}
 647              		.cfi_def_cfa_offset 24
 648              		.cfi_offset 3, -24
 649              		.cfi_offset 4, -20
 650              		.cfi_offset 5, -16
 651              		.cfi_offset 6, -12
 652              		.cfi_offset 7, -8
 653              		.cfi_offset 14, -4
 654              		.loc 1 399 0
 655 0002 0546     		mov	r5, r0
 656 0004 1746     		mov	r7, r2
 657 0006 0E46     		mov	r6, r1
 658              		.loc 1 401 0
 659 0008 0024     		movs	r4, #0
 660              	.LVL61:
 661              	.L77:
 662              		.loc 1 402 0
 663 000a 2EB1     		cbz	r6, .L80
 664              		.loc 1 404 0
 665 000c 3846     		mov	r0, r7
 666 000e FFF7FEFF 		bl	fgetc
 667              	.LVL62:
 668              		.loc 1 405 0
 669 0012 431C     		adds	r3, r0, #1
 670 0014 04D1     		bne	.L78
 671              		.loc 1 407 0
 672 0016 74B1     		cbz	r4, .L84
 673              	.LVL63:
 674              	.L80:
 675              		.loc 1 421 0
 676 0018 0023     		movs	r3, #0
 677 001a 2B55     		strb	r3, [r5, r4]
 678              	.LVL64:
 679              	.L79:
 680              		.loc 1 423 0
 681 001c 2846     		mov	r0, r5
 682 001e F8BD     		pop	{r3, r4, r5, r6, r7, pc}
 683              	.LVL65:
 684              	.L78:
ARM GAS  C:\cygwin64\tmp\ccxdpAIh.s 			page 13


 685              		.loc 1 411 0
 686 0020 0A28     		cmp	r0, #10
 687 0022 F9D0     		beq	.L80
 688              		.loc 1 413 0
 689 0024 0828     		cmp	r0, #8
 690 0026 03D1     		bne	.L81
 691              		.loc 1 415 0
 692 0028 04B1     		cbz	r4, .L82
 693              		.loc 1 416 0
 694 002a 013C     		subs	r4, r4, #1
 695              	.LVL66:
 696              	.L82:
 697 002c 013E     		subs	r6, r6, #1
 698              	.LVL67:
 699 002e ECE7     		b	.L77
 700              	.LVL68:
 701              	.L81:
 702              		.loc 1 419 0
 703 0030 2855     		strb	r0, [r5, r4]
 704 0032 0134     		adds	r4, r4, #1
 705              	.LVL69:
 706 0034 FAE7     		b	.L82
 707              	.L84:
 708              		.loc 1 408 0
 709 0036 2546     		mov	r5, r4
 710              	.LVL70:
 711 0038 F0E7     		b	.L79
 712              		.cfi_endproc
 713              	.LFE254:
 714              		.size	fgets, .-fgets
 715              		.section	.text.gets,"ax",%progbits
 716              		.align	1
 717              		.global	gets
 718              		.syntax unified
 719              		.thumb
 720              		.thumb_func
 721              		.fpu fpv4-sp-d16
 722              		.type	gets, %function
 723              	gets:
 724              	.LFB255:
 725              		.loc 1 430 0
 726              		.cfi_startproc
 727              		@ args = 0, pretend = 0, frame = 0
 728              		@ frame_needed = 0, uses_anonymous_args = 0
 729              	.LVL71:
 730 0000 38B5     		push	{r3, r4, r5, lr}
 731              		.cfi_def_cfa_offset 16
 732              		.cfi_offset 3, -16
 733              		.cfi_offset 4, -12
 734              		.cfi_offset 5, -8
 735              		.cfi_offset 14, -4
 736              		.loc 1 434 0
 737 0002 0A4B     		ldr	r3, .L99
 738 0004 8021     		movs	r1, #128
 739 0006 1A68     		ldr	r2, [r3]
 740              		.loc 1 430 0
 741 0008 0446     		mov	r4, r0
ARM GAS  C:\cygwin64\tmp\ccxdpAIh.s 			page 14


 742              		.loc 1 434 0
 743 000a FFF7FEFF 		bl	fgets
 744              	.LVL72:
 745              		.loc 1 435 0
 746 000e 0546     		mov	r5, r0
 747 0010 48B1     		cbz	r0, .L91
 748              		.loc 1 437 0
 749 0012 2046     		mov	r0, r4
 750              	.LVL73:
 751 0014 FFF7FEFF 		bl	strlen
 752              	.LVL74:
 753              		.loc 1 438 0
 754 0018 28B1     		cbz	r0, .L91
 755              		.loc 1 438 0 is_stmt 0 discriminator 1
 756 001a 0138     		subs	r0, r0, #1
 757              	.LVL75:
 758 001c 235C     		ldrb	r3, [r4, r0]	@ zero_extendqisi2
 759 001e 0A2B     		cmp	r3, #10
 760              		.loc 1 439 0 is_stmt 1 discriminator 1
 761 0020 04BF     		itt	eq
 762 0022 0023     		moveq	r3, #0
 763 0024 2354     		strbeq	r3, [r4, r0]
 764              	.LVL76:
 765              	.L91:
 766              		.loc 1 441 0
 767 0026 2846     		mov	r0, r5
 768 0028 38BD     		pop	{r3, r4, r5, pc}
 769              	.LVL77:
 770              	.L100:
 771 002a 00BF     		.align	2
 772              	.L99:
 773 002c 00000000 		.word	.LANCHOR2
 774              		.cfi_endproc
 775              	.LFE255:
 776              		.size	gets, .-gets
 777              		.section	.text.fputs,"ax",%progbits
 778              		.align	1
 779              		.global	fputs
 780              		.syntax unified
 781              		.thumb
 782              		.thumb_func
 783              		.fpu fpv4-sp-d16
 784              		.type	fputs, %function
 785              	fputs:
 786              	.LFB256:
 787              		.loc 1 453 0
 788              		.cfi_startproc
 789              		@ args = 0, pretend = 0, frame = 0
 790              		@ frame_needed = 0, uses_anonymous_args = 0
 791              	.LVL78:
 792 0000 38B5     		push	{r3, r4, r5, lr}
 793              		.cfi_def_cfa_offset 16
 794              		.cfi_offset 3, -16
 795              		.cfi_offset 4, -12
 796              		.cfi_offset 5, -8
 797              		.cfi_offset 14, -4
 798              		.loc 1 453 0
ARM GAS  C:\cygwin64\tmp\ccxdpAIh.s 			page 15


 799 0002 0D46     		mov	r5, r1
 800 0004 441E     		subs	r4, r0, #1
 801              	.LVL79:
 802              	.L102:
 803              		.loc 1 454 0
 804 0006 14F8010F 		ldrb	r0, [r4, #1]!	@ zero_extendqisi2
 805              	.LVL80:
 806 000a 20B1     		cbz	r0, .L101
 807              		.loc 1 456 0
 808 000c 2946     		mov	r1, r5
 809 000e FFF7FEFF 		bl	fputc
 810              	.LVL81:
 811 0012 431C     		adds	r3, r0, #1
 812 0014 F7D1     		bne	.L102
 813              	.L101:
 814              		.loc 1 461 0
 815 0016 38BD     		pop	{r3, r4, r5, pc}
 816              		.cfi_endproc
 817              	.LFE256:
 818              		.size	fputs, .-fputs
 819              		.section	.text.puts,"ax",%progbits
 820              		.align	1
 821              		.global	puts
 822              		.syntax unified
 823              		.thumb
 824              		.thumb_func
 825              		.fpu fpv4-sp-d16
 826              		.type	puts, %function
 827              	puts:
 828              	.LFB257:
 829              		.loc 1 476 0
 830              		.cfi_startproc
 831              		@ args = 0, pretend = 0, frame = 0
 832              		@ frame_needed = 0, uses_anonymous_args = 0
 833              	.LVL82:
 834 0000 38B5     		push	{r3, r4, r5, lr}
 835              		.cfi_def_cfa_offset 16
 836              		.cfi_offset 3, -16
 837              		.cfi_offset 4, -12
 838              		.cfi_offset 5, -8
 839              		.cfi_offset 14, -4
 840 0002 084C     		ldr	r4, .L112
 841 0004 451E     		subs	r5, r0, #1
 842              	.LVL83:
 843              	.L109:
 844              		.loc 1 477 0
 845 0006 15F8010F 		ldrb	r0, [r5, #1]!	@ zero_extendqisi2
 846              	.LVL84:
 847              		.loc 1 479 0
 848 000a 6168     		ldr	r1, [r4, #4]
 849              		.loc 1 477 0
 850 000c 20B9     		cbnz	r0, .L111
 851              		.loc 1 483 0
 852 000e 0A20     		movs	r0, #10
 853              		.loc 1 484 0
 854 0010 BDE83840 		pop	{r3, r4, r5, lr}
 855              		.cfi_remember_state
ARM GAS  C:\cygwin64\tmp\ccxdpAIh.s 			page 16


 856              		.cfi_restore 14
 857              		.cfi_restore 5
 858              		.cfi_restore 4
 859              		.cfi_restore 3
 860              		.cfi_def_cfa_offset 0
 861              	.LVL85:
 862              		.loc 1 483 0
 863 0014 FFF7FEBF 		b	fputc
 864              	.LVL86:
 865              	.L111:
 866              		.cfi_restore_state
 867              		.loc 1 479 0
 868 0018 FFF7FEFF 		bl	fputc
 869              	.LVL87:
 870 001c 431C     		adds	r3, r0, #1
 871 001e F2D1     		bne	.L109
 872              		.loc 1 484 0
 873 0020 38BD     		pop	{r3, r4, r5, pc}
 874              	.LVL88:
 875              	.L113:
 876 0022 00BF     		.align	2
 877              	.L112:
 878 0024 00000000 		.word	.LANCHOR2
 879              		.cfi_endproc
 880              	.LFE257:
 881              		.size	puts, .-puts
 882              		.section	.text.feof,"ax",%progbits
 883              		.align	1
 884              		.global	feof
 885              		.syntax unified
 886              		.thumb
 887              		.thumb_func
 888              		.fpu fpv4-sp-d16
 889              		.type	feof, %function
 890              	feof:
 891              	.LFB258:
 892              		.loc 1 501 0
 893              		.cfi_startproc
 894              		@ args = 0, pretend = 0, frame = 0
 895              		@ frame_needed = 0, uses_anonymous_args = 0
 896              		@ link register save eliminated.
 897              	.LVL89:
 898              		.loc 1 502 0
 899 0000 4079     		ldrb	r0, [r0, #5]	@ zero_extendqisi2
 900              	.LVL90:
 901              		.loc 1 505 0
 902 0002 C0F34010 		ubfx	r0, r0, #5, #1
 903 0006 7047     		bx	lr
 904              		.cfi_endproc
 905              	.LFE258:
 906              		.size	feof, .-feof
 907              		.section	.text.fileno,"ax",%progbits
 908              		.align	1
 909              		.global	fileno
 910              		.syntax unified
 911              		.thumb
 912              		.thumb_func
ARM GAS  C:\cygwin64\tmp\ccxdpAIh.s 			page 17


 913              		.fpu fpv4-sp-d16
 914              		.type	fileno, %function
 915              	fileno:
 916              	.LFB266:
 917              		.loc 1 715 0
 918              		.cfi_startproc
 919              		@ args = 0, pretend = 0, frame = 0
 920              		@ frame_needed = 0, uses_anonymous_args = 0
 921              		@ link register save eliminated.
 922              	.LVL91:
 923              		.loc 1 718 0
 924 0000 30B9     		cbnz	r0, .L116
 925              		.loc 1 720 0
 926 0002 084B     		ldr	r3, .L121
 927 0004 0922     		movs	r2, #9
 928 0006 1A60     		str	r2, [r3]
 929              	.L120:
 930              		.loc 1 729 0
 931 0008 4FF0FF33 		mov	r3, #-1
 932              	.L115:
 933              		.loc 1 730 0
 934 000c 1846     		mov	r0, r3
 935              	.LVL92:
 936 000e 7047     		bx	lr
 937              	.LVL93:
 938              	.L116:
 939              		.loc 1 726 0
 940 0010 054A     		ldr	r2, .L121+4
 941 0012 0023     		movs	r3, #0
 942              	.L118:
 943              	.LVL94:
 944 0014 52F82310 		ldr	r1, [r2, r3, lsl #2]
 945 0018 8842     		cmp	r0, r1
 946 001a F7D0     		beq	.L115
 947              		.loc 1 724 0 discriminator 2
 948 001c 0133     		adds	r3, r3, #1
 949              	.LVL95:
 950 001e 102B     		cmp	r3, #16
 951 0020 F8D1     		bne	.L118
 952 0022 F1E7     		b	.L120
 953              	.L122:
 954              		.align	2
 955              	.L121:
 956 0024 00000000 		.word	.LANCHOR0
 957 0028 00000000 		.word	.LANCHOR2
 958              		.cfi_endproc
 959              	.LFE266:
 960              		.size	fileno, .-fileno
 961              		.section	.text.fileno_to_stream,"ax",%progbits
 962              		.align	1
 963              		.global	fileno_to_stream
 964              		.syntax unified
 965              		.thumb
 966              		.thumb_func
 967              		.fpu fpv4-sp-d16
 968              		.type	fileno_to_stream, %function
 969              	fileno_to_stream:
ARM GAS  C:\cygwin64\tmp\ccxdpAIh.s 			page 18


 970              	.LFB267:
 971              		.loc 1 745 0
 972              		.cfi_startproc
 973              		@ args = 0, pretend = 0, frame = 0
 974              		@ frame_needed = 0, uses_anonymous_args = 0
 975              		@ link register save eliminated.
 976              	.LVL96:
 977              		.loc 1 747 0
 978 0000 0F28     		cmp	r0, #15
 979 0002 04D9     		bls	.L124
 980              		.loc 1 749 0
 981 0004 064B     		ldr	r3, .L126
 982 0006 0922     		movs	r2, #9
 983 0008 1A60     		str	r2, [r3]
 984              		.loc 1 750 0
 985 000a 0020     		movs	r0, #0
 986              	.LVL97:
 987 000c 7047     		bx	lr
 988              	.LVL98:
 989              	.L124:
 990              		.loc 1 753 0
 991 000e 054B     		ldr	r3, .L126+4
 992 0010 53F82000 		ldr	r0, [r3, r0, lsl #2]
 993              	.LVL99:
 994              		.loc 1 754 0
 995 0014 10B9     		cbnz	r0, .L123
 996              		.loc 1 756 0
 997 0016 024B     		ldr	r3, .L126
 998 0018 0922     		movs	r2, #9
 999 001a 1A60     		str	r2, [r3]
 1000              	.L123:
 1001              		.loc 1 760 0
 1002 001c 7047     		bx	lr
 1003              	.L127:
 1004 001e 00BF     		.align	2
 1005              	.L126:
 1006 0020 00000000 		.word	.LANCHOR0
 1007 0024 00000000 		.word	.LANCHOR2
 1008              		.cfi_endproc
 1009              	.LFE267:
 1010              		.size	fileno_to_stream, .-fileno_to_stream
 1011              		.section	.text.truncate,"ax",%progbits
 1012              		.align	1
 1013              		.global	truncate
 1014              		.syntax unified
 1015              		.thumb
 1016              		.thumb_func
 1017              		.fpu fpv4-sp-d16
 1018              		.type	truncate, %function
 1019              	truncate:
 1020              	.LFB276:
 1021              		.loc 1 1132 0
 1022              		.cfi_startproc
 1023              		@ args = 0, pretend = 0, frame = 584
 1024              		@ frame_needed = 0, uses_anonymous_args = 0
 1025              	.LVL100:
 1026 0000 30B5     		push	{r4, r5, lr}
ARM GAS  C:\cygwin64\tmp\ccxdpAIh.s 			page 19


 1027              		.cfi_def_cfa_offset 12
 1028              		.cfi_offset 4, -12
 1029              		.cfi_offset 5, -8
 1030              		.cfi_offset 14, -4
 1031              		.loc 1 1133 0
 1032 0002 124C     		ldr	r4, .L143
 1033              		.loc 1 1132 0
 1034 0004 ADF5137D 		sub	sp, sp, #588
 1035              		.cfi_def_cfa_offset 600
 1036              		.loc 1 1132 0
 1037 0008 0D46     		mov	r5, r1
 1038              		.loc 1 1133 0
 1039 000a 0023     		movs	r3, #0
 1040              		.loc 1 1137 0
 1041 000c 0146     		mov	r1, r0
 1042              	.LVL101:
 1043 000e 0322     		movs	r2, #3
 1044 0010 6846     		mov	r0, sp
 1045              	.LVL102:
 1046              		.loc 1 1133 0
 1047 0012 2360     		str	r3, [r4]
 1048              		.loc 1 1137 0
 1049 0014 FFF7FEFF 		bl	f_open
 1050              	.LVL103:
 1051              		.loc 1 1138 0
 1052 0018 40B1     		cbz	r0, .L129
 1053              	.L141:
 1054              	.LVL104:
 1055 001a 1328     		cmp	r0, #19
 1056 001c 96BF     		itet	ls
 1057 001e 0C4B     		ldrls	r3, .L143+4
 1058              		.loc 1 1150 0
 1059 0020 2323     		movhi	r3, #35
 1060              	.LVL105:
 1061 0022 1B56     		ldrsbls	r3, [r3, r0]
 1062              		.loc 1 1152 0
 1063 0024 2360     		str	r3, [r4]
 1064              		.loc 1 1153 0
 1065 0026 4FF0FF30 		mov	r0, #-1
 1066              	.LVL106:
 1067 002a 0BE0     		b	.L128
 1068              	.LVL107:
 1069              	.L129:
 1070              		.loc 1 1143 0
 1071 002c 2A46     		mov	r2, r5
 1072 002e EB17     		asrs	r3, r5, #31
 1073 0030 6846     		mov	r0, sp
 1074              	.LVL108:
 1075 0032 FFF7FEFF 		bl	f_lseek
 1076              	.LVL109:
 1077              		.loc 1 1144 0
 1078 0036 0028     		cmp	r0, #0
 1079 0038 EFD1     		bne	.L141
 1080              		.loc 1 1149 0
 1081 003a 6846     		mov	r0, sp
 1082              	.LVL110:
 1083 003c FFF7FEFF 		bl	f_truncate
ARM GAS  C:\cygwin64\tmp\ccxdpAIh.s 			page 20


 1084              	.LVL111:
 1085              		.loc 1 1150 0
 1086 0040 0028     		cmp	r0, #0
 1087 0042 EAD1     		bne	.L141
 1088              	.LVL112:
 1089              	.L128:
 1090              		.loc 1 1156 0
 1091 0044 0DF5137D 		add	sp, sp, #588
 1092              		.cfi_def_cfa_offset 12
 1093              		@ sp needed
 1094 0048 30BD     		pop	{r4, r5, pc}
 1095              	.LVL113:
 1096              	.L144:
 1097 004a 00BF     		.align	2
 1098              	.L143:
 1099 004c 00000000 		.word	.LANCHOR0
 1100 0050 00000000 		.word	.LANCHOR1
 1101              		.cfi_endproc
 1102              	.LFE276:
 1103              		.size	truncate, .-truncate
 1104              		.section	.text.fs_getfree,"ax",%progbits
 1105              		.align	1
 1106              		.global	fs_getfree
 1107              		.syntax unified
 1108              		.thumb
 1109              		.thumb_func
 1110              		.fpu fpv4-sp-d16
 1111              		.type	fs_getfree, %function
 1112              	fs_getfree:
 1113              	.LFB282:
 1114              		.loc 1 1405 0
 1115              		.cfi_startproc
 1116              		@ args = 0, pretend = 0, frame = 8
 1117              		@ frame_needed = 0, uses_anonymous_args = 0
 1118 0000 07B5     		push	{r0, r1, r2, lr}
 1119              		.cfi_def_cfa_offset 16
 1120              		.cfi_offset 14, -4
 1121              		.loc 1 1411 0
 1122 0002 0A48     		ldr	r0, .L148
 1123 0004 6A46     		mov	r2, sp
 1124 0006 01A9     		add	r1, sp, #4
 1125 0008 FFF7FEFF 		bl	f_getfree
 1126              	.LVL114:
 1127              		.loc 1 1412 0
 1128 000c 30B1     		cbz	r0, .L146
 1129              		.loc 1 1412 0 is_stmt 0 discriminator 1
 1130 000e C2B2     		uxtb	r2, r0
 1131 0010 0023     		movs	r3, #0
 1132              	.L145:
 1133              		.loc 1 1417 0 is_stmt 1
 1134 0012 1046     		mov	r0, r2
 1135              	.LVL115:
 1136 0014 1946     		mov	r1, r3
 1137 0016 03B0     		add	sp, sp, #12
 1138              		.cfi_remember_state
 1139              		.cfi_def_cfa_offset 4
 1140              		@ sp needed
ARM GAS  C:\cygwin64\tmp\ccxdpAIh.s 			page 21


 1141 0018 5DF804FB 		ldr	pc, [sp], #4
 1142              	.LVL116:
 1143              	.L146:
 1144              		.cfi_restore_state
 1145              		.loc 1 1415 0
 1146 001c 009B     		ldr	r3, [sp]
 1147 001e 0199     		ldr	r1, [sp, #4]
 1148 0020 5B89     		ldrh	r3, [r3, #10]
 1149 0022 5943     		muls	r1, r3, r1
 1150              		.loc 1 1416 0
 1151 0024 CB0D     		lsrs	r3, r1, #23
 1152 0026 4A02     		lsls	r2, r1, #9
 1153 0028 F3E7     		b	.L145
 1154              	.L149:
 1155 002a 00BF     		.align	2
 1156              	.L148:
 1157 002c 00000000 		.word	.LC1
 1158              		.cfi_endproc
 1159              	.LFE282:
 1160              		.size	fs_getfree, .-fs_getfree
 1161              		.section	.text.fs_gettotal,"ax",%progbits
 1162              		.align	1
 1163              		.global	fs_gettotal
 1164              		.syntax unified
 1165              		.thumb
 1166              		.thumb_func
 1167              		.fpu fpv4-sp-d16
 1168              		.type	fs_gettotal, %function
 1169              	fs_gettotal:
 1170              	.LFB283:
 1171              		.loc 1 1420 0
 1172              		.cfi_startproc
 1173              		@ args = 0, pretend = 0, frame = 8
 1174              		@ frame_needed = 0, uses_anonymous_args = 0
 1175 0000 07B5     		push	{r0, r1, r2, lr}
 1176              		.cfi_def_cfa_offset 16
 1177              		.cfi_offset 14, -4
 1178              		.loc 1 1426 0
 1179 0002 0A48     		ldr	r0, .L153
 1180 0004 6A46     		mov	r2, sp
 1181 0006 01A9     		add	r1, sp, #4
 1182 0008 FFF7FEFF 		bl	f_getfree
 1183              	.LVL117:
 1184              		.loc 1 1427 0
 1185 000c 30B1     		cbz	r0, .L151
 1186              		.loc 1 1427 0 is_stmt 0 discriminator 1
 1187 000e C2B2     		uxtb	r2, r0
 1188 0010 0023     		movs	r3, #0
 1189              	.L150:
 1190              		.loc 1 1432 0 is_stmt 1
 1191 0012 1046     		mov	r0, r2
 1192              	.LVL118:
 1193 0014 1946     		mov	r1, r3
 1194 0016 03B0     		add	sp, sp, #12
 1195              		.cfi_remember_state
 1196              		.cfi_def_cfa_offset 4
 1197              		@ sp needed
ARM GAS  C:\cygwin64\tmp\ccxdpAIh.s 			page 22


 1198 0018 5DF804FB 		ldr	pc, [sp], #4
 1199              	.LVL119:
 1200              	.L151:
 1201              		.cfi_restore_state
 1202              		.loc 1 1430 0
 1203 001c 009A     		ldr	r2, [sp]
 1204              	.LVL120:
 1205 001e 116B     		ldr	r1, [r2, #48]
 1206 0020 8B1E     		subs	r3, r1, #2
 1207 0022 5189     		ldrh	r1, [r2, #10]
 1208 0024 5943     		muls	r1, r3, r1
 1209              	.LVL121:
 1210              		.loc 1 1431 0
 1211 0026 CB0D     		lsrs	r3, r1, #23
 1212 0028 4A02     		lsls	r2, r1, #9
 1213 002a F2E7     		b	.L150
 1214              	.L154:
 1215              		.align	2
 1216              	.L153:
 1217 002c 00000000 		.word	.LC1
 1218              		.cfi_endproc
 1219              	.LFE283:
 1220              		.size	fs_gettotal, .-fs_gettotal
 1221              		.section	.text.basename,"ax",%progbits
 1222              		.align	1
 1223              		.global	basename
 1224              		.syntax unified
 1225              		.thumb
 1226              		.thumb_func
 1227              		.fpu fpv4-sp-d16
 1228              		.type	basename, %function
 1229              	basename:
 1230              	.LFB284:
 1231              		.loc 1 1447 0
 1232              		.cfi_startproc
 1233              		@ args = 0, pretend = 0, frame = 0
 1234              		@ frame_needed = 0, uses_anonymous_args = 0
 1235              		@ link register save eliminated.
 1236              	.LVL122:
 1237              		.loc 1 1449 0
 1238 0000 40B1     		cbz	r0, .L160
 1239 0002 0346     		mov	r3, r0
 1240              	.LVL123:
 1241              	.L157:
 1242              		.loc 1 1451 0
 1243 0004 13F8012B 		ldrb	r2, [r3], #1	@ zero_extendqisi2
 1244              	.LVL124:
 1245 0008 02B9     		cbnz	r2, .L159
 1246 000a 7047     		bx	lr
 1247              	.L159:
 1248              	.LVL125:
 1249              		.loc 1 1454 0
 1250 000c 2F2A     		cmp	r2, #47
 1251 000e 08BF     		it	eq
 1252 0010 1846     		moveq	r0, r3
 1253              	.LVL126:
 1254 0012 F7E7     		b	.L157
ARM GAS  C:\cygwin64\tmp\ccxdpAIh.s 			page 23


 1255              	.LVL127:
 1256              	.L160:
 1257              		.loc 1 1450 0
 1258 0014 0048     		ldr	r0, .L161
 1259              	.LVL128:
 1260              		.loc 1 1458 0
 1261 0016 7047     		bx	lr
 1262              	.L162:
 1263              		.align	2
 1264              	.L161:
 1265 0018 00000000 		.word	.LC2
 1266              		.cfi_endproc
 1267              	.LFE284:
 1268              		.size	basename, .-basename
 1269              		.section	.text.baseext,"ax",%progbits
 1270              		.align	1
 1271              		.global	baseext
 1272              		.syntax unified
 1273              		.thumb
 1274              		.thumb_func
 1275              		.fpu fpv4-sp-d16
 1276              		.type	baseext, %function
 1277              	baseext:
 1278              	.LFB285:
 1279              		.loc 1 1468 0
 1280              		.cfi_startproc
 1281              		@ args = 0, pretend = 0, frame = 0
 1282              		@ frame_needed = 0, uses_anonymous_args = 0
 1283              		@ link register save eliminated.
 1284              	.LVL129:
 1285              		.loc 1 1469 0
 1286 0000 044B     		ldr	r3, .L167
 1287              	.LVL130:
 1288              	.L164:
 1289              		.loc 1 1471 0
 1290 0002 10F8012B 		ldrb	r2, [r0], #1	@ zero_extendqisi2
 1291              	.LVL131:
 1292 0006 0AB9     		cbnz	r2, .L166
 1293              		.loc 1 1477 0
 1294 0008 1846     		mov	r0, r3
 1295              	.LVL132:
 1296 000a 7047     		bx	lr
 1297              	.LVL133:
 1298              	.L166:
 1299              		.loc 1 1474 0
 1300 000c 2E2A     		cmp	r2, #46
 1301 000e 08BF     		it	eq
 1302 0010 0346     		moveq	r3, r0
 1303              	.LVL134:
 1304 0012 F6E7     		b	.L164
 1305              	.L168:
 1306              		.align	2
 1307              	.L167:
 1308 0014 00000000 		.word	.LC2
 1309              		.cfi_endproc
 1310              	.LFE285:
 1311              		.size	baseext, .-baseext
ARM GAS  C:\cygwin64\tmp\ccxdpAIh.s 			page 24


 1312              		.section	.text.chdir,"ax",%progbits
 1313              		.align	1
 1314              		.global	chdir
 1315              		.syntax unified
 1316              		.thumb
 1317              		.thumb_func
 1318              		.fpu fpv4-sp-d16
 1319              		.type	chdir, %function
 1320              	chdir:
 1321              	.LFB286:
 1322              		.loc 1 1490 0
 1323              		.cfi_startproc
 1324              		@ args = 0, pretend = 0, frame = 0
 1325              		@ frame_needed = 0, uses_anonymous_args = 0
 1326              	.LVL135:
 1327 0000 10B5     		push	{r4, lr}
 1328              		.cfi_def_cfa_offset 8
 1329              		.cfi_offset 4, -8
 1330              		.cfi_offset 14, -4
 1331              		.loc 1 1491 0
 1332 0002 074C     		ldr	r4, .L174
 1333 0004 0023     		movs	r3, #0
 1334 0006 2360     		str	r3, [r4]
 1335              		.loc 1 1493 0
 1336 0008 FFF7FEFF 		bl	f_chdir
 1337              	.LVL136:
 1338              		.loc 1 1494 0
 1339 000c 38B1     		cbz	r0, .L169
 1340              	.LVL137:
 1341 000e 1328     		cmp	r0, #19
 1342 0010 96BF     		itet	ls
 1343 0012 044B     		ldrls	r3, .L174+4
 1344 0014 2323     		movhi	r3, #35
 1345              	.LVL138:
 1346 0016 1B56     		ldrsbls	r3, [r3, r0]
 1347              		.loc 1 1496 0
 1348 0018 2360     		str	r3, [r4]
 1349              		.loc 1 1497 0
 1350 001a 4FF0FF30 		mov	r0, #-1
 1351              	.LVL139:
 1352              	.L169:
 1353              		.loc 1 1500 0
 1354 001e 10BD     		pop	{r4, pc}
 1355              	.L175:
 1356              		.align	2
 1357              	.L174:
 1358 0020 00000000 		.word	.LANCHOR0
 1359 0024 00000000 		.word	.LANCHOR1
 1360              		.cfi_endproc
 1361              	.LFE286:
 1362              		.size	chdir, .-chdir
 1363              		.section	.text.chmod,"ax",%progbits
 1364              		.align	1
 1365              		.global	chmod
 1366              		.syntax unified
 1367              		.thumb
 1368              		.thumb_func
ARM GAS  C:\cygwin64\tmp\ccxdpAIh.s 			page 25


 1369              		.fpu fpv4-sp-d16
 1370              		.type	chmod, %function
 1371              	chmod:
 1372              	.LFB287:
 1373              		.loc 1 1515 0
 1374              		.cfi_startproc
 1375              		@ args = 0, pretend = 0, frame = 0
 1376              		@ frame_needed = 0, uses_anonymous_args = 0
 1377              	.LVL140:
 1378 0000 10B5     		push	{r4, lr}
 1379              		.cfi_def_cfa_offset 8
 1380              		.cfi_offset 4, -8
 1381              		.cfi_offset 14, -4
 1382              		.loc 1 1517 0
 1383 0002 0B4C     		ldr	r4, .L185
 1384 0004 0022     		movs	r2, #0
 1385              		.loc 1 1522 0
 1386 0006 11F0920F 		tst	r1, #146
 1387              		.loc 1 1517 0
 1388 000a 2260     		str	r2, [r4]
 1389              		.loc 1 1522 0
 1390 000c 01D0     		beq	.L177
 1391              	.LVL141:
 1392              	.L179:
 1393              		.loc 1 1533 0
 1394 000e 0020     		movs	r0, #0
 1395 0010 10BD     		pop	{r4, pc}
 1396              	.LVL142:
 1397              	.L177:
 1398              	.LBB85:
 1399              	.LBB86:
 1400              		.loc 1 1525 0
 1401 0012 0122     		movs	r2, #1
 1402 0014 1146     		mov	r1, r2
 1403              	.LVL143:
 1404 0016 FFF7FEFF 		bl	f_chmod
 1405              	.LVL144:
 1406              		.loc 1 1526 0
 1407 001a 0028     		cmp	r0, #0
 1408 001c F7D0     		beq	.L179
 1409              	.LVL145:
 1410 001e 1328     		cmp	r0, #19
 1411 0020 96BF     		itet	ls
 1412 0022 044B     		ldrls	r3, .L185+4
 1413 0024 2323     		movhi	r3, #35
 1414              	.LVL146:
 1415 0026 1B56     		ldrsbls	r3, [r3, r0]
 1416              		.loc 1 1528 0
 1417 0028 2360     		str	r3, [r4]
 1418              		.loc 1 1529 0
 1419 002a 4FF0FF30 		mov	r0, #-1
 1420              	.LVL147:
 1421              	.LBE86:
 1422              	.LBE85:
 1423              		.loc 1 1534 0
 1424 002e 10BD     		pop	{r4, pc}
 1425              	.L186:
ARM GAS  C:\cygwin64\tmp\ccxdpAIh.s 			page 26


 1426              		.align	2
 1427              	.L185:
 1428 0030 00000000 		.word	.LANCHOR0
 1429 0034 00000000 		.word	.LANCHOR1
 1430              		.cfi_endproc
 1431              	.LFE287:
 1432              		.size	chmod, .-chmod
 1433              		.section	.text.dirname,"ax",%progbits
 1434              		.align	1
 1435              		.global	dirname
 1436              		.syntax unified
 1437              		.thumb
 1438              		.thumb_func
 1439              		.fpu fpv4-sp-d16
 1440              		.type	dirname, %function
 1441              	dirname:
 1442              	.LFB288:
 1443              		.loc 1 1553 0
 1444              		.cfi_startproc
 1445              		@ args = 0, pretend = 0, frame = 0
 1446              		@ frame_needed = 0, uses_anonymous_args = 0
 1447              	.LVL148:
 1448 0000 10B5     		push	{r4, lr}
 1449              		.cfi_def_cfa_offset 8
 1450              		.cfi_offset 4, -8
 1451              		.cfi_offset 14, -4
 1452              		.loc 1 1557 0
 1453 0002 58B1     		cbz	r0, .L192
 1454 0004 0246     		mov	r2, r0
 1455 0006 0023     		movs	r3, #0
 1456              	.LVL149:
 1457              	.L189:
 1458 0008 141A     		subs	r4, r2, r0
 1459              	.LVL150:
 1460              		.loc 1 1560 0
 1461 000a 12F8011B 		ldrb	r1, [r2], #1	@ zero_extendqisi2
 1462              	.LVL151:
 1463 000e 09B9     		cbnz	r1, .L191
 1464              	.LVL152:
 1465              	.L187:
 1466              		.loc 1 1568 0
 1467 0010 1846     		mov	r0, r3
 1468 0012 10BD     		pop	{r4, pc}
 1469              	.LVL153:
 1470              	.L191:
 1471              		.loc 1 1563 0
 1472 0014 2F29     		cmp	r1, #47
 1473 0016 08BF     		it	eq
 1474 0018 2346     		moveq	r3, r4
 1475              	.LVL154:
 1476 001a F5E7     		b	.L189
 1477              	.LVL155:
 1478              	.L192:
 1479              		.loc 1 1558 0
 1480 001c 0346     		mov	r3, r0
 1481 001e F7E7     		b	.L187
 1482              		.cfi_endproc
ARM GAS  C:\cygwin64\tmp\ccxdpAIh.s 			page 27


 1483              	.LFE288:
 1484              		.size	dirname, .-dirname
 1485              		.section	.text.getcwd,"ax",%progbits
 1486              		.align	1
 1487              		.global	getcwd
 1488              		.syntax unified
 1489              		.thumb
 1490              		.thumb_func
 1491              		.fpu fpv4-sp-d16
 1492              		.type	getcwd, %function
 1493              	getcwd:
 1494              	.LFB289:
 1495              		.loc 1 1598 0
 1496              		.cfi_startproc
 1497              		@ args = 0, pretend = 0, frame = 0
 1498              		@ frame_needed = 0, uses_anonymous_args = 0
 1499              	.LVL156:
 1500 0000 38B5     		push	{r3, r4, r5, lr}
 1501              		.cfi_def_cfa_offset 16
 1502              		.cfi_offset 3, -16
 1503              		.cfi_offset 4, -12
 1504              		.cfi_offset 5, -8
 1505              		.cfi_offset 14, -4
 1506              		.loc 1 1600 0
 1507 0002 084C     		ldr	r4, .L200
 1508 0004 0023     		movs	r3, #0
 1509              		.loc 1 1598 0
 1510 0006 0546     		mov	r5, r0
 1511              		.loc 1 1600 0
 1512 0008 2360     		str	r3, [r4]
 1513              		.loc 1 1602 0
 1514 000a FFF7FEFF 		bl	f_getcwd
 1515              	.LVL157:
 1516              		.loc 1 1603 0
 1517 000e 30B1     		cbz	r0, .L194
 1518              	.LVL158:
 1519 0010 1328     		cmp	r0, #19
 1520 0012 96BF     		itet	ls
 1521 0014 044B     		ldrls	r3, .L200+4
 1522 0016 2323     		movhi	r3, #35
 1523              	.LVL159:
 1524 0018 1B56     		ldrsbls	r3, [r3, r0]
 1525              		.loc 1 1605 0
 1526 001a 2360     		str	r3, [r4]
 1527              		.loc 1 1606 0
 1528 001c 0025     		movs	r5, #0
 1529              	.LVL160:
 1530              	.L194:
 1531              		.loc 1 1609 0
 1532 001e 2846     		mov	r0, r5
 1533              	.LVL161:
 1534 0020 38BD     		pop	{r3, r4, r5, pc}
 1535              	.L201:
 1536 0022 00BF     		.align	2
 1537              	.L200:
 1538 0024 00000000 		.word	.LANCHOR0
 1539 0028 00000000 		.word	.LANCHOR1
ARM GAS  C:\cygwin64\tmp\ccxdpAIh.s 			page 28


 1540              		.cfi_endproc
 1541              	.LFE289:
 1542              		.size	getcwd, .-getcwd
 1543              		.section	.text.mkdir,"ax",%progbits
 1544              		.align	1
 1545              		.global	mkdir
 1546              		.syntax unified
 1547              		.thumb
 1548              		.thumb_func
 1549              		.fpu fpv4-sp-d16
 1550              		.type	mkdir, %function
 1551              	mkdir:
 1552              	.LFB290:
 1553              		.loc 1 1621 0
 1554              		.cfi_startproc
 1555              		@ args = 0, pretend = 0, frame = 0
 1556              		@ frame_needed = 0, uses_anonymous_args = 0
 1557              	.LVL162:
 1558 0000 F8B5     		push	{r3, r4, r5, r6, r7, lr}
 1559              		.cfi_def_cfa_offset 24
 1560              		.cfi_offset 3, -24
 1561              		.cfi_offset 4, -20
 1562              		.cfi_offset 5, -16
 1563              		.cfi_offset 6, -12
 1564              		.cfi_offset 7, -8
 1565              		.cfi_offset 14, -4
 1566              		.loc 1 1622 0
 1567 0002 0D4E     		ldr	r6, .L208
 1568 0004 0023     		movs	r3, #0
 1569              		.loc 1 1621 0
 1570 0006 0746     		mov	r7, r0
 1571 0008 0C46     		mov	r4, r1
 1572              		.loc 1 1622 0
 1573 000a 3360     		str	r3, [r6]
 1574              		.loc 1 1624 0
 1575 000c FFF7FEFF 		bl	f_mkdir
 1576              	.LVL163:
 1577              		.loc 1 1625 0
 1578 0010 0546     		mov	r5, r0
 1579 0012 40B1     		cbz	r0, .L203
 1580              	.LVL164:
 1581 0014 1328     		cmp	r0, #19
 1582 0016 96BF     		itet	ls
 1583 0018 084B     		ldrls	r3, .L208+4
 1584 001a 2323     		movhi	r3, #35
 1585              	.LVL165:
 1586 001c 1B56     		ldrsbls	r3, [r3, r0]
 1587              		.loc 1 1627 0
 1588 001e 3360     		str	r3, [r6]
 1589              		.loc 1 1628 0
 1590 0020 4FF0FF30 		mov	r0, #-1
 1591              	.LVL166:
 1592 0024 F8BD     		pop	{r3, r4, r5, r6, r7, pc}
 1593              	.LVL167:
 1594              	.L203:
 1595              		.loc 1 1631 0
 1596 0026 2CB1     		cbz	r4, .L207
ARM GAS  C:\cygwin64\tmp\ccxdpAIh.s 			page 29


 1597              		.loc 1 1632 0
 1598 0028 2146     		mov	r1, r4
 1599 002a 3846     		mov	r0, r7
 1600              	.LVL168:
 1601 002c FFF7FEFF 		bl	chmod
 1602              	.LVL169:
 1603              		.loc 1 1635 0
 1604 0030 2846     		mov	r0, r5
 1605 0032 F8BD     		pop	{r3, r4, r5, r6, r7, pc}
 1606              	.LVL170:
 1607              	.L207:
 1608 0034 2046     		mov	r0, r4
 1609              	.LVL171:
 1610              		.loc 1 1636 0
 1611 0036 F8BD     		pop	{r3, r4, r5, r6, r7, pc}
 1612              	.LVL172:
 1613              	.L209:
 1614              		.align	2
 1615              	.L208:
 1616 0038 00000000 		.word	.LANCHOR0
 1617 003c 00000000 		.word	.LANCHOR1
 1618              		.cfi_endproc
 1619              	.LFE290:
 1620              		.size	mkdir, .-mkdir
 1621              		.section	.text.rename,"ax",%progbits
 1622              		.align	1
 1623              		.global	rename
 1624              		.syntax unified
 1625              		.thumb
 1626              		.thumb_func
 1627              		.fpu fpv4-sp-d16
 1628              		.type	rename, %function
 1629              	rename:
 1630              	.LFB291:
 1631              		.loc 1 1649 0
 1632              		.cfi_startproc
 1633              		@ args = 0, pretend = 0, frame = 0
 1634              		@ frame_needed = 0, uses_anonymous_args = 0
 1635              	.LVL173:
 1636 0000 10B5     		push	{r4, lr}
 1637              		.cfi_def_cfa_offset 8
 1638              		.cfi_offset 4, -8
 1639              		.cfi_offset 14, -4
 1640              		.loc 1 1652 0
 1641 0002 074C     		ldr	r4, .L215
 1642 0004 0023     		movs	r3, #0
 1643 0006 2360     		str	r3, [r4]
 1644              		.loc 1 1653 0
 1645 0008 FFF7FEFF 		bl	f_rename
 1646              	.LVL174:
 1647              		.loc 1 1654 0
 1648 000c 38B1     		cbz	r0, .L210
 1649              	.LVL175:
 1650 000e 1328     		cmp	r0, #19
 1651 0010 96BF     		itet	ls
 1652 0012 044B     		ldrls	r3, .L215+4
 1653 0014 2323     		movhi	r3, #35
ARM GAS  C:\cygwin64\tmp\ccxdpAIh.s 			page 30


 1654              	.LVL176:
 1655 0016 1B56     		ldrsbls	r3, [r3, r0]
 1656              		.loc 1 1656 0
 1657 0018 2360     		str	r3, [r4]
 1658              		.loc 1 1657 0
 1659 001a 4FF0FF30 		mov	r0, #-1
 1660              	.LVL177:
 1661              	.L210:
 1662              		.loc 1 1660 0
 1663 001e 10BD     		pop	{r4, pc}
 1664              	.L216:
 1665              		.align	2
 1666              	.L215:
 1667 0020 00000000 		.word	.LANCHOR0
 1668 0024 00000000 		.word	.LANCHOR1
 1669              		.cfi_endproc
 1670              	.LFE291:
 1671              		.size	rename, .-rename
 1672              		.section	.text.remove,"ax",%progbits
 1673              		.align	1
 1674              		.global	remove
 1675              		.syntax unified
 1676              		.thumb
 1677              		.thumb_func
 1678              		.fpu fpv4-sp-d16
 1679              		.type	remove, %function
 1680              	remove:
 1681              	.LFB294:
 1682              		.loc 1 1707 0
 1683              		.cfi_startproc
 1684              		@ args = 0, pretend = 0, frame = 0
 1685              		@ frame_needed = 0, uses_anonymous_args = 0
 1686              	.LVL178:
 1687 0000 10B5     		push	{r4, lr}
 1688              		.cfi_def_cfa_offset 8
 1689              		.cfi_offset 4, -8
 1690              		.cfi_offset 14, -4
 1691              		.loc 1 1708 0
 1692 0002 074C     		ldr	r4, .L222
 1693 0004 0023     		movs	r3, #0
 1694 0006 2360     		str	r3, [r4]
 1695              		.loc 1 1709 0
 1696 0008 FFF7FEFF 		bl	f_unlink
 1697              	.LVL179:
 1698              		.loc 1 1710 0
 1699 000c 38B1     		cbz	r0, .L217
 1700              	.LVL180:
 1701 000e 1328     		cmp	r0, #19
 1702 0010 96BF     		itet	ls
 1703 0012 044B     		ldrls	r3, .L222+4
 1704 0014 2323     		movhi	r3, #35
 1705              	.LVL181:
 1706 0016 1B56     		ldrsbls	r3, [r3, r0]
 1707              		.loc 1 1712 0
 1708 0018 2360     		str	r3, [r4]
 1709              		.loc 1 1713 0
 1710 001a 4FF0FF30 		mov	r0, #-1
ARM GAS  C:\cygwin64\tmp\ccxdpAIh.s 			page 31


 1711              	.LVL182:
 1712              	.L217:
 1713              		.loc 1 1716 0
 1714 001e 10BD     		pop	{r4, pc}
 1715              	.L223:
 1716              		.align	2
 1717              	.L222:
 1718 0020 00000000 		.word	.LANCHOR0
 1719 0024 00000000 		.word	.LANCHOR1
 1720              		.cfi_endproc
 1721              	.LFE294:
 1722              		.size	remove, .-remove
 1723              		.section	.text.unlink,"ax",%progbits
 1724              		.align	1
 1725              		.global	unlink
 1726              		.syntax unified
 1727              		.thumb
 1728              		.thumb_func
 1729              		.fpu fpv4-sp-d16
 1730              		.type	unlink, %function
 1731              	unlink:
 1732              	.LFB321:
 1733              		.cfi_startproc
 1734              		@ args = 0, pretend = 0, frame = 0
 1735              		@ frame_needed = 0, uses_anonymous_args = 0
 1736              		@ link register save eliminated.
 1737 0000 FFF7FEBF 		b	remove
 1738              		.cfi_endproc
 1739              	.LFE321:
 1740              		.size	unlink, .-unlink
 1741              		.section	.text.rmdir,"ax",%progbits
 1742              		.align	1
 1743              		.global	rmdir
 1744              		.syntax unified
 1745              		.thumb
 1746              		.thumb_func
 1747              		.fpu fpv4-sp-d16
 1748              		.type	rmdir, %function
 1749              	rmdir:
 1750              	.LFB323:
 1751              		.cfi_startproc
 1752              		@ args = 0, pretend = 0, frame = 0
 1753              		@ frame_needed = 0, uses_anonymous_args = 0
 1754              		@ link register save eliminated.
 1755 0000 FFF7FEBF 		b	remove
 1756              		.cfi_endproc
 1757              	.LFE323:
 1758              		.size	rmdir, .-rmdir
 1759              		.section	.text.closedir,"ax",%progbits
 1760              		.align	1
 1761              		.global	closedir
 1762              		.syntax unified
 1763              		.thumb
 1764              		.thumb_func
 1765              		.fpu fpv4-sp-d16
 1766              		.type	closedir, %function
 1767              	closedir:
ARM GAS  C:\cygwin64\tmp\ccxdpAIh.s 			page 32


 1768              	.LFB295:
 1769              		.loc 1 1731 0
 1770              		.cfi_startproc
 1771              		@ args = 0, pretend = 0, frame = 0
 1772              		@ frame_needed = 0, uses_anonymous_args = 0
 1773              	.LVL183:
 1774              		.loc 1 1731 0
 1775 0000 08B5     		push	{r3, lr}
 1776              		.cfi_def_cfa_offset 8
 1777              		.cfi_offset 3, -8
 1778              		.cfi_offset 14, -4
 1779              		.loc 1 1732 0
 1780 0002 FFF7FEFF 		bl	f_closedir
 1781              	.LVL184:
 1782              		.loc 1 1733 0
 1783 0006 48B1     		cbz	r0, .L226
 1784              	.LVL185:
 1785 0008 1328     		cmp	r0, #19
 1786 000a 98BF     		it	ls
 1787 000c 044B     		ldrls	r3, .L231
 1788              		.loc 1 1735 0
 1789 000e 054A     		ldr	r2, .L231+4
 1790 0010 94BF     		ite	ls
 1791 0012 1B56     		ldrsbls	r3, [r3, r0]
 1792              		.loc 1 1733 0
 1793 0014 2323     		movhi	r3, #35
 1794              	.LVL186:
 1795              		.loc 1 1735 0
 1796 0016 1360     		str	r3, [r2]
 1797              		.loc 1 1736 0
 1798 0018 4FF0FF30 		mov	r0, #-1
 1799              	.LVL187:
 1800              	.L226:
 1801              		.loc 1 1739 0
 1802 001c 08BD     		pop	{r3, pc}
 1803              	.L232:
 1804 001e 00BF     		.align	2
 1805              	.L231:
 1806 0020 00000000 		.word	.LANCHOR1
 1807 0024 00000000 		.word	.LANCHOR0
 1808              		.cfi_endproc
 1809              	.LFE295:
 1810              		.size	closedir, .-closedir
 1811              		.section	.text.opendir,"ax",%progbits
 1812              		.align	1
 1813              		.global	opendir
 1814              		.syntax unified
 1815              		.thumb
 1816              		.thumb_func
 1817              		.fpu fpv4-sp-d16
 1818              		.type	opendir, %function
 1819              	opendir:
 1820              	.LFB296:
 1821              		.loc 1 1750 0
 1822              		.cfi_startproc
 1823              		@ args = 0, pretend = 0, frame = 0
 1824              		@ frame_needed = 0, uses_anonymous_args = 0
ARM GAS  C:\cygwin64\tmp\ccxdpAIh.s 			page 33


 1825              	.LVL188:
 1826 0000 08B5     		push	{r3, lr}
 1827              		.cfi_def_cfa_offset 8
 1828              		.cfi_offset 3, -8
 1829              		.cfi_offset 14, -4
 1830              		.loc 1 1751 0
 1831 0002 0146     		mov	r1, r0
 1832 0004 0748     		ldr	r0, .L238
 1833              	.LVL189:
 1834 0006 FFF7FEFF 		bl	f_opendir
 1835              	.LVL190:
 1836              		.loc 1 1752 0
 1837 000a 48B1     		cbz	r0, .L236
 1838              	.LVL191:
 1839 000c 1328     		cmp	r0, #19
 1840 000e 98BF     		it	ls
 1841 0010 054B     		ldrls	r3, .L238+4
 1842              		.loc 1 1754 0
 1843 0012 064A     		ldr	r2, .L238+8
 1844 0014 94BF     		ite	ls
 1845 0016 1B56     		ldrsbls	r3, [r3, r0]
 1846              		.loc 1 1752 0
 1847 0018 2323     		movhi	r3, #35
 1848              	.LVL192:
 1849              		.loc 1 1754 0
 1850 001a 1360     		str	r3, [r2]
 1851              		.loc 1 1755 0
 1852 001c 0020     		movs	r0, #0
 1853              	.LVL193:
 1854 001e 08BD     		pop	{r3, pc}
 1855              	.LVL194:
 1856              	.L236:
 1857              		.loc 1 1757 0
 1858 0020 0048     		ldr	r0, .L238
 1859              	.LVL195:
 1860              		.loc 1 1758 0
 1861 0022 08BD     		pop	{r3, pc}
 1862              	.L239:
 1863              		.align	2
 1864              	.L238:
 1865 0024 00000000 		.word	.LANCHOR3
 1866 0028 00000000 		.word	.LANCHOR1
 1867 002c 00000000 		.word	.LANCHOR0
 1868              		.cfi_endproc
 1869              	.LFE296:
 1870              		.size	opendir, .-opendir
 1871              		.section	.text.readdir,"ax",%progbits
 1872              		.align	1
 1873              		.global	readdir
 1874              		.syntax unified
 1875              		.thumb
 1876              		.thumb_func
 1877              		.fpu fpv4-sp-d16
 1878              		.type	readdir, %function
 1879              	readdir:
 1880              	.LFB297:
 1881              		.loc 1 1769 0
ARM GAS  C:\cygwin64\tmp\ccxdpAIh.s 			page 34


 1882              		.cfi_startproc
 1883              		@ args = 0, pretend = 0, frame = 288
 1884              		@ frame_needed = 0, uses_anonymous_args = 0
 1885              	.LVL196:
 1886 0000 70B5     		push	{r4, r5, r6, lr}
 1887              		.cfi_def_cfa_offset 16
 1888              		.cfi_offset 4, -16
 1889              		.cfi_offset 5, -12
 1890              		.cfi_offset 6, -8
 1891              		.cfi_offset 14, -4
 1892              		.loc 1 1774 0
 1893 0002 124C     		ldr	r4, .L251
 1894              		.loc 1 1769 0
 1895 0004 C8B0     		sub	sp, sp, #288
 1896              		.cfi_def_cfa_offset 304
 1897              		.loc 1 1774 0
 1898 0006 0023     		movs	r3, #0
 1899              		.loc 1 1775 0
 1900 0008 6946     		mov	r1, sp
 1901              		.loc 1 1774 0
 1902 000a 2370     		strb	r3, [r4]
 1903              		.loc 1 1775 0
 1904 000c FFF7FEFF 		bl	f_readdir
 1905              	.LVL197:
 1906              		.loc 1 1776 0
 1907 0010 0546     		mov	r5, r0
 1908 0012 48B9     		cbnz	r0, .L241
 1909              		.loc 1 1776 0 is_stmt 0 discriminator 1
 1910 0014 9DF81A30 		ldrb	r3, [sp, #26]	@ zero_extendqisi2
 1911 0018 53B9     		cbnz	r3, .L250
 1912              	.L242:
 1913              	.LVL198:
 1914 001a 0D4B     		ldr	r3, .L251+4
 1915 001c 5B57     		ldrsb	r3, [r3, r5]
 1916              	.LVL199:
 1917              	.L244:
 1918              		.loc 1 1778 0 is_stmt 1
 1919 001e 0D4A     		ldr	r2, .L251+8
 1920              		.loc 1 1779 0
 1921 0020 0020     		movs	r0, #0
 1922              	.LVL200:
 1923              		.loc 1 1778 0
 1924 0022 1360     		str	r3, [r2]
 1925              	.L240:
 1926              		.loc 1 1785 0
 1927 0024 48B0     		add	sp, sp, #288
 1928              		.cfi_remember_state
 1929              		.cfi_def_cfa_offset 16
 1930              		@ sp needed
 1931 0026 70BD     		pop	{r4, r5, r6, pc}
 1932              	.LVL201:
 1933              	.L241:
 1934              		.cfi_restore_state
 1935 0028 1328     		cmp	r0, #19
 1936 002a F6D9     		bls	.L242
 1937              		.loc 1 1776 0
 1938 002c 2323     		movs	r3, #35
ARM GAS  C:\cygwin64\tmp\ccxdpAIh.s 			page 35


 1939 002e F6E7     		b	.L244
 1940              	.LVL202:
 1941              	.L250:
 1942              		.loc 1 1781 0
 1943 0030 0DF11A00 		add	r0, sp, #26
 1944              	.LVL203:
 1945 0034 FFF7FEFF 		bl	strlen
 1946              	.LVL204:
 1947 0038 0646     		mov	r6, r0
 1948              	.LVL205:
 1949              		.loc 1 1782 0
 1950 003a 0246     		mov	r2, r0
 1951 003c 0DF11A01 		add	r1, sp, #26
 1952 0040 2046     		mov	r0, r4
 1953              	.LVL206:
 1954 0042 FFF7FEFF 		bl	strncpy
 1955              	.LVL207:
 1956              		.loc 1 1783 0
 1957 0046 A555     		strb	r5, [r4, r6]
 1958              		.loc 1 1784 0
 1959 0048 2046     		mov	r0, r4
 1960 004a EBE7     		b	.L240
 1961              	.L252:
 1962              		.align	2
 1963              	.L251:
 1964 004c 00000000 		.word	.LANCHOR4
 1965 0050 00000000 		.word	.LANCHOR1
 1966 0054 00000000 		.word	.LANCHOR0
 1967              		.cfi_endproc
 1968              	.LFE297:
 1969              		.size	readdir, .-readdir
 1970              		.section	.text.clrerror,"ax",%progbits
 1971              		.align	1
 1972              		.global	clrerror
 1973              		.syntax unified
 1974              		.thumb
 1975              		.thumb_func
 1976              		.fpu fpv4-sp-d16
 1977              		.type	clrerror, %function
 1978              	clrerror:
 1979              	.LFB298:
 1980              		.loc 1 1800 0
 1981              		.cfi_startproc
 1982              		@ args = 0, pretend = 0, frame = 0
 1983              		@ frame_needed = 0, uses_anonymous_args = 0
 1984              		@ link register save eliminated.
 1985              	.LVL208:
 1986              		.loc 1 1802 0
 1987 0000 4379     		ldrb	r3, [r0, #5]	@ zero_extendqisi2
 1988 0002 23F03003 		bic	r3, r3, #48
 1989 0006 4371     		strb	r3, [r0, #5]
 1990 0008 7047     		bx	lr
 1991              		.cfi_endproc
 1992              	.LFE298:
 1993              		.size	clrerror, .-clrerror
 1994              		.section	.text.ferror,"ax",%progbits
 1995              		.align	1
ARM GAS  C:\cygwin64\tmp\ccxdpAIh.s 			page 36


 1996              		.global	ferror
 1997              		.syntax unified
 1998              		.thumb
 1999              		.thumb_func
 2000              		.fpu fpv4-sp-d16
 2001              		.type	ferror, %function
 2002              	ferror:
 2003              	.LFB299:
 2004              		.loc 1 1812 0
 2005              		.cfi_startproc
 2006              		@ args = 0, pretend = 0, frame = 0
 2007              		@ frame_needed = 0, uses_anonymous_args = 0
 2008              		@ link register save eliminated.
 2009              	.LVL209:
 2010              		.loc 1 1813 0
 2011 0000 4079     		ldrb	r0, [r0, #5]	@ zero_extendqisi2
 2012              	.LVL210:
 2013              		.loc 1 1816 0
 2014 0002 C0F30010 		ubfx	r0, r0, #4, #1
 2015 0006 7047     		bx	lr
 2016              		.cfi_endproc
 2017              	.LFE299:
 2018              		.size	ferror, .-ferror
 2019              		.section	.text.perror,"ax",%progbits
 2020              		.align	1
 2021              		.global	perror
 2022              		.syntax unified
 2023              		.thumb
 2024              		.thumb_func
 2025              		.fpu fpv4-sp-d16
 2026              		.type	perror, %function
 2027              	perror:
 2028              	.LFB300:
 2029              		.loc 1 1828 0
 2030              		.cfi_startproc
 2031              		@ args = 0, pretend = 0, frame = 0
 2032              		@ frame_needed = 0, uses_anonymous_args = 0
 2033              		@ link register save eliminated.
 2034              	.LVL211:
 2035              		.loc 1 1832 0
 2036 0000 094B     		ldr	r3, .L265
 2037 0002 1A68     		ldr	r2, [r3]
 2038 0004 094B     		ldr	r3, .L265+4
 2039 0006 222A     		cmp	r2, #34
 2040              		.loc 1 1828 0
 2041 0008 0146     		mov	r1, r0
 2042              		.loc 1 1833 0
 2043 000a 94BF     		ite	ls
 2044 000c 53F82220 		ldrls	r2, [r3, r2, lsl #2]
 2045              	.LVL212:
 2046              		.loc 1 1835 0
 2047 0010 D3F88C20 		ldrhi	r2, [r3, #140]
 2048              	.LVL213:
 2049              		.loc 1 1837 0
 2050 0014 20B1     		cbz	r0, .L258
 2051              		.loc 1 1837 0 is_stmt 0 discriminator 1
 2052 0016 0378     		ldrb	r3, [r0]	@ zero_extendqisi2
ARM GAS  C:\cygwin64\tmp\ccxdpAIh.s 			page 37


 2053 0018 13B1     		cbz	r3, .L258
 2054              		.loc 1 1838 0 is_stmt 1
 2055 001a 0548     		ldr	r0, .L265+8
 2056              	.LVL214:
 2057 001c FFF7FEBF 		b	printf
 2058              	.LVL215:
 2059              	.L258:
 2060              		.loc 1 1840 0
 2061 0020 1046     		mov	r0, r2
 2062              	.LVL216:
 2063 0022 FFF7FEBF 		b	puts
 2064              	.LVL217:
 2065              	.L266:
 2066 0026 00BF     		.align	2
 2067              	.L265:
 2068 0028 00000000 		.word	.LANCHOR0
 2069 002c 00000000 		.word	.LANCHOR5
 2070 0030 00000000 		.word	.LC3
 2071              		.cfi_endproc
 2072              	.LFE300:
 2073              		.size	perror, .-perror
 2074              		.section	.text.strerror,"ax",%progbits
 2075              		.align	1
 2076              		.global	strerror
 2077              		.syntax unified
 2078              		.thumb
 2079              		.thumb_func
 2080              		.fpu fpv4-sp-d16
 2081              		.type	strerror, %function
 2082              	strerror:
 2083              	.LFB301:
 2084              		.loc 1 1853 0
 2085              		.cfi_startproc
 2086              		@ args = 0, pretend = 0, frame = 0
 2087              		@ frame_needed = 0, uses_anonymous_args = 0
 2088              		@ link register save eliminated.
 2089              	.LVL218:
 2090              		.loc 1 1855 0
 2091 0000 014B     		ldr	r3, .L268
 2092 0002 53F82000 		ldr	r0, [r3, r0, lsl #2]
 2093              	.LVL219:
 2094 0006 7047     		bx	lr
 2095              	.L269:
 2096              		.align	2
 2097              	.L268:
 2098 0008 00000000 		.word	.LANCHOR5
 2099              		.cfi_endproc
 2100              	.LFE301:
 2101              		.size	strerror, .-strerror
 2102              		.section	.text.__wrap_strerror_r,"ax",%progbits
 2103              		.align	1
 2104              		.global	__wrap_strerror_r
 2105              		.syntax unified
 2106              		.thumb
 2107              		.thumb_func
 2108              		.fpu fpv4-sp-d16
 2109              		.type	__wrap_strerror_r, %function
ARM GAS  C:\cygwin64\tmp\ccxdpAIh.s 			page 38


 2110              	__wrap_strerror_r:
 2111              	.LFB302:
 2112              		.loc 1 1870 0
 2113              		.cfi_startproc
 2114              		@ args = 0, pretend = 0, frame = 0
 2115              		@ frame_needed = 0, uses_anonymous_args = 0
 2116              	.LVL220:
 2117 0000 10B5     		push	{r4, lr}
 2118              		.cfi_def_cfa_offset 8
 2119              		.cfi_offset 4, -8
 2120              		.cfi_offset 14, -4
 2121              		.loc 1 1871 0
 2122 0002 044B     		ldr	r3, .L271
 2123              		.loc 1 1870 0
 2124 0004 0C46     		mov	r4, r1
 2125              		.loc 1 1871 0
 2126 0006 53F82010 		ldr	r1, [r3, r0, lsl #2]
 2127              	.LVL221:
 2128 000a 2046     		mov	r0, r4
 2129              	.LVL222:
 2130 000c FFF7FEFF 		bl	strncpy
 2131              	.LVL223:
 2132              		.loc 1 1873 0
 2133 0010 2046     		mov	r0, r4
 2134 0012 10BD     		pop	{r4, pc}
 2135              	.LVL224:
 2136              	.L272:
 2137              		.align	2
 2138              	.L271:
 2139 0014 00000000 		.word	.LANCHOR5
 2140              		.cfi_endproc
 2141              	.LFE302:
 2142              		.size	__wrap_strerror_r, .-__wrap_strerror_r
 2143              		.section	.text.fdevopen,"ax",%progbits
 2144              		.align	1
 2145              		.global	fdevopen
 2146              		.syntax unified
 2147              		.thumb
 2148              		.thumb_func
 2149              		.fpu fpv4-sp-d16
 2150              		.type	fdevopen, %function
 2151              	fdevopen:
 2152              	.LFB303:
 2153              		.loc 1 1889 0
 2154              		.cfi_startproc
 2155              		@ args = 0, pretend = 0, frame = 0
 2156              		@ frame_needed = 0, uses_anonymous_args = 0
 2157              	.LVL225:
 2158 0000 38B5     		push	{r3, r4, r5, lr}
 2159              		.cfi_def_cfa_offset 16
 2160              		.cfi_offset 3, -16
 2161              		.cfi_offset 4, -12
 2162              		.cfi_offset 5, -8
 2163              		.cfi_offset 14, -4
 2164              		.loc 1 1889 0
 2165 0002 0D46     		mov	r5, r1
 2166              		.loc 1 1892 0
ARM GAS  C:\cygwin64\tmp\ccxdpAIh.s 			page 39


 2167 0004 0446     		mov	r4, r0
 2168 0006 10B9     		cbnz	r0, .L274
 2169              		.loc 1 1892 0 is_stmt 0 discriminator 1
 2170 0008 09B9     		cbnz	r1, .L274
 2171              	.LVL226:
 2172              	.L276:
 2173              		.loc 1 1893 0 is_stmt 1
 2174 000a 0020     		movs	r0, #0
 2175 000c 38BD     		pop	{r3, r4, r5, pc}
 2176              	.LVL227:
 2177              	.L274:
 2178              		.loc 1 1895 0
 2179 000e 1C21     		movs	r1, #28
 2180              	.LVL228:
 2181 0010 0120     		movs	r0, #1
 2182              	.LVL229:
 2183 0012 FFF7FEFF 		bl	calloc
 2184              	.LVL230:
 2185 0016 0028     		cmp	r0, #0
 2186 0018 F7D0     		beq	.L276
 2187              		.loc 1 1898 0
 2188 001a 8023     		movs	r3, #128
 2189 001c 4371     		strb	r3, [r0, #5]
 2190              		.loc 1 1900 0
 2191 001e 35B1     		cbz	r5, .L278
 2192              		.loc 1 1902 0
 2193 0020 8123     		movs	r3, #129
 2194 0022 4371     		strb	r3, [r0, #5]
 2195              		.loc 1 1905 0
 2196 0024 094B     		ldr	r3, .L287
 2197              		.loc 1 1901 0
 2198 0026 4561     		str	r5, [r0, #20]
 2199              		.loc 1 1905 0
 2200 0028 1A68     		ldr	r2, [r3]
 2201 002a 02B9     		cbnz	r2, .L278
 2202              		.loc 1 1906 0
 2203 002c 1860     		str	r0, [r3]
 2204              	.L278:
 2205              		.loc 1 1909 0
 2206 002e 5CB1     		cbz	r4, .L273
 2207              		.loc 1 1911 0
 2208 0030 4379     		ldrb	r3, [r0, #5]	@ zero_extendqisi2
 2209              		.loc 1 1910 0
 2210 0032 0461     		str	r4, [r0, #16]
 2211              		.loc 1 1911 0
 2212 0034 43F00203 		orr	r3, r3, #2
 2213 0038 4371     		strb	r3, [r0, #5]
 2214              		.loc 1 1915 0
 2215 003a 044B     		ldr	r3, .L287
 2216 003c 5A68     		ldr	r2, [r3, #4]
 2217 003e 02B9     		cbnz	r2, .L280
 2218              		.loc 1 1916 0
 2219 0040 5860     		str	r0, [r3, #4]
 2220              	.L280:
 2221              		.loc 1 1917 0
 2222 0042 9A68     		ldr	r2, [r3, #8]
 2223 0044 02B9     		cbnz	r2, .L273
ARM GAS  C:\cygwin64\tmp\ccxdpAIh.s 			page 40


 2224              		.loc 1 1918 0
 2225 0046 9860     		str	r0, [r3, #8]
 2226              	.L273:
 2227              		.loc 1 1922 0
 2228 0048 38BD     		pop	{r3, r4, r5, pc}
 2229              	.LVL231:
 2230              	.L288:
 2231 004a 00BF     		.align	2
 2232              	.L287:
 2233 004c 00000000 		.word	.LANCHOR2
 2234              		.cfi_endproc
 2235              	.LFE303:
 2236              		.size	fdevopen, .-fdevopen
 2237              		.section	.text.fatfs_to_errno,"ax",%progbits
 2238              		.align	1
 2239              		.global	fatfs_to_errno
 2240              		.syntax unified
 2241              		.thumb
 2242              		.thumb_func
 2243              		.fpu fpv4-sp-d16
 2244              		.type	fatfs_to_errno, %function
 2245              	fatfs_to_errno:
 2246              	.LFB306:
 2247              		.loc 1 2128 0
 2248              		.cfi_startproc
 2249              		@ args = 0, pretend = 0, frame = 0
 2250              		@ frame_needed = 0, uses_anonymous_args = 0
 2251              		@ link register save eliminated.
 2252              	.LVL232:
 2253 0000 1328     		cmp	r0, #19
 2254 0002 9ABF     		itte	ls
 2255 0004 014B     		ldrls	r3, .L292
 2256 0006 1856     		ldrsbls	r0, [r3, r0]
 2257              	.LVL233:
 2258              		.loc 1 2128 0
 2259 0008 2320     		movhi	r0, #35
 2260              		.loc 1 2193 0
 2261 000a 7047     		bx	lr
 2262              	.L293:
 2263              		.align	2
 2264              	.L292:
 2265 000c 00000000 		.word	.LANCHOR1
 2266              		.cfi_endproc
 2267              	.LFE306:
 2268              		.size	fatfs_to_errno, .-fatfs_to_errno
 2269              		.section	.text.fatfs_to_fileno,"ax",%progbits
 2270              		.align	1
 2271              		.global	fatfs_to_fileno
 2272              		.syntax unified
 2273              		.thumb
 2274              		.thumb_func
 2275              		.fpu fpv4-sp-d16
 2276              		.type	fatfs_to_fileno, %function
 2277              	fatfs_to_fileno:
 2278              	.LFB307:
 2279              		.loc 1 2205 0
 2280              		.cfi_startproc
ARM GAS  C:\cygwin64\tmp\ccxdpAIh.s 			page 41


 2281              		@ args = 0, pretend = 0, frame = 0
 2282              		@ frame_needed = 0, uses_anonymous_args = 0
 2283              		@ link register save eliminated.
 2284              	.LVL234:
 2285              		.loc 1 2210 0
 2286 0000 30B9     		cbnz	r0, .L295
 2287              	.L299:
 2288              		.loc 1 2212 0
 2289 0002 094B     		ldr	r3, .L304
 2290 0004 0922     		movs	r2, #9
 2291 0006 1A60     		str	r2, [r3]
 2292              		.loc 1 2213 0
 2293 0008 4FF0FF33 		mov	r3, #-1
 2294              	.L294:
 2295              		.loc 1 2227 0
 2296 000c 1846     		mov	r0, r3
 2297              	.LVL235:
 2298 000e 7047     		bx	lr
 2299              	.LVL236:
 2300              	.L295:
 2301              		.loc 1 2218 0
 2302 0010 0649     		ldr	r1, .L304+4
 2303 0012 0023     		movs	r3, #0
 2304              	.L298:
 2305              	.LVL237:
 2306 0014 51F82320 		ldr	r2, [r1, r3, lsl #2]
 2307              	.LVL238:
 2308              		.loc 1 2219 0
 2309 0018 12B1     		cbz	r2, .L297
 2310              		.loc 1 2221 0
 2311 001a 9269     		ldr	r2, [r2, #24]
 2312              	.LVL239:
 2313 001c 9042     		cmp	r0, r2
 2314 001e F5D0     		beq	.L294
 2315              	.L297:
 2316              		.loc 1 2216 0 discriminator 2
 2317 0020 0133     		adds	r3, r3, #1
 2318              	.LVL240:
 2319 0022 102B     		cmp	r3, #16
 2320 0024 F6D1     		bne	.L298
 2321 0026 ECE7     		b	.L299
 2322              	.L305:
 2323              		.align	2
 2324              	.L304:
 2325 0028 00000000 		.word	.LANCHOR0
 2326 002c 00000000 		.word	.LANCHOR2
 2327              		.cfi_endproc
 2328              	.LFE307:
 2329              		.size	fatfs_to_fileno, .-fatfs_to_fileno
 2330              		.section	.text.fat_time_to_unix,"ax",%progbits
 2331              		.align	1
 2332              		.global	fat_time_to_unix
 2333              		.syntax unified
 2334              		.thumb
 2335              		.thumb_func
 2336              		.fpu fpv4-sp-d16
 2337              		.type	fat_time_to_unix, %function
ARM GAS  C:\cygwin64\tmp\ccxdpAIh.s 			page 42


 2338              	fat_time_to_unix:
 2339              	.LFB309:
 2340              		.loc 1 2283 0
 2341              		.cfi_startproc
 2342              		@ args = 0, pretend = 0, frame = 48
 2343              		@ frame_needed = 0, uses_anonymous_args = 0
 2344              	.LVL241:
 2345 0000 2DE9F047 		push	{r4, r5, r6, r7, r8, r9, r10, lr}
 2346              		.cfi_def_cfa_offset 32
 2347              		.cfi_offset 4, -32
 2348              		.cfi_offset 5, -28
 2349              		.cfi_offset 6, -24
 2350              		.cfi_offset 7, -20
 2351              		.cfi_offset 8, -16
 2352              		.cfi_offset 9, -12
 2353              		.cfi_offset 10, -8
 2354              		.cfi_offset 14, -4
 2355              	.LBB89:
 2356              	.LBB90:
 2357              		.loc 1 2236 0
 2358 0004 334D     		ldr	r5, .L312
 2359              	.LBE90:
 2360              	.LBE89:
 2361              		.loc 1 2294 0
 2362 0006 460A     		lsrs	r6, r0, #9
 2363              	.LVL242:
 2364              		.loc 1 2289 0
 2365 0008 4FEA410C 		lsl	ip, r1, #1
 2366              		.loc 1 2293 0
 2367 000c C0F34318 		ubfx	r8, r0, #5, #4
 2368 0010 C1F34519 		ubfx	r9, r1, #5, #6
 2369              		.loc 1 2291 0
 2370 0014 CF0A     		lsrs	r7, r1, #11
 2371              		.loc 1 2292 0
 2372 0016 00F01F0E 		and	lr, r0, #31
 2373              	.LBB95:
 2374              	.LBB91:
 2375              		.loc 1 2236 0
 2376 001a 0FCD     		ldmia	r5!, {r0, r1, r2, r3}
 2377              	.LVL243:
 2378              	.LBE91:
 2379              	.LBE95:
 2380              		.loc 1 2283 0
 2381 001c 8CB0     		sub	sp, sp, #48
 2382              		.cfi_def_cfa_offset 80
 2383              	.LBB96:
 2384              	.LBB92:
 2385              		.loc 1 2236 0
 2386 001e 6C46     		mov	r4, sp
 2387 0020 0FC4     		stmia	r4!, {r0, r1, r2, r3}
 2388 0022 0FCD     		ldmia	r5!, {r0, r1, r2, r3}
 2389 0024 0FC4     		stmia	r4!, {r0, r1, r2, r3}
 2390 0026 95E80F00 		ldm	r5, {r0, r1, r2, r3}
 2391 002a 84E80F00 		stm	r4, {r0, r1, r2, r3}
 2392              	.LVL244:
 2393              		.loc 1 2246 0
 2394 002e 06F2BB72 		addw	r2, r6, #1979
ARM GAS  C:\cygwin64\tmp\ccxdpAIh.s 			page 43


 2395              	.LVL245:
 2396              		.loc 1 2248 0
 2397 0032 6FF06303 		mvn	r3, #99
 2398 0036 92FBF3F3 		sdiv	r3, r2, r3
 2399 003a 03EBA203 		add	r3, r3, r2, asr #2
 2400 003e 6FF4EE70 		mvn	r0, #476
 2401 0042 4FF4C874 		mov	r4, #400
 2402 0046 92FBF4F2 		sdiv	r2, r2, r4
 2403              	.LVL246:
 2404 004a 1344     		add	r3, r3, r2
 2405              		.loc 1 2247 0
 2406 004c 224A     		ldr	r2, .L312+4
 2407              		.loc 1 2248 0
 2408 004e 0344     		add	r3, r3, r0
 2409              		.loc 1 2247 0
 2410 0050 06F10A01 		add	r1, r6, #10
 2411              		.loc 1 2248 0
 2412 0054 2148     		ldr	r0, .L312+8
 2413              		.loc 1 2247 0
 2414 0056 4A43     		muls	r2, r1, r2
 2415              		.loc 1 2253 0
 2416 0058 0025     		movs	r5, #0
 2417              		.loc 1 2247 0
 2418 005a 00FB0323 		mla	r3, r0, r3, r2
 2419              	.LVL247:
 2420              	.LBE92:
 2421              	.LBE96:
 2422              		.loc 1 2289 0
 2423 005e 0CF03E0C 		and	ip, ip, #62
 2424              		.loc 1 2293 0
 2425 0062 08F1FF38 		add	r8, r8, #-1
 2426              	.LBB97:
 2427              	.LBB93:
 2428              		.loc 1 2250 0
 2429 0066 06F2BC76 		addw	r6, r6, #1980
 2430              	.LVL248:
 2431              		.loc 1 2251 0
 2432 006a 2A46     		mov	r2, r5
 2433              		.loc 1 2255 0
 2434 006c 4FF0640A 		mov	r10, #100
 2435              	.LVL249:
 2436              	.L307:
 2437              		.loc 1 2253 0
 2438 0070 A845     		cmp	r8, r5
 2439 0072 0FDC     		bgt	.L311
 2440              	.LVL250:
 2441              		.loc 1 2265 0
 2442 0074 3C22     		movs	r2, #60
 2443              		.loc 1 2264 0
 2444 0076 0EF1FF3E 		add	lr, lr, #-1
 2445              		.loc 1 2265 0
 2446 007a 02FB09F9 		mul	r9, r2, r9
 2447 007e 00FB0E90 		mla	r0, r0, lr, r9
 2448 0082 4FF46161 		mov	r1, #3600
 2449 0086 01FB0700 		mla	r0, r1, r7, r0
 2450 008a 6044     		add	r0, r0, ip
 2451              	.LBE93:
ARM GAS  C:\cygwin64\tmp\ccxdpAIh.s 			page 44


 2452              	.LBE97:
 2453              		.loc 1 2297 0
 2454 008c 1844     		add	r0, r0, r3
 2455 008e 0CB0     		add	sp, sp, #48
 2456              		.cfi_remember_state
 2457              		.cfi_def_cfa_offset 32
 2458              		@ sp needed
 2459 0090 BDE8F087 		pop	{r4, r5, r6, r7, r8, r9, r10, pc}
 2460              	.LVL251:
 2461              	.L311:
 2462              		.cfi_restore_state
 2463              	.LBB98:
 2464              	.LBB94:
 2465              		.loc 1 2254 0
 2466 0094 0CA9     		add	r1, sp, #48
 2467 0096 01EB8201 		add	r1, r1, r2, lsl #2
 2468              		.loc 1 2255 0
 2469 009a 012A     		cmp	r2, #1
 2470              		.loc 1 2254 0
 2471 009c 51F8301C 		ldr	r1, [r1, #-48]
 2472 00a0 00FB0133 		mla	r3, r0, r1, r3
 2473              	.LVL252:
 2474              		.loc 1 2255 0
 2475 00a4 0FD1     		bne	.L308
 2476 00a6 B107     		lsls	r1, r6, #30
 2477 00a8 0DD1     		bne	.L308
 2478 00aa 96FBFAF1 		sdiv	r1, r6, r10
 2479 00ae 0AFB1161 		mls	r1, r10, r1, r6
 2480 00b2 21B9     		cbnz	r1, .L309
 2481 00b4 96FBF4F1 		sdiv	r1, r6, r4
 2482 00b8 04FB1161 		mls	r1, r4, r1, r6
 2483 00bc 19B9     		cbnz	r1, .L308
 2484              	.L309:
 2485              		.loc 1 2256 0
 2486 00be 03F5A833 		add	r3, r3, #86016
 2487              	.LVL253:
 2488 00c2 03F5C073 		add	r3, r3, #384
 2489              	.LVL254:
 2490              	.L308:
 2491              		.loc 1 2258 0
 2492 00c6 0132     		adds	r2, r2, #1
 2493              	.LVL255:
 2494 00c8 0B2A     		cmp	r2, #11
 2495              	.LVL256:
 2496              		.loc 1 2260 0
 2497 00ca C4BF     		itt	gt
 2498 00cc 0136     		addgt	r6, r6, #1
 2499              	.LVL257:
 2500              		.loc 1 2259 0
 2501 00ce 0022     		movgt	r2, #0
 2502              	.LVL258:
 2503              		.loc 1 2253 0
 2504 00d0 0135     		adds	r5, r5, #1
 2505              	.LVL259:
 2506 00d2 CDE7     		b	.L307
 2507              	.L313:
 2508              		.align	2
ARM GAS  C:\cygwin64\tmp\ccxdpAIh.s 			page 45


 2509              	.L312:
 2510 00d4 00000000 		.word	.LANCHOR6
 2511 00d8 8033E101 		.word	31536000
 2512 00dc 80510100 		.word	86400
 2513              	.LBE94:
 2514              	.LBE98:
 2515              		.cfi_endproc
 2516              	.LFE309:
 2517              		.size	fat_time_to_unix, .-fat_time_to_unix
 2518              		.section	.text.stat,"ax",%progbits
 2519              		.align	1
 2520              		.global	stat
 2521              		.syntax unified
 2522              		.thumb
 2523              		.thumb_func
 2524              		.fpu fpv4-sp-d16
 2525              		.type	stat, %function
 2526              	stat:
 2527              	.LFB280:
 2528              		.loc 1 1320 0
 2529              		.cfi_startproc
 2530              		@ args = 0, pretend = 0, frame = 288
 2531              		@ frame_needed = 0, uses_anonymous_args = 0
 2532              	.LVL260:
 2533 0000 70B5     		push	{r4, r5, r6, lr}
 2534              		.cfi_def_cfa_offset 16
 2535              		.cfi_offset 4, -16
 2536              		.cfi_offset 5, -12
 2537              		.cfi_offset 6, -8
 2538              		.cfi_offset 14, -4
 2539              		.loc 1 1325 0
 2540 0002 254D     		ldr	r5, .L328
 2541              		.loc 1 1320 0
 2542 0004 C8B0     		sub	sp, sp, #288
 2543              		.cfi_def_cfa_offset 304
 2544              		.loc 1 1320 0
 2545 0006 0C46     		mov	r4, r1
 2546              		.loc 1 1325 0
 2547 0008 0023     		movs	r3, #0
 2548              		.loc 1 1328 0
 2549 000a 2449     		ldr	r1, .L328+4
 2550              	.LVL261:
 2551              		.loc 1 1325 0
 2552 000c 2B60     		str	r3, [r5]
 2553              		.loc 1 1320 0
 2554 000e 0646     		mov	r6, r0
 2555              		.loc 1 1328 0
 2556 0010 FFF7FEFF 		bl	strcmp
 2557              	.LVL262:
 2558 0014 20B1     		cbz	r0, .L315
 2559              		.loc 1 1328 0 is_stmt 0 discriminator 1
 2560 0016 2249     		ldr	r1, .L328+8
 2561 0018 3046     		mov	r0, r6
 2562 001a FFF7FEFF 		bl	strcmp
 2563              	.LVL263:
 2564 001e 58B9     		cbnz	r0, .L316
 2565              	.L315:
ARM GAS  C:\cygwin64\tmp\ccxdpAIh.s 			page 46


 2566              		.loc 1 1330 0 is_stmt 1
 2567 0020 0020     		movs	r0, #0
 2568              		.loc 1 1336 0
 2569 0022 4FF48043 		mov	r3, #16384
 2570              		.loc 1 1330 0
 2571 0026 E061     		str	r0, [r4, #28]
 2572              		.loc 1 1331 0
 2573 0028 2062     		str	r0, [r4, #32]
 2574              		.loc 1 1332 0
 2575 002a 6062     		str	r0, [r4, #36]
 2576              		.loc 1 1333 0
 2577 002c 6081     		strh	r0, [r4, #10]	@ movhi
 2578              		.loc 1 1334 0
 2579 002e A081     		strh	r0, [r4, #12]	@ movhi
 2580              		.loc 1 1335 0
 2581 0030 2061     		str	r0, [r4, #16]
 2582              		.loc 1 1336 0
 2583 0032 6360     		str	r3, [r4, #4]
 2584              	.L314:
 2585              		.loc 1 1375 0
 2586 0034 48B0     		add	sp, sp, #288
 2587              		.cfi_remember_state
 2588              		.cfi_def_cfa_offset 16
 2589              		@ sp needed
 2590 0036 70BD     		pop	{r4, r5, r6, pc}
 2591              	.LVL264:
 2592              	.L316:
 2593              		.cfi_restore_state
 2594              		.loc 1 1340 0
 2595 0038 6946     		mov	r1, sp
 2596 003a 3046     		mov	r0, r6
 2597 003c FFF7FEFF 		bl	f_stat
 2598              	.LVL265:
 2599              		.loc 1 1341 0
 2600 0040 40B1     		cbz	r0, .L318
 2601              	.LVL266:
 2602 0042 1328     		cmp	r0, #19
 2603 0044 96BF     		itet	ls
 2604 0046 174B     		ldrls	r3, .L328+12
 2605 0048 2323     		movhi	r3, #35
 2606              	.LVL267:
 2607 004a 1B56     		ldrsbls	r3, [r3, r0]
 2608              		.loc 1 1343 0
 2609 004c 2B60     		str	r3, [r5]
 2610              		.loc 1 1344 0
 2611 004e 4FF0FF30 		mov	r0, #-1
 2612              	.LVL268:
 2613 0052 EFE7     		b	.L314
 2614              	.LVL269:
 2615              	.L318:
 2616              		.loc 1 1347 0
 2617 0054 009B     		ldr	r3, [sp]
 2618 0056 2361     		str	r3, [r4, #16]
 2619              		.loc 1 1348 0
 2620 0058 BDF80A10 		ldrh	r1, [sp, #10]
 2621 005c BDF80800 		ldrh	r0, [sp, #8]
 2622              	.LVL270:
ARM GAS  C:\cygwin64\tmp\ccxdpAIh.s 			page 47


 2623 0060 FFF7FEFF 		bl	fat_time_to_unix
 2624              	.LVL271:
 2625              		.loc 1 1355 0
 2626 0064 9DF80C20 		ldrb	r2, [sp, #12]	@ zero_extendqisi2
 2627              		.loc 1 1349 0
 2628 0068 E061     		str	r0, [r4, #28]
 2629              		.loc 1 1356 0
 2630 006a 12F0010F 		tst	r2, #1
 2631 006e 40F2FF11 		movw	r1, #511
 2632 0072 40F26D13 		movw	r3, #365
 2633 0076 08BF     		it	eq
 2634 0078 0B46     		moveq	r3, r1
 2635              		.loc 1 1368 0
 2636 007a D206     		lsls	r2, r2, #27
 2637              		.loc 1 1364 0
 2638 007c 4FF47A71 		mov	r1, #1000
 2639              		.loc 1 1369 0
 2640 0080 4CBF     		ite	mi
 2641 0082 43F48043 		orrmi	r3, r3, #16384
 2642              		.loc 1 1371 0
 2643 0086 43F40043 		orrpl	r3, r3, #32768
 2644              		.loc 1 1350 0
 2645 008a 2062     		str	r0, [r4, #32]
 2646              		.loc 1 1351 0
 2647 008c 6062     		str	r0, [r4, #36]
 2648              	.LVL272:
 2649              		.loc 1 1364 0
 2650 008e 6181     		strh	r1, [r4, #10]	@ movhi
 2651              		.loc 1 1365 0
 2652 0090 A181     		strh	r1, [r4, #12]	@ movhi
 2653              		.loc 1 1372 0
 2654 0092 6360     		str	r3, [r4, #4]
 2655              		.loc 1 1374 0
 2656 0094 0020     		movs	r0, #0
 2657              	.LVL273:
 2658 0096 CDE7     		b	.L314
 2659              	.L329:
 2660              		.align	2
 2661              	.L328:
 2662 0098 00000000 		.word	.LANCHOR0
 2663 009c 00000000 		.word	.LC1
 2664 00a0 00000000 		.word	.LC4
 2665 00a4 00000000 		.word	.LANCHOR1
 2666              		.cfi_endproc
 2667              	.LFE280:
 2668              		.size	stat, .-stat
 2669              		.section	.text.unix_time_to_fat,"ax",%progbits
 2670              		.align	1
 2671              		.global	unix_time_to_fat
 2672              		.syntax unified
 2673              		.thumb
 2674              		.thumb_func
 2675              		.fpu fpv4-sp-d16
 2676              		.type	unix_time_to_fat, %function
 2677              	unix_time_to_fat:
 2678              	.LFB310:
 2679              		.loc 1 2308 0
ARM GAS  C:\cygwin64\tmp\ccxdpAIh.s 			page 48


 2680              		.cfi_startproc
 2681              		@ args = 0, pretend = 0, frame = 8
 2682              		@ frame_needed = 0, uses_anonymous_args = 0
 2683              	.LVL274:
 2684 0000 73B5     		push	{r0, r1, r4, r5, r6, lr}
 2685              		.cfi_def_cfa_offset 24
 2686              		.cfi_offset 4, -16
 2687              		.cfi_offset 5, -12
 2688              		.cfi_offset 6, -8
 2689              		.cfi_offset 14, -4
 2690              		.loc 1 2308 0
 2691 0002 02AB     		add	r3, sp, #8
 2692 0004 0E46     		mov	r6, r1
 2693 0006 43F8040D 		str	r0, [r3, #-4]!
 2694              		.loc 1 2309 0
 2695 000a 1846     		mov	r0, r3
 2696              	.LVL275:
 2697              		.loc 1 2308 0
 2698 000c 1546     		mov	r5, r2
 2699              		.loc 1 2309 0
 2700 000e FFF7FEFF 		bl	gmtime
 2701              	.LVL276:
 2702              		.loc 1 2313 0
 2703 0012 038A     		ldrh	r3, [r0, #16]
 2704              		.loc 1 2312 0
 2705 0014 4469     		ldr	r4, [r0, #20]
 2706              		.loc 1 2317 0
 2707 0016 4168     		ldr	r1, [r0, #4]
 2708              		.loc 1 2313 0
 2709 0018 5A1C     		adds	r2, r3, #1
 2710              		.loc 1 2314 0
 2711 001a C368     		ldr	r3, [r0, #12]
 2712              		.loc 1 2312 0
 2713 001c 503C     		subs	r4, r4, #80
 2714              		.loc 1 2314 0
 2715 001e 43EA4213 		orr	r3, r3, r2, lsl #5
 2716              		.loc 1 2312 0
 2717 0022 A4B2     		uxth	r4, r4
 2718              		.loc 1 2314 0
 2719 0024 43EA4423 		orr	r3, r3, r4, lsl #9
 2720              		.loc 1 2316 0
 2721 0028 8268     		ldr	r2, [r0, #8]
 2722              		.loc 1 2312 0
 2723 002a 3380     		strh	r3, [r6]	@ movhi
 2724              		.loc 1 2316 0
 2725 002c 064B     		ldr	r3, .L331
 2726 002e 03EAC223 		and	r3, r3, r2, lsl #11
 2727              		.loc 1 2317 0
 2728 0032 064A     		ldr	r2, .L331+4
 2729 0034 02EA4112 		and	r2, r2, r1, lsl #5
 2730 0038 1343     		orrs	r3, r3, r2
 2731              		.loc 1 2318 0
 2732 003a 0288     		ldrh	r2, [r0]
 2733 003c 43EA5203 		orr	r3, r3, r2, lsr #1
 2734              		.loc 1 2316 0
 2735 0040 2B80     		strh	r3, [r5]	@ movhi
 2736              		.loc 1 2319 0
ARM GAS  C:\cygwin64\tmp\ccxdpAIh.s 			page 49


 2737 0042 02B0     		add	sp, sp, #8
 2738              		.cfi_def_cfa_offset 16
 2739              		@ sp needed
 2740 0044 70BD     		pop	{r4, r5, r6, pc}
 2741              	.LVL277:
 2742              	.L332:
 2743 0046 00BF     		.align	2
 2744              	.L331:
 2745 0048 00F8FF07 		.word	134215680
 2746 004c E0FF1F00 		.word	2097120
 2747              		.cfi_endproc
 2748              	.LFE310:
 2749              		.size	unix_time_to_fat, .-unix_time_to_fat
 2750              		.section	.text.utime,"ax",%progbits
 2751              		.align	1
 2752              		.global	utime
 2753              		.syntax unified
 2754              		.thumb
 2755              		.thumb_func
 2756              		.fpu fpv4-sp-d16
 2757              		.type	utime, %function
 2758              	utime:
 2759              	.LFB281:
 2760              		.loc 1 1383 0
 2761              		.cfi_startproc
 2762              		@ args = 0, pretend = 0, frame = 296
 2763              		@ frame_needed = 0, uses_anonymous_args = 0
 2764              	.LVL278:
 2765 0000 10B5     		push	{r4, lr}
 2766              		.cfi_def_cfa_offset 8
 2767              		.cfi_offset 4, -8
 2768              		.cfi_offset 14, -4
 2769 0002 0446     		mov	r4, r0
 2770 0004 CAB0     		sub	sp, sp, #296
 2771              		.cfi_def_cfa_offset 304
 2772              		.loc 1 1390 0
 2773 0006 C1B1     		cbz	r1, .L336
 2774              		.loc 1 1391 0
 2775 0008 4868     		ldr	r0, [r1, #4]
 2776              	.LVL279:
 2777              	.L334:
 2778              		.loc 1 1394 0
 2779 000a 0DF10602 		add	r2, sp, #6
 2780 000e 01A9     		add	r1, sp, #4
 2781              	.LVL280:
 2782 0010 FFF7FEFF 		bl	unix_time_to_fat
 2783              	.LVL281:
 2784              		.loc 1 1397 0
 2785 0014 BDF80430 		ldrh	r3, [sp, #4]
 2786 0018 ADF81030 		strh	r3, [sp, #16]	@ movhi
 2787              		.loc 1 1400 0
 2788 001c 02A9     		add	r1, sp, #8
 2789              		.loc 1 1398 0
 2790 001e BDF80630 		ldrh	r3, [sp, #6]
 2791 0022 ADF81230 		strh	r3, [sp, #18]	@ movhi
 2792              		.loc 1 1400 0
 2793 0026 2046     		mov	r0, r4
ARM GAS  C:\cygwin64\tmp\ccxdpAIh.s 			page 50


 2794 0028 FFF7FEFF 		bl	f_utime
 2795              	.LVL282:
 2796 002c 1328     		cmp	r0, #19
 2797 002e 9ABF     		itte	ls
 2798 0030 034B     		ldrls	r3, .L338
 2799 0032 1856     		ldrsbls	r0, [r3, r0]
 2800              	.LVL283:
 2801 0034 2320     		movhi	r0, #35
 2802              		.loc 1 1403 0
 2803 0036 4AB0     		add	sp, sp, #296
 2804              		.cfi_remember_state
 2805              		.cfi_def_cfa_offset 8
 2806              		@ sp needed
 2807 0038 10BD     		pop	{r4, pc}
 2808              	.LVL284:
 2809              	.L336:
 2810              		.cfi_restore_state
 2811              		.loc 1 1387 0
 2812 003a 0846     		mov	r0, r1
 2813              	.LVL285:
 2814 003c E5E7     		b	.L334
 2815              	.L339:
 2816 003e 00BF     		.align	2
 2817              	.L338:
 2818 0040 00000000 		.word	.LANCHOR1
 2819              		.cfi_endproc
 2820              	.LFE281:
 2821              		.size	utime, .-utime
 2822              		.section	.text.fileno_to_fatfs,"ax",%progbits
 2823              		.align	1
 2824              		.global	fileno_to_fatfs
 2825              		.syntax unified
 2826              		.thumb
 2827              		.thumb_func
 2828              		.fpu fpv4-sp-d16
 2829              		.type	fileno_to_fatfs, %function
 2830              	fileno_to_fatfs:
 2831              	.LFB311:
 2832              		.loc 1 2332 0
 2833              		.cfi_startproc
 2834              		@ args = 0, pretend = 0, frame = 0
 2835              		@ frame_needed = 0, uses_anonymous_args = 0
 2836              	.LVL286:
 2837              	.LBB99:
 2838              	.LBB100:
 2839              		.loc 1 188 0
 2840 0000 0228     		cmp	r0, #2
 2841              	.LBE100:
 2842              	.LBE99:
 2843              		.loc 1 2332 0
 2844 0002 08B5     		push	{r3, lr}
 2845              		.cfi_def_cfa_offset 8
 2846              		.cfi_offset 3, -8
 2847              		.cfi_offset 14, -4
 2848              	.LBB102:
 2849              	.LBB101:
 2850              		.loc 1 188 0
ARM GAS  C:\cygwin64\tmp\ccxdpAIh.s 			page 51


 2851 0004 0AD9     		bls	.L341
 2852              	.LVL287:
 2853              	.LBE101:
 2854              	.LBE102:
 2855              		.loc 1 2343 0
 2856 0006 FFF7FEFF 		bl	fileno_to_stream
 2857              	.LVL288:
 2858              		.loc 1 2344 0
 2859 000a 00B9     		cbnz	r0, .L347
 2860              	.LVL289:
 2861              	.L340:
 2862              		.loc 1 2354 0
 2863 000c 08BD     		pop	{r3, pc}
 2864              	.LVL290:
 2865              	.L347:
 2866              		.loc 1 2347 0
 2867 000e 8069     		ldr	r0, [r0, #24]
 2868              	.LVL291:
 2869              		.loc 1 2348 0
 2870 0010 0028     		cmp	r0, #0
 2871 0012 FBD1     		bne	.L340
 2872              		.loc 1 2350 0
 2873 0014 044B     		ldr	r3, .L348
 2874 0016 0922     		movs	r2, #9
 2875 0018 1A60     		str	r2, [r3]
 2876              		.loc 1 2351 0
 2877 001a 08BD     		pop	{r3, pc}
 2878              	.LVL292:
 2879              	.L341:
 2880              		.loc 1 2338 0
 2881 001c 024B     		ldr	r3, .L348
 2882 001e 0922     		movs	r2, #9
 2883 0020 1A60     		str	r2, [r3]
 2884              		.loc 1 2339 0
 2885 0022 0020     		movs	r0, #0
 2886              	.LVL293:
 2887 0024 08BD     		pop	{r3, pc}
 2888              	.L349:
 2889 0026 00BF     		.align	2
 2890              	.L348:
 2891 0028 00000000 		.word	.LANCHOR0
 2892              		.cfi_endproc
 2893              	.LFE311:
 2894              		.size	fileno_to_fatfs, .-fileno_to_fatfs
 2895              		.section	.text.ftell,"ax",%progbits
 2896              		.align	1
 2897              		.global	ftell
 2898              		.syntax unified
 2899              		.thumb
 2900              		.thumb_func
 2901              		.fpu fpv4-sp-d16
 2902              		.type	ftell, %function
 2903              	ftell:
 2904              	.LFB262:
 2905              		.loc 1 581 0
 2906              		.cfi_startproc
 2907              		@ args = 0, pretend = 0, frame = 0
ARM GAS  C:\cygwin64\tmp\ccxdpAIh.s 			page 52


 2908              		@ frame_needed = 0, uses_anonymous_args = 0
 2909              	.LVL294:
 2910 0000 10B5     		push	{r4, lr}
 2911              		.cfi_def_cfa_offset 8
 2912              		.cfi_offset 4, -8
 2913              		.cfi_offset 14, -4
 2914              		.loc 1 582 0
 2915 0002 084C     		ldr	r4, .L358
 2916 0004 0023     		movs	r3, #0
 2917 0006 2360     		str	r3, [r4]
 2918              		.loc 1 584 0
 2919 0008 FFF7FEFF 		bl	fileno
 2920              	.LVL295:
 2921              	.LBB103:
 2922              	.LBB104:
 2923              		.loc 1 188 0
 2924 000c 0228     		cmp	r0, #2
 2925 000e 04D9     		bls	.L355
 2926              	.LVL296:
 2927              	.LBE104:
 2928              	.LBE103:
 2929              		.loc 1 588 0
 2930 0010 FFF7FEFF 		bl	fileno_to_fatfs
 2931              	.LVL297:
 2932              		.loc 1 589 0
 2933 0014 20B9     		cbnz	r0, .L357
 2934              		.loc 1 591 0
 2935 0016 0923     		movs	r3, #9
 2936 0018 2360     		str	r3, [r4]
 2937              	.LVL298:
 2938              	.L355:
 2939              		.loc 1 586 0
 2940 001a 4FF0FF30 		mov	r0, #-1
 2941 001e 10BD     		pop	{r4, pc}
 2942              	.LVL299:
 2943              	.L357:
 2944              		.loc 1 595 0
 2945 0020 006B     		ldr	r0, [r0, #48]
 2946              	.LVL300:
 2947 0022 10BD     		pop	{r4, pc}
 2948              	.L359:
 2949              		.align	2
 2950              	.L358:
 2951 0024 00000000 		.word	.LANCHOR0
 2952              		.cfi_endproc
 2953              	.LFE262:
 2954              		.size	ftell, .-ftell
 2955              		.section	.text.fgetpos,"ax",%progbits
 2956              		.align	1
 2957              		.global	fgetpos
 2958              		.syntax unified
 2959              		.thumb
 2960              		.thumb_func
 2961              		.fpu fpv4-sp-d16
 2962              		.type	fgetpos, %function
 2963              	fgetpos:
 2964              	.LFB259:
ARM GAS  C:\cygwin64\tmp\ccxdpAIh.s 			page 53


 2965              		.loc 1 518 0
 2966              		.cfi_startproc
 2967              		@ args = 0, pretend = 0, frame = 0
 2968              		@ frame_needed = 0, uses_anonymous_args = 0
 2969              	.LVL301:
 2970 0000 10B5     		push	{r4, lr}
 2971              		.cfi_def_cfa_offset 8
 2972              		.cfi_offset 4, -8
 2973              		.cfi_offset 14, -4
 2974              		.loc 1 518 0
 2975 0002 0C46     		mov	r4, r1
 2976              		.loc 1 519 0
 2977 0004 FFF7FEFF 		bl	ftell
 2978              	.LVL302:
 2979              		.loc 1 520 0
 2980 0008 2060     		str	r0, [r4]
 2981              		.loc 1 524 0
 2982 000a 0130     		adds	r0, r0, #1
 2983              	.LVL303:
 2984 000c 4FF0FF30 		mov	r0, #-1
 2985 0010 18BF     		it	ne
 2986 0012 0020     		movne	r0, #0
 2987 0014 10BD     		pop	{r4, pc}
 2988              		.cfi_endproc
 2989              	.LFE259:
 2990              		.size	fgetpos, .-fgetpos
 2991              		.section	.text.lseek,"ax",%progbits
 2992              		.align	1
 2993              		.global	lseek
 2994              		.syntax unified
 2995              		.thumb
 2996              		.thumb_func
 2997              		.fpu fpv4-sp-d16
 2998              		.type	lseek, %function
 2999              	lseek:
 3000              	.LFB263:
 3001              		.loc 1 613 0
 3002              		.cfi_startproc
 3003              		@ args = 0, pretend = 0, frame = 0
 3004              		@ frame_needed = 0, uses_anonymous_args = 0
 3005              	.LVL304:
 3006 0000 2DE9F041 		push	{r4, r5, r6, r7, r8, lr}
 3007              		.cfi_def_cfa_offset 24
 3008              		.cfi_offset 4, -24
 3009              		.cfi_offset 5, -20
 3010              		.cfi_offset 6, -16
 3011              		.cfi_offset 7, -12
 3012              		.cfi_offset 8, -8
 3013              		.cfi_offset 14, -4
 3014              		.loc 1 616 0
 3015 0004 184D     		ldr	r5, .L375
 3016 0006 0023     		movs	r3, #0
 3017              		.loc 1 613 0
 3018 0008 8046     		mov	r8, r0
 3019 000a 1646     		mov	r6, r2
 3020              		.loc 1 616 0
 3021 000c 2B60     		str	r3, [r5]
ARM GAS  C:\cygwin64\tmp\ccxdpAIh.s 			page 54


 3022              		.loc 1 621 0
 3023 000e FFF7FEFF 		bl	fileno_to_fatfs
 3024              	.LVL305:
 3025 0012 2F46     		mov	r7, r5
 3026              		.loc 1 622 0
 3027 0014 0446     		mov	r4, r0
 3028 0016 28B9     		cbnz	r0, .L362
 3029              		.loc 1 624 0
 3030 0018 1823     		movs	r3, #24
 3031 001a 2B60     		str	r3, [r5]
 3032              	.LVL306:
 3033              	.L370:
 3034              		.loc 1 628 0
 3035 001c 4FF0FF30 		mov	r0, #-1
 3036 0020 BDE8F081 		pop	{r4, r5, r6, r7, r8, pc}
 3037              	.LVL307:
 3038              	.L362:
 3039              	.LBB105:
 3040              	.LBB106:
 3041              		.loc 1 188 0
 3042 0024 B8F1020F 		cmp	r8, #2
 3043 0028 F8D9     		bls	.L370
 3044              	.LVL308:
 3045              	.LBE106:
 3046              	.LBE105:
 3047              		.loc 1 631 0
 3048 002a 4046     		mov	r0, r8
 3049              	.LVL309:
 3050 002c FFF7FEFF 		bl	fileno_to_stream
 3051              	.LVL310:
 3052              		.loc 1 632 0
 3053 0030 4379     		ldrb	r3, [r0, #5]	@ zero_extendqisi2
 3054              		.loc 1 634 0
 3055 0032 022E     		cmp	r6, #2
 3056              		.loc 1 632 0
 3057 0034 43F04003 		orr	r3, r3, #64
 3058 0038 4371     		strb	r3, [r0, #5]
 3059              		.loc 1 634 0
 3060 003a 0ED1     		bne	.L373
 3061              		.loc 1 635 0
 3062 003c 2369     		ldr	r3, [r4, #16]
 3063              	.L374:
 3064              		.loc 1 637 0
 3065 003e 1944     		add	r1, r1, r3
 3066              	.LVL311:
 3067              	.L365:
 3068              		.loc 1 639 0
 3069 0040 0A46     		mov	r2, r1
 3070 0042 CB17     		asrs	r3, r1, #31
 3071 0044 2046     		mov	r0, r4
 3072              	.LVL312:
 3073 0046 FFF7FEFF 		bl	f_lseek
 3074              	.LVL313:
 3075              		.loc 1 640 0
 3076 004a 50B1     		cbz	r0, .L366
 3077              	.LVL314:
 3078 004c 1328     		cmp	r0, #19
ARM GAS  C:\cygwin64\tmp\ccxdpAIh.s 			page 55


 3079 004e 96BF     		itet	ls
 3080 0050 064B     		ldrls	r3, .L375+4
 3081 0052 2323     		movhi	r3, #35
 3082              	.LVL315:
 3083 0054 1B56     		ldrsbls	r3, [r3, r0]
 3084              		.loc 1 642 0
 3085 0056 3B60     		str	r3, [r7]
 3086 0058 E0E7     		b	.L370
 3087              	.LVL316:
 3088              	.L373:
 3089              		.loc 1 636 0
 3090 005a 012E     		cmp	r6, #1
 3091 005c F0D1     		bne	.L365
 3092              		.loc 1 637 0
 3093 005e 236B     		ldr	r3, [r4, #48]
 3094 0060 EDE7     		b	.L374
 3095              	.LVL317:
 3096              	.L366:
 3097              		.loc 1 645 0
 3098 0062 206B     		ldr	r0, [r4, #48]
 3099              	.LVL318:
 3100 0064 BDE8F081 		pop	{r4, r5, r6, r7, r8, pc}
 3101              	.LVL319:
 3102              	.L376:
 3103              		.align	2
 3104              	.L375:
 3105 0068 00000000 		.word	.LANCHOR0
 3106 006c 00000000 		.word	.LANCHOR1
 3107              		.cfi_endproc
 3108              	.LFE263:
 3109              		.size	lseek, .-lseek
 3110              		.section	.text.fseek,"ax",%progbits
 3111              		.align	1
 3112              		.global	fseek
 3113              		.syntax unified
 3114              		.thumb
 3115              		.thumb_func
 3116              		.fpu fpv4-sp-d16
 3117              		.type	fseek, %function
 3118              	fseek:
 3119              	.LFB260:
 3120              		.loc 1 541 0
 3121              		.cfi_startproc
 3122              		@ args = 0, pretend = 0, frame = 0
 3123              		@ frame_needed = 0, uses_anonymous_args = 0
 3124              	.LVL320:
 3125 0000 38B5     		push	{r3, r4, r5, lr}
 3126              		.cfi_def_cfa_offset 16
 3127              		.cfi_offset 3, -16
 3128              		.cfi_offset 4, -12
 3129              		.cfi_offset 5, -8
 3130              		.cfi_offset 14, -4
 3131              		.loc 1 541 0
 3132 0002 0C46     		mov	r4, r1
 3133 0004 1546     		mov	r5, r2
 3134              		.loc 1 544 0
 3135 0006 FFF7FEFF 		bl	fileno
ARM GAS  C:\cygwin64\tmp\ccxdpAIh.s 			page 56


 3136              	.LVL321:
 3137              		.loc 1 545 0
 3138 000a 0028     		cmp	r0, #0
 3139 000c 09DB     		blt	.L379
 3140              		.loc 1 548 0
 3141 000e 2A46     		mov	r2, r5
 3142 0010 2146     		mov	r1, r4
 3143 0012 FFF7FEFF 		bl	lseek
 3144              	.LVL322:
 3145              		.loc 1 550 0
 3146 0016 0130     		adds	r0, r0, #1
 3147              	.LVL323:
 3148 0018 4FF0FF30 		mov	r0, #-1
 3149              	.LVL324:
 3150 001c 18BF     		it	ne
 3151 001e 0020     		movne	r0, #0
 3152 0020 38BD     		pop	{r3, r4, r5, pc}
 3153              	.LVL325:
 3154              	.L379:
 3155              		.loc 1 546 0
 3156 0022 4FF0FF30 		mov	r0, #-1
 3157              	.LVL326:
 3158              		.loc 1 554 0
 3159 0026 38BD     		pop	{r3, r4, r5, pc}
 3160              		.cfi_endproc
 3161              	.LFE260:
 3162              		.size	fseek, .-fseek
 3163              		.section	.text.fsetpos,"ax",%progbits
 3164              		.align	1
 3165              		.global	fsetpos
 3166              		.syntax unified
 3167              		.thumb
 3168              		.thumb_func
 3169              		.fpu fpv4-sp-d16
 3170              		.type	fsetpos, %function
 3171              	fsetpos:
 3172              	.LFB261:
 3173              		.loc 1 567 0
 3174              		.cfi_startproc
 3175              		@ args = 0, pretend = 0, frame = 0
 3176              		@ frame_needed = 0, uses_anonymous_args = 0
 3177              		@ link register save eliminated.
 3178              	.LVL327:
 3179              		.loc 1 568 0
 3180 0000 0022     		movs	r2, #0
 3181 0002 0968     		ldr	r1, [r1]
 3182              	.LVL328:
 3183 0004 FFF7FEBF 		b	fseek
 3184              	.LVL329:
 3185              		.cfi_endproc
 3186              	.LFE261:
 3187              		.size	fsetpos, .-fsetpos
 3188              		.section	.text.rewind,"ax",%progbits
 3189              		.align	1
 3190              		.global	rewind
 3191              		.syntax unified
 3192              		.thumb
ARM GAS  C:\cygwin64\tmp\ccxdpAIh.s 			page 57


 3193              		.thumb_func
 3194              		.fpu fpv4-sp-d16
 3195              		.type	rewind, %function
 3196              	rewind:
 3197              	.LFB264:
 3198              		.loc 1 657 0
 3199              		.cfi_startproc
 3200              		@ args = 0, pretend = 0, frame = 0
 3201              		@ frame_needed = 0, uses_anonymous_args = 0
 3202              		@ link register save eliminated.
 3203              	.LVL330:
 3204              		.loc 1 658 0
 3205 0000 0022     		movs	r2, #0
 3206 0002 1146     		mov	r1, r2
 3207 0004 FFF7FEBF 		b	fseek
 3208              	.LVL331:
 3209              		.cfi_endproc
 3210              	.LFE264:
 3211              		.size	rewind, .-rewind
 3212              		.section	.text.ftruncate,"ax",%progbits
 3213              		.align	1
 3214              		.global	ftruncate
 3215              		.syntax unified
 3216              		.thumb
 3217              		.thumb_func
 3218              		.fpu fpv4-sp-d16
 3219              		.type	ftruncate, %function
 3220              	ftruncate:
 3221              	.LFB270:
 3222              		.loc 1 818 0
 3223              		.cfi_startproc
 3224              		@ args = 0, pretend = 0, frame = 0
 3225              		@ frame_needed = 0, uses_anonymous_args = 0
 3226              	.LVL332:
 3227 0000 38B5     		push	{r3, r4, r5, lr}
 3228              		.cfi_def_cfa_offset 16
 3229              		.cfi_offset 3, -16
 3230              		.cfi_offset 4, -12
 3231              		.cfi_offset 5, -8
 3232              		.cfi_offset 14, -4
 3233              		.loc 1 819 0
 3234 0002 0F4C     		ldr	r4, .L401
 3235 0004 0023     		movs	r3, #0
 3236              	.LBB107:
 3237              	.LBB108:
 3238              		.loc 1 188 0
 3239 0006 0228     		cmp	r0, #2
 3240              	.LBE108:
 3241              	.LBE107:
 3242              		.loc 1 819 0
 3243 0008 2360     		str	r3, [r4]
 3244              	.LVL333:
 3245              	.LBB110:
 3246              	.LBB109:
 3247              		.loc 1 188 0
 3248 000a 07D8     		bhi	.L383
 3249              	.LVL334:
ARM GAS  C:\cygwin64\tmp\ccxdpAIh.s 			page 58


 3250              	.L397:
 3251              	.LBE109:
 3252              	.LBE110:
 3253              		.loc 1 841 0
 3254 000c 4FF0FF30 		mov	r0, #-1
 3255 0010 38BD     		pop	{r3, r4, r5, pc}
 3256              	.LVL335:
 3257              	.L385:
 3258              		.loc 1 837 0
 3259 0012 2846     		mov	r0, r5
 3260              	.LVL336:
 3261 0014 FFF7FEFF 		bl	f_truncate
 3262              	.LVL337:
 3263              		.loc 1 838 0
 3264 0018 58B9     		cbnz	r0, .L400
 3265              		.loc 1 844 0
 3266 001a 38BD     		pop	{r3, r4, r5, pc}
 3267              	.LVL338:
 3268              	.L383:
 3269              		.loc 1 826 0
 3270 001c FFF7FEFF 		bl	fileno_to_fatfs
 3271              	.LVL339:
 3272              		.loc 1 827 0
 3273 0020 0546     		mov	r5, r0
 3274 0022 0028     		cmp	r0, #0
 3275 0024 F2D0     		beq	.L397
 3276              		.loc 1 831 0
 3277 0026 0A46     		mov	r2, r1
 3278 0028 CB17     		asrs	r3, r1, #31
 3279 002a FFF7FEFF 		bl	f_lseek
 3280              	.LVL340:
 3281              		.loc 1 832 0
 3282 002e 0028     		cmp	r0, #0
 3283 0030 EFD0     		beq	.L385
 3284              	.L400:
 3285              	.LVL341:
 3286 0032 1328     		cmp	r0, #19
 3287 0034 96BF     		itet	ls
 3288 0036 034B     		ldrls	r3, .L401+4
 3289              		.loc 1 838 0
 3290 0038 2323     		movhi	r3, #35
 3291              	.LVL342:
 3292 003a 1B56     		ldrsbls	r3, [r3, r0]
 3293              		.loc 1 840 0
 3294 003c 2360     		str	r3, [r4]
 3295 003e E5E7     		b	.L397
 3296              	.L402:
 3297              		.align	2
 3298              	.L401:
 3299 0040 00000000 		.word	.LANCHOR0
 3300 0044 00000000 		.word	.LANCHOR1
 3301              		.cfi_endproc
 3302              	.LFE270:
 3303              		.size	ftruncate, .-ftruncate
 3304              		.section	.text.read,"ax",%progbits
 3305              		.align	1
 3306              		.global	read
ARM GAS  C:\cygwin64\tmp\ccxdpAIh.s 			page 59


 3307              		.syntax unified
 3308              		.thumb
 3309              		.thumb_func
 3310              		.fpu fpv4-sp-d16
 3311              		.type	read, %function
 3312              	read:
 3313              	.LFB273:
 3314              		.loc 1 996 0
 3315              		.cfi_startproc
 3316              		@ args = 0, pretend = 0, frame = 8
 3317              		@ frame_needed = 0, uses_anonymous_args = 0
 3318              	.LVL343:
 3319 0000 2DE9F743 		push	{r0, r1, r2, r4, r5, r6, r7, r8, r9, lr}
 3320              		.cfi_def_cfa_offset 40
 3321              		.cfi_offset 4, -28
 3322              		.cfi_offset 5, -24
 3323              		.cfi_offset 6, -20
 3324              		.cfi_offset 7, -16
 3325              		.cfi_offset 8, -12
 3326              		.cfi_offset 9, -8
 3327              		.cfi_offset 14, -4
 3328              		.loc 1 1005 0
 3329 0004 0027     		movs	r7, #0
 3330              		.loc 1 1007 0
 3331 0006 204C     		ldr	r4, .L416
 3332              		.loc 1 1005 0
 3333 0008 0F70     		strb	r7, [r1]
 3334              		.loc 1 996 0
 3335 000a 1646     		mov	r6, r2
 3336 000c 8146     		mov	r9, r0
 3337              	.LVL344:
 3338              		.loc 1 1007 0
 3339 000e 2760     		str	r7, [r4]
 3340              		.loc 1 1011 0
 3341 0010 FFF7FEFF 		bl	fileno_to_stream
 3342              	.LVL345:
 3343              		.loc 1 1012 0
 3344 0014 1D4B     		ldr	r3, .L416+4
 3345 0016 1A68     		ldr	r2, [r3]
 3346 0018 9042     		cmp	r0, r2
 3347              		.loc 1 1011 0
 3348 001a 0546     		mov	r5, r0
 3349              	.LVL346:
 3350              		.loc 1 1012 0
 3351 001c 17D1     		bne	.L404
 3352              	.LVL347:
 3353              	.LBB111:
 3354              		.loc 1 1016 0
 3355 001e 4379     		ldrb	r3, [r0, #5]	@ zero_extendqisi2
 3356              		.loc 1 1017 0
 3357 0020 0197     		str	r7, [sp, #4]
 3358              		.loc 1 1016 0
 3359 0022 43F04003 		orr	r3, r3, #64
 3360 0026 4371     		strb	r3, [r0, #5]
 3361 0028 0E44     		add	r6, r6, r1
 3362              	.LVL348:
 3363              		.loc 1 1018 0
ARM GAS  C:\cygwin64\tmp\ccxdpAIh.s 			page 60


 3364 002a 0C46     		mov	r4, r1
 3365              	.LVL349:
 3366              	.L405:
 3367 002c B442     		cmp	r4, r6
 3368 002e 04D0     		beq	.L411
 3369              		.loc 1 1020 0
 3370 0030 2846     		mov	r0, r5
 3371 0032 FFF7FEFF 		bl	fgetc
 3372              	.LVL350:
 3373              		.loc 1 1021 0
 3374 0036 0028     		cmp	r0, #0
 3375 0038 03DA     		bge	.L406
 3376              	.LVL351:
 3377              	.L411:
 3378              	.LBE111:
 3379              		.loc 1 1048 0
 3380 003a 0198     		ldr	r0, [sp, #4]
 3381              	.L403:
 3382              		.loc 1 1049 0
 3383 003c 03B0     		add	sp, sp, #12
 3384              		.cfi_remember_state
 3385              		.cfi_def_cfa_offset 28
 3386              		@ sp needed
 3387 003e BDE8F083 		pop	{r4, r5, r6, r7, r8, r9, pc}
 3388              	.LVL352:
 3389              	.L406:
 3390              		.cfi_restore_state
 3391              	.LBB112:
 3392              		.loc 1 1025 0
 3393 0042 019B     		ldr	r3, [sp, #4]
 3394              		.loc 1 1024 0
 3395 0044 04F8010B 		strb	r0, [r4], #1
 3396              	.LVL353:
 3397              		.loc 1 1025 0
 3398 0048 0133     		adds	r3, r3, #1
 3399 004a 0193     		str	r3, [sp, #4]
 3400 004c EEE7     		b	.L405
 3401              	.LVL354:
 3402              	.L404:
 3403              	.LBE112:
 3404              		.loc 1 1029 0
 3405 004e 5A68     		ldr	r2, [r3, #4]
 3406 0050 9042     		cmp	r0, r2
 3407 0052 08D0     		beq	.L414
 3408              		.loc 1 1029 0 is_stmt 0 discriminator 1
 3409 0054 9B68     		ldr	r3, [r3, #8]
 3410 0056 9842     		cmp	r0, r3
 3411 0058 05D0     		beq	.L414
 3412              		.loc 1 1035 0 is_stmt 1
 3413 005a 4846     		mov	r0, r9
 3414              	.LVL355:
 3415 005c FFF7FEFF 		bl	fileno_to_fatfs
 3416              	.LVL356:
 3417              		.loc 1 1036 0
 3418 0060 20B9     		cbnz	r0, .L410
 3419              		.loc 1 1038 0
 3420 0062 0923     		movs	r3, #9
ARM GAS  C:\cygwin64\tmp\ccxdpAIh.s 			page 61


 3421 0064 2360     		str	r3, [r4]
 3422              	.LVL357:
 3423              	.L414:
 3424              		.loc 1 1031 0
 3425 0066 4FF0FF30 		mov	r0, #-1
 3426 006a E7E7     		b	.L403
 3427              	.LVL358:
 3428              	.L410:
 3429              		.loc 1 1042 0
 3430 006c 01AB     		add	r3, sp, #4
 3431 006e 3246     		mov	r2, r6
 3432 0070 FFF7FEFF 		bl	f_read
 3433              	.LVL359:
 3434              		.loc 1 1043 0
 3435 0074 0028     		cmp	r0, #0
 3436 0076 E0D0     		beq	.L411
 3437              	.LVL360:
 3438 0078 1328     		cmp	r0, #19
 3439 007a 96BF     		itet	ls
 3440 007c 044B     		ldrls	r3, .L416+8
 3441 007e 2323     		movhi	r3, #35
 3442              	.LVL361:
 3443 0080 1B56     		ldrsbls	r3, [r3, r0]
 3444              		.loc 1 1045 0
 3445 0082 2360     		str	r3, [r4]
 3446 0084 EFE7     		b	.L414
 3447              	.L417:
 3448 0086 00BF     		.align	2
 3449              	.L416:
 3450 0088 00000000 		.word	.LANCHOR0
 3451 008c 00000000 		.word	.LANCHOR2
 3452 0090 00000000 		.word	.LANCHOR1
 3453              		.cfi_endproc
 3454              	.LFE273:
 3455              		.size	read, .-read
 3456              		.section	.text.__wrap_fread,"ax",%progbits
 3457              		.align	1
 3458              		.global	__wrap_fread
 3459              		.syntax unified
 3460              		.thumb
 3461              		.thumb_func
 3462              		.fpu fpv4-sp-d16
 3463              		.type	__wrap_fread, %function
 3464              	__wrap_fread:
 3465              	.LFB269:
 3466              		.loc 1 794 0
 3467              		.cfi_startproc
 3468              		@ args = 0, pretend = 0, frame = 0
 3469              		@ frame_needed = 0, uses_anonymous_args = 0
 3470              	.LVL362:
 3471 0000 38B5     		push	{r3, r4, r5, lr}
 3472              		.cfi_def_cfa_offset 16
 3473              		.cfi_offset 3, -16
 3474              		.cfi_offset 4, -12
 3475              		.cfi_offset 5, -8
 3476              		.cfi_offset 14, -4
 3477              		.loc 1 795 0
ARM GAS  C:\cygwin64\tmp\ccxdpAIh.s 			page 62


 3478 0002 02FB01F5 		mul	r5, r2, r1
 3479              	.LVL363:
 3480              		.loc 1 794 0
 3481 0006 0446     		mov	r4, r0
 3482              		.loc 1 796 0
 3483 0008 1846     		mov	r0, r3
 3484              	.LVL364:
 3485 000a FFF7FEFF 		bl	fileno
 3486              	.LVL365:
 3487              		.loc 1 800 0
 3488 000e 2A46     		mov	r2, r5
 3489 0010 2146     		mov	r1, r4
 3490 0012 FFF7FEFF 		bl	read
 3491              	.LVL366:
 3492              		.loc 1 805 0
 3493 0016 20EAE070 		bic	r0, r0, r0, asr #31
 3494              	.LVL367:
 3495 001a 38BD     		pop	{r3, r4, r5, pc}
 3496              		.cfi_endproc
 3497              	.LFE269:
 3498              		.size	__wrap_fread, .-__wrap_fread
 3499              		.section	.text.syncfs,"ax",%progbits
 3500              		.align	1
 3501              		.global	syncfs
 3502              		.syntax unified
 3503              		.thumb
 3504              		.thumb_func
 3505              		.fpu fpv4-sp-d16
 3506              		.type	syncfs, %function
 3507              	syncfs:
 3508              	.LFB275:
 3509              		.loc 1 1086 0
 3510              		.cfi_startproc
 3511              		@ args = 0, pretend = 0, frame = 0
 3512              		@ frame_needed = 0, uses_anonymous_args = 0
 3513              	.LVL368:
 3514 0000 10B5     		push	{r4, lr}
 3515              		.cfi_def_cfa_offset 8
 3516              		.cfi_offset 4, -8
 3517              		.cfi_offset 14, -4
 3518              		.loc 1 1091 0
 3519 0002 104C     		ldr	r4, .L431
 3520 0004 0023     		movs	r3, #0
 3521              	.LBB113:
 3522              	.LBB114:
 3523              		.loc 1 188 0
 3524 0006 0228     		cmp	r0, #2
 3525              	.LBE114:
 3526              	.LBE113:
 3527              		.loc 1 1086 0
 3528 0008 0146     		mov	r1, r0
 3529              		.loc 1 1091 0
 3530 000a 2360     		str	r3, [r4]
 3531              	.LVL369:
 3532              	.LBB116:
 3533              	.LBB115:
 3534              		.loc 1 188 0
ARM GAS  C:\cygwin64\tmp\ccxdpAIh.s 			page 63


 3535 000c 04D8     		bhi	.L420
 3536              	.LVL370:
 3537              	.L423:
 3538              	.LBE115:
 3539              	.LBE116:
 3540              		.loc 1 1106 0
 3541 000e 0923     		movs	r3, #9
 3542              	.LVL371:
 3543              	.L422:
 3544              		.loc 1 1113 0
 3545 0010 2360     		str	r3, [r4]
 3546              		.loc 1 1114 0
 3547 0012 4FF0FF30 		mov	r0, #-1
 3548 0016 10BD     		pop	{r4, pc}
 3549              	.LVL372:
 3550              	.L420:
 3551              		.loc 1 1098 0
 3552 0018 FFF7FEFF 		bl	fileno_to_stream
 3553              	.LVL373:
 3554              		.loc 1 1100 0
 3555 001c 4379     		ldrb	r3, [r0, #5]	@ zero_extendqisi2
 3556 001e 43F04003 		orr	r3, r3, #64
 3557 0022 4371     		strb	r3, [r0, #5]
 3558              		.loc 1 1103 0
 3559 0024 0846     		mov	r0, r1
 3560              	.LVL374:
 3561 0026 FFF7FEFF 		bl	fileno_to_fatfs
 3562              	.LVL375:
 3563              		.loc 1 1104 0
 3564 002a 0028     		cmp	r0, #0
 3565 002c EFD0     		beq	.L423
 3566              		.loc 1 1110 0
 3567 002e FFF7FEFF 		bl	f_sync
 3568              	.LVL376:
 3569              		.loc 1 1111 0
 3570 0032 28B1     		cbz	r0, .L419
 3571              	.LVL377:
 3572 0034 1328     		cmp	r0, #19
 3573 0036 96BF     		itet	ls
 3574 0038 034B     		ldrls	r3, .L431+4
 3575 003a 2323     		movhi	r3, #35
 3576 003c 1B56     		ldrsbls	r3, [r3, r0]
 3577 003e E7E7     		b	.L422
 3578              	.LVL378:
 3579              	.L419:
 3580              		.loc 1 1117 0
 3581 0040 10BD     		pop	{r4, pc}
 3582              	.L432:
 3583 0042 00BF     		.align	2
 3584              	.L431:
 3585 0044 00000000 		.word	.LANCHOR0
 3586 0048 00000000 		.word	.LANCHOR1
 3587              		.cfi_endproc
 3588              	.LFE275:
 3589              		.size	syncfs, .-syncfs
 3590              		.section	.text.sync,"ax",%progbits
 3591              		.align	1
ARM GAS  C:\cygwin64\tmp\ccxdpAIh.s 			page 64


 3592              		.global	sync
 3593              		.syntax unified
 3594              		.thumb
 3595              		.thumb_func
 3596              		.fpu fpv4-sp-d16
 3597              		.type	sync, %function
 3598              	sync:
 3599              	.LFB274:
 3600              		.loc 1 1059 0
 3601              		.cfi_startproc
 3602              		@ args = 0, pretend = 0, frame = 0
 3603              		@ frame_needed = 0, uses_anonymous_args = 0
 3604              	.LVL379:
 3605 0000 10B5     		push	{r4, lr}
 3606              		.cfi_def_cfa_offset 8
 3607              		.cfi_offset 4, -8
 3608              		.cfi_offset 14, -4
 3609              		.loc 1 1063 0
 3610 0002 0024     		movs	r4, #0
 3611              	.LVL380:
 3612              	.L434:
 3613              		.loc 1 1063 0 is_stmt 0 discriminator 2
 3614 0004 0134     		adds	r4, r4, #1
 3615              	.LVL381:
 3616 0006 102C     		cmp	r4, #16
 3617 0008 00D1     		bne	.L437
 3618 000a 10BD     		pop	{r4, pc}
 3619              	.LVL382:
 3620              	.L437:
 3621              	.LBB117:
 3622              	.LBB118:
 3623              		.loc 1 188 0 is_stmt 1
 3624 000c 022C     		cmp	r4, #2
 3625 000e F9DD     		ble	.L434
 3626              	.LVL383:
 3627              	.LBE118:
 3628              	.LBE117:
 3629              		.loc 1 1069 0
 3630 0010 2046     		mov	r0, r4
 3631 0012 FFF7FEFF 		bl	fileno_to_fatfs
 3632              	.LVL384:
 3633              		.loc 1 1070 0
 3634 0016 0028     		cmp	r0, #0
 3635 0018 F4D0     		beq	.L434
 3636              		.loc 1 1073 0
 3637 001a 2046     		mov	r0, r4
 3638              	.LVL385:
 3639 001c FFF7FEFF 		bl	syncfs
 3640              	.LVL386:
 3641 0020 F0E7     		b	.L434
 3642              		.cfi_endproc
 3643              	.LFE274:
 3644              		.size	sync, .-sync
 3645              		.section	.text.write,"ax",%progbits
 3646              		.align	1
 3647              		.global	write
 3648              		.syntax unified
ARM GAS  C:\cygwin64\tmp\ccxdpAIh.s 			page 65


 3649              		.thumb
 3650              		.thumb_func
 3651              		.fpu fpv4-sp-d16
 3652              		.type	write, %function
 3653              	write:
 3654              	.LFB277:
 3655              		.loc 1 1170 0
 3656              		.cfi_startproc
 3657              		@ args = 0, pretend = 0, frame = 8
 3658              		@ frame_needed = 0, uses_anonymous_args = 0
 3659              	.LVL387:
 3660 0000 2DE9F743 		push	{r0, r1, r2, r4, r5, r6, r7, r8, r9, lr}
 3661              		.cfi_def_cfa_offset 40
 3662              		.cfi_offset 4, -28
 3663              		.cfi_offset 5, -24
 3664              		.cfi_offset 6, -20
 3665              		.cfi_offset 7, -16
 3666              		.cfi_offset 8, -12
 3667              		.cfi_offset 9, -8
 3668              		.cfi_offset 14, -4
 3669              		.loc 1 1176 0
 3670 0004 1E4F     		ldr	r7, .L458
 3671 0006 0026     		movs	r6, #0
 3672              		.loc 1 1170 0
 3673 0008 1446     		mov	r4, r2
 3674 000a 8146     		mov	r9, r0
 3675              	.LVL388:
 3676              		.loc 1 1176 0
 3677 000c 3E60     		str	r6, [r7]
 3678              		.loc 1 1179 0
 3679 000e FFF7FEFF 		bl	fileno_to_stream
 3680              	.LVL389:
 3681              		.loc 1 1180 0
 3682 0012 1C4A     		ldr	r2, .L458+4
 3683 0014 5368     		ldr	r3, [r2, #4]
 3684 0016 9842     		cmp	r0, r3
 3685              		.loc 1 1179 0
 3686 0018 0546     		mov	r5, r0
 3687              	.LVL390:
 3688              		.loc 1 1180 0
 3689 001a 02D0     		beq	.L446
 3690              		.loc 1 1180 0 is_stmt 0 discriminator 1
 3691 001c 9368     		ldr	r3, [r2, #8]
 3692 001e 9842     		cmp	r0, r3
 3693 0020 14D1     		bne	.L447
 3694              	.L446:
 3695              	.LVL391:
 3696              	.LBB119:
 3697              		.loc 1 1183 0 is_stmt 1
 3698 0022 0196     		str	r6, [sp, #4]
 3699 0024 0C44     		add	r4, r4, r1
 3700              	.LVL392:
 3701              		.loc 1 1182 0
 3702 0026 0E46     		mov	r6, r1
 3703              	.LVL393:
 3704              	.L448:
 3705              		.loc 1 1184 0
ARM GAS  C:\cygwin64\tmp\ccxdpAIh.s 			page 66


 3706 0028 A642     		cmp	r6, r4
 3707 002a 07D0     		beq	.L454
 3708              	.LBB120:
 3709              		.loc 1 1187 0
 3710 002c 16F8017B 		ldrb	r7, [r6], #1	@ zero_extendqisi2
 3711              	.LVL394:
 3712              		.loc 1 1188 0
 3713 0030 2946     		mov	r1, r5
 3714 0032 3846     		mov	r0, r7
 3715 0034 FFF7FEFF 		bl	fputc
 3716              	.LVL395:
 3717              		.loc 1 1189 0
 3718 0038 8742     		cmp	r7, r0
 3719 003a 03D0     		beq	.L449
 3720              	.LVL396:
 3721              	.L454:
 3722              	.LBE120:
 3723              	.LBE119:
 3724              		.loc 1 1215 0
 3725 003c 0198     		ldr	r0, [sp, #4]
 3726              	.L445:
 3727              		.loc 1 1216 0
 3728 003e 03B0     		add	sp, sp, #12
 3729              		.cfi_remember_state
 3730              		.cfi_def_cfa_offset 28
 3731              		@ sp needed
 3732 0040 BDE8F083 		pop	{r4, r5, r6, r7, r8, r9, pc}
 3733              	.LVL397:
 3734              	.L449:
 3735              		.cfi_restore_state
 3736              	.LBB122:
 3737              	.LBB121:
 3738              		.loc 1 1192 0
 3739 0044 019B     		ldr	r3, [sp, #4]
 3740 0046 0133     		adds	r3, r3, #1
 3741 0048 0193     		str	r3, [sp, #4]
 3742 004a EDE7     		b	.L448
 3743              	.LVL398:
 3744              	.L447:
 3745              	.LBE121:
 3746              	.LBE122:
 3747              		.loc 1 1196 0
 3748 004c 1368     		ldr	r3, [r2]
 3749 004e 9842     		cmp	r0, r3
 3750 0050 05D0     		beq	.L456
 3751              		.loc 1 1202 0
 3752 0052 4846     		mov	r0, r9
 3753              	.LVL399:
 3754 0054 FFF7FEFF 		bl	fileno_to_fatfs
 3755              	.LVL400:
 3756              		.loc 1 1203 0
 3757 0058 20B9     		cbnz	r0, .L453
 3758              		.loc 1 1205 0
 3759 005a 0923     		movs	r3, #9
 3760 005c 3B60     		str	r3, [r7]
 3761              	.LVL401:
 3762              	.L456:
ARM GAS  C:\cygwin64\tmp\ccxdpAIh.s 			page 67


 3763              		.loc 1 1198 0
 3764 005e 4FF0FF30 		mov	r0, #-1
 3765 0062 ECE7     		b	.L445
 3766              	.LVL402:
 3767              	.L453:
 3768              		.loc 1 1209 0
 3769 0064 01AB     		add	r3, sp, #4
 3770 0066 2246     		mov	r2, r4
 3771 0068 FFF7FEFF 		bl	f_write
 3772              	.LVL403:
 3773              		.loc 1 1210 0
 3774 006c 0028     		cmp	r0, #0
 3775 006e E5D0     		beq	.L454
 3776              	.LVL404:
 3777 0070 1328     		cmp	r0, #19
 3778 0072 96BF     		itet	ls
 3779 0074 044B     		ldrls	r3, .L458+8
 3780 0076 2323     		movhi	r3, #35
 3781              	.LVL405:
 3782 0078 1B56     		ldrsbls	r3, [r3, r0]
 3783              		.loc 1 1212 0
 3784 007a 3B60     		str	r3, [r7]
 3785 007c EFE7     		b	.L456
 3786              	.L459:
 3787 007e 00BF     		.align	2
 3788              	.L458:
 3789 0080 00000000 		.word	.LANCHOR0
 3790 0084 00000000 		.word	.LANCHOR2
 3791 0088 00000000 		.word	.LANCHOR1
 3792              		.cfi_endproc
 3793              	.LFE277:
 3794              		.size	write, .-write
 3795              		.section	.text.fwrite,"ax",%progbits
 3796              		.align	1
 3797              		.global	fwrite
 3798              		.syntax unified
 3799              		.thumb
 3800              		.thumb_func
 3801              		.fpu fpv4-sp-d16
 3802              		.type	fwrite, %function
 3803              	fwrite:
 3804              	.LFB271:
 3805              		.loc 1 859 0
 3806              		.cfi_startproc
 3807              		@ args = 0, pretend = 0, frame = 0
 3808              		@ frame_needed = 0, uses_anonymous_args = 0
 3809              	.LVL406:
 3810 0000 38B5     		push	{r3, r4, r5, lr}
 3811              		.cfi_def_cfa_offset 16
 3812              		.cfi_offset 3, -16
 3813              		.cfi_offset 4, -12
 3814              		.cfi_offset 5, -8
 3815              		.cfi_offset 14, -4
 3816              		.loc 1 860 0
 3817 0002 02FB01F5 		mul	r5, r2, r1
 3818              	.LVL407:
 3819              		.loc 1 859 0
ARM GAS  C:\cygwin64\tmp\ccxdpAIh.s 			page 68


 3820 0006 0446     		mov	r4, r0
 3821              		.loc 1 861 0
 3822 0008 1846     		mov	r0, r3
 3823              	.LVL408:
 3824 000a FFF7FEFF 		bl	fileno
 3825              	.LVL409:
 3826              		.loc 1 865 0
 3827 000e 2A46     		mov	r2, r5
 3828 0010 2146     		mov	r1, r4
 3829 0012 FFF7FEFF 		bl	write
 3830              	.LVL410:
 3831              		.loc 1 871 0
 3832 0016 20EAE070 		bic	r0, r0, r0, asr #31
 3833              	.LVL411:
 3834 001a 38BD     		pop	{r3, r4, r5, pc}
 3835              		.cfi_endproc
 3836              	.LFE271:
 3837              		.size	fwrite, .-fwrite
 3838              		.section	.text.free_file_descriptor,"ax",%progbits
 3839              		.align	1
 3840              		.global	free_file_descriptor
 3841              		.syntax unified
 3842              		.thumb
 3843              		.thumb_func
 3844              		.fpu fpv4-sp-d16
 3845              		.type	free_file_descriptor, %function
 3846              	free_file_descriptor:
 3847              	.LFB312:
 3848              		.loc 1 2367 0
 3849              		.cfi_startproc
 3850              		@ args = 0, pretend = 0, frame = 0
 3851              		@ frame_needed = 0, uses_anonymous_args = 0
 3852              	.LVL412:
 3853              	.LBB123:
 3854              	.LBB124:
 3855              		.loc 1 188 0
 3856 0000 0228     		cmp	r0, #2
 3857              	.LBE124:
 3858              	.LBE123:
 3859              		.loc 1 2367 0
 3860 0002 38B5     		push	{r3, r4, r5, lr}
 3861              		.cfi_def_cfa_offset 16
 3862              		.cfi_offset 3, -16
 3863              		.cfi_offset 4, -12
 3864              		.cfi_offset 5, -8
 3865              		.cfi_offset 14, -4
 3866              		.loc 1 2367 0
 3867 0004 0446     		mov	r4, r0
 3868              	.LBB126:
 3869              	.LBB125:
 3870              		.loc 1 188 0
 3871 0006 18D9     		bls	.L462
 3872              	.LVL413:
 3873              	.LBE125:
 3874              	.LBE126:
 3875              		.loc 1 2378 0
 3876 0008 FFF7FEFF 		bl	fileno_to_stream
ARM GAS  C:\cygwin64\tmp\ccxdpAIh.s 			page 69


 3877              	.LVL414:
 3878              		.loc 1 2379 0
 3879 000c 0546     		mov	r5, r0
 3880 000e B8B1     		cbz	r0, .L478
 3881              		.loc 1 2384 0
 3882 0010 A869     		ldr	r0, [r5, #24]
 3883              	.LVL415:
 3884              		.loc 1 2386 0
 3885 0012 08B1     		cbz	r0, .L464
 3886              		.loc 1 2388 0
 3887 0014 FFF7FEFF 		bl	free
 3888              	.LVL416:
 3889              	.L464:
 3890              		.loc 1 2391 0
 3891 0018 2868     		ldr	r0, [r5]
 3892 001a 28B1     		cbz	r0, .L465
 3893              		.loc 1 2391 0 is_stmt 0 discriminator 1
 3894 001c 95F90530 		ldrsb	r3, [r5, #5]
 3895 0020 002B     		cmp	r3, #0
 3896 0022 01DA     		bge	.L465
 3897              		.loc 1 2393 0 is_stmt 1
 3898 0024 FFF7FEFF 		bl	free
 3899              	.LVL417:
 3900              	.L465:
 3901              		.loc 1 2396 0
 3902 0028 074B     		ldr	r3, .L479
 3903 002a 0022     		movs	r2, #0
 3904              		.loc 1 2397 0
 3905 002c 2846     		mov	r0, r5
 3906              		.loc 1 2396 0
 3907 002e 43F82420 		str	r2, [r3, r4, lsl #2]
 3908              		.loc 1 2397 0
 3909 0032 FFF7FEFF 		bl	free
 3910              	.LVL418:
 3911              	.L476:
 3912              		.loc 1 2399 0
 3913 0036 2046     		mov	r0, r4
 3914 0038 38BD     		pop	{r3, r4, r5, pc}
 3915              	.LVL419:
 3916              	.L462:
 3917              		.loc 1 2373 0
 3918 003a 044B     		ldr	r3, .L479+4
 3919 003c 0922     		movs	r2, #9
 3920 003e 1A60     		str	r2, [r3]
 3921              	.LVL420:
 3922              	.L478:
 3923              		.loc 1 2374 0
 3924 0040 4FF0FF34 		mov	r4, #-1
 3925              	.LVL421:
 3926 0044 F7E7     		b	.L476
 3927              	.L480:
 3928 0046 00BF     		.align	2
 3929              	.L479:
 3930 0048 00000000 		.word	.LANCHOR2
 3931 004c 00000000 		.word	.LANCHOR0
 3932              		.cfi_endproc
 3933              	.LFE312:
ARM GAS  C:\cygwin64\tmp\ccxdpAIh.s 			page 70


 3934              		.size	free_file_descriptor, .-free_file_descriptor
 3935              		.section	.text.close,"ax",%progbits
 3936              		.align	1
 3937              		.global	close
 3938              		.syntax unified
 3939              		.thumb
 3940              		.thumb_func
 3941              		.fpu fpv4-sp-d16
 3942              		.type	close, %function
 3943              	close:
 3944              	.LFB265:
 3945              		.loc 1 676 0
 3946              		.cfi_startproc
 3947              		@ args = 0, pretend = 0, frame = 0
 3948              		@ frame_needed = 0, uses_anonymous_args = 0
 3949              	.LVL422:
 3950 0000 70B5     		push	{r4, r5, r6, lr}
 3951              		.cfi_def_cfa_offset 16
 3952              		.cfi_offset 4, -16
 3953              		.cfi_offset 5, -12
 3954              		.cfi_offset 6, -8
 3955              		.cfi_offset 14, -4
 3956              		.loc 1 681 0
 3957 0002 0F4D     		ldr	r5, .L492
 3958 0004 0023     		movs	r3, #0
 3959              		.loc 1 676 0
 3960 0006 0646     		mov	r6, r0
 3961              		.loc 1 681 0
 3962 0008 2B60     		str	r3, [r5]
 3963              		.loc 1 684 0
 3964 000a FFF7FEFF 		bl	fileno_to_stream
 3965              	.LVL423:
 3966              		.loc 1 685 0
 3967 000e 10B9     		cbnz	r0, .L482
 3968              	.LVL424:
 3969              	.L491:
 3970              		.loc 1 701 0
 3971 0010 4FF0FF30 		mov	r0, #-1
 3972 0014 70BD     		pop	{r4, r5, r6, pc}
 3973              	.LVL425:
 3974              	.L482:
 3975              		.loc 1 691 0
 3976 0016 3046     		mov	r0, r6
 3977              	.LVL426:
 3978 0018 FFF7FEFF 		bl	fileno_to_fatfs
 3979              	.LVL427:
 3980              		.loc 1 692 0
 3981 001c 0028     		cmp	r0, #0
 3982 001e F7D0     		beq	.L491
 3983              		.loc 1 696 0
 3984 0020 FFF7FEFF 		bl	f_close
 3985              	.LVL428:
 3986 0024 0446     		mov	r4, r0
 3987              	.LVL429:
 3988              		.loc 1 697 0
 3989 0026 3046     		mov	r0, r6
 3990 0028 FFF7FEFF 		bl	free_file_descriptor
ARM GAS  C:\cygwin64\tmp\ccxdpAIh.s 			page 71


 3991              	.LVL430:
 3992              		.loc 1 698 0
 3993 002c 34B1     		cbz	r4, .L486
 3994              	.LVL431:
 3995 002e 132C     		cmp	r4, #19
 3996 0030 96BF     		itet	ls
 3997 0032 044B     		ldrls	r3, .L492+4
 3998 0034 2323     		movhi	r3, #35
 3999              	.LVL432:
 4000 0036 1B57     		ldrsbls	r3, [r3, r4]
 4001              		.loc 1 700 0
 4002 0038 2B60     		str	r3, [r5]
 4003 003a E9E7     		b	.L491
 4004              	.L486:
 4005              		.loc 1 703 0
 4006 003c 2046     		mov	r0, r4
 4007              		.loc 1 704 0
 4008 003e 70BD     		pop	{r4, r5, r6, pc}
 4009              	.LVL433:
 4010              	.L493:
 4011              		.align	2
 4012              	.L492:
 4013 0040 00000000 		.word	.LANCHOR0
 4014 0044 00000000 		.word	.LANCHOR1
 4015              		.cfi_endproc
 4016              	.LFE265:
 4017              		.size	close, .-close
 4018              		.section	.text.__wrap_fclose,"ax",%progbits
 4019              		.align	1
 4020              		.global	__wrap_fclose
 4021              		.syntax unified
 4022              		.thumb
 4023              		.thumb_func
 4024              		.fpu fpv4-sp-d16
 4025              		.type	__wrap_fclose, %function
 4026              	__wrap_fclose:
 4027              	.LFB279:
 4028              		.loc 1 1237 0
 4029              		.cfi_startproc
 4030              		@ args = 0, pretend = 0, frame = 0
 4031              		@ frame_needed = 0, uses_anonymous_args = 0
 4032              	.LVL434:
 4033 0000 08B5     		push	{r3, lr}
 4034              		.cfi_def_cfa_offset 8
 4035              		.cfi_offset 3, -8
 4036              		.cfi_offset 14, -4
 4037              		.loc 1 1238 0
 4038 0002 FFF7FEFF 		bl	fileno
 4039              	.LVL435:
 4040              		.loc 1 1239 0
 4041 0006 0028     		cmp	r0, #0
 4042 0008 03DB     		blt	.L495
 4043              		.loc 1 1243 0
 4044 000a BDE80840 		pop	{r3, lr}
 4045              		.cfi_remember_state
 4046              		.cfi_restore 14
 4047              		.cfi_restore 3
ARM GAS  C:\cygwin64\tmp\ccxdpAIh.s 			page 72


 4048              		.cfi_def_cfa_offset 0
 4049              		.loc 1 1242 0
 4050 000e FFF7FEBF 		b	close
 4051              	.LVL436:
 4052              	.L495:
 4053              		.cfi_restore_state
 4054              		.loc 1 1243 0
 4055 0012 4FF0FF30 		mov	r0, #-1
 4056              	.LVL437:
 4057 0016 08BD     		pop	{r3, pc}
 4058              		.cfi_endproc
 4059              	.LFE279:
 4060              		.size	__wrap_fclose, .-__wrap_fclose
 4061              		.section	.text.new_file_descriptor,"ax",%progbits
 4062              		.align	1
 4063              		.global	new_file_descriptor
 4064              		.syntax unified
 4065              		.thumb
 4066              		.thumb_func
 4067              		.fpu fpv4-sp-d16
 4068              		.type	new_file_descriptor, %function
 4069              	new_file_descriptor:
 4070              	.LFB313:
 4071              		.loc 1 2411 0
 4072              		.cfi_startproc
 4073              		@ args = 0, pretend = 0, frame = 0
 4074              		@ frame_needed = 0, uses_anonymous_args = 0
 4075              	.LVL438:
 4076 0000 70B5     		push	{r4, r5, r6, lr}
 4077              		.cfi_def_cfa_offset 16
 4078              		.cfi_offset 4, -16
 4079              		.cfi_offset 5, -12
 4080              		.cfi_offset 6, -8
 4081              		.cfi_offset 14, -4
 4082              		.loc 1 2420 0
 4083 0002 144E     		ldr	r6, .L508
 4084              		.loc 1 2416 0
 4085 0004 0024     		movs	r4, #0
 4086              	.LVL439:
 4087              	.L497:
 4088              		.loc 1 2416 0 is_stmt 0 discriminator 2
 4089 0006 0134     		adds	r4, r4, #1
 4090              	.LVL440:
 4091 0008 102C     		cmp	r4, #16
 4092 000a 01D1     		bne	.L503
 4093              		.loc 1 2441 0 is_stmt 1
 4094 000c 1722     		movs	r2, #23
 4095 000e 0CE0     		b	.L506
 4096              	.L503:
 4097              	.LVL441:
 4098              	.LBB127:
 4099              	.LBB128:
 4100              		.loc 1 188 0
 4101 0010 022C     		cmp	r4, #2
 4102 0012 F8DD     		ble	.L497
 4103              	.LVL442:
 4104              	.LBE128:
ARM GAS  C:\cygwin64\tmp\ccxdpAIh.s 			page 73


 4105              	.LBE127:
 4106              		.loc 1 2420 0
 4107 0014 56F82430 		ldr	r3, [r6, r4, lsl #2]
 4108 0018 002B     		cmp	r3, #0
 4109 001a F4D1     		bne	.L497
 4110              		.loc 1 2422 0
 4111 001c 0121     		movs	r1, #1
 4112 001e 1C20     		movs	r0, #28
 4113 0020 FFF7FEFF 		bl	calloc
 4114              	.LVL443:
 4115              		.loc 1 2423 0
 4116 0024 0546     		mov	r5, r0
 4117 0026 28B9     		cbnz	r0, .L500
 4118              	.LVL444:
 4119              	.L507:
 4120              		.loc 1 2432 0
 4121 0028 0C22     		movs	r2, #12
 4122              	.LVL445:
 4123              	.L506:
 4124              		.loc 1 2441 0
 4125 002a 0B4B     		ldr	r3, .L508+4
 4126              		.loc 1 2442 0
 4127 002c 4FF0FF34 		mov	r4, #-1
 4128              	.LVL446:
 4129              		.loc 1 2441 0
 4130 0030 1A60     		str	r2, [r3]
 4131              		.loc 1 2442 0
 4132 0032 0CE0     		b	.L496
 4133              	.LVL447:
 4134              	.L500:
 4135              		.loc 1 2428 0
 4136 0034 0121     		movs	r1, #1
 4137 0036 4FF41270 		mov	r0, #584
 4138              	.LVL448:
 4139 003a FFF7FEFF 		bl	calloc
 4140              	.LVL449:
 4141              		.loc 1 2429 0
 4142 003e 18B9     		cbnz	r0, .L502
 4143              		.loc 1 2431 0
 4144 0040 2846     		mov	r0, r5
 4145              	.LVL450:
 4146 0042 FFF7FEFF 		bl	free
 4147              	.LVL451:
 4148 0046 EFE7     		b	.L507
 4149              	.LVL452:
 4150              	.L502:
 4151              		.loc 1 2436 0
 4152 0048 46F82450 		str	r5, [r6, r4, lsl #2]
 4153              		.loc 1 2437 0
 4154 004c A861     		str	r0, [r5, #24]
 4155              	.LVL453:
 4156              	.L496:
 4157              		.loc 1 2443 0
 4158 004e 2046     		mov	r0, r4
 4159 0050 70BD     		pop	{r4, r5, r6, pc}
 4160              	.L509:
 4161 0052 00BF     		.align	2
ARM GAS  C:\cygwin64\tmp\ccxdpAIh.s 			page 74


 4162              	.L508:
 4163 0054 00000000 		.word	.LANCHOR2
 4164 0058 00000000 		.word	.LANCHOR0
 4165              		.cfi_endproc
 4166              	.LFE313:
 4167              		.size	new_file_descriptor, .-new_file_descriptor
 4168              		.section	.text.open,"ax",%progbits
 4169              		.align	1
 4170              		.global	open
 4171              		.syntax unified
 4172              		.thumb
 4173              		.thumb_func
 4174              		.fpu fpv4-sp-d16
 4175              		.type	open, %function
 4176              	open:
 4177              	.LFB272:
 4178              		.loc 1 886 0
 4179              		.cfi_startproc
 4180              		@ args = 0, pretend = 0, frame = 0
 4181              		@ frame_needed = 0, uses_anonymous_args = 0
 4182              	.LVL454:
 4183 0000 2DE9F84F 		push	{r3, r4, r5, r6, r7, r8, r9, r10, fp, lr}
 4184              		.cfi_def_cfa_offset 40
 4185              		.cfi_offset 3, -40
 4186              		.cfi_offset 4, -36
 4187              		.cfi_offset 5, -32
 4188              		.cfi_offset 6, -28
 4189              		.cfi_offset 7, -24
 4190              		.cfi_offset 8, -20
 4191              		.cfi_offset 9, -16
 4192              		.cfi_offset 10, -12
 4193              		.cfi_offset 11, -8
 4194              		.cfi_offset 14, -4
 4195              		.loc 1 893 0
 4196 0004 354E     		ldr	r6, .L540
 4197              		.loc 1 906 0
 4198 0006 01F00308 		and	r8, r1, #3
 4199              		.loc 1 893 0
 4200 000a 0023     		movs	r3, #0
 4201              		.loc 1 906 0
 4202 000c B8F1020F 		cmp	r8, #2
 4203              		.loc 1 886 0
 4204 0010 8346     		mov	fp, r0
 4205 0012 8946     		mov	r9, r1
 4206              		.loc 1 893 0
 4207 0014 3360     		str	r3, [r6]
 4208              		.loc 1 906 0
 4209 0016 18D0     		beq	.L523
 4210              		.loc 1 911 0
 4211 0018 9845     		cmp	r8, r3
 4212 001a 0CBF     		ite	eq
 4213 001c 0127     		moveq	r7, #1
 4214 001e 0227     		movne	r7, #2
 4215              	.L511:
 4216              	.LVL455:
 4217              		.loc 1 913 0
 4218 0020 19F0400F 		tst	r9, #64
ARM GAS  C:\cygwin64\tmp\ccxdpAIh.s 			page 75


 4219 0024 06D0     		beq	.L512
 4220              		.loc 1 915 0
 4221 0026 19F4007F 		tst	r9, #512
 4222              		.loc 1 916 0
 4223 002a 14BF     		ite	ne
 4224 002c 47F00807 		orrne	r7, r7, #8
 4225              	.LVL456:
 4226              		.loc 1 918 0
 4227 0030 47F01007 		orreq	r7, r7, #16
 4228              	.LVL457:
 4229              	.L512:
 4230              		.loc 1 921 0
 4231 0034 FFF7FEFF 		bl	new_file_descriptor
 4232              	.LVL458:
 4233 0038 0446     		mov	r4, r0
 4234              	.LVL459:
 4235              		.loc 1 924 0
 4236 003a FFF7FEFF 		bl	fileno_to_stream
 4237              	.LVL460:
 4238              		.loc 1 925 0
 4239 003e 0546     		mov	r5, r0
 4240              		.loc 1 927 0
 4241 0040 2046     		mov	r0, r4
 4242              	.LVL461:
 4243              		.loc 1 925 0
 4244 0042 25B9     		cbnz	r5, .L514
 4245              	.L537:
 4246              		.loc 1 954 0
 4247 0044 FFF7FEFF 		bl	free_file_descriptor
 4248              	.LVL462:
 4249 0048 0AE0     		b	.L539
 4250              	.LVL463:
 4251              	.L523:
 4252              		.loc 1 907 0
 4253 004a 0327     		movs	r7, #3
 4254 004c E8E7     		b	.L511
 4255              	.LVL464:
 4256              	.L514:
 4257              		.loc 1 932 0
 4258 004e FFF7FEFF 		bl	fileno_to_fatfs
 4259              	.LVL465:
 4260              		.loc 1 933 0
 4261 0052 8246     		mov	r10, r0
 4262 0054 48B9     		cbnz	r0, .L516
 4263              		.loc 1 935 0
 4264 0056 2046     		mov	r0, r4
 4265              	.LVL466:
 4266 0058 FFF7FEFF 		bl	free_file_descriptor
 4267              	.LVL467:
 4268              		.loc 1 936 0
 4269 005c 0923     		movs	r3, #9
 4270 005e 3360     		str	r3, [r6]
 4271              	.LVL468:
 4272              	.L539:
 4273              		.loc 1 955 0
 4274 0060 4FF0FF34 		mov	r4, #-1
 4275              	.LVL469:
ARM GAS  C:\cygwin64\tmp\ccxdpAIh.s 			page 76


 4276              	.L510:
 4277              		.loc 1 982 0
 4278 0064 2046     		mov	r0, r4
 4279 0066 BDE8F88F 		pop	{r3, r4, r5, r6, r7, r8, r9, r10, fp, pc}
 4280              	.LVL470:
 4281              	.L516:
 4282              		.loc 1 939 0
 4283 006a FAB2     		uxtb	r2, r7
 4284 006c 5946     		mov	r1, fp
 4285 006e FFF7FEFF 		bl	f_open
 4286              	.LVL471:
 4287              		.loc 1 940 0
 4288 0072 38B1     		cbz	r0, .L517
 4289              	.LVL472:
 4290 0074 1328     		cmp	r0, #19
 4291 0076 96BF     		itet	ls
 4292 0078 194B     		ldrls	r3, .L540+4
 4293 007a 2323     		movhi	r3, #35
 4294              	.LVL473:
 4295 007c 1B56     		ldrsbls	r3, [r3, r0]
 4296              		.loc 1 942 0
 4297 007e 3360     		str	r3, [r6]
 4298              	.LVL474:
 4299              	.L538:
 4300              		.loc 1 954 0
 4301 0080 2046     		mov	r0, r4
 4302 0082 DFE7     		b	.L537
 4303              	.LVL475:
 4304              	.L517:
 4305              		.loc 1 946 0
 4306 0084 19F4806F 		tst	r9, #1024
 4307 0088 0FD0     		beq	.L519
 4308              		.loc 1 949 0
 4309 008a DAE90423 		ldrd	r2, [r10, #16]
 4310 008e 5046     		mov	r0, r10
 4311              	.LVL476:
 4312 0090 FFF7FEFF 		bl	f_lseek
 4313              	.LVL477:
 4314              		.loc 1 950 0
 4315 0094 48B1     		cbz	r0, .L519
 4316              	.LVL478:
 4317 0096 1328     		cmp	r0, #19
 4318 0098 96BF     		itet	ls
 4319 009a 114B     		ldrls	r3, .L540+4
 4320 009c 2323     		movhi	r3, #35
 4321              	.LVL479:
 4322 009e 1B56     		ldrsbls	r3, [r3, r0]
 4323              		.loc 1 952 0
 4324 00a0 3360     		str	r3, [r6]
 4325              		.loc 1 953 0
 4326 00a2 5046     		mov	r0, r10
 4327              	.LVL480:
 4328 00a4 FFF7FEFF 		bl	f_close
 4329              	.LVL481:
 4330 00a8 EAE7     		b	.L538
 4331              	.L519:
 4332              		.loc 1 959 0
ARM GAS  C:\cygwin64\tmp\ccxdpAIh.s 			page 77


 4333 00aa B8F1020F 		cmp	r8, #2
 4334 00ae 06D1     		bne	.L521
 4335              		.loc 1 962 0
 4336 00b0 0C4B     		ldr	r3, .L540+8
 4337 00b2 2B61     		str	r3, [r5, #16]
 4338              		.loc 1 963 0
 4339 00b4 0C4B     		ldr	r3, .L540+12
 4340 00b6 6B61     		str	r3, [r5, #20]
 4341              		.loc 1 964 0
 4342 00b8 0323     		movs	r3, #3
 4343              	.L536:
 4344              		.loc 1 978 0
 4345 00ba 6B71     		strb	r3, [r5, #5]
 4346 00bc D2E7     		b	.L510
 4347              	.L521:
 4348              		.loc 1 966 0
 4349 00be B8F1000F 		cmp	r8, #0
 4350 00c2 05D1     		bne	.L522
 4351              		.loc 1 970 0
 4352 00c4 084B     		ldr	r3, .L540+12
 4353 00c6 6B61     		str	r3, [r5, #20]
 4354              		.loc 1 969 0
 4355 00c8 C5F81080 		str	r8, [r5, #16]
 4356              		.loc 1 971 0
 4357 00cc 0123     		movs	r3, #1
 4358 00ce F4E7     		b	.L536
 4359              	.L522:
 4360              		.loc 1 976 0
 4361 00d0 044B     		ldr	r3, .L540+8
 4362 00d2 2B61     		str	r3, [r5, #16]
 4363              		.loc 1 977 0
 4364 00d4 0023     		movs	r3, #0
 4365 00d6 6B61     		str	r3, [r5, #20]
 4366              		.loc 1 978 0
 4367 00d8 0223     		movs	r3, #2
 4368 00da EEE7     		b	.L536
 4369              	.L541:
 4370              		.align	2
 4371              	.L540:
 4372 00dc 00000000 		.word	.LANCHOR0
 4373 00e0 00000000 		.word	.LANCHOR1
 4374 00e4 00000000 		.word	fatfs_putc
 4375 00e8 00000000 		.word	fatfs_getc
 4376              		.cfi_endproc
 4377              	.LFE272:
 4378              		.size	open, .-open
 4379              		.section	.text.posix_fopen_modes_to_open,"ax",%progbits
 4380              		.align	1
 4381              		.global	posix_fopen_modes_to_open
 4382              		.syntax unified
 4383              		.thumb
 4384              		.thumb_func
 4385              		.fpu fpv4-sp-d16
 4386              		.type	posix_fopen_modes_to_open, %function
 4387              	posix_fopen_modes_to_open:
 4388              	.LFB314:
 4389              		.loc 1 2474 0
ARM GAS  C:\cygwin64\tmp\ccxdpAIh.s 			page 78


 4390              		.cfi_startproc
 4391              		@ args = 0, pretend = 0, frame = 0
 4392              		@ frame_needed = 0, uses_anonymous_args = 0
 4393              	.LVL482:
 4394 0000 10B5     		push	{r4, lr}
 4395              		.cfi_def_cfa_offset 8
 4396              		.cfi_offset 4, -8
 4397              		.cfi_offset 14, -4
 4398              		.loc 1 2477 0
 4399 0002 2849     		ldr	r1, .L560
 4400              		.loc 1 2474 0
 4401 0004 0446     		mov	r4, r0
 4402              		.loc 1 2477 0
 4403 0006 FFF7FEFF 		bl	strcmp
 4404              	.LVL483:
 4405 000a 0028     		cmp	r0, #0
 4406 000c 48D0     		beq	.L542
 4407              		.loc 1 2477 0 is_stmt 0 discriminator 1
 4408 000e 2649     		ldr	r1, .L560+4
 4409 0010 2046     		mov	r0, r4
 4410 0012 FFF7FEFF 		bl	strcmp
 4411              	.LVL484:
 4412 0016 0028     		cmp	r0, #0
 4413 0018 42D0     		beq	.L542
 4414              		.loc 1 2482 0 is_stmt 1
 4415 001a 2449     		ldr	r1, .L560+8
 4416 001c 2046     		mov	r0, r4
 4417 001e FFF7FEFF 		bl	strcmp
 4418              	.LVL485:
 4419 0022 90B3     		cbz	r0, .L546
 4420              		.loc 1 2482 0 is_stmt 0 discriminator 1
 4421 0024 2249     		ldr	r1, .L560+12
 4422 0026 2046     		mov	r0, r4
 4423 0028 FFF7FEFF 		bl	strcmp
 4424              	.LVL486:
 4425 002c 68B3     		cbz	r0, .L546
 4426              		.loc 1 2482 0 discriminator 2
 4427 002e 2149     		ldr	r1, .L560+16
 4428 0030 2046     		mov	r0, r4
 4429 0032 FFF7FEFF 		bl	strcmp
 4430              	.LVL487:
 4431 0036 40B3     		cbz	r0, .L546
 4432              	.LVL488:
 4433              	.LBB131:
 4434              	.LBB132:
 4435              		.loc 1 2487 0 is_stmt 1
 4436 0038 1F49     		ldr	r1, .L560+20
 4437 003a 2046     		mov	r0, r4
 4438 003c FFF7FEFF 		bl	strcmp
 4439              	.LVL489:
 4440 0040 30B3     		cbz	r0, .L548
 4441 0042 1E49     		ldr	r1, .L560+24
 4442 0044 2046     		mov	r0, r4
 4443 0046 FFF7FEFF 		bl	strcmp
 4444              	.LVL490:
 4445 004a 08B3     		cbz	r0, .L548
 4446              		.loc 1 2492 0
ARM GAS  C:\cygwin64\tmp\ccxdpAIh.s 			page 79


 4447 004c 1C49     		ldr	r1, .L560+28
 4448 004e 2046     		mov	r0, r4
 4449 0050 FFF7FEFF 		bl	strcmp
 4450              	.LVL491:
 4451 0054 F8B1     		cbz	r0, .L551
 4452 0056 1B49     		ldr	r1, .L560+32
 4453 0058 2046     		mov	r0, r4
 4454 005a FFF7FEFF 		bl	strcmp
 4455              	.LVL492:
 4456 005e D0B1     		cbz	r0, .L551
 4457 0060 1949     		ldr	r1, .L560+36
 4458 0062 2046     		mov	r0, r4
 4459 0064 FFF7FEFF 		bl	strcmp
 4460              	.LVL493:
 4461 0068 A8B1     		cbz	r0, .L551
 4462              		.loc 1 2497 0
 4463 006a 1849     		ldr	r1, .L560+40
 4464 006c 2046     		mov	r0, r4
 4465 006e FFF7FEFF 		bl	strcmp
 4466              	.LVL494:
 4467 0072 98B1     		cbz	r0, .L552
 4468 0074 1649     		ldr	r1, .L560+44
 4469 0076 2046     		mov	r0, r4
 4470 0078 FFF7FEFF 		bl	strcmp
 4471              	.LVL495:
 4472              		.loc 1 2505 0
 4473 007c 0028     		cmp	r0, #0
 4474 007e 40F24140 		movw	r0, #1089
 4475 0082 18BF     		it	ne
 4476 0084 4FF0FF30 		movne	r0, #-1
 4477 0088 10BD     		pop	{r4, pc}
 4478              	.LVL496:
 4479              	.L546:
 4480              	.LBE132:
 4481              	.LBE131:
 4482              		.loc 1 2485 0
 4483 008a 40F20220 		movw	r0, #514
 4484 008e 10BD     		pop	{r4, pc}
 4485              	.LVL497:
 4486              	.L548:
 4487              	.LBB134:
 4488              	.LBB133:
 4489              		.loc 1 2490 0
 4490 0090 40F24120 		movw	r0, #577
 4491 0094 10BD     		pop	{r4, pc}
 4492              	.LVL498:
 4493              	.L551:
 4494              		.loc 1 2495 0
 4495 0096 40F24220 		movw	r0, #578
 4496 009a 10BD     		pop	{r4, pc}
 4497              	.LVL499:
 4498              	.L552:
 4499              		.loc 1 2500 0
 4500 009c 40F24140 		movw	r0, #1089
 4501              	.LVL500:
 4502              	.L542:
 4503              	.LBE133:
ARM GAS  C:\cygwin64\tmp\ccxdpAIh.s 			page 80


 4504              	.LBE134:
 4505              		.loc 1 2508 0
 4506 00a0 10BD     		pop	{r4, pc}
 4507              	.LVL501:
 4508              	.L561:
 4509 00a2 00BF     		.align	2
 4510              	.L560:
 4511 00a4 00000000 		.word	.LC5
 4512 00a8 02000000 		.word	.LC6
 4513 00ac 05000000 		.word	.LC7
 4514 00b0 08000000 		.word	.LC8
 4515 00b4 0C000000 		.word	.LC9
 4516 00b8 10000000 		.word	.LC10
 4517 00bc 12000000 		.word	.LC11
 4518 00c0 15000000 		.word	.LC12
 4519 00c4 18000000 		.word	.LC13
 4520 00c8 1C000000 		.word	.LC14
 4521 00cc 20000000 		.word	.LC15
 4522 00d0 22000000 		.word	.LC16
 4523              		.cfi_endproc
 4524              	.LFE314:
 4525              		.size	posix_fopen_modes_to_open, .-posix_fopen_modes_to_open
 4526              		.section	.text.fopen,"ax",%progbits
 4527              		.align	1
 4528              		.global	fopen
 4529              		.syntax unified
 4530              		.thumb
 4531              		.thumb_func
 4532              		.fpu fpv4-sp-d16
 4533              		.type	fopen, %function
 4534              	fopen:
 4535              	.LFB268:
 4536              		.loc 1 773 0
 4537              		.cfi_startproc
 4538              		@ args = 0, pretend = 0, frame = 0
 4539              		@ frame_needed = 0, uses_anonymous_args = 0
 4540              	.LVL502:
 4541 0000 10B5     		push	{r4, lr}
 4542              		.cfi_def_cfa_offset 8
 4543              		.cfi_offset 4, -8
 4544              		.cfi_offset 14, -4
 4545              		.loc 1 773 0
 4546 0002 0446     		mov	r4, r0
 4547              		.loc 1 774 0
 4548 0004 0846     		mov	r0, r1
 4549              	.LVL503:
 4550 0006 FFF7FEFF 		bl	posix_fopen_modes_to_open
 4551              	.LVL504:
 4552              		.loc 1 775 0
 4553 000a 0146     		mov	r1, r0
 4554 000c 2046     		mov	r0, r4
 4555              	.LVL505:
 4556 000e FFF7FEFF 		bl	open
 4557              	.LVL506:
 4558              		.loc 1 779 0
 4559 0012 BDE81040 		pop	{r4, lr}
 4560              		.cfi_restore 14
ARM GAS  C:\cygwin64\tmp\ccxdpAIh.s 			page 81


 4561              		.cfi_restore 4
 4562              		.cfi_def_cfa_offset 0
 4563              	.LVL507:
 4564              		.loc 1 778 0
 4565 0016 FFF7FEBF 		b	fileno_to_stream
 4566              	.LVL508:
 4567              		.cfi_endproc
 4568              	.LFE268:
 4569              		.size	fopen, .-fopen
 4570              		.section	.text.__wrap_freopen,"ax",%progbits
 4571              		.align	1
 4572              		.global	__wrap_freopen
 4573              		.syntax unified
 4574              		.thumb
 4575              		.thumb_func
 4576              		.fpu fpv4-sp-d16
 4577              		.type	__wrap_freopen, %function
 4578              	__wrap_freopen:
 4579              	.LFB278:
 4580              		.loc 1 1219 0
 4581              		.cfi_startproc
 4582              		@ args = 0, pretend = 0, frame = 0
 4583              		@ frame_needed = 0, uses_anonymous_args = 0
 4584              	.LVL509:
 4585 0000 38B5     		push	{r3, r4, r5, lr}
 4586              		.cfi_def_cfa_offset 16
 4587              		.cfi_offset 3, -16
 4588              		.cfi_offset 4, -12
 4589              		.cfi_offset 5, -8
 4590              		.cfi_offset 14, -4
 4591              		.loc 1 1219 0
 4592 0002 0446     		mov	r4, r0
 4593              		.loc 1 1220 0
 4594 0004 1046     		mov	r0, r2
 4595              	.LVL510:
 4596              		.loc 1 1219 0
 4597 0006 0D46     		mov	r5, r1
 4598              		.loc 1 1220 0
 4599 0008 FFF7FEFF 		bl	fileno
 4600              	.LVL511:
 4601              		.loc 1 1221 0
 4602 000c FFF7FEFF 		bl	close
 4603              	.LVL512:
 4604              		.loc 1 1222 0
 4605 0010 0028     		cmp	r0, #0
 4606 0012 05DB     		blt	.L564
 4607              		.loc 1 1225 0
 4608 0014 2946     		mov	r1, r5
 4609 0016 2046     		mov	r0, r4
 4610              	.LVL513:
 4611              		.loc 1 1226 0
 4612 0018 BDE83840 		pop	{r3, r4, r5, lr}
 4613              		.cfi_remember_state
 4614              		.cfi_restore 14
 4615              		.cfi_restore 5
 4616              		.cfi_restore 4
 4617              		.cfi_restore 3
ARM GAS  C:\cygwin64\tmp\ccxdpAIh.s 			page 82


 4618              		.cfi_def_cfa_offset 0
 4619              	.LVL514:
 4620              		.loc 1 1225 0
 4621 001c FFF7FEBF 		b	fopen
 4622              	.LVL515:
 4623              	.L564:
 4624              		.cfi_restore_state
 4625              		.loc 1 1226 0
 4626 0020 0020     		movs	r0, #0
 4627              	.LVL516:
 4628 0022 38BD     		pop	{r3, r4, r5, pc}
 4629              		.cfi_endproc
 4630              	.LFE278:
 4631              		.size	__wrap_freopen, .-__wrap_freopen
 4632              		.section	.text.fprintf,"ax",%progbits
 4633              		.align	1
 4634              		.global	fprintf
 4635              		.syntax unified
 4636              		.thumb
 4637              		.thumb_func
 4638              		.fpu fpv4-sp-d16
 4639              		.type	fprintf, %function
 4640              	fprintf:
 4641              	.LFB315:
 4642              		.loc 1 2540 0
 4643              		.cfi_startproc
 4644              		@ args = 4, pretend = 12, frame = 8
 4645              		@ frame_needed = 0, uses_anonymous_args = 1
 4646              	.LVL517:
 4647 0000 0EB4     		push	{r1, r2, r3}
 4648              		.cfi_def_cfa_offset 12
 4649              		.cfi_offset 1, -12
 4650              		.cfi_offset 2, -8
 4651              		.cfi_offset 3, -4
 4652 0002 77B5     		push	{r0, r1, r2, r4, r5, r6, lr}
 4653              		.cfi_def_cfa_offset 40
 4654              		.cfi_offset 4, -28
 4655              		.cfi_offset 5, -24
 4656              		.cfi_offset 6, -20
 4657              		.cfi_offset 14, -16
 4658              		.loc 1 2540 0
 4659 0004 07AA     		add	r2, sp, #28
 4660 0006 0646     		mov	r6, r0
 4661 0008 52F8041B 		ldr	r1, [r2], #4
 4662              		.loc 1 2544 0
 4663 000c 0092     		str	r2, [sp]
 4664              		.loc 1 2545 0
 4665 000e 01A8     		add	r0, sp, #4
 4666              	.LVL518:
 4667 0010 FFF7FEFF 		bl	vasprintf
 4668              	.LVL519:
 4669 0014 04B2     		sxth	r4, r0
 4670              	.LVL520:
 4671              		.loc 1 2546 0
 4672 0016 002C     		cmp	r4, #0
 4673 0018 0FDD     		ble	.L568
 4674 001a 0025     		movs	r5, #0
ARM GAS  C:\cygwin64\tmp\ccxdpAIh.s 			page 83


 4675              	.L567:
 4676              	.LVL521:
 4677              		.loc 1 2548 0 discriminator 3
 4678 001c 019B     		ldr	r3, [sp, #4]
 4679 001e 3146     		mov	r1, r6
 4680 0020 585D     		ldrb	r0, [r3, r5]	@ zero_extendqisi2
 4681 0022 0135     		adds	r5, r5, #1
 4682              	.LVL522:
 4683 0024 FFF7FEFF 		bl	fputc
 4684              	.LVL523:
 4685              		.loc 1 2547 0 discriminator 3
 4686 0028 2BB2     		sxth	r3, r5
 4687 002a 9C42     		cmp	r4, r3
 4688 002c F6DC     		bgt	.L567
 4689              		.loc 1 2556 0
 4690 002e 2046     		mov	r0, r4
 4691              	.L565:
 4692              		.loc 1 2557 0
 4693 0030 03B0     		add	sp, sp, #12
 4694              		.cfi_remember_state
 4695              		.cfi_def_cfa_offset 28
 4696              		@ sp needed
 4697 0032 BDE87040 		pop	{r4, r5, r6, lr}
 4698              		.cfi_restore 14
 4699              		.cfi_restore 6
 4700              		.cfi_restore 5
 4701              		.cfi_restore 4
 4702              		.cfi_def_cfa_offset 12
 4703              	.LVL524:
 4704 0036 03B0     		add	sp, sp, #12
 4705              		.cfi_restore 3
 4706              		.cfi_restore 2
 4707              		.cfi_restore 1
 4708              		.cfi_def_cfa_offset 0
 4709 0038 7047     		bx	lr
 4710              	.LVL525:
 4711              	.L568:
 4712              		.cfi_restore_state
 4713              		.loc 1 2552 0
 4714 003a 4FF0FF30 		mov	r0, #-1
 4715 003e F7E7     		b	.L565
 4716              		.cfi_endproc
 4717              	.LFE315:
 4718              		.size	fprintf, .-fprintf
 4719              		.section	.text.fsync,"ax",%progbits
 4720              		.align	1
 4721              		.global	fsync
 4722              		.syntax unified
 4723              		.thumb
 4724              		.thumb_func
 4725              		.fpu fpv4-sp-d16
 4726              		.type	fsync, %function
 4727              	fsync:
 4728              	.LFB316:
 4729              		.loc 1 2564 0
 4730              		.cfi_startproc
 4731              		@ args = 0, pretend = 0, frame = 0
ARM GAS  C:\cygwin64\tmp\ccxdpAIh.s 			page 84


 4732              		@ frame_needed = 0, uses_anonymous_args = 0
 4733              	.LVL526:
 4734 0000 38B5     		push	{r3, r4, r5, lr}
 4735              		.cfi_def_cfa_offset 16
 4736              		.cfi_offset 3, -16
 4737              		.cfi_offset 4, -12
 4738              		.cfi_offset 5, -8
 4739              		.cfi_offset 14, -4
 4740              		.loc 1 2569 0
 4741 0002 0D4C     		ldr	r4, .L581
 4742 0004 0023     		movs	r3, #0
 4743              		.loc 1 2564 0
 4744 0006 0546     		mov	r5, r0
 4745              		.loc 1 2569 0
 4746 0008 2360     		str	r3, [r4]
 4747              		.loc 1 2572 0
 4748 000a FFF7FEFF 		bl	fileno_to_stream
 4749              	.LVL527:
 4750              		.loc 1 2573 0
 4751 000e 10B9     		cbnz	r0, .L571
 4752              	.LVL528:
 4753              	.L580:
 4754              		.loc 1 2588 0
 4755 0010 4FF0FF30 		mov	r0, #-1
 4756              	.L570:
 4757              		.loc 1 2591 0
 4758 0014 38BD     		pop	{r3, r4, r5, pc}
 4759              	.LVL529:
 4760              	.L571:
 4761              		.loc 1 2579 0
 4762 0016 2846     		mov	r0, r5
 4763              	.LVL530:
 4764 0018 FFF7FEFF 		bl	fileno_to_fatfs
 4765              	.LVL531:
 4766              		.loc 1 2580 0
 4767 001c 0028     		cmp	r0, #0
 4768 001e F7D0     		beq	.L580
 4769              		.loc 1 2584 0
 4770 0020 FFF7FEFF 		bl	f_sync
 4771              	.LVL532:
 4772              		.loc 1 2585 0
 4773 0024 0028     		cmp	r0, #0
 4774 0026 F5D0     		beq	.L570
 4775              	.LVL533:
 4776 0028 1328     		cmp	r0, #19
 4777 002a 96BF     		itet	ls
 4778 002c 034B     		ldrls	r3, .L581+4
 4779 002e 2323     		movhi	r3, #35
 4780              	.LVL534:
 4781 0030 1B56     		ldrsbls	r3, [r3, r0]
 4782              		.loc 1 2587 0
 4783 0032 2360     		str	r3, [r4]
 4784 0034 ECE7     		b	.L580
 4785              	.L582:
 4786 0036 00BF     		.align	2
 4787              	.L581:
 4788 0038 00000000 		.word	.LANCHOR0
ARM GAS  C:\cygwin64\tmp\ccxdpAIh.s 			page 85


 4789 003c 00000000 		.word	.LANCHOR1
 4790              		.cfi_endproc
 4791              	.LFE316:
 4792              		.size	fsync, .-fsync
 4793              		.global	sys_errlist
 4794              		.global	__iob
 4795              		.global	errno
 4796              		.section	.rodata
 4797              		.align	2
 4798              		.set	.LANCHOR6,. + 0
 4799              	.LC0:
 4800 0000 1F000000 		.word	31
 4801 0004 1C000000 		.word	28
 4802 0008 1F000000 		.word	31
 4803 000c 1E000000 		.word	30
 4804 0010 1F000000 		.word	31
 4805 0014 1E000000 		.word	30
 4806 0018 1F000000 		.word	31
 4807 001c 1F000000 		.word	31
 4808 0020 1E000000 		.word	30
 4809 0024 1F000000 		.word	31
 4810 0028 1E000000 		.word	30
 4811 002c 1F000000 		.word	31
 4812              		.section	.bss.__iob,"aw",%nobits
 4813              		.align	2
 4814              		.set	.LANCHOR2,. + 0
 4815              		.type	__iob, %object
 4816              		.size	__iob, 64
 4817              	__iob:
 4818 0000 00000000 		.space	64
 4818      00000000 
 4818      00000000 
 4818      00000000 
 4818      00000000 
 4819              		.section	.bss._de,"aw",%nobits
 4820              		.set	.LANCHOR4,. + 0
 4821              		.type	_de, %object
 4822              		.size	_de, 255
 4823              	_de:
 4824 0000 00000000 		.space	255
 4824      00000000 
 4824      00000000 
 4824      00000000 
 4824      00000000 
 4825              		.section	.bss._dp,"aw",%nobits
 4826              		.align	3
 4827              		.set	.LANCHOR3,. + 0
 4828              		.type	_dp, %object
 4829              		.size	_dp, 72
 4830              	_dp:
 4831 0000 00000000 		.space	72
 4831      00000000 
 4831      00000000 
 4831      00000000 
 4831      00000000 
 4832              		.section	.bss.errno,"aw",%nobits
 4833              		.align	2
ARM GAS  C:\cygwin64\tmp\ccxdpAIh.s 			page 86


 4834              		.set	.LANCHOR0,. + 0
 4835              		.type	errno, %object
 4836              		.size	errno, 4
 4837              	errno:
 4838 0000 00000000 		.space	4
 4839              		.section	.data.sys_errlist,"aw",%progbits
 4840              		.align	2
 4841              		.set	.LANCHOR5,. + 0
 4842              		.type	sys_errlist, %object
 4843              		.size	sys_errlist, 148
 4844              	sys_errlist:
 4845 0000 00000000 		.word	.LC17
 4846 0004 03000000 		.word	.LC18
 4847 0008 1B000000 		.word	.LC19
 4848 000c 35000000 		.word	.LC20
 4849 0010 45000000 		.word	.LC21
 4850 0014 5D000000 		.word	.LC22
 4851 0018 67000000 		.word	.LC23
 4852 001c 81000000 		.word	.LC24
 4853 0020 98000000 		.word	.LC25
 4854 0024 AA000000 		.word	.LC26
 4855 0028 BA000000 		.word	.LC27
 4856 002c CD000000 		.word	.LC28
 4857 0030 D7000000 		.word	.LC29
 4858 0034 E5000000 		.word	.LC30
 4859 0038 F7000000 		.word	.LC31
 4860 003c 03010000 		.word	.LC32
 4861 0040 19010000 		.word	.LC33
 4862 0044 31010000 		.word	.LC34
 4863 0048 3D010000 		.word	.LC35
 4864 004c 4F010000 		.word	.LC36
 4865 0050 5E010000 		.word	.LC37
 4866 0054 6E010000 		.word	.LC38
 4867 0058 7D010000 		.word	.LC39
 4868 005c 8E010000 		.word	.LC40
 4869 0060 A2010000 		.word	.LC41
 4870 0064 B6010000 		.word	.LC42
 4871 0068 C7010000 		.word	.LC43
 4872 006c D6010000 		.word	.LC44
 4873 0070 E5010000 		.word	.LC45
 4874 0074 FD010000 		.word	.LC46
 4875 0078 0A020000 		.word	.LC47
 4876 007c 20020000 		.word	.LC48
 4877 0080 2F020000 		.word	.LC49
 4878 0084 3B020000 		.word	.LC50
 4879 0088 5F020000 		.word	.LC51
 4880 008c 7D020000 		.word	.LC52
 4881 0090 00000000 		.word	0
 4882              		.section	.rodata.CSWTCH.61,"a",%progbits
 4883              		.set	.LANCHOR1,. + 0
 4884              		.type	CSWTCH.61, %object
 4885              		.size	CSWTCH.61, 20
 4886              	CSWTCH.61:
 4887 0000 00       		.byte	0
 4888 0001 05       		.byte	5
 4889 0002 01       		.byte	1
 4890 0003 10       		.byte	16
ARM GAS  C:\cygwin64\tmp\ccxdpAIh.s 			page 87


 4891 0004 02       		.byte	2
 4892 0005 02       		.byte	2
 4893 0006 16       		.byte	22
 4894 0007 0D       		.byte	13
 4895 0008 11       		.byte	17
 4896 0009 16       		.byte	22
 4897 000a 1E       		.byte	30
 4898 000b 06       		.byte	6
 4899 000c 1C       		.byte	28
 4900 000d 06       		.byte	6
 4901 000e 16       		.byte	22
 4902 000f 10       		.byte	16
 4903 0010 10       		.byte	16
 4904 0011 0C       		.byte	12
 4905 0012 18       		.byte	24
 4906 0013 16       		.byte	22
 4907              		.section	.rodata.basename.str1.1,"aMS",%progbits,1
 4908              	.LC2:
 4909 0000 00       		.ascii	"\000"
 4910              		.section	.rodata.fs_getfree.str1.1,"aMS",%progbits,1
 4911              	.LC1:
 4912 0000 2F00     		.ascii	"/\000"
 4913              		.section	.rodata.perror.str1.1,"aMS",%progbits,1
 4914              	.LC3:
 4915 0000 25733A20 		.ascii	"%s: %s\012\000"
 4915      25730A00 
 4916              		.section	.rodata.posix_fopen_modes_to_open.str1.1,"aMS",%progbits,1
 4917              	.LC5:
 4918 0000 7200     		.ascii	"r\000"
 4919              	.LC6:
 4920 0002 726200   		.ascii	"rb\000"
 4921              	.LC7:
 4922 0005 722B00   		.ascii	"r+\000"
 4923              	.LC8:
 4924 0008 722B6200 		.ascii	"r+b\000"
 4925              	.LC9:
 4926 000c 72622B00 		.ascii	"rb+\000"
 4927              	.LC10:
 4928 0010 7700     		.ascii	"w\000"
 4929              	.LC11:
 4930 0012 776200   		.ascii	"wb\000"
 4931              	.LC12:
 4932 0015 772B00   		.ascii	"w+\000"
 4933              	.LC13:
 4934 0018 772B6200 		.ascii	"w+b\000"
 4935              	.LC14:
 4936 001c 77622B00 		.ascii	"wb+\000"
 4937              	.LC15:
 4938 0020 6100     		.ascii	"a\000"
 4939              	.LC16:
 4940 0022 616200   		.ascii	"ab\000"
 4941              		.section	.rodata.stat.str1.1,"aMS",%progbits,1
 4942              	.LC4:
 4943 0000 2E00     		.ascii	".\000"
 4944              		.section	.rodata.str1.1,"aMS",%progbits,1
 4945              	.LC17:
 4946 0000 4F4B00   		.ascii	"OK\000"
ARM GAS  C:\cygwin64\tmp\ccxdpAIh.s 			page 88


 4947              	.LC18:
 4948 0003 4F706572 		.ascii	"Operation not permitted\000"
 4948      6174696F 
 4948      6E206E6F 
 4948      74207065 
 4948      726D6974 
 4949              	.LC19:
 4950 001b 4E6F2073 		.ascii	"No such file or directory\000"
 4950      75636820 
 4950      66696C65 
 4950      206F7220 
 4950      64697265 
 4951              	.LC20:
 4952 0035 4E6F2073 		.ascii	"No such process\000"
 4952      75636820 
 4952      70726F63 
 4952      65737300 
 4953              	.LC21:
 4954 0045 496E7465 		.ascii	"Interrupted system call\000"
 4954      72727570 
 4954      74656420 
 4954      73797374 
 4954      656D2063 
 4955              	.LC22:
 4956 005d 492F4F20 		.ascii	"I/O error\000"
 4956      6572726F 
 4956      7200
 4957              	.LC23:
 4958 0067 4E6F2073 		.ascii	"No such device or address\000"
 4958      75636820 
 4958      64657669 
 4958      6365206F 
 4958      72206164 
 4959              	.LC24:
 4960 0081 41726775 		.ascii	"Argument list too long\000"
 4960      6D656E74 
 4960      206C6973 
 4960      7420746F 
 4960      6F206C6F 
 4961              	.LC25:
 4962 0098 45786563 		.ascii	"Exec format error\000"
 4962      20666F72 
 4962      6D617420 
 4962      6572726F 
 4962      7200
 4963              	.LC26:
 4964 00aa 42616420 		.ascii	"Bad file number\000"
 4964      66696C65 
 4964      206E756D 
 4964      62657200 
 4965              	.LC27:
 4966 00ba 4E6F2063 		.ascii	"No child processes\000"
 4966      68696C64 
 4966      2070726F 
 4966      63657373 
 4966      657300
 4967              	.LC28:
ARM GAS  C:\cygwin64\tmp\ccxdpAIh.s 			page 89


 4968 00cd 54727920 		.ascii	"Try again\000"
 4968      61676169 
 4968      6E00
 4969              	.LC29:
 4970 00d7 4F757420 		.ascii	"Out of memory\000"
 4970      6F66206D 
 4970      656D6F72 
 4970      7900
 4971              	.LC30:
 4972 00e5 5065726D 		.ascii	"Permission denied\000"
 4972      69737369 
 4972      6F6E2064 
 4972      656E6965 
 4972      6400
 4973              	.LC31:
 4974 00f7 42616420 		.ascii	"Bad address\000"
 4974      61646472 
 4974      65737300 
 4975              	.LC32:
 4976 0103 426C6F63 		.ascii	"Block device required\000"
 4976      6B206465 
 4976      76696365 
 4976      20726571 
 4976      75697265 
 4977              	.LC33:
 4978 0119 44657669 		.ascii	"Device or resource busy\000"
 4978      6365206F 
 4978      72207265 
 4978      736F7572 
 4978      63652062 
 4979              	.LC34:
 4980 0131 46696C65 		.ascii	"File exists\000"
 4980      20657869 
 4980      73747300 
 4981              	.LC35:
 4982 013d 43726F73 		.ascii	"Cross-device link\000"
 4982      732D6465 
 4982      76696365 
 4982      206C696E 
 4982      6B00
 4983              	.LC36:
 4984 014f 4E6F2073 		.ascii	"No such device\000"
 4984      75636820 
 4984      64657669 
 4984      636500
 4985              	.LC37:
 4986 015e 4E6F7420 		.ascii	"Not a directory\000"
 4986      61206469 
 4986      72656374 
 4986      6F727900 
 4987              	.LC38:
 4988 016e 49732061 		.ascii	"Is a directory\000"
 4988      20646972 
 4988      6563746F 
 4988      727900
 4989              	.LC39:
 4990 017d 496E7661 		.ascii	"Invalid argument\000"
ARM GAS  C:\cygwin64\tmp\ccxdpAIh.s 			page 90


 4990      6C696420 
 4990      61726775 
 4990      6D656E74 
 4990      00
 4991              	.LC40:
 4992 018e 46696C65 		.ascii	"File table overflow\000"
 4992      20746162 
 4992      6C65206F 
 4992      76657266 
 4992      6C6F7700 
 4993              	.LC41:
 4994 01a2 546F6F20 		.ascii	"Too many open files\000"
 4994      6D616E79 
 4994      206F7065 
 4994      6E206669 
 4994      6C657300 
 4995              	.LC42:
 4996 01b6 4E6F7420 		.ascii	"Not a typewriter\000"
 4996      61207479 
 4996      70657772 
 4996      69746572 
 4996      00
 4997              	.LC43:
 4998 01c7 54657874 		.ascii	"Text file busy\000"
 4998      2066696C 
 4998      65206275 
 4998      737900
 4999              	.LC44:
 5000 01d6 46696C65 		.ascii	"File too large\000"
 5000      20746F6F 
 5000      206C6172 
 5000      676500
 5001              	.LC45:
 5002 01e5 4E6F2073 		.ascii	"No space left on device\000"
 5002      70616365 
 5002      206C6566 
 5002      74206F6E 
 5002      20646576 
 5003              	.LC46:
 5004 01fd 496C6C65 		.ascii	"Illegal seek\000"
 5004      67616C20 
 5004      7365656B 
 5004      00
 5005              	.LC47:
 5006 020a 52656164 		.ascii	"Read-only file system\000"
 5006      2D6F6E6C 
 5006      79206669 
 5006      6C652073 
 5006      79737465 
 5007              	.LC48:
 5008 0220 546F6F20 		.ascii	"Too many links\000"
 5008      6D616E79 
 5008      206C696E 
 5008      6B7300
 5009              	.LC49:
 5010 022f 42726F6B 		.ascii	"Broken pipe\000"
 5010      656E2070 
ARM GAS  C:\cygwin64\tmp\ccxdpAIh.s 			page 91


 5010      69706500 
 5011              	.LC50:
 5012 023b 4D617468 		.ascii	"Math argument out of domain of func\000"
 5012      20617267 
 5012      756D656E 
 5012      74206F75 
 5012      74206F66 
 5013              	.LC51:
 5014 025f 4D617468 		.ascii	"Math result not representable\000"
 5014      20726573 
 5014      756C7420 
 5014      6E6F7420 
 5014      72657072 
 5015              	.LC52:
 5016 027d 42616420 		.ascii	"Bad Message\000"
 5016      4D657373 
 5016      61676500 
 5017              		.text
 5018              	.Letext0:
 5019              		.file 2 "c:\\program files (x86)\\gnu tools arm embedded\\6 2017-q2-update\\lib\\gcc\\arm-none-eab
 5020              		.file 3 "c:\\program files (x86)\\gnu tools arm embedded\\6 2017-q2-update\\arm-none-eabi\\include
 5021              		.file 4 "c:\\program files (x86)\\gnu tools arm embedded\\6 2017-q2-update\\arm-none-eabi\\include
 5022              		.file 5 "c:\\program files (x86)\\gnu tools arm embedded\\6 2017-q2-update\\arm-none-eabi\\include
 5023              		.file 6 "c:\\program files (x86)\\gnu tools arm embedded\\6 2017-q2-update\\arm-none-eabi\\include
 5024              		.file 7 "c:\\program files (x86)\\gnu tools arm embedded\\6 2017-q2-update\\arm-none-eabi\\include
 5025              		.file 8 "../../modules/ChibiOS/ext/fatfs/src/integer.h"
 5026              		.file 9 "../../modules/ChibiOS/os/common/ports/ARMCMx/compilers/GCC/chtypes.h"
 5027              		.file 10 "../../modules/ChibiOS/os/rt/include/chsystypes.h"
 5028              		.file 11 "../../modules/ChibiOS/os/rt/include/chschd.h"
 5029              		.file 12 "../../modules/ChibiOS/os/common/ext/CMSIS/include/core_cm4.h"
 5030              		.file 13 "../../modules/ChibiOS/os/common/ext/CMSIS/ST/STM32F4xx/system_stm32f4xx.h"
 5031              		.file 14 "../../modules/ChibiOS/os/common/ports/ARMCMx/chcore.h"
 5032              		.file 15 "../../modules/ChibiOS/os/common/ports/ARMCMx/chcore_v7m.h"
 5033              		.file 16 "../../modules/ChibiOS/os/rt/include/chtm.h"
 5034              		.file 17 "../../modules/ChibiOS/os/rt/include/chstats.h"
 5035              		.file 18 "../../modules/ChibiOS/os/rt/include/chsem.h"
 5036              		.file 19 "../../modules/ChibiOS/os/rt/include/chmtx.h"
 5037              		.file 20 "../../modules/ChibiOS/os/rt/include/chsys.h"
 5038              		.file 21 "../../modules/ChibiOS/os/rt/include/chregistry.h"
 5039              		.file 22 "../../modules/ChibiOS/ext/fatfs/src/ff.h"
 5040              		.file 23 "c:\\program files (x86)\\gnu tools arm embedded\\6 2017-q2-update\\lib\\gcc\\arm-none-ea
 5041              		.file 24 "<built-in>"
 5042              		.file 25 "c:\\program files (x86)\\gnu tools arm embedded\\6 2017-q2-update\\arm-none-eabi\\includ
 5043              		.file 26 "c:\\program files (x86)\\gnu tools arm embedded\\6 2017-q2-update\\arm-none-eabi\\includ
 5044              		.file 27 "c:\\program files (x86)\\gnu tools arm embedded\\6 2017-q2-update\\arm-none-eabi\\includ
 5045              		.file 28 "../../libraries/AP_HAL_ChibiOS/hwdef/common/posix.h"
 5046              		.file 29 "../../libraries/AP_HAL_ChibiOS/hwdef/common/stdio.h"
 5047              		.file 30 "c:\\program files (x86)\\gnu tools arm embedded\\6 2017-q2-update\\arm-none-eabi\\includ