ARM GAS  C:\cygwin64\tmp\ccxdpAIh.s 			page 1


   1              		.cpu cortex-m4
   2              		.eabi_attribute 27, 1
   3              		.eabi_attribute 28, 1
   4              		.eabi_attribute 20, 1
   5              		.eabi_attribute 21, 1
   6              		.eabi_attribute 23, 3
   7              		.eabi_attribute 24, 1
   8              		.eabi_attribute 25, 1
   9              		.eabi_attribute 26, 1
  10              		.eabi_attribute 30, 4
  11              		.eabi_attribute 34, 1
  12              		.eabi_attribute 18, 4
  13              		.file	"posix.c"
  14              		.text
  15              	.Ltext0:
  16              		.cfi_sections	.debug_frame
  17              		.section	.text.fatfs_getc,"ax",%progbits
  18              		.align	1
  19              		.global	fatfs_getc
  20              		.syntax unified
  21              		.thumb
  22              		.thumb_func
  23              		.fpu fpv4-sp-d16
  24              		.type	fatfs_getc, %function
  25              	fatfs_getc:
  26              	.LFB304:
  27              		.file 1 "../../libraries/AP_HAL_ChibiOS/hwdef/common/posix.c"
  28              		.loc 1 1998 0
  29              		.cfi_startproc
  30              		@ args = 0, pretend = 0, frame = 8
  31              		@ frame_needed = 0, uses_anonymous_args = 0
  32              	.LVL0:
  33 0000 73B5     		push	{r0, r1, r4, r5, r6, lr}
  34              		.cfi_def_cfa_offset 24
  35              		.cfi_offset 4, -16
  36              		.cfi_offset 5, -12
  37              		.cfi_offset 6, -8
  38              		.cfi_offset 14, -4
  39              		.loc 1 2005 0
  40 0002 214D     		ldr	r5, .L21
  41 0004 0023     		movs	r3, #0
  42 0006 2B60     		str	r3, [r5]
  43              		.loc 1 2007 0
  44 0008 0646     		mov	r6, r0
  45 000a 28B9     		cbnz	r0, .L2
  46              	.L4:
  47              		.loc 1 2009 0
  48 000c 0923     		movs	r3, #9
  49 000e 2B60     		str	r3, [r5]
  50              	.LVL1:
  51              	.L20:
  52              		.loc 1 2025 0
  53 0010 4FF0FF30 		mov	r0, #-1
  54              	.L1:
  55              		.loc 1 2072 0
  56 0014 02B0     		add	sp, sp, #8
  57              		.cfi_remember_state
ARM GAS  C:\cygwin64\tmp\ccxdpAIh.s 			page 2


  58              		.cfi_def_cfa_offset 16
  59              		@ sp needed
  60 0016 70BD     		pop	{r4, r5, r6, pc}
  61              	.LVL2:
  62              	.L2:
  63              		.cfi_restore_state
  64              		.loc 1 2013 0
  65 0018 8469     		ldr	r4, [r0, #24]
  66              	.LVL3:
  67              		.loc 1 2014 0
  68 001a 002C     		cmp	r4, #0
  69 001c F6D0     		beq	.L4
  70              		.loc 1 2020 0
  71 001e 01AB     		add	r3, sp, #4
  72 0020 0122     		movs	r2, #1
  73 0022 0DF10301 		add	r1, sp, #3
  74 0026 2046     		mov	r0, r4
  75              	.LVL4:
  76 0028 FFF7FEFF 		bl	f_read
  77              	.LVL5:
  78              		.loc 1 2021 0
  79 002c 50B9     		cbnz	r0, .L5
  80              		.loc 1 2021 0 is_stmt 0 discriminator 1
  81 002e 019A     		ldr	r2, [sp, #4]
  82 0030 012A     		cmp	r2, #1
  83 0032 0BD0     		beq	.L19
  84              	.L6:
  85              	.LVL6:
  86 0034 154B     		ldr	r3, .L21+4
  87 0036 1B56     		ldrsb	r3, [r3, r0]
  88              	.L8:
  89              	.LVL7:
  90              		.loc 1 2023 0 is_stmt 1
  91 0038 2B60     		str	r3, [r5]
  92              		.loc 1 2024 0
  93 003a 7379     		ldrb	r3, [r6, #5]	@ zero_extendqisi2
  94 003c 43F02003 		orr	r3, r3, #32
  95 0040 7371     		strb	r3, [r6, #5]
  96 0042 E5E7     		b	.L20
  97              	.L5:
  98              	.LVL8:
  99 0044 1328     		cmp	r0, #19
 100 0046 F5D9     		bls	.L6
 101              		.loc 1 2021 0
 102 0048 2323     		movs	r3, #35
 103 004a F5E7     		b	.L8
 104              	.LVL9:
 105              	.L19:
 106              		.loc 1 2051 0
 107 004c 9DF80330 		ldrb	r3, [sp, #3]	@ zero_extendqisi2
 108 0050 0D2B     		cmp	r3, #13
 109 0052 15D1     		bne	.L9
 110              		.loc 1 2056 0
 111 0054 01AB     		add	r3, sp, #4
 112 0056 0DF10301 		add	r1, sp, #3
 113 005a 2046     		mov	r0, r4
 114              	.LVL10:
ARM GAS  C:\cygwin64\tmp\ccxdpAIh.s 			page 3


 115              		.loc 1 2054 0
 116 005c 256B     		ldr	r5, [r4, #48]
 117              	.LVL11:
 118              		.loc 1 2056 0
 119 005e FFF7FEFF 		bl	f_read
 120              	.LVL12:
 121              		.loc 1 2057 0
 122 0062 58B9     		cbnz	r0, .L12
 123              		.loc 1 2057 0 is_stmt 0 discriminator 1
 124 0064 019B     		ldr	r3, [sp, #4]
 125 0066 012B     		cmp	r3, #1
 126 0068 08D1     		bne	.L12
 127              		.loc 1 2063 0 is_stmt 1
 128 006a 9DF80330 		ldrb	r3, [sp, #3]	@ zero_extendqisi2
 129 006e 0A2B     		cmp	r3, #10
 130 0070 06D0     		beq	.L9
 131              		.loc 1 2066 0
 132 0072 2A46     		mov	r2, r5
 133 0074 EB17     		asrs	r3, r5, #31
 134 0076 2046     		mov	r0, r4
 135              	.LVL13:
 136 0078 FFF7FEFF 		bl	f_lseek
 137              	.LVL14:
 138              	.L12:
 139              		.loc 1 2060 0
 140 007c 0A20     		movs	r0, #10
 141 007e C9E7     		b	.L1
 142              	.LVL15:
 143              	.L9:
 144              		.loc 1 2071 0
 145 0080 9DF80300 		ldrb	r0, [sp, #3]	@ zero_extendqisi2
 146 0084 C6E7     		b	.L1
 147              	.L22:
 148 0086 00BF     		.align	2
 149              	.L21:
 150 0088 00000000 		.word	.LANCHOR0
 151 008c 00000000 		.word	.LANCHOR1
 152              		.cfi_endproc
 153              	.LFE304:
 154              		.size	fatfs_getc, .-fatfs_getc
 155              		.section	.text.fatfs_putc,"ax",%progbits
 156              		.align	1
 157              		.global	fatfs_putc
 158              		.syntax unified
 159              		.thumb
 160              		.thumb_func
 161              		.fpu fpv4-sp-d16
 162              		.type	fatfs_putc, %function
 163              	fatfs_putc:
 164              	.LFB305:
 165              		.loc 1 2088 0
 166              		.cfi_startproc
 167              		@ args = 0, pretend = 0, frame = 16
 168              		@ frame_needed = 0, uses_anonymous_args = 0
 169              	.LVL16:
 170 0000 30B5     		push	{r4, r5, lr}
 171              		.cfi_def_cfa_offset 12
ARM GAS  C:\cygwin64\tmp\ccxdpAIh.s 			page 4


 172              		.cfi_offset 4, -12
 173              		.cfi_offset 5, -8
 174              		.cfi_offset 14, -4
 175              		.loc 1 2093 0
 176 0002 154C     		ldr	r4, .L37
 177              		.loc 1 2088 0
 178 0004 85B0     		sub	sp, sp, #20
 179              		.cfi_def_cfa_offset 32
 180              		.loc 1 2093 0
 181 0006 0023     		movs	r3, #0
 182              		.loc 1 2088 0
 183 0008 8DF80700 		strb	r0, [sp, #7]
 184              		.loc 1 2093 0
 185 000c 2360     		str	r3, [r4]
 186              		.loc 1 2094 0
 187 000e 0D46     		mov	r5, r1
 188 0010 29B9     		cbnz	r1, .L24
 189              	.LVL17:
 190              	.L26:
 191              		.loc 1 2096 0
 192 0012 0923     		movs	r3, #9
 193 0014 2360     		str	r3, [r4]
 194              	.LVL18:
 195              	.L36:
 196              		.loc 1 2112 0
 197 0016 4FF0FF30 		mov	r0, #-1
 198              	.L23:
 199              		.loc 1 2115 0
 200 001a 05B0     		add	sp, sp, #20
 201              		.cfi_remember_state
 202              		.cfi_def_cfa_offset 12
 203              		@ sp needed
 204 001c 30BD     		pop	{r4, r5, pc}
 205              	.LVL19:
 206              	.L24:
 207              		.cfi_restore_state
 208              		.loc 1 2100 0
 209 001e 8869     		ldr	r0, [r1, #24]
 210              	.LVL20:
 211              		.loc 1 2101 0
 212 0020 0028     		cmp	r0, #0
 213 0022 F6D0     		beq	.L26
 214              		.loc 1 2107 0
 215 0024 03AB     		add	r3, sp, #12
 216 0026 0122     		movs	r2, #1
 217 0028 0DF10701 		add	r1, sp, #7
 218              	.LVL21:
 219 002c FFF7FEFF 		bl	f_write
 220              	.LVL22:
 221              		.loc 1 2108 0
 222 0030 50B9     		cbnz	r0, .L27
 223              		.loc 1 2108 0 is_stmt 0 discriminator 1
 224 0032 039B     		ldr	r3, [sp, #12]
 225 0034 012B     		cmp	r3, #1
 226 0036 0BD0     		beq	.L35
 227              	.L28:
 228              	.LVL23:
ARM GAS  C:\cygwin64\tmp\ccxdpAIh.s 			page 5


 229 0038 084B     		ldr	r3, .L37+4
 230 003a 1B56     		ldrsb	r3, [r3, r0]
 231              	.L30:
 232              	.LVL24:
 233              		.loc 1 2110 0 is_stmt 1
 234 003c 2360     		str	r3, [r4]
 235              		.loc 1 2111 0
 236 003e 6B79     		ldrb	r3, [r5, #5]	@ zero_extendqisi2
 237 0040 43F02003 		orr	r3, r3, #32
 238 0044 6B71     		strb	r3, [r5, #5]
 239 0046 E6E7     		b	.L36
 240              	.L27:
 241              	.LVL25:
 242 0048 1328     		cmp	r0, #19
 243 004a F5D9     		bls	.L28
 244              		.loc 1 2108 0
 245 004c 2323     		movs	r3, #35
 246 004e F5E7     		b	.L30
 247              	.LVL26:
 248              	.L35:
 249              		.loc 1 2114 0
 250 0050 9DF80700 		ldrb	r0, [sp, #7]	@ zero_extendqisi2
 251              	.LVL27:
 252 0054 E1E7     		b	.L23
 253              	.L38:
 254 0056 00BF     		.align	2
 255              	.L37:
 256 0058 00000000 		.word	.LANCHOR0
 257 005c 00000000 		.word	.LANCHOR1
 258              		.cfi_endproc
 259              	.LFE305:
 260              		.size	fatfs_putc, .-fatfs_putc
 261              		.section	.text.isatty,"ax",%progbits
 262              		.align	1
 263              		.global	isatty
 264              		.syntax unified
 265              		.thumb
 266              		.thumb_func
 267              		.fpu fpv4-sp-d16
 268              		.type	isatty, %function
 269              	isatty:
 270              	.LFB246:
 271              		.loc 1 186 0
 272              		.cfi_startproc
 273              		@ args = 0, pretend = 0, frame = 0
 274              		@ frame_needed = 0, uses_anonymous_args = 0
 275              		@ link register save eliminated.
 276              	.LVL28:
 277              		.loc 1 191 0
 278 0000 0228     		cmp	r0, #2
 279 0002 8CBF     		ite	hi
 280 0004 0020     		movhi	r0, #0
 281              	.LVL29:
 282 0006 0120     		movls	r0, #1
 283 0008 7047     		bx	lr
 284              		.cfi_endproc
 285              	.LFE246:
ARM GAS  C:\cygwin64\tmp\ccxdpAIh.s 			page 6


 286              		.size	isatty, .-isatty
 287              		.section	.text.fgetc,"ax",%progbits
 288              		.align	1
 289              		.global	fgetc
 290              		.syntax unified
 291              		.thumb
 292              		.thumb_func
 293              		.fpu fpv4-sp-d16
 294              		.type	fgetc, %function
 295              	fgetc:
 296              	.LFB247:
 297              		.loc 1 206 0
 298              		.cfi_startproc
 299              		@ args = 0, pretend = 0, frame = 0
 300              		@ frame_needed = 0, uses_anonymous_args = 0
 301              	.LVL30:
 302 0000 10B5     		push	{r4, lr}
 303              		.cfi_def_cfa_offset 8
 304              		.cfi_offset 4, -8
 305              		.cfi_offset 14, -4
 306              		.loc 1 209 0
 307 0002 0446     		mov	r4, r0
 308 0004 28B9     		cbnz	r0, .L41
 309              		.loc 1 211 0
 310 0006 184B     		ldr	r3, .L52
 311 0008 0922     		movs	r2, #9
 312 000a 1A60     		str	r2, [r3]
 313              	.LVL31:
 314              	.L49:
 315              		.loc 1 216 0
 316 000c 4FF0FF30 		mov	r0, #-1
 317              		.loc 1 248 0
 318 0010 10BD     		pop	{r4, pc}
 319              	.LVL32:
 320              	.L41:
 321              		.loc 1 215 0
 322 0012 4379     		ldrb	r3, [r0, #5]	@ zero_extendqisi2
 323 0014 DA07     		lsls	r2, r3, #31
 324 0016 F9D5     		bpl	.L49
 325              		.loc 1 218 0
 326 0018 5906     		lsls	r1, r3, #25
 327 001a 07D5     		bpl	.L43
 328              		.loc 1 219 0
 329 001c 23F04003 		bic	r3, r3, #64
 330 0020 4371     		strb	r3, [r0, #5]
 331              		.loc 1 220 0
 332 0022 C368     		ldr	r3, [r0, #12]
 333 0024 0133     		adds	r3, r3, #1
 334 0026 C360     		str	r3, [r0, #12]
 335              		.loc 1 221 0
 336 0028 0079     		ldrb	r0, [r0, #4]	@ zero_extendqisi2
 337              	.LVL33:
 338 002a 10BD     		pop	{r4, pc}
 339              	.LVL34:
 340              	.L43:
 341              		.loc 1 224 0
 342 002c 5A07     		lsls	r2, r3, #29
ARM GAS  C:\cygwin64\tmp\ccxdpAIh.s 			page 7


 343 002e 0CD5     		bpl	.L44
 344              		.loc 1 225 0
 345 0030 0268     		ldr	r2, [r0]
 346 0032 1078     		ldrb	r0, [r2]	@ zero_extendqisi2
 347              	.LVL35:
 348              		.loc 1 226 0
 349 0034 18B9     		cbnz	r0, .L45
 350              		.loc 1 227 0
 351 0036 43F02003 		orr	r3, r3, #32
 352              	.LVL36:
 353              	.L51:
 354              		.loc 1 241 0
 355 003a 6371     		strb	r3, [r4, #5]
 356 003c E6E7     		b	.L49
 357              	.LVL37:
 358              	.L45:
 359              		.loc 1 230 0
 360 003e 0132     		adds	r2, r2, #1
 361 0040 2260     		str	r2, [r4]
 362              	.L46:
 363              		.loc 1 246 0
 364 0042 E368     		ldr	r3, [r4, #12]
 365 0044 0133     		adds	r3, r3, #1
 366 0046 E360     		str	r3, [r4, #12]
 367              		.loc 1 247 0
 368 0048 10BD     		pop	{r4, pc}
 369              	.LVL38:
 370              	.L44:
 371              		.loc 1 233 0
 372 004a 4369     		ldr	r3, [r0, #20]
 373 004c 002B     		cmp	r3, #0
 374 004e DDD0     		beq	.L49
 375              		.loc 1 238 0
 376 0050 9847     		blx	r3
 377              	.LVL39:
 378              		.loc 1 239 0
 379 0052 0028     		cmp	r0, #0
 380 0054 F5DA     		bge	.L46
 381              		.loc 1 241 0
 382 0056 0230     		adds	r0, r0, #2
 383              	.LVL40:
 384 0058 94F90520 		ldrsb	r2, [r4, #5]
 385 005c 0CBF     		ite	eq
 386 005e 1023     		moveq	r3, #16
 387 0060 2023     		movne	r3, #32
 388 0062 1343     		orrs	r3, r3, r2
 389 0064 E9E7     		b	.L51
 390              	.L53:
 391 0066 00BF     		.align	2
 392              	.L52:
 393 0068 00000000 		.word	.LANCHOR0
 394              		.cfi_endproc
 395              	.LFE247:
 396              		.size	fgetc, .-fgetc
 397              		.section	.text.getc,"ax",%progbits
 398              		.align	1
 399              		.global	getc
ARM GAS  C:\cygwin64\tmp\ccxdpAIh.s 			page 8


 400              		.syntax unified
 401              		.thumb
 402              		.thumb_func
 403              		.fpu fpv4-sp-d16
 404              		.type	getc, %function
 405              	getc:
 406              	.LFB248:
 407              		.loc 1 250 0
 408              		.cfi_startproc
 409              		@ args = 0, pretend = 0, frame = 0
 410              		@ frame_needed = 0, uses_anonymous_args = 0
 411              		@ link register save eliminated.
 412              	.LVL41:
 413              		.loc 1 251 0
 414 0000 FFF7FEBF 		b	fgetc
 415              	.LVL42:
 416              		.cfi_endproc
 417              	.LFE248:
 418              		.size	getc, .-getc
 419              		.section	.text.fputc,"ax",%progbits
 420              		.align	1
 421              		.global	fputc
 422              		.syntax unified
 423              		.thumb
 424              		.thumb_func
 425              		.fpu fpv4-sp-d16
 426              		.type	fputc, %function
 427              	fputc:
 428              	.LFB249:
 429              		.loc 1 265 0
 430              		.cfi_startproc
 431              		@ args = 0, pretend = 0, frame = 0
 432              		@ frame_needed = 0, uses_anonymous_args = 0
 433              	.LVL43:
 434              		.loc 1 266 0
 435 0000 164B     		ldr	r3, .L66
 436 0002 0022     		movs	r2, #0
 437              		.loc 1 265 0
 438 0004 10B5     		push	{r4, lr}
 439              		.cfi_def_cfa_offset 8
 440              		.cfi_offset 4, -8
 441              		.cfi_offset 14, -4
 442              		.loc 1 266 0
 443 0006 1A60     		str	r2, [r3]
 444              		.loc 1 269 0
 445 0008 154B     		ldr	r3, .L66+4
 446 000a 5A68     		ldr	r2, [r3, #4]
 447 000c 8A42     		cmp	r2, r1
 448              		.loc 1 265 0
 449 000e 0C46     		mov	r4, r1
 450              		.loc 1 269 0
 451 0010 07D0     		beq	.L56
 452              		.loc 1 269 0 is_stmt 0 discriminator 1
 453 0012 9B68     		ldr	r3, [r3, #8]
 454 0014 9942     		cmp	r1, r3
 455 0016 04D0     		beq	.L56
 456              		.loc 1 271 0 is_stmt 1
ARM GAS  C:\cygwin64\tmp\ccxdpAIh.s 			page 9


 457 0018 C0B2     		uxtb	r0, r0
 458              	.LVL44:
 459              		.loc 1 294 0
 460 001a BDE81040 		pop	{r4, lr}
 461              		.cfi_remember_state
 462              		.cfi_restore 14
 463              		.cfi_restore 4
 464              		.cfi_def_cfa_offset 0
 465              		.loc 1 271 0
 466 001e FFF7FEBF 		b	fatfs_putc
 467              	.LVL45:
 468              	.L56:
 469              		.cfi_restore_state
 470              		.loc 1 276 0
 471 0022 6379     		ldrb	r3, [r4, #5]	@ zero_extendqisi2
 472 0024 9907     		lsls	r1, r3, #30
 473              	.LVL46:
 474 0026 15D5     		bpl	.L61
 475              		.loc 1 279 0
 476 0028 5A07     		lsls	r2, r3, #29
 477 002a 0BD5     		bpl	.L58
 478              		.loc 1 280 0
 479 002c E268     		ldr	r2, [r4, #12]
 480 002e A368     		ldr	r3, [r4, #8]
 481 0030 9A42     		cmp	r2, r3
 482 0032 03DA     		bge	.L65
 483              		.loc 1 281 0
 484 0034 2368     		ldr	r3, [r4]
 485 0036 5A1C     		adds	r2, r3, #1
 486 0038 2260     		str	r2, [r4]
 487 003a 1870     		strb	r0, [r3]
 488              	.LVL47:
 489              	.L65:
 490              	.LBB80:
 491              	.LBB81:
 492              		.loc 1 291 0
 493 003c E368     		ldr	r3, [r4, #12]
 494 003e 0133     		adds	r3, r3, #1
 495 0040 E360     		str	r3, [r4, #12]
 496 0042 10BD     		pop	{r4, pc}
 497              	.LVL48:
 498              	.L58:
 499              		.loc 1 285 0
 500 0044 2369     		ldr	r3, [r4, #16]
 501 0046 2BB1     		cbz	r3, .L61
 502              		.loc 1 289 0
 503 0048 2146     		mov	r1, r4
 504 004a C0B2     		uxtb	r0, r0
 505              	.LVL49:
 506 004c 9847     		blx	r3
 507              	.LVL50:
 508              		.loc 1 290 0
 509 004e 431C     		adds	r3, r0, #1
 510 0050 F4D1     		bne	.L65
 511              	.LVL51:
 512              	.L57:
 513              	.LBE81:
ARM GAS  C:\cygwin64\tmp\ccxdpAIh.s 			page 10


 514              	.LBE80:
 515              		.loc 1 294 0
 516 0052 10BD     		pop	{r4, pc}
 517              	.LVL52:
 518              	.L61:
 519              		.loc 1 277 0
 520 0054 4FF0FF30 		mov	r0, #-1
 521              	.LVL53:
 522 0058 FBE7     		b	.L57
 523              	.L67:
 524 005a 00BF     		.align	2
 525              	.L66:
 526 005c 00000000 		.word	.LANCHOR0
 527 0060 00000000 		.word	.LANCHOR2
 528              		.cfi_endproc
 529              	.LFE249:
 530              		.size	fputc, .-fputc
 531              		.section	.text.clearerr,"ax",%progbits
 532              		.align	1
 533              		.global	clearerr
 534              		.syntax unified
 535              		.thumb
 536              		.thumb_func
 537              		.fpu fpv4-sp-d16
 538              		.type	clearerr, %function
 539              	clearerr:
 540              	.LFB250:
 541              		.loc 1 297 0
 542              		.cfi_startproc
 543              		@ args = 0, pretend = 0, frame = 0
 544              		@ frame_needed = 0, uses_anonymous_args = 0
 545              		@ link register save eliminated.
 546              	.LVL54:
 547              		.loc 1 298 0
 548 0000 0023     		movs	r3, #0
 549 0002 4371     		strb	r3, [r0, #5]
 550 0004 7047     		bx	lr
 551              		.cfi_endproc
 552              	.LFE250:
 553              		.size	clearerr, .-clearerr
 554              		.section	.text.getchar,"ax",%progbits
 555              		.align	1
 556              		.global	getchar
 557              		.syntax unified
 558              		.thumb
 559              		.thumb_func
 560              		.fpu fpv4-sp-d16
 561              		.type	getchar, %function
 562              	getchar:
 563              	.LFB251:
 564              		.loc 1 315 0
 565              		.cfi_startproc
 566              		@ args = 0, pretend = 0, frame = 0
 567              		@ frame_needed = 0, uses_anonymous_args = 0
 568              		@ link register save eliminated.
 569              		.loc 1 316 0
 570 0000 014B     		ldr	r3, .L70
ARM GAS  C:\cygwin64\tmp\ccxdpAIh.s 			page 11


 571 0002 1868     		ldr	r0, [r3]
 572 0004 FFF7FEBF 		b	fgetc
 573              	.LVL55:
 574              	.L71:
 575              		.align	2
 576              	.L70:
 577 0008 00000000 		.word	.LANCHOR2
 578              		.cfi_endproc
 579              	.LFE251:
 580              		.size	getchar, .-getchar
 581              		.section	.text.putchar,"ax",%progbits
 582              		.align	1
 583              		.global	putchar
 584              		.syntax unified
 585              		.thumb
 586              		.thumb_func
 587              		.fpu fpv4-sp-d16
 588              		.type	putchar, %function
 589              	putchar:
 590              	.LFB252:
 591              		.loc 1 330 0
 592              		.cfi_startproc
 593              		@ args = 0, pretend = 0, frame = 0
 594              		@ frame_needed = 0, uses_anonymous_args = 0
 595              		@ link register save eliminated.
 596              	.LVL56:
 597              		.loc 1 331 0
 598 0000 014B     		ldr	r3, .L73
 599 0002 5968     		ldr	r1, [r3, #4]
 600 0004 FFF7FEBF 		b	fputc
 601              	.LVL57:
 602              	.L74:
 603              		.align	2
 604              	.L73:
 605 0008 00000000 		.word	.LANCHOR2
 606              		.cfi_endproc
 607              	.LFE252:
 608              		.size	putchar, .-putchar
 609              		.section	.text.putc,"ax",%progbits
 610              		.align	1
 611              		.global	putc
 612              		.syntax unified
 613              		.thumb
 614              		.thumb_func
 615              		.fpu fpv4-sp-d16
 616              		.type	putc, %function
 617              	putc:
 618              	.LFB253:
 619              		.loc 1 380 0
 620              		.cfi_startproc
 621              		@ args = 0, pretend = 0, frame = 0
 622              		@ frame_needed = 0, uses_anonymous_args = 0
 623              		@ link register save eliminated.
 624              	.LVL58:
 625              		.loc 1 381 0
 626 0000 FFF7FEBF 		b	fputc
 627              	.LVL59:
ARM GAS  C:\cygwin64\tmp\ccxdpAIh.s 			page 12


 628              		.cfi_endproc
 629              	.LFE253:
 630              		.size	putc, .-putc
 631              		.section	.text.fgets,"ax",%progbits
 632              		.align	1
 633              		.global	fgets
 634              		.syntax unified
 635              		.thumb
 636              		.thumb_func
 637              		.fpu fpv4-sp-d16
 638              		.type	fgets, %function
 639              	fgets:
 640              	.LFB254:
 641              		.loc 1 399 0
 642              		.cfi_startproc
 643              		@ args = 0, pretend = 0, frame = 0
 644              		@ frame_needed = 0, uses_anonymous_args = 0
 645              	.LVL60:
 646 0000 F8B5     		push	{r3, r4, r5, r6, r7, lr}
 647              		.cfi_def_cfa_offset 24
 648              		.cfi_offset 3, -24
 649              		.cfi_offset 4, -20
 650              		.cfi_offset 5, -16
 651              		.cfi_offset 6, -12
 652              		.cfi_offset 7, -8
 653              		.cfi_offset 14, -4
 654              		.loc 1 399 0
 655 0002 0546     		mov	r5, r0
 656 0004 1746     		mov	r7, r2
 657 0006 0E46     		mov	r6, r1
 658              		.loc 1 401 0
 659 0008 0024     		movs	r4, #0
 660              	.LVL61:
 661              	.L77:
 662              		.loc 1 402 0
 663 000a 2EB1     		cbz	r6, .L80
 664              		.loc 1 404 0
 665 000c 3846     		mov	r0, r7
 666 000e FFF7FEFF 		bl	fgetc
 667              	.LVL62:
 668              		.loc 1 405 0
 669 0012 431C     		adds	r3, r0, #1
 670 0014 04D1     		bne	.L78
 671              		.loc 1 407 0
 672 0016 74B1     		cbz	r4, .L84
 673              	.LVL63:
 674              	.L80:
 675              		.loc 1 421 0
 676 0018 0023     		movs	r3, #0
 677 001a 2B55     		strb	r3, [r5, r4]
 678              	.LVL64:
 679              	.L79:
 680              		.loc 1 423 0
 681 001c 2846     		mov	r0, r5
 682 001e F8BD     		pop	{r3, r4, r5, r6, r7, pc}
 683              	.LVL65:
 684              	.L78:
ARM GAS  C:\cygwin64\tmp\ccxdpAIh.s 			page 13


 685              		.loc 1 411 0
 686 0020 0A28     		cmp	r0, #10
 687 0022 F9D0     		beq	.L80
 688              		.loc 1 413 0
 689 0024 0828     		cmp	r0, #8
 690 0026 03D1     		bne	.L81
 691              		.loc 1 415 0
 692 0028 04B1     		cbz	r4, .L82
 693              		.loc 1 416 0
 694 002a 013C     		subs	r4, r4, #1
 695              	.LVL66:
 696              	.L82:
 697 002c 013E     		subs	r6, r6, #1
 698              	.LVL67:
 699 002e ECE7     		b	.L77
 700              	.LVL68:
 701              	.L81:
 702              		.loc 1 419 0
 703 0030 2855     		strb	r0, [r5, r4]
 704 0032 0134     		adds	r4, r4, #1
 705              	.LVL69:
 706 0034 FAE7     		b	.L82
 707              	.L84:
 708              		.loc 1 408 0
 709 0036 2546     		mov	r5, r4
 710              	.LVL70:
 711 0038 F0E7     		b	.L79
 712              		.cfi_endproc
 713              	.LFE254:
 714              		.size	fgets, .-fgets
 715              		.section	.text.gets,"ax",%progbits
 716              		.align	1
 717              		.global	gets
 718              		.syntax unified
 719              		.thumb
 720              		.thumb_func
 721              		.fpu fpv4-sp-d16
 722              		.type	gets, %function
 723              	gets:
 724              	.LFB255:
 725              		.loc 1 430 0
 726              		.cfi_startproc
 727              		@ args = 0, pretend = 0, frame = 0
 728              		@ frame_needed = 0, uses_anonymous_args = 0
 729              	.LVL71:
 730 0000 38B5     		push	{r3, r4, r5, lr}
 731              		.cfi_def_cfa_offset 16
 732              		.cfi_offset 3, -16
 733              		.cfi_offset 4, -12
 734              		.cfi_offset 5, -8
 735              		.cfi_offset 14, -4
 736              		.loc 1 434 0
 737 0002 0A4B     		ldr	r3, .L99
 738 0004 8021     		movs	r1, #128
 739 0006 1A68     		ldr	r2, [r3]
 740              		.loc 1 430 0
 741 0008 0446     		mov	r4, r0
ARM GAS  C:\cygwin64\tmp\ccxdpAIh.s 			page 14


 742              		.loc 1 434 0
 743 000a FFF7FEFF 		bl	fgets
 744              	.LVL72:
 745              		.loc 1 435 0
 746 000e 0546     		mov	r5, r0
 747 0010 48B1     		cbz	r0, .L91
 748              		.loc 1 437 0
 749 0012 2046     		mov	r0, r4
 750              	.LVL73:
 751 0014 FFF7FEFF 		bl	strlen
 752              	.LVL74:
 753              		.loc 1 438 0
 754 0018 28B1     		cbz	r0, .L91
 755              		.loc 1 438 0 is_stmt 0 discriminator 1
 756 001a 0138     		subs	r0, r0, #1
 757              	.LVL75:
 758 001c 235C     		ldrb	r3, [r4, r0]	@ zero_extendqisi2
 759 001e 0A2B     		cmp	r3, #10
 760              		.loc 1 439 0 is_stmt 1 discriminator 1
 761 0020 04BF     		itt	eq
 762 0022 0023     		moveq	r3, #0
 763 0024 2354     		strbeq	r3, [r4, r0]
 764              	.LVL76:
 765              	.L91:
 766              		.loc 1 441 0
 767 0026 2846     		mov	r0, r5
 768 0028 38BD     		pop	{r3, r4, r5, pc}
 769              	.LVL77:
 770              	.L100:
 771 002a 00BF     		.align	2
 772              	.L99:
 773 002c 00000000 		.word	.LANCHOR2
 774              		.cfi_endproc
 775              	.LFE255:
 776              		.size	gets, .-gets
 777              		.section	.text.fputs,"ax",%progbits
 778              		.align	1
 779              		.global	fputs
 780              		.syntax unified
 781              		.thumb
 782              		.thumb_func
 783              		.fpu fpv4-sp-d16
 784              		.type	fputs, %function
 785              	fputs:
 786              	.LFB256:
 787              		.loc 1 453 0
 788              		.cfi_startproc
 789              		@ args = 0, pretend = 0, frame = 0
 790              		@ frame_needed = 0, uses_anonymous_args = 0
 791              	.LVL78:
 792 0000 38B5     		push	{r3, r4, r5, lr}
 793              		.cfi_def_cfa_offset 16
 794              		.cfi_offset 3, -16
 795              		.cfi_offset 4, -12
 796              		.cfi_offset 5, -8
 797              		.cfi_offset 14, -4
 798              		.loc 1 453 0
ARM GAS  C:\cygwin64\tmp\ccxdpAIh.s 			page 15


 799 0002 0D46     		mov	r5, r1
 800 0004 441E     		subs	r4, r0, #1
 801              	.LVL79:
 802              	.L102:
 803              		.loc 1 454 0
 804 0006 14F8010F 		ldrb	r0, [r4, #1]!	@ zero_extendqisi2
 805              	.LVL80:
 806 000a 20B1     		cbz	r0, .L101
 807              		.loc 1 456 0
 808 000c 2946     		mov	r1, r5
 809 000e FFF7FEFF 		bl	fputc
 810              	.LVL81:
 811 0012 431C     		adds	r3, r0, #1
 812 0014 F7D1     		bne	.L102
 813              	.L101:
 814              		.loc 1 461 0
 815 0016 38BD     		pop	{r3, r4, r5, pc}
 816              		.cfi_endproc
 817              	.LFE256:
 818              		.size	fputs, .-fputs
 819              		.section	.text.puts,"ax",%progbits
 820              		.align	1
 821              		.global	puts
 822              		.syntax unified
 823              		.thumb
 824              		.thumb_func
 825              		.fpu fpv4-sp-d16
 826              		.type	puts, %function
 827              	puts:
 828              	.LFB257:
 829              		.loc 1 476 0
 830              		.cfi_startproc
 831              		@ args = 0, pretend = 0, frame = 0
 832              		@ frame_needed = 0, uses_anonymous_args = 0
 833              	.LVL82:
 834 0000 38B5     		push	{r3, r4, r5, lr}
 835              		.cfi_def_cfa_offset 16
 836              		.cfi_offset 3, -16
 837              		.cfi_offset 4, -12
 838              		.cfi_offset 5, -8
 839              		.cfi_offset 14, -4
 840 0002 084C     		ldr	r4, .L112
 841 0004 451E     		subs	r5, r0, #1
 842              	.LVL83:
 843              	.L109:
 844              		.loc 1 477 0
 845 0006 15F8010F 		ldrb	r0, [r5, #1]!	@ zero_extendqisi2
 846              	.LVL84:
 847              		.loc 1 479 0
 848 000a 6168     		ldr	r1, [r4, #4]
 849              		.loc 1 477 0
 850 000c 20B9     		cbnz	r0, .L111
 851              		.loc 1 483 0
 852 000e 0A20     		movs	r0, #10
 853              		.loc 1 484 0
 854 0010 BDE83840 		pop	{r3, r4, r5, lr}
 855              		.cfi_remember_state
ARM GAS  C:\cygwin64\tmp\ccxdpAIh.s 			page 16


 856              		.cfi_restore 14
 857              		.cfi_restore 5
 858              		.cfi_restore 4
 859              		.cfi_restore 3
 860              		.cfi_def_cfa_offset 0
 861              	.LVL85:
 862              		.loc 1 483 0
 863 0014 FFF7FEBF 		b	fputc
 864              	.LVL86:
 865              	.L111:
 866              		.cfi_restore_state
 867              		.loc 1 479 0
 868 0018 FFF7FEFF 		bl	fputc
 869              	.LVL87:
 870 001c 431C     		adds	r3, r0, #1
 871 001e F2D1     		bne	.L109
 872              		.loc 1 484 0
 873 0020 38BD     		pop	{r3, r4, r5, pc}
 874              	.LVL88:
 875              	.L113:
 876 0022 00BF     		.align	2
 877              	.L112:
 878 0024 00000000 		.word	.LANCHOR2
 879              		.cfi_endproc
 880              	.LFE257:
 881              		.size	puts, .-puts
 882              		.section	.text.feof,"ax",%progbits
 883              		.align	1
 884              		.global	feof
 885              		.syntax unified
 886              		.thumb
 887              		.thumb_func
 888              		.fpu fpv4-sp-d16
 889              		.type	feof, %function
 890              	feof:
 891              	.LFB258:
 892              		.loc 1 501 0
 893              		.cfi_startproc
 894              		@ args = 0, pretend = 0, frame = 0
 895              		@ frame_needed = 0, uses_anonymous_args = 0
 896              		@ link register save eliminated.
 897              	.LVL89:
 898              		.loc 1 502 0
 899 0000 4079     		ldrb	r0, [r0, #5]	@ zero_extendqisi2
 900              	.LVL90:
 901              		.loc 1 505 0
 902 0002 C0F34010 		ubfx	r0, r0, #5, #1
 903 0006 7047     		bx	lr
 904              		.cfi_endproc
 905              	.LFE258:
 906              		.size	feof, .-feof
 907              		.section	.text.fileno,"ax",%progbits
 908              		.align	1
 909              		.global	fileno
 910              		.syntax unified
 911              		.thumb
 912              		.thumb_func
ARM GAS  C:\cygwin64\tmp\ccxdpAIh.s 			page 17


 913              		.fpu fpv4-sp-d16
 914              		.type	fileno, %function
 915              	fileno:
 916              	.LFB266:
 917              		.loc 1 715 0
 918              		.cfi_startproc
 919              		@ args = 0, pretend = 0, frame = 0
 920              		@ frame_needed = 0, uses_anonymous_args = 0
 921              		@ link register save eliminated.
 922              	.LVL91:
 923              		.loc 1 718 0
 924 0000 30B9     		cbnz	r0, .L116
 925              		.loc 1 720 0
 926 0002 084B     		ldr	r3, .L121
 927 0004 0922     		movs	r2, #9
 928 0006 1A60     		str	r2, [r3]
 929              	.L120:
 930              		.loc 1 729 0
 931 0008 4FF0FF33 		mov	r3, #-1
 932              	.L115:
 933              		.loc 1 730 0
 934 000c 1846     		mov	r0, r3
 935              	.LVL92:
 936 000e 7047     		bx	lr
 937              	.LVL93:
 938              	.L116:
 939              		.loc 1 726 0
 940 0010 054A     		ldr	r2, .L121+4
 941 0012 0023     		movs	r3, #0
 942              	.L118:
 943              	.LVL94:
 944 0014 52F82310 		ldr	r1, [r2, r3, lsl #2]
 945 0018 8842     		cmp	r0, r1
 946 001a F7D0     		beq	.L115
 947              		.loc 1 724 0 discriminator 2
 948 001c 0133     		adds	r3, r3, #1
 949              	.LVL95:
 950 001e 102B     		cmp	r3, #16
 951 0020 F8D1     		bne	.L118
 952 0022 F1E7     		b	.L120
 953              	.L122:
 954              		.align	2
 955              	.L121:
 956 0024 00000000 		.word	.LANCHOR0
 957 0028 00000000 		.word	.LANCHOR2
 958              		.cfi_endproc
 959              	.LFE266:
 960              		.size	fileno, .-fileno
 961              		.section	.text.fileno_to_stream,"ax",%progbits
 962              		.align	1
 963              		.global	fileno_to_stream
 964              		.syntax unified
 965              		.thumb
 966              		.thumb_func
 967              		.fpu fpv4-sp-d16
 968              		.type	fileno_to_stream, %function
 969              	fileno_to_stream:
ARM GAS  C:\cygwin64\tmp\ccxdpAIh.s 			page 18


 970              	.LFB267:
 971              		.loc 1 745 0
 972              		.cfi_startproc
 973              		@ args = 0, pretend = 0, frame = 0
 974              		@ frame_needed = 0, uses_anonymous_args = 0
 975              		@ link register save eliminated.
 976              	.LVL96:
 977              		.loc 1 747 0
 978 0000 0F28     		cmp	r0, #15
 979 0002 04D9     		bls	.L124
 980              		.loc 1 749 0
 981 0004 064B     		ldr	r3, .L126
 982 0006 0922     		movs	r2, #9
 983 0008 1A60     		str	r2, [r3]
 984              		.loc 1 750 0
 985 000a 0020     		movs	r0, #0
 986              	.LVL97:
 987 000c 7047     		bx	lr
 988              	.LVL98:
 989              	.L124:
 990              		.loc 1 753 0
 991 000e 054B     		ldr	r3, .L126+4
 992 0010 53F82000 		ldr	r0, [r3, r0, lsl #2]
 993              	.LVL99:
 994              		.loc 1 754 0
 995 0014 10B9     		cbnz	r0, .L123
 996              		.loc 1 756 0
 997 0016 024B     		ldr	r3, .L126
 998 0018 0922     		movs	r2, #9
 999 001a 1A60     		str	r2, [r3]
 1000              	.L123:
 1001              		.loc 1 760 0
 1002 001c 7047     		bx	lr
 1003              	.L127:
 1004 001e 00BF     		.align	2
 1005              	.L126:
 1006 0020 00000000 		.word	.LANCHOR0
 1007 0024 00000000 		.word	.LANCHOR2
 1008              		.cfi_endproc
 1009              	.LFE267:
 1010              		.size	fileno_to_stream, .-fileno_to_stream
 1011              		.section	.text.truncate,"ax",%progbits
 1012              		.align	1
 1013              		.global	truncate
 1014              		.syntax unified
 1015              		.thumb
 1016              		.thumb_func
 1017              		.fpu fpv4-sp-d16
 1018              		.type	truncate, %function
 1019              	truncate:
 1020              	.LFB276:
 1021              		.loc 1 1132 0
 1022              		.cfi_startproc
 1023              		@ args = 0, pretend = 0, frame = 584
 1024              		@ frame_needed = 0, uses_anonymous_args = 0
 1025              	.LVL100:
 1026 0000 30B5     		push	{r4, r5, lr}
ARM GAS  C:\cygwin64\tmp\ccxdpAIh.s 			page 19


 1027              		.cfi_def_cfa_offset 12
 1028              		.cfi_offset 4, -12
 1029              		.cfi_offset 5, -8
 1030              		.cfi_offset 14, -4
 1031              		.loc 1 1133 0
 1032 0002 124C     		ldr	r4, .L143
 1033              		.loc 1 1132 0
 1034 0004 ADF5137D 		sub	sp, sp, #588
 1035              		.cfi_def_cfa_offset 600
 1036              		.loc 1 1132 0
 1037 0008 0D46     		mov	r5, r1
 1038              		.loc 1 1133 0
 1039 000a 0023     		movs	r3, #0
 1040              		.loc 1 1137 0
 1041 000c 0146     		mov	r1, r0
 1042              	.LVL101:
 1043 000e 0322     		movs	r2, #3
 1044 0010 6846     		mov	r0, sp
 1045              	.LVL102:
 1046              		.loc 1 1133 0
 1047 0012 2360     		str	r3, [r4]
 1048              		.loc 1 1137 0
 1049 0014 FFF7FEFF 		bl	f_open
 1050              	.LVL103:
 1051              		.loc 1 1138 0
 1052 0018 40B1     		cbz	r0, .L129
 1053              	.L141:
 1054              	.LVL104:
 1055 001a 1328     		cmp	r0, #19
 1056 001c 96BF     		itet	ls
 1057 001e 0C4B     		ldrls	r3, .L143+4
 1058              		.loc 1 1150 0
 1059 0020 2323     		movhi	r3, #35
 1060              	.LVL105:
 1061 0022 1B56     		ldrsbls	r3, [r3, r0]
 1062              		.loc 1 1152 0
 1063 0024 2360     		str	r3, [r4]
 1064              		.loc 1 1153 0
 1065 0026 4FF0FF30 		mov	r0, #-1
 1066              	.LVL106:
 1067 002a 0BE0     		b	.L128
 1068              	.LVL107:
 1069              	.L129:
 1070              		.loc 1 1143 0
 1071 002c 2A46     		mov	r2, r5
 1072 002e EB17     		asrs	r3, r5, #31
 1073 0030 6846     		mov	r0, sp
 1074              	.LVL108:
 1075 0032 FFF7FEFF 		bl	f_lseek
 1076              	.LVL109:
 1077              		.loc 1 1144 0
 1078 0036 0028     		cmp	r0, #0
 1079 0038 EFD1     		bne	.L141
 1080              		.loc 1 1149 0
 1081 003a 6846     		mov	r0, sp
 1082              	.LVL110:
 1083 003c FFF7FEFF 		bl	f_truncate
ARM GAS  C:\cygwin64\tmp\ccxdpAIh.s 			page 20


 1084              	.LVL111:
 1085              		.loc 1 1150 0
 1086 0040 0028     		cmp	r0, #0
 1087 0042 EAD1     		bne	.L141
 1088              	.LVL112:
 1089              	.L128:
 1090              		.loc 1 1156 0
 1091 0044 0DF5137D 		add	sp, sp, #588
 1092              		.cfi_def_cfa_offset 12
 1093              		@ sp needed
 1094 0048 30BD     		pop	{r4, r5, pc}
 1095              	.LVL113:
 1096              	.L144:
 1097 004a 00BF     		.align	2
 1098              	.L143:
 1099 004c 00000000 		.word	.LANCHOR0
 1100 0050 00000000 		.word	.LANCHOR1
 1101              		.cfi_endproc
 1102              	.LFE276:
 1103              		.size	truncate, .-truncate
 1104              		.section	.text.fs_getfree,"ax",%progbits
 1105              		.align	1
 1106              		.global	fs_getfree
 1107              		.syntax unified
 1108              		.thumb
 1109              		.thumb_func
 1110              		.fpu fpv4-sp-d16
 1111              		.type	fs_getfree, %function
 1112              	fs_getfree:
 1113              	.LFB282:
 1114              		.loc 1 1405 0
 1115              		.cfi_startproc
 1116              		@ args = 0, pretend = 0, frame = 8
 1117              		@ frame_needed = 0, uses_anonymous_args = 0
 1118 0000 07B5     		push	{r0, r1, r2, lr}
 1119              		.cfi_def_cfa_offset 16
 1120              		.cfi_offset 14, -4
 1121              		.loc 1 1411 0
 1122 0002 0A48     		ldr	r0, .L148
 1123 0004 6A46     		mov	r2, sp
 1124 0006 01A9     		add	r1, sp, #4
 1125 0008 FFF7FEFF 		bl	f_getfree
 1126              	.LVL114:
 1127              		.loc 1 1412 0
 1128 000c 30B1     		cbz	r0, .L146
 1129              		.loc 1 1412 0 is_stmt 0 discriminator 1
 1130 000e C2B2     		uxtb	r2, r0
 1131 0010 0023     		movs	r3, #0
 1132              	.L145:
 1133              		.loc 1 1417 0 is_stmt 1
 1134 0012 1046     		mov	r0, r2
 1135              	.LVL115:
 1136 0014 1946     		mov	r1, r3
 1137 0016 03B0     		add	sp, sp, #12
 1138              		.cfi_remember_state
 1139              		.cfi_def_cfa_offset 4
 1140              		@ sp needed
ARM GAS  C:\cygwin64\tmp\ccxdpAIh.s 			page 21


 1141 0018 5DF804FB 		ldr	pc, [sp], #4
 1142              	.LVL116:
 1143              	.L146:
 1144              		.cfi_restore_state
 1145              		.loc 1 1415 0
 1146 001c 009B     		ldr	r3, [sp]
 1147 001e 0199     		ldr	r1, [sp, #4]
 1148 0020 5B89     		ldrh	r3, [r3, #10]
 1149 0022 5943     		muls	r1, r3, r1
 1150              		.loc 1 1416 0
 1151 0024 CB0D     		lsrs	r3, r1, #23
 1152 0026 4A02     		lsls	r2, r1, #9
 1153 0028 F3E7     		b	.L145
 1154              	.L149:
 1155 002a 00BF     		.align	2
 1156              	.L148:
 1157 002c 00000000 		.word	.LC1
 1158              		.cfi_endproc
 1159              	.LFE282:
 1160              		.size	fs_getfree, .-fs_getfree
 1161              		.section	.text.fs_gettotal,"ax",%progbits
 1162              		.align	1
 1163              		.global	fs_gettotal
 1164              		.syntax unified
 1165              		.thumb
 1166              		.thumb_func
 1167              		.fpu fpv4-sp-d16
 1168              		.type	fs_gettotal, %function
 1169              	fs_gettotal:
 1170              	.LFB283:
 1171              		.loc 1 1420 0
 1172              		.cfi_startproc
 1173              		@ args = 0, pretend = 0, frame = 8
 1174              		@ frame_needed = 0, uses_anonymous_args = 0
 1175 0000 07B5     		push	{r0, r1, r2, lr}
 1176              		.cfi_def_cfa_offset 16
 1177              		.cfi_offset 14, -4
 1178              		.loc 1 1426 0
 1179 0002 0A48     		ldr	r0, .L153
 1180 0004 6A46     		mov	r2, sp
 1181 0006 01A9     		add	r1, sp, #4
 1182 0008 FFF7FEFF 		bl	f_getfree
 1183              	.LVL117:
 1184              		.loc 1 1427 0
 1185 000c 30B1     		cbz	r0, .L151
 1186              		.loc 1 1427 0 is_stmt 0 discriminator 1
 1187 000e C2B2     		uxtb	r2, r0
 1188 0010 0023     		movs	r3, #0
 1189              	.L150:
 1190              		.loc 1 1432 0 is_stmt 1
 1191 0012 1046     		mov	r0, r2
 1192              	.LVL118:
 1193 0014 1946     		mov	r1, r3
 1194 0016 03B0     		add	sp, sp, #12
 1195              		.cfi_remember_state
 1196              		.cfi_def_cfa_offset 4
 1197              		@ sp needed
ARM GAS  C:\cygwin64\tmp\ccxdpAIh.s 			page 22


 1198 0018 5DF804FB 		ldr	pc, [sp], #4
 1199              	.LVL119:
 1200              	.L151:
 1201              		.cfi_restore_state
 1202              		.loc 1 1430 0
 1203 001c 009A     		ldr	r2, [sp]
 1204              	.LVL120:
 1205 001e 116B     		ldr	r1, [r2, #48]
 1206 0020 8B1E     		subs	r3, r1, #2
 1207 0022 5189     		ldrh	r1, [r2, #10]
 1208 0024 5943     		muls	r1, r3, r1
 1209              	.LVL121:
 1210              		.loc 1 1431 0
 1211 0026 CB0D     		lsrs	r3, r1, #23
 1212 0028 4A02     		lsls	r2, r1, #9
 1213 002a F2E7     		b	.L150
 1214              	.L154:
 1215              		.align	2
 1216              	.L153:
 1217 002c 00000000 		.word	.LC1
 1218              		.cfi_endproc
 1219              	.LFE283:
 1220              		.size	fs_gettotal, .-fs_gettotal
 1221              		.section	.text.basename,"ax",%progbits
 1222              		.align	1
 1223              		.global	basename
 1224              		.syntax unified
 1225              		.thumb
 1226              		.thumb_func
 1227              		.fpu fpv4-sp-d16
 1228              		.type	basename, %function
 1229              	basename:
 1230              	.LFB284:
 1231              		.loc 1 1447 0
 1232              		.cfi_startproc
 1233              		@ args = 0, pretend = 0, frame = 0
 1234              		@ frame_needed = 0, uses_anonymous_args = 0
 1235              		@ link register save eliminated.
 1236              	.LVL122:
 1237              		.loc 1 1449 0
 1238 0000 40B1     		cbz	r0, .L160
 1239 0002 0346     		mov	r3, r0
 1240              	.LVL123:
 1241              	.L157:
 1242              		.loc 1 1451 0
 1243 0004 13F8012B 		ldrb	r2, [r3], #1	@ zero_extendqisi2
 1244              	.LVL124:
 1245 0008 02B9     		cbnz	r2, .L159
 1246 000a 7047     		bx	lr
 1247              	.L159:
 1248              	.LVL125:
 1249              		.loc 1 1454 0
 1250 000c 2F2A     		cmp	r2, #47
 1251 000e 08BF     		it	eq
 1252 0010 1846     		moveq	r0, r3
 1253              	.LVL126:
 1254 0012 F7E7     		b	.L157
ARM GAS  C:\cygwin64\tmp\ccxdpAIh.s 			page 23


 1255              	.LVL127:
 1256              	.L160:
 1257              		.loc 1 1450 0
 1258 0014 0048     		ldr	r0, .L161
 1259              	.LVL128:
 1260              		.loc 1 1458 0
 1261 0016 7047     		bx	lr
 1262              	.L162:
 1263              		.align	2
 1264              	.L161:
 1265 0018 00000000 		.word	.LC2
 1266              		.cfi_endproc
 1267              	.LFE284:
 1268              		.size	basename, .-basename
 1269              		.section	.text.baseext,"ax",%progbits
 1270              		.align	1
 1271              		.global	baseext
 1272              		.syntax unified
 1273              		.thumb
 1274              		.thumb_func
 1275              		.fpu fpv4-sp-d16
 1276              		.type	baseext, %function
 1277              	baseext:
 1278              	.LFB285:
 1279              		.loc 1 1468 0
 1280              		.cfi_startproc
 1281              		@ args = 0, pretend = 0, frame = 0
 1282              		@ frame_needed = 0, uses_anonymous_args = 0
 1283              		@ link register save eliminated.
 1284              	.LVL129:
 1285              		.loc 1 1469 0
 1286 0000 044B     		ldr	r3, .L167
 1287              	.LVL130:
 1288              	.L164:
 1289              		.loc 1 1471 0
 1290 0002 10F8012B 		ldrb	r2, [r0], #1	@ zero_extendqisi2
 1291              	.LVL131:
 1292 0006 0AB9     		cbnz	r2, .L166
 1293              		.loc 1 1477 0
 1294 0008 1846     		mov	r0, r3
 1295              	.LVL132:
 1296 000a 7047     		bx	lr
 1297              	.LVL133:
 1298              	.L166:
 1299              		.loc 1 1474 0
 1300 000c 2E2A     		cmp	r2, #46
 1301 000e 08BF     		it	eq
 1302 0010 0346     		moveq	r3, r0
 1303              	.LVL134:
 1304 0012 F6E7     		b	.L164
 1305              	.L168:
 1306              		.align	2
 1307              	.L167:
 1308 0014 00000000 		.word	.LC2
 1309              		.cfi_endproc
 1310              	.LFE285:
 1311              		.size	baseext, .-baseext
ARM GAS  C:\cygwin64\tmp\ccxdpAIh.s 			page 24


 1312              		.section	.text.chdir,"ax",%progbits
 1313              		.align	1
 1314              		.global	chdir
 1315              		.syntax unified
 1316              		.thumb
 1317              		.thumb_func
 1318              		.fpu fpv4-sp-d16
 1319              		.type	chdir, %function
 1320              	chdir:
 1321              	.LFB286:
 1322              		.loc 1 1490 0
 1323              		.cfi_startproc
 1324              		@ args = 0, pretend = 0, frame = 0
 1325              		@ frame_needed = 0, uses_anonymous_args = 0
 1326              	.LVL135:
 1327 0000 10B5     		push	{r4, lr}
 1328              		.cfi_def_cfa_offset 8
 1329              		.cfi_offset 4, -8
 1330              		.cfi_offset 14, -4
 1331              		.loc 1 1491 0
 1332 0002 074C     		ldr	r4, .L174
 1333 0004 0023     		movs	r3, #0
 1334 0006 2360     		str	r3, [r4]
 1335              		.loc 1 1493 0
 1336 0008 FFF7FEFF 		bl	f_chdir
 1337              	.LVL136:
 1338              		.loc 1 1494 0
 1339 000c 38B1     		cbz	r0, .L169
 1340              	.LVL137:
 1341 000e 1328     		cmp	r0, #19
 1342 0010 96BF     		itet	ls
 1343 0012 044B     		ldrls	r3, .L174+4
 1344 0014 2323     		movhi	r3, #35
 1345              	.LVL138:
 1346 0016 1B56     		ldrsbls	r3, [r3, r0]
 1347              		.loc 1 1496 0
 1348 0018 2360     		str	r3, [r4]
 1349              		.loc 1 1497 0
 1350 001a 4FF0FF30 		mov	r0, #-1
 1351              	.LVL139:
 1352              	.L169:
 1353              		.loc 1 1500 0
 1354 001e 10BD     		pop	{r4, pc}
 1355              	.L175:
 1356              		.align	2
 1357              	.L174:
 1358 0020 00000000 		.word	.LANCHOR0
 1359 0024 00000000 		.word	.LANCHOR1
 1360              		.cfi_endproc
 1361              	.LFE286:
 1362              		.size	chdir, .-chdir
 1363              		.section	.text.chmod,"ax",%progbits
 1364              		.align	1
 1365              		.global	chmod
 1366              		.syntax unified
 1367              		.thumb
 1368              		.thumb_func
ARM GAS  C:\cygwin64\tmp\ccxdpAIh.s 			page 25


 1369              		.fpu fpv4-sp-d16
 1370              		.type	chmod, %function
 1371              	chmod:
 1372              	.LFB287:
 1373              		.loc 1 1515 0
 1374              		.cfi_startproc
 1375              		@ args = 0, pretend = 0, frame = 0
 1376              		@ frame_needed = 0, uses_anonymous_args = 0
 1377              	.LVL140:
 1378 0000 10B5     		push	{r4, lr}
 1379              		.cfi_def_cfa_offset 8
 1380              		.cfi_offset 4, -8
 1381              		.cfi_offset 14, -4
 1382              		.loc 1 1517 0
 1383 0002 0B4C     		ldr	r4, .L185
 1384 0004 0022     		movs	r2, #0
 1385              		.loc 1 1522 0
 1386 0006 11F0920F 		tst	r1, #146
 1387              		.loc 1 1517 0
 1388 000a 2260     		str	r2, [r4]
 1389              		.loc 1 1522 0
 1390 000c 01D0     		beq	.L177
 1391              	.LVL141:
 1392              	.L179:
 1393              		.loc 1 1533 0
 1394 000e 0020     		movs	r0, #0
 1395 0010 10BD     		pop	{r4, pc}
 1396              	.LVL142:
 1397              	.L177:
 1398              	.LBB85:
 1399              	.LBB86:
 1400              		.loc 1 1525 0
 1401 0012 0122     		movs	r2, #1
 1402 0014 1146     		mov	r1, r2
 1403              	.LVL143:
 1404 0016 FFF7FEFF 		bl	f_chmod
 1405              	.LVL144:
 1406              		.loc 1 1526 0
 1407 001a 0028     		cmp	r0, #0
 1408 001c F7D0     		beq	.L179
 1409              	.LVL145:
 1410 001e 1328     		cmp	r0, #19
 1411 0020 96BF     		itet	ls
 1412 0022 044B     		ldrls	r3, .L185+4
 1413 0024 2323     		movhi	r3, #35
 1414              	.LVL146:
 1415 0026 1B56     		ldrsbls	r3, [r3, r0]
 1416              		.loc 1 1528 0
 1417 0028 2360     		str	r3, [r4]
 1418              		.loc 1 1529 0
 1419 002a 4FF0FF30 		mov	r0, #-1
 1420              	.LVL147:
 1421              	.LBE86:
 1422              	.LBE85:
 1423              		.loc 1 1534 0
 1424 002e 10BD     		pop	{r4, pc}
 1425              	.L186:
ARM GAS  C:\cygwin64\tmp\ccxdpAIh.s 			page 26


 1426              		.align	2
 1427              	.L185:
 1428 0030 00000000 		.word	.LANCHOR0
 1429 0034 00000000 		.word	.LANCHOR1
 1430              		.cfi_endproc
 1431              	.LFE287:
 1432              		.size	chmod, .-chmod
 1433              		.section	.text.dirname,"ax",%progbits
 1434              		.align	1
 1435              		.global	dirname
 1436              		.syntax unified
 1437              		.thumb
 1438              		.thumb_func
 1439              		.fpu fpv4-sp-d16
 1440              		.type	dirname, %function
 1441              	dirname:
 1442              	.LFB288:
 1443              		.loc 1 1553 0
 1444              		.cfi_startproc
 1445              		@ args = 0, pretend = 0, frame = 0
 1446              		@ frame_needed = 0, uses_anonymous_args = 0
 1447              	.LVL148:
 1448 0000 10B5     		push	{r4, lr}
 1449              		.cfi_def_cfa_offset 8
 1450              		.cfi_offset 4, -8
 1451              		.cfi_offset 14, -4
 1452              		.loc 1 1557 0
 1453 0002 58B1     		cbz	r0, .L192
 1454 0004 0246     		mov	r2, r0
 1455 0006 0023     		movs	r3, #0
 1456              	.LVL149:
 1457              	.L189:
 1458 0008 141A     		subs	r4, r2, r0
 1459              	.LVL150:
 1460              		.loc 1 1560 0
 1461 000a 12F8011B 		ldrb	r1, [r2], #1	@ zero_extendqisi2
 1462              	.LVL151:
 1463 000e 09B9     		cbnz	r1, .L191
 1464              	.LVL152:
 1465              	.L187:
 1466              		.loc 1 1568 0
 1467 0010 1846     		mov	r0, r3
 1468 0012 10BD     		pop	{r4, pc}
 1469              	.LVL153:
 1470              	.L191:
 1471              		.loc 1 1563 0
 1472 0014 2F29     		cmp	r1, #47
 1473 0016 08BF     		it	eq
 1474 0018 2346     		moveq	r3, r4
 1475              	.LVL154:
 1476 001a F5E7     		b	.L189
 1477              	.LVL155:
 1478              	.L192:
 1479              		.loc 1 1558 0
 1480 001c 0346     		mov	r3, r0
 1481 001e F7E7     		b	.L187
 1482              		.cfi_endproc
ARM GAS  C:\cygwin64\tmp\ccxdpAIh.s 			page 27


 1483              	.LFE288:
 1484              		.size	dirname, .-dirname
 1485              		.section	.text.getcwd,"ax",%progbits
 1486              		.align	1
 1487              		.global	getcwd
 1488              		.syntax unified
 1489              		.thumb
 1490              		.thumb_func
 1491              		.fpu fpv4-sp-d16
 1492              		.type	getcwd, %function
 1493              	getcwd:
 1494              	.LFB289:
 1495              		.loc 1 1598 0
 1496              		.cfi_startproc
 1497              		@ args = 0, pretend = 0, frame = 0
 1498              		@ frame_needed = 0, uses_anonymous_args = 0
 1499              	.LVL156:
 1500 0000 38B5     		push	{r3, r4, r5, lr}
 1501              		.cfi_def_cfa_offset 16
 1502              		.cfi_offset 3, -16
 1503              		.cfi_offset 4, -12
 1504              		.cfi_offset 5, -8
 1505              		.cfi_offset 14, -4
 1506              		.loc 1 1600 0
 1507 0002 084C     		ldr	r4, .L200
 1508 0004 0023     		movs	r3, #0
 1509              		.loc 1 1598 0
 1510 0006 0546     		mov	r5, r0
 1511              		.loc 1 1600 0
 1512 0008 2360     		str	r3, [r4]
 1513              		.loc 1 1602 0
 1514 000a FFF7FEFF 		bl	f_getcwd
 1515              	.LVL157:
 1516              		.loc 1 1603 0
 1517 000e 30B1     		cbz	r0, .L194
 1518              	.LVL158:
 1519 0010 1328     		cmp	r0, #19
 1520 0012 96BF     		itet	ls
 1521 0014 044B     		ldrls	r3, .L200+4
 1522 0016 2323     		movhi	r3, #35
 1523              	.LVL159:
 1524 0018 1B56     		ldrsbls	r3, [r3, r0]
 1525              		.loc 1 1605 0
 1526 001a 2360     		str	r3, [r4]
 1527              		.loc 1 1606 0
 1528 001c 0025     		movs	r5, #0
 1529              	.LVL160:
 1530              	.L194:
 1531              		.loc 1 1609 0
 1532 001e 2846     		mov	r0, r5
 1533              	.LVL161:
 1534 0020 38BD     		pop	{r3, r4, r5, pc}
 1535              	.L201:
 1536 0022 00BF     		.align	2
 1537              	.L200:
 1538 0024 00000000 		.word	.LANCHOR0
 1539 0028 00000000 		.word	.LANCHOR1
ARM GAS  C:\cygwin64\tmp\ccxdpAIh.s 			page 28


 1540              		.cfi_endproc
 1541              	.LFE289:
 1542              		.size	getcwd, .-getcwd
 1543              		.section	.text.mkdir,"ax",%progbits
 1544              		.align	1
 1545              		.global	mkdir
 1546              		.syntax unified
 1547              		.thumb
 1548              		.thumb_func
 1549              		.fpu fpv4-sp-d16
 1550              		.type	mkdir, %function
 1551              	mkdir:
 1552              	.LFB290:
 1553              		.loc 1 1621 0
 1554              		.cfi_startproc
 1555              		@ args = 0, pretend = 0, frame = 0
 1556              		@ frame_needed = 0, uses_anonymous_args = 0
 1557              	.LVL162:
 1558 0000 F8B5     		push	{r3, r4, r5, r6, r7, lr}
 1559              		.cfi_def_cfa_offset 24
 1560              		.cfi_offset 3, -24
 1561              		.cfi_offset 4, -20
 1562              		.cfi_offset 5, -16
 1563              		.cfi_offset 6, -12
 1564              		.cfi_offset 7, -8
 1565              		.cfi_offset 14, -4
 1566              		.loc 1 1622 0
 1567 0002 0D4E     		ldr	r6, .L208
 1568 0004 0023     		movs	r3, #0
 1569              		.loc 1 1621 0
 1570 0006 0746     		mov	r7, r0
 1571 0008 0C46     		mov	r4, r1
 1572              		.loc 1 1622 0
 1573 000a 3360     		str	r3, [r6]
 1574              		.loc 1 1624 0
 1575 000c FFF7FEFF 		bl	f_mkdir
 1576              	.LVL163:
 1577              		.loc 1 1625 0
 1578 0010 0546     		mov	r5, r0
 1579 0012 40B1     		cbz	r0, .L203
 1580              	.LVL164:
 1581 0014 1328     		cmp	r0, #19
 1582 0016 96BF     		itet	ls
 1583 0018 084B     		ldrls	r3, .L208+4
 1584 001a 2323     		movhi	r3, #35
 1585              	.LVL165:
 1586 001c 1B56     		ldrsbls	r3, [r3, r0]
 1587              		.loc 1 1627 0
 1588 001e 3360     		str	r3, [r6]
 1589              		.loc 1 1628 0
 1590 0020 4FF0FF30 		mov	r0, #-1
 1591              	.LVL166:
 1592 0024 F8BD     		pop	{r3, r4, r5, r6, r7, pc}
 1593              	.LVL167:
 1594              	.L203:
 1595              		.loc 1 1631 0
 1596 0026 2CB1     		cbz	r4, .L207
ARM GAS  C:\cygwin64\tmp\ccxdpAIh.s 			page 29


 1597              		.loc 1 1632 0
 1598 0028 2146     		mov	r1, r4
 1599 002a 3846     		mov	r0, r7
 1600              	.LVL168:
 1601 002c FFF7FEFF 		bl	chmod
 1602              	.LVL169:
 1603              		.loc 1 1635 0
 1604 0030 2846     		mov	r0, r5
 1605 0032 F8BD     		pop	{r3, r4, r5, r6, r7, pc}
 1606              	.LVL170:
 1607              	.L207:
 1608 0034 2046     		mov	r0, r4
 1609              	.LVL171:
 1610              		.loc 1 1636 0
 1611 0036 F8BD     		pop	{r3, r4, r5, r6, r7, pc}
 1612              	.LVL172:
 1613              	.L209:
 1614              		.align	2
 1615              	.L208:
 1616 0038 00000000 		.word	.LANCHOR0
 1617 003c 00000000 		.word	.LANCHOR1
 1618              		.cfi_endproc
 1619              	.LFE290:
 1620              		.size	mkdir, .-mkdir
 1621              		.section	.text.rename,"ax",%progbits
 1622              		.align	1
 1623              		.global	rename
 1624              		.syntax unified
 1625              		.thumb
 1626              		.thumb_func
 1627              		.fpu fpv4-sp-d16
 1628              		.type	rename, %function
 1629              	rename:
 1630              	.LFB291:
 1631              		.loc 1 1649 0
 1632              		.cfi_startproc
 1633              		@ args = 0, pretend = 0, frame = 0
 1634              		@ frame_needed = 0, uses_anonymous_args = 0
 1635              	.LVL173:
 1636 0000 10B5     		push	{r4, lr}
 1637              		.cfi_def_cfa_offset 8
 1638              		.cfi_offset 4, -8
 1639              		.cfi_offset 14, -4
 1640              		.loc 1 1652 0
 1641 0002 074C     		ldr	r4, .L215
 1642 0004 0023     		movs	r3, #0
 1643 0006 2360     		str	r3, [r4]
 1644              		.loc 1 1653 0
 1645 0008 FFF7FEFF 		bl	f_rename
 1646              	.LVL174:
 1647              		.loc 1 1654 0
 1648 000c 38B1     		cbz	r0, .L210
 1649              	.LVL175:
 1650 000e 1328     		cmp	r0, #19
 1651 0010 96BF     		itet	ls
 1652 0012 044B     		ldrls	r3, .L215+4
 1653 0014 2323     		movhi	r3, #35
ARM GAS  C:\cygwin64\tmp\ccxdpAIh.s 			page 30


 1654              	.LVL176:
 1655 0016 1B56     		ldrsbls	r3, [r3, r0]
 1656              		.loc 1 1656 0
 1657 0018 2360     		str	r3, [r4]
 1658              		.loc 1 1657 0
 1659 001a 4FF0FF30 		mov	r0, #-1
 1660              	.LVL177:
 1661              	.L210:
 1662              		.loc 1 1660 0
 1663 001e 10BD     		pop	{r4, pc}
 1664              	.L216:
 1665              		.align	2
 1666              	.L215:
 1667 0020 00000000 		.word	.LANCHOR0
 1668 0024 00000000 		.word	.LANCHOR1
 1669              		.cfi_endproc
 1670              	.LFE291:
 1671              		.size	rename, .-rename
 1672              		.section	.text.remove,"ax",%progbits
 1673              		.align	1
 1674              		.global	remove
 1675              		.syntax unified
 1676              		.thumb
 1677              		.thumb_func
 1678              		.fpu fpv4-sp-d16
 1679              		.type	remove, %function
 1680              	remove:
 1681              	.LFB294:
 1682              		.loc 1 1707 0
 1683              		.cfi_startproc
 1684              		@ args = 0, pretend = 0, frame = 0
 1685              		@ frame_needed = 0, uses_anonymous_args = 0
 1686              	.LVL178:
 1687 0000 10B5     		push	{r4, lr}
 1688              		.cfi_def_cfa_offset 8
 1689              		.cfi_offset 4, -8
 1690              		.cfi_offset 14, -4
 1691              		.loc 1 1708 0
 1692 0002 074C     		ldr	r4, .L222
 1693 0004 0023     		movs	r3, #0
 1694 0006 2360     		str	r3, [r4]
 1695              		.loc 1 1709 0
 1696 0008 FFF7FEFF 		bl	f_unlink
 1697              	.LVL179:
 1698              		.loc 1 1710 0
 1699 000c 38B1     		cbz	r0, .L217
 1700              	.LVL180:
 1701 000e 1328     		cmp	r0, #19
 1702 0010 96BF     		itet	ls
 1703 0012 044B     		ldrls	r3, .L222+4
 1704 0014 2323     		movhi	r3, #35
 1705              	.LVL181:
 1706 0016 1B56     		ldrsbls	r3, [r3, r0]
 1707              		.loc 1 1712 0
 1708 0018 2360     		str	r3, [r4]
 1709              		.loc 1 1713 0
 1710 001a 4FF0FF30 		mov	r0, #-1
ARM GAS  C:\cygwin64\tmp\ccxdpAIh.s 			page 31


 1711              	.LVL182:
 1712              	.L217:
 1713              		.loc 1 1716 0
 1714 001e 10BD     		pop	{r4, pc}
 1715              	.L223:
 1716              		.align	2
 1717              	.L222:
 1718 0020 00000000 		.word	.LANCHOR0
 1719 0024 00000000 		.word	.LANCHOR1
 1720              		.cfi_endproc
 1721              	.LFE294:
 1722              		.size	remove, .-remove
 1723              		.section	.text.unlink,"ax",%progbits
 1724              		.align	1
 1725              		.global	unlink
 1726              		.syntax unified
 1727              		.thumb
 1728              		.thumb_func
 1729              		.fpu fpv4-sp-d16
 1730              		.type	unlink, %function
 1731              	unlink:
 1732              	.LFB321:
 1733              		.cfi_startproc
 1734              		@ args = 0, pretend = 0, frame = 0
 1735              		@ frame_needed = 0, uses_anonymous_args = 0
 1736              		@ link register save eliminated.
 1737 0000 FFF7FEBF 		b	remove
 1738              		.cfi_endproc
 1739              	.LFE321:
 1740              		.size	unlink, .-unlink
 1741              		.section	.text.rmdir,"ax",%progbits
 1742              		.align	1
 1743              		.global	rmdir
 1744              		.syntax unified
 1745              		.thumb
 1746              		.thumb_func
 1747              		.fpu fpv4-sp-d16
 1748              		.type	rmdir, %function
 1749              	rmdir:
 1750              	.LFB323:
 1751              		.cfi_startproc
 1752              		@ args = 0, pretend = 0, frame = 0
 1753              		@ frame_needed = 0, uses_anonymous_args = 0
 1754              		@ link register save eliminated.
 1755 0000 FFF7FEBF 		b	remove
 1756              		.cfi_endproc
 1757              	.LFE323:
 1758              		.size	rmdir, .-rmdir
 1759              		.section	.text.closedir,"ax",%progbits
 1760              		.align	1
 1761              		.global	closedir
 1762              		.syntax unified
 1763              		.thumb
 1764              		.thumb_func
 1765              		.fpu fpv4-sp-d16
 1766              		.type	closedir, %function
 1767              	closedir:
ARM GAS  C:\cygwin64\tmp\ccxdpAIh.s 			page 32


 1768              	.LFB295:
 1769              		.loc 1 1731 0
 1770              		.cfi_startproc
 1771              		@ args = 0, pretend = 0, frame = 0
 1772              		@ frame_needed = 0, uses_anonymous_args = 0
 1773              	.LVL183:
 1774              		.loc 1 1731 0
 1775 0000 08B5     		push	{r3, lr}
 1776              		.cfi_def_cfa_offset 8
 1777              		.cfi_offset 3, -8
 1778              		.cfi_offset 14, -4
 1779              		.loc 1 1732 0
 1780 0002 FFF7FEFF 		bl	f_closedir
 1781              	.LVL184:
 1782              		.loc 1 1733 0
 1783 0006 48B1     		cbz	r0, .L226
 1784              	.LVL185:
 1785 0008 1328     		cmp	r0, #19
 1786 000a 98BF     		it	ls
 1787 000c 044B     		ldrls	r3, .L231
 1788              		.loc 1 1735 0
 1789 000e 054A     		ldr	r2, .L231+4
 1790 0010 94BF     		ite	ls
 1791 0012 1B56     		ldrsbls	r3, [r3, r0]
 1792              		.loc 1 1733 0
 1793 0014 2323     		movhi	r3, #35
 1794              	.LVL186:
 1795              		.loc 1 1735 0
 1796 0016 1360     		str	r3, [r2]
 1797              		.loc 1 1736 0
 1798 0018 4FF0FF30 		mov	r0, #-1
 1799              	.LVL187:
 1800              	.L226:
 1801              		.loc 1 1739 0
 1802 001c 08BD     		pop	{r3, pc}
 1803              	.L232:
 1804 001e 00BF     		.align	2
 1805              	.L231:
 1806 0020 00000000 		.word	.LANCHOR1
 1807 0024 00000000 		.word	.LANCHOR0
 1808              		.cfi_endproc
 1809              	.LFE295:
 1810              		.size	closedir, .-closedir
 1811              		.section	.text.opendir,"ax",%progbits
 1812              		.align	1
 1813              		.global	opendir
 1814              		.syntax unified
 1815              		.thumb
 1816              		.thumb_func
 1817              		.fpu fpv4-sp-d16
 1818              		.type	opendir, %function
 1819              	opendir:
 1820              	.LFB296:
 1821              		.loc 1 1750 0
 1822              		.cfi_startproc
 1823              		@ args = 0, pretend = 0, frame = 0
 1824              		@ frame_needed = 0, uses_anonymous_args = 0
ARM GAS  C:\cygwin64\tmp\ccxdpAIh.s 			page 33


 1825              	.LVL188:
 1826 0000 08B5     		push	{r3, lr}
 1827              		.cfi_def_cfa_offset 8
 1828              		.cfi_offset 3, -8
 1829              		.cfi_offset 14, -4
 1830              		.loc 1 1751 0
 1831 0002 0146     		mov	r1, r0
 1832 0004 0748     		ldr	r0, .L238
 1833              	.LVL189:
 1834 0006 FFF7FEFF 		bl	f_opendir
 1835              	.LVL190:
 1836              		.loc 1 1752 0
 1837 000a 48B1     		cbz	r0, .L236
 1838              	.LVL191:
 1839 000c 1328     		cmp	r0, #19
 1840 000e 98BF     		it	ls
 1841 0010 054B     		ldrls	r3, .L238+4
 1842              		.loc 1 1754 0
 1843 0012 064A     		ldr	r2, .L238+8
 1844 0014 94BF     		ite	ls
 1845 0016 1B56     		ldrsbls	r3, [r3, r0]
 1846              		.loc 1 1752 0
 1847 0018 2323     		movhi	r3, #35
 1848              	.LVL192:
 1849              		.loc 1 1754 0
 1850 001a 1360     		str	r3, [r2]
 1851              		.loc 1 1755 0
 1852 001c 0020     		movs	r0, #0
 1853              	.LVL193:
 1854 001e 08BD     		pop	{r3, pc}
 1855              	.LVL194:
 1856              	.L236:
 1857              		.loc 1 1757 0
 1858 0020 0048     		ldr	r0, .L238
 1859              	.LVL195:
 1860              		.loc 1 1758 0
 1861 0022 08BD     		pop	{r3, pc}
 1862              	.L239:
 1863              		.align	2
 1864              	.L238:
 1865 0024 00000000 		.word	.LANCHOR3
 1866 0028 00000000 		.word	.LANCHOR1
 1867 002c 00000000 		.word	.LANCHOR0
 1868              		.cfi_endproc
 1869              	.LFE296:
 1870              		.size	opendir, .-opendir
 1871              		.section	.text.readdir,"ax",%progbits
 1872              		.align	1
 1873              		.global	readdir
 1874              		.syntax unified
 1875              		.thumb
 1876              		.thumb_func
 1877              		.fpu fpv4-sp-d16
 1878              		.type	readdir, %function
 1879              	readdir:
 1880              	.LFB297:
 1881              		.loc 1 1769 0
ARM GAS  C:\cygwin64\tmp\ccxdpAIh.s 			page 34


 1882              		.cfi_startproc
 1883              		@ args = 0, pretend = 0, frame = 288
 1884              		@ frame_needed = 0, uses_anonymous_args = 0
 1885              	.LVL196:
 1886 0000 70B5     		push	{r4, r5, r6, lr}
 1887              		.cfi_def_cfa_offset 16
 1888              		.cfi_offset 4, -16
 1889              		.cfi_offset 5, -12
 1890              		.cfi_offset 6, -8
 1891              		.cfi_offset 14, -4
 1892              		.loc 1 1774 0
 1893 0002 124C     		ldr	r4, .L251
 1894              		.loc 1 1769 0
 1895 0004 C8B0     		sub	sp, sp, #288
 1896              		.cfi_def_cfa_offset 304
 1897              		.loc 1 1774 0
 1898 0006 0023     		movs	r3, #0
 1899              		.loc 1 1775 0
 1900 0008 6946     		mov	r1, sp
 1901              		.loc 1 1774 0
 1902 000a 2370     		strb	r3, [r4]
 1903              		.loc 1 1775 0
 1904 000c FFF7FEFF 		bl	f_readdir
 1905              	.LVL197:
 1906              		.loc 1 1776 0
 1907 0010 0546     		mov	r5, r0
 1908 0012 48B9     		cbnz	r0, .L241
 1909              		.loc 1 1776 0 is_stmt 0 discriminator 1
 1910 0014 9DF81A30 		ldrb	r3, [sp, #26]	@ zero_extendqisi2
 1911 0018 53B9     		cbnz	r3, .L250
 1912              	.L242:
 1913              	.LVL198:
 1914 001a 0D4B     		ldr	r3, .L251+4
 1915 001c 5B57     		ldrsb	r3, [r3, r5]
 1916              	.LVL199:
 1917              	.L244:
 1918              		.loc 1 1778 0 is_stmt 1
 1919 001e 0D4A     		ldr	r2, .L251+8
 1920              		.loc 1 1779 0
 1921 0020 0020     		movs	r0, #0
 1922              	.LVL200:
 1923              		.loc 1 1778 0
 1924 0022 1360     		str	r3, [r2]
 1925              	.L240:
 1926              		.loc 1 1785 0
 1927 0024 48B0     		add	sp, sp, #288
 1928              		.cfi_remember_state
 1929              		.cfi_def_cfa_offset 16
 1930              		@ sp needed
 1931 0026 70BD     		pop	{r4, r5, r6, pc}
 1932              	.LVL201:
 1933              	.L241:
 1934              		.cfi_restore_state
 1935 0028 1328     		cmp	r0, #19
 1936 002a F6D9     		bls	.L242
 1937              		.loc 1 1776 0
 1938 002c 2323     		movs	r3, #35
ARM GAS  C:\cygwin64\tmp\ccxdpAIh.s 			page 35


 1939 002e F6E7     		b	.L244
 1940              	.LVL202:
 1941              	.L250:
 1942              		.loc 1 1781 0
 1943 0030 0DF11A00 		add	r0, sp, #26
 1944              	.LVL203:
 1945 0034 FFF7FEFF 		bl	strlen
 1946              	.LVL204:
 1947 0038 0646     		mov	r6, r0
 1948              	.LVL205:
 1949              		.loc 1 1782 0
 1950 003a 0246     		mov	r2, r0
 1951 003c 0DF11A01 		add	r1, sp, #26
 1952 0040 2046     		mov	r0, r4
 1953              	.LVL206:
 1954 0042 FFF7FEFF 		bl	strncpy
 1955              	.LVL207:
 1956              		.loc 1 1783 0
 1957 0046 A555     		strb	r5, [r4, r6]
 1958              		.loc 1 1784 0
 1959 0048 2046     		mov	r0, r4
 1960 004a EBE7     		b	.L240
 1961              	.L252:
 1962              		.align	2
 1963              	.L251:
 1964 004c 00000000 		.word	.LANCHOR4
 1965 0050 00000000 		.word	.LANCHOR1
 1966 0054 00000000 		.word	.LANCHOR0
 1967              		.cfi_endproc
 1968              	.LFE297:
 1969              		.size	readdir, .-readdir
 1970              		.section	.text.clrerror,"ax",%progbits
 1971              		.align	1
 1972              		.global	clrerror
 1973              		.syntax unified
 1974              		.thumb
 1975              		.thumb_func
 1976              		.fpu fpv4-sp-d16
 1977              		.type	clrerror, %function
 1978              	clrerror:
 1979              	.LFB298:
 1980              		.loc 1 1800 0
 1981              		.cfi_startproc
 1982              		@ args = 0, pretend = 0, frame = 0
 1983              		@ frame_needed = 0, uses_anonymous_args = 0
 1984              		@ link register save eliminated.
 1985              	.LVL208:
 1986              		.loc 1 1802 0
 1987 0000 4379     		ldrb	r3, [r0, #5]	@ zero_extendqisi2
 1988 0002 23F03003 		bic	r3, r3, #48
 1989 0006 4371     		strb	r3, [r0, #5]
 1990 0008 7047     		bx	lr
 1991              		.cfi_endproc
 1992              	.LFE298:
 1993              		.size	clrerror, .-clrerror
 1994              		.section	.text.ferror,"ax",%progbits
 1995              		.align	1
ARM GAS  C:\cygwin64\tmp\ccxdpAIh.s 			page 36


 1996              		.global	ferror
 1997              		.syntax unified
 1998              		.thumb
 1999              		.thumb_func
 2000              		.fpu fpv4-sp-d16
 2001              		.type	ferror, %function
 2002              	ferror:
 2003              	.LFB299:
 2004              		.loc 1 1812 0
 2005              		.cfi_startproc
 2006              		@ args = 0, pretend = 0, frame = 0
 2007              		@ frame_needed = 0, uses_anonymous_args = 0
 2008              		@ link register save eliminated.
 2009              	.LVL209:
 2010              		.loc 1 1813 0
 2011 0000 4079     		ldrb	r0, [r0, #5]	@ zero_extendqisi2
 2012              	.LVL210:
 2013              		.loc 1 1816 0
 2014 0002 C0F30010 		ubfx	r0, r0, #4, #1
 2015 0006 7047     		bx	lr
 2016              		.cfi_endproc
 2017              	.LFE299:
 2018              		.size	ferror, .-ferror
 2019              		.section	.text.perror,"ax",%progbits
 2020              		.align	1
 2021              		.global	perror
 2022              		.syntax unified
 2023              		.thumb
 2024              		.thumb_func
 2025              		.fpu fpv4-sp-d16
 2026              		.type	perror, %function
 2027              	perror:
 2028              	.LFB300:
 2029              		.loc 1 1828 0
 2030              		.cfi_startproc
 2031              		@ args = 0, pretend = 0, frame = 0
 2032              		@ frame_needed = 0, uses_anonymous_args = 0
 2033              		@ link register save eliminated.
 2034              	.LVL211:
 2035              		.loc 1 1832 0
 2036 0000 094B     		ldr	r3, .L265
 2037 0002 1A68     		ldr	r2, [r3]
 2038 0004 094B     		ldr	r3, .L265+4
 2039 0006 222A     		cmp	r2, #34
 2040              		.loc 1 1828 0
 2041 0008 0146     		mov	r1, r0
 2042              		.loc 1 1833 0
 2043 000a 94BF     		ite	ls
 2044 000c 53F82220 		ldrls	r2, [r3, r2, lsl #2]
 2045              	.LVL212:
 2046              		.loc 1 1835 0
 2047 0010 D3F88C20 		ldrhi	r2, [r3, #140]
 2048              	.LVL213:
 2049              		.loc 1 1837 0
 2050 0014 20B1     		cbz	r0, .L258
 2051              		.loc 1 1837 0 is_stmt 0 discriminator 1
 2052 0016 0378     		ldrb	r3, [r0]	@ zero_extendqisi2
ARM GAS  C:\cygwin64\tmp\ccxdpAIh.s 			page 37


 2053 0018 13B1     		cbz	r3, .L258
 2054              		.loc 1 1838 0 is_stmt 1
 2055 001a 0548     		ldr	r0, .L265+8
 2056              	.LVL214:
 2057 001c FFF7FEBF 		b	printf
 2058              	.LVL215:
 2059              	.L258:
 2060              		.loc 1 1840 0
 2061 0020 1046     		mov	r0, r2
 2062              	.LVL216:
 2063 0022 FFF7FEBF 		b	puts
 2064              	.LVL217:
 2065              	.L266:
 2066 0026 00BF     		.align	2
 2067              	.L265:
 2068 0028 00000000 		.word	.LANCHOR0
 2069 002c 00000000 		.word	.LANCHOR5
 2070 0030 00000000 		.word	.LC3
 2071              		.cfi_endproc
 2072              	.LFE300:
 2073              		.size	perror, .-perror
 2074              		.section	.text.strerror,"ax",%progbits
 2075              		.align	1
 2076              		.global	strerror
 2077              		.syntax unified
 2078              		.thumb
 2079              		.thumb_func
 2080              		.fpu fpv4-sp-d16
 2081              		.type	strerror, %function
 2082              	strerror:
 2083              	.LFB301:
 2084              		.loc 1 1853 0
 2085              		.cfi_startproc
 2086              		@ args = 0, pretend = 0, frame = 0
 2087              		@ frame_needed = 0, uses_anonymous_args = 0
 2088              		@ link register save eliminated.
 2089              	.LVL218:
 2090              		.loc 1 1855 0
 2091 0000 014B     		ldr	r3, .L268
 2092 0002 53F82000 		ldr	r0, [r3, r0, lsl #2]
 2093              	.LVL219:
 2094 0006 7047     		bx	lr
 2095              	.L269:
 2096              		.align	2
 2097              	.L268:
 2098 0008 00000000 		.word	.LANCHOR5
 2099              		.cfi_endproc
 2100              	.LFE301:
 2101              		.size	strerror, .-strerror
 2102              		.section	.text.__wrap_strerror_r,"ax",%progbits
 2103              		.align	1
 2104              		.global	__wrap_strerror_r
 2105              		.syntax unified
 2106              		.thumb
 2107              		.thumb_func
 2108              		.fpu fpv4-sp-d16
 2109              		.type	__wrap_strerror_r, %function
ARM GAS  C:\cygwin64\tmp\ccxdpAIh.s 			page 38


 2110              	__wrap_strerror_r:
 2111              	.LFB302:
 2112              		.loc 1 1870 0
 2113              		.cfi_startproc
 2114              		@ args = 0, pretend = 0, frame = 0
 2115              		@ frame_needed = 0, uses_anonymous_args = 0
 2116              	.LVL220:
 2117 0000 10B5     		push	{r4, lr}
 2118              		.cfi_def_cfa_offset 8
 2119              		.cfi_offset 4, -8
 2120              		.cfi_offset 14, -4
 2121              		.loc 1 1871 0
 2122 0002 044B     		ldr	r3, .L271
 2123              		.loc 1 1870 0
 2124 0004 0C46     		mov	r4, r1
 2125              		.loc 1 1871 0
 2126 0006 53F82010 		ldr	r1, [r3, r0, lsl #2]
 2127              	.LVL221:
 2128 000a 2046     		mov	r0, r4
 2129              	.LVL222:
 2130 000c FFF7FEFF 		bl	strncpy
 2131              	.LVL223:
 2132              		.loc 1 1873 0
 2133 0010 2046     		mov	r0, r4
 2134 0012 10BD     		pop	{r4, pc}
 2135              	.LVL224:
 2136              	.L272:
 2137              		.align	2
 2138              	.L271:
 2139 0014 00000000 		.word	.LANCHOR5
 2140              		.cfi_endproc
 2141              	.LFE302:
 2142              		.size	__wrap_strerror_r, .-__wrap_strerror_r
 2143              		.section	.text.fdevopen,"ax",%progbits
 2144              		.align	1
 2145              		.global	fdevopen
 2146              		.syntax unified
 2147              		.thumb
 2148              		.thumb_func
 2149              		.fpu fpv4-sp-d16
 2150              		.type	fdevopen, %function
 2151              	fdevopen:
 2152              	.LFB303:
 2153              		.loc 1 1889 0
 2154              		.cfi_startproc
 2155              		@ args = 0, pretend = 0, frame = 0
 2156              		@ frame_needed = 0, uses_anonymous_args = 0
 2157              	.LVL225:
 2158 0000 38B5     		push	{r3, r4, r5, lr}
 2159              		.cfi_def_cfa_offset 16
 2160              		.cfi_offset 3, -16
 2161              		.cfi_offset 4, -12
 2162              		.cfi_offset 5, -8
 2163              		.cfi_offset 14, -4
 2164              		.loc 1 1889 0
 2165 0002 0D46     		mov	r5, r1
 2166              		.loc 1 1892 0
ARM GAS  C:\cygwin64\tmp\ccxdpAIh.s 			page 39


 2167 0004 0446     		mov	r4, r0
 2168 0006 10B9     		cbnz	r0, .L274
 2169              		.loc 1 1892 0 is_stmt 0 discriminator 1
 2170 0008 09B9     		cbnz	r1, .L274
 2171              	.LVL226:
 2172              	.L276:
 2173              		.loc 1 1893 0 is_stmt 1
 2174 000a 0020     		movs	r0, #0
 2175 000c 38BD     		pop	{r3, r4, r5, pc}
 2176              	.LVL227:
 2177              	.L274:
 2178              		.loc 1 1895 0
 2179 000e 1C21     		movs	r1, #28
 2180              	.LVL228:
 2181 0010 0120     		movs	r0, #1
 2182              	.LVL229:
 2183 0012 FFF7FEFF 		bl	calloc
 2184              	.LVL230:
 2185 0016 0028     		cmp	r0, #0
 2186 0018 F7D0     		beq	.L276
 2187              		.loc 1 1898 0
 2188 001a 8023     		movs	r3, #128
 2189 001c 4371     		strb	r3, [r0, #5]
 2190              		.loc 1 1900 0
 2191 001e 35B1     		cbz	r5, .L278
 2192              		.loc 1 1902 0
 2193 0020 8123     		movs	r3, #129
 2194 0022 4371     		strb	r3, [r0, #5]
 2195              		.loc 1 1905 0
 2196 0024 094B     		ldr	r3, .L287
 2197              		.loc 1 1901 0
 2198 0026 4561     		str	r5, [r0, #20]
 2199              		.loc 1 1905 0
 2200 0028 1A68     		ldr	r2, [r3]
 2201 002a 02B9     		cbnz	r2, .L278
 2202              		.loc 1 1906 0
 2203 002c 1860     		str	r0, [r3]
 2204              	.L278:
 2205              		.loc 1 1909 0
 2206 002e 5CB1     		cbz	r4, .L273
 2207              		.loc 1 1911 0
 2208 0030 4379     		ldrb	r3, [r0, #5]	@ zero_extendqisi2
 2209              		.loc 1 1910 0
 2210 0032 0461     		str	r4, [r0, #16]
 2211              		.loc 1 1911 0
 2212 0034 43F00203 		orr	r3, r3, #2
 2213 0038 4371     		strb	r3, [r0, #5]
 2214              		.loc 1 1915 0
 2215 003a 044B     		ldr	r3, .L287
 2216 003c 5A68     		ldr	r2, [r3, #4]
 2217 003e 02B9     		cbnz	r2, .L280
 2218              		.loc 1 1916 0
 2219 0040 5860     		str	r0, [r3, #4]
 2220              	.L280:
 2221              		.loc 1 1917 0
 2222 0042 9A68     		ldr	r2, [r3, #8]
 2223 0044 02B9     		cbnz	r2, .L273
ARM GAS  C:\cygwin64\tmp\ccxdpAIh.s 			page 40


 2224              		.loc 1 1918 0
 2225 0046 9860     		str	r0, [r3, #8]
 2226              	.L273:
 2227              		.loc 1 1922 0
 2228 0048 38BD     		pop	{r3, r4, r5, pc}
 2229              	.LVL231:
 2230              	.L288:
 2231 004a 00BF     		.align	2
 2232              	.L287:
 2233 004c 00000000 		.word	.LANCHOR2
 2234              		.cfi_endproc
 2235              	.LFE303:
 2236              		.size	fdevopen, .-fdevopen
 2237              		.section	.text.fatfs_to_errno,"ax",%progbits
 2238              		.align	1
 2239              		.global	fatfs_to_errno
 2240              		.syntax unified
 2241              		.thumb
 2242              		.thumb_func
 2243              		.fpu fpv4-sp-d16
 2244              		.type	fatfs_to_errno, %function
 2245              	fatfs_to_errno:
 2246              	.LFB306:
 2247              		.loc 1 2128 0
 2248              		.cfi_startproc
 2249              		@ args = 0, pretend = 0, frame = 0
 2250              		@ frame_needed = 0, uses_anonymous_args = 0
 2251              		@ link register save eliminated.
 2252              	.LVL232:
 2253 0000 1328     		cmp	r0, #19
 2254 0002 9ABF     		itte	ls
 2255 0004 014B     		ldrls	r3, .L292
 2256 0006 1856     		ldrsbls	r0, [r3, r0]
 2257              	.LVL233:
 2258              		.loc 1 2128 0
 2259 0008 2320     		movhi	r0, #35
 2260              		.loc 1 2193 0
 2261 000a 7047     		bx	lr
 2262              	.L293:
 2263              		.align	2
 2264              	.L292:
 2265 000c 00000000 		.word	.LANCHOR1
 2266              		.cfi_endproc
 2267              	.LFE306:
 2268              		.size	fatfs_to_errno, .-fatfs_to_errno
 2269              		.section	.text.fatfs_to_fileno,"ax",%progbits
 2270              		.align	1
 2271              		.global	fatfs_to_fileno
 2272              		.syntax unified
 2273              		.thumb
 2274              		.thumb_func
 2275              		.fpu fpv4-sp-d16
 2276              		.type	fatfs_to_fileno, %function
 2277              	fatfs_to_fileno:
 2278              	.LFB307:
 2279              		.loc 1 2205 0
 2280              		.cfi_startproc
ARM GAS  C:\cygwin64\tmp\ccxdpAIh.s 			page 41


 2281              		@ args = 0, pretend = 0, frame = 0
 2282              		@ frame_needed = 0, uses_anonymous_args = 0
 2283              		@ link register save eliminated.
 2284              	.LVL234:
 2285              		.loc 1 2210 0
 2286 0000 30B9     		cbnz	r0, .L295
 2287              	.L299:
 2288              		.loc 1 2212 0
 2289 0002 094B     		ldr	r3, .L304
 2290 0004 0922     		movs	r2, #9
 2291 0006 1A60     		str	r2, [r3]
 2292              		.loc 1 2213 0
 2293 0008 4FF0FF33 		mov	r3, #-1
 2294              	.L294:
 2295              		.loc 1 2227 0
 2296 000c 1846     		mov	r0, r3
 2297              	.LVL235:
 2298 000e 7047     		bx	lr
 2299              	.LVL236:
 2300              	.L295:
 2301              		.loc 1 2218 0
 2302 0010 0649     		ldr	r1, .L304+4
 2303 0012 0023     		movs	r3, #0
 2304              	.L298:
 2305              	.LVL237:
 2306 0014 51F82320 		ldr	r2, [r1, r3, lsl #2]
 2307              	.LVL238:
 2308              		.loc 1 2219 0
 2309 0018 12B1     		cbz	r2, .L297
 2310              		.loc 1 2221 0
 2311 001a 9269     		ldr	r2, [r2, #24]
 2312              	.LVL239:
 2313 001c 9042     		cmp	r0, r2
 2314 001e F5D0     		beq	.L294
 2315              	.L297:
 2316              		.loc 1 2216 0 discriminator 2
 2317 0020 0133     		adds	r3, r3, #1
 2318              	.LVL240:
 2319 0022 102B     		cmp	r3, #16
 2320 0024 F6D1     		bne	.L298
 2321 0026 ECE7     		b	.L299
 2322              	.L305:
 2323              		.align	2
 2324              	.L304:
 2325 0028 00000000 		.word	.LANCHOR0
 2326 002c 00000000 		.word	.LANCHOR2
 2327              		.cfi_endproc
 2328              	.LFE307:
 2329              		.size	fatfs_to_fileno, .-fatfs_to_fileno
 2330              		.section	.text.fat_time_to_unix,"ax",%progbits
 2331              		.align	1
 2332              		.global	fat_time_to_unix
 2333              		.syntax unified
 2334              		.thumb
 2335              		.thumb_func
 2336              		.fpu fpv4-sp-d16
 2337              		.type	fat_time_to_unix, %function
ARM GAS  C:\cygwin64\tmp\ccxdpAIh.s 			page 42


 2338              	fat_time_to_unix:
 2339              	.LFB309:
 2340              		.loc 1 2283 0
 2341              		.cfi_startproc
 2342              		@ args = 0, pretend = 0, frame = 48
 2343              		@ frame_needed = 0, uses_anonymous_args = 0
 2344              	.LVL241:
 2345 0000 2DE9F047 		push	{r4, r5, r6, r7, r8, r9, r10, lr}
 2346              		.cfi_def_cfa_offset 32
 2347              		.cfi_offset 4, -32
 2348              		.cfi_offset 5, -28
 2349              		.cfi_offset 6, -24
 2350              		.cfi_offset 7, -20
 2351              		.cfi_offset 8, -16
 2352              		.cfi_offset 9, -12
 2353              		.cfi_offset 10, -8
 2354              		.cfi_offset 14, -4
 2355              	.LBB89:
 2356              	.LBB90:
 2357              		.loc 1 2236 0
 2358 0004 334D     		ldr	r5, .L312
 2359              	.LBE90:
 2360              	.LBE89:
 2361              		.loc 1 2294 0
 2362 0006 460A     		lsrs	r6, r0, #9
 2363              	.LVL242:
 2364              		.loc 1 2289 0
 2365 0008 4FEA410C 		lsl	ip, r1, #1
 2366              		.loc 1 2293 0
 2367 000c C0F34318 		ubfx	r8, r0, #5, #4
 2368 0010 C1F34519 		ubfx	r9, r1, #5, #6
 2369              		.loc 1 2291 0
 2370 0014 CF0A     		lsrs	r7, r1, #11
 2371              		.loc 1 2292 0
 2372 0016 00F01F0E 		and	lr, r0, #31
 2373              	.LBB95:
 2374              	.LBB91:
 2375              		.loc 1 2236 0
 2376 001a 0FCD     		ldmia	r5!, {r0, r1, r2, r3}
 2377              	.LVL243:
 2378              	.LBE91:
 2379              	.LBE95:
 2380              		.loc 1 2283 0
 2381 001c 8CB0     		sub	sp, sp, #48
 2382              		.cfi_def_cfa_offset 80
 2383              	.LBB96:
 2384              	.LBB92:
 2385              		.loc 1 2236 0
 2386 001e 6C46     		mov	r4, sp
 2387 0020 0FC4     		stmia	r4!, {r0, r1, r2, r3}
 2388 0022 0FCD     		ldmia	r5!, {r0, r1, r2, r3}
 2389 0024 0FC4     		stmia	r4!, {r0, r1, r2, r3}
 2390 0026 95E80F00 		ldm	r5, {r0, r1, r2, r3}
 2391 002a 84E80F00 		stm	r4, {r0, r1, r2, r3}
 2392              	.LVL244:
 2393              		.loc 1 2246 0
 2394 002e 06F2BB72 		addw	r2, r6, #1979
ARM GAS  C:\cygwin64\tmp\ccxdpAIh.s 			page 43


 2395              	.LVL245:
 2396              		.loc 1 2248 0
 2397 0032 6FF06303 		mvn	r3, #99
 2398 0036 92FBF3F3 		sdiv	r3, r2, r3
 2399 003a 03EBA203 		add	r3, r3, r2, asr #2
 2400 003e 6FF4EE70 		mvn	r0, #476
 2401 0042 4FF4C874 		mov	r4, #400
 2402 0046 92FBF4F2 		sdiv	r2, r2, r4
 2403              	.LVL246:
 2404 004a 1344     		add	r3, r3, r2
 2405              		.loc 1 2247 0
 2406 004c 224A     		ldr	r2, .L312+4
 2407              		.loc 1 2248 0
 2408 004e 0344     		add	r3, r3, r0
 2409              		.loc 1 2247 0
 2410 0050 06F10A01 		add	r1, r6, #10
 2411              		.loc 1 2248 0
 2412 0054 2148     		ldr	r0, .L312+8
 2413              		.loc 1 2247 0
 2414 0056 4A43     		muls	r2, r1, r2
 2415              		.loc 1 2253 0
 2416 0058 0025     		movs	r5, #0
 2417              		.loc 1 2247 0
 2418 005a 00FB0323 		mla	r3, r0, r3, r2
 2419              	.LVL247:
 2420              	.LBE92:
 2421              	.LBE96:
 2422              		.loc 1 2289 0
 2423 005e 0CF03E0C 		and	ip, ip, #62
 2424              		.loc 1 2293 0
 2425 0062 08F1FF38 		add	r8, r8, #-1
 2426              	.LBB97:
 2427              	.LBB93:
 2428              		.loc 1 2250 0
 2429 0066 06F2BC76 		addw	r6, r6, #1980
 2430              	.LVL248:
 2431              		.loc 1 2251 0
 2432 006a 2A46     		mov	r2, r5
 2433              		.loc 1 2255 0
 2434 006c 4FF0640A 		mov	r10, #100
 2435              	.LVL249:
 2436              	.L307:
 2437              		.loc 1 2253 0
 2438 0070 A845     		cmp	r8, r5
 2439 0072 0FDC     		bgt	.L311
 2440              	.LVL250:
 2441              		.loc 1 2265 0
 2442 0074 3C22     		movs	r2, #60
 2443              		.loc 1 2264 0
 2444 0076 0EF1FF3E 		add	lr, lr, #-1
 2445              		.loc 1 2265 0
 2446 007a 02FB09F9 		mul	r9, r2, r9
 2447 007e 00FB0E90 		mla	r0, r0, lr, r9
 2448 0082 4FF46161 		mov	r1, #3600
 2449 0086 01FB0700 		mla	r0, r1, r7, r0
 2450 008a 6044     		add	r0, r0, ip
 2451              	.LBE93:
ARM GAS  C:\cygwin64\tmp\ccxdpAIh.s 			page 44


 2452              	.LBE97:
 2453              		.loc 1 2297 0
 2454 008c 1844     		add	r0, r0, r3
 2455 008e 0CB0     		add	sp, sp, #48
 2456              		.cfi_remember_state
 2457              		.cfi_def_cfa_offset 32
 2458              		@ sp needed
 2459 0090 BDE8F087 		pop	{r4, r5, r6, r7, r8, r9, r10, pc}
 2460              	.LVL251:
 2461              	.L311:
 2462              		.cfi_restore_state
 2463              	.LBB98:
 2464              	.LBB94:
 2465              		.loc 1 2254 0
 2466 0094 0CA9     		add	r1, sp, #48
 2467 0096 01EB8201 		add	r1, r1, r2, lsl #2
 2468              		.loc 1 2255 0
 2469 009a 012A     		cmp	r2, #1
 2470              		.loc 1 2254 0
 2471 009c 51F8301C 		ldr	r1, [r1, #-48]
 2472 00a0 00FB0133 		mla	r3, r0, r1, r3
 2473              	.LVL252:
 2474              		.loc 1 2255 0
 2475 00a4 0FD1     		bne	.L308
 2476 00a6 B107     		lsls	r1, r6, #30
 2477 00a8 0DD1     		bne	.L308
 2478 00aa 96FBFAF1 		sdiv	r1, r6, r10
 2479 00ae 0AFB1161 		mls	r1, r10, r1, r6
 2480 00b2 21B9     		cbnz	r1, .L309
 2481 00b4 96FBF4F1 		sdiv	r1, r6, r4
 2482 00b8 04FB1161 		mls	r1, r4, r1, r6
 2483 00bc 19B9     		cbnz	r1, .L308
 2484              	.L309:
 2485              		.loc 1 2256 0
 2486 00be 03F5A833 		add	r3, r3, #86016
 2487              	.LVL253:
 2488 00c2 03F5C073 		add	r3, r3, #384
 2489              	.LVL254:
 2490              	.L308:
 2491              		.loc 1 2258 0
 2492 00c6 0132     		adds	r2, r2, #1
 2493              	.LVL255:
 2494 00c8 0B2A     		cmp	r2, #11
 2495              	.LVL256:
 2496              		.loc 1 2260 0
 2497 00ca C4BF     		itt	gt
 2498 00cc 0136     		addgt	r6, r6, #1
 2499              	.LVL257:
 2500              		.loc 1 2259 0
 2501 00ce 0022     		movgt	r2, #0
 2502              	.LVL258:
 2503              		.loc 1 2253 0
 2504 00d0 0135     		adds	r5, r5, #1
 2505              	.LVL259:
 2506 00d2 CDE7     		b	.L307
 2507              	.L313:
 2508              		.align	2
ARM GAS  C:\cygwin64\tmp\ccxdpAIh.s 			page 45


 2509              	.L312:
 2510 00d4 00000000 		.word	.LANCHOR6
 2511 00d8 8033E101 		.word	31536000
 2512 00dc 80510100 		.word	86400
 2513              	.LBE94:
 2514              	.LBE98:
 2515              		.cfi_endproc
 2516              	.LFE309:
 2517              		.size	fat_time_to_unix, .-fat_time_to_unix
 2518              		.section	.text.stat,"ax",%progbits
 2519              		.align	1
 2520              		.global	stat
 2521              		.syntax unified
 2522              		.thumb
 2523              		.thumb_func
 2524              		.fpu fpv4-sp-d16
 2525              		.type	stat, %function
 2526              	stat:
 2527              	.LFB280:
 2528              		.loc 1 1320 0
 2529              		.cfi_startproc
 2530              		@ args = 0, pretend = 0, frame = 288
 2531              		@ frame_needed = 0, uses_anonymous_args = 0
 2532              	.LVL260:
 2533 0000 70B5     		push	{r4, r5, r6, lr}
 2534              		.cfi_def_cfa_offset 16
 2535              		.cfi_offset 4, -16
 2536              		.cfi_offset 5, -12
 2537              		.cfi_offset 6, -8
 2538              		.cfi_offset 14, -4
 2539              		.loc 1 1325 0
 2540 0002 254D     		ldr	r5, .L328
 2541              		.loc 1 1320 0
 2542 0004 C8B0     		sub	sp, sp, #288
 2543              		.cfi_def_cfa_offset 304
 2544              		.loc 1 1320 0
 2545 0006 0C46     		mov	r4, r1
 2546              		.loc 1 1325 0
 2547 0008 0023     		movs	r3, #0
 2548              		.loc 1 1328 0
 2549 000a 2449     		ldr	r1, .L328+4
 2550              	.LVL261:
 2551              		.loc 1 1325 0
 2552 000c 2B60     		str	r3, [r5]
 2553              		.loc 1 1320 0
 2554 000e 0646     		mov	r6, r0
 2555              		.loc 1 1328 0
 2556 0010 FFF7FEFF 		bl	strcmp
 2557              	.LVL262:
 2558 0014 20B1     		cbz	r0, .L315
 2559              		.loc 1 1328 0 is_stmt 0 discriminator 1
 2560 0016 2249     		ldr	r1, .L328+8
 2561 0018 3046     		mov	r0, r6
 2562 001a FFF7FEFF 		bl	strcmp
 2563              	.LVL263:
 2564 001e 58B9     		cbnz	r0, .L316
 2565              	.L315:
ARM GAS  C:\cygwin64\tmp\ccxdpAIh.s 			page 46


 2566              		.loc 1 1330 0 is_stmt 1
 2567 0020 0020     		movs	r0, #0
 2568              		.loc 1 1336 0
 2569 0022 4FF48043 		mov	r3, #16384
 2570              		.loc 1 1330 0
 2571 0026 E061     		str	r0, [r4, #28]
 2572              		.loc 1 1331 0
 2573 0028 2062     		str	r0, [r4, #32]
 2574              		.loc 1 1332 0
 2575 002a 6062     		str	r0, [r4, #36]
 2576              		.loc 1 1333 0
 2577 002c 6081     		strh	r0, [r4, #10]	@ movhi
 2578              		.loc 1 1334 0
 2579 002e A081     		strh	r0, [r4, #12]	@ movhi
 2580              		.loc 1 1335 0
 2581 0030 2061     		str	r0, [r4, #16]
 2582              		.loc 1 1336 0
 2583 0032 6360     		str	r3, [r4, #4]
 2584              	.L314:
 2585              		.loc 1 1375 0
 2586 0034 48B0     		add	sp, sp, #288
 2587              		.cfi_remember_state
 2588              		.cfi_def_cfa_offset 16
 2589              		@ sp needed
 2590 0036 70BD     		pop	{r4, r5, r6, pc}
 2591              	.LVL264:
 2592              	.L316:
 2593              		.cfi_restore_state
 2594              		.loc 1 1340 0
 2595 0038 6946     		mov	r1, sp
 2596 003a 3046     		mov	r0, r6
 2597 003c FFF7FEFF 		bl	f_stat
 2598              	.LVL265:
 2599              		.loc 1 1341 0
 2600 0040 40B1     		cbz	r0, .L318
 2601              	.LVL266:
 2602 0042 1328     		cmp	r0, #19
 2603 0044 96BF     		itet	ls
 2604 0046 174B     		ldrls	r3, .L328+12
 2605 0048 2323     		movhi	r3, #35
 2606              	.LVL267:
 2607 004a 1B56     		ldrsbls	r3, [r3, r0]
 2608              		.loc 1 1343 0
 2609 004c 2B60     		str	r3, [r5]
 2610              		.loc 1 1344 0
 2611 004e 4FF0FF30 		mov	r0, #-1
 2612              	.LVL268:
 2613 0052 EFE7     		b	.L314
 2614              	.LVL269:
 2615              	.L318:
 2616              		.loc 1 1347 0
 2617 0054 009B     		ldr	r3, [sp]
 2618 0056 2361     		str	r3, [r4, #16]
 2619              		.loc 1 1348 0
 2620 0058 BDF80A10 		ldrh	r1, [sp, #10]
 2621 005c BDF80800 		ldrh	r0, [sp, #8]
 2622              	.LVL270:
ARM GAS  C:\cygwin64\tmp\ccxdpAIh.s 			page 47


 2623 0060 FFF7FEFF 		bl	fat_time_to_unix
 2624              	.LVL271:
 2625              		.loc 1 1355 0
 2626 0064 9DF80C20 		ldrb	r2, [sp, #12]	@ zero_extendqisi2
 2627              		.loc 1 1349 0
 2628 0068 E061     		str	r0, [r4, #28]
 2629              		.loc 1 1356 0
 2630 006a 12F0010F 		tst	r2, #1
 2631 006e 40F2FF11 		movw	r1, #511
 2632 0072 40F26D13 		movw	r3, #365
 2633 0076 08BF     		it	eq
 2634 0078 0B46     		moveq	r3, r1
 2635              		.loc 1 1368 0
 2636 007a D206     		lsls	r2, r2, #27
 2637              		.loc 1 1364 0
 2638 007c 4FF47A71 		mov	r1, #1000
 2639              		.loc 1 1369 0
 2640 0080 4CBF     		ite	mi
 2641 0082 43F48043 		orrmi	r3, r3, #16384
 2642              		.loc 1 1371 0
 2643 0086 43F40043 		orrpl	r3, r3, #32768
 2644              		.loc 1 1350 0
 2645 008a 2062     		str	r0, [r4, #32]
 2646              		.loc 1 1351 0
 2647 008c 6062     		str	r0, [r4, #36]
 2648              	.LVL272:
 2649              		.loc 1 1364 0
 2650 008e 6181     		strh	r1, [r4, #10]	@ movhi
 2651              		.loc 1 1365 0
 2652 0090 A181     		strh	r1, [r4, #12]	@ movhi
 2653              		.loc 1 1372 0
 2654 0092 6360     		str	r3, [r4, #4]
 2655              		.loc 1 1374 0
 2656 0094 0020     		movs	r0, #0
 2657              	.LVL273:
 2658 0096 CDE7     		b	.L314
 2659              	.L329:
 2660              		.align	2
 2661              	.L328:
 2662 0098 00000000 		.word	.LANCHOR0
 2663 009c 00000000 		.word	.LC1
 2664 00a0 00000000 		.word	.LC4
 2665 00a4 00000000 		.word	.LANCHOR1
 2666              		.cfi_endproc
 2667              	.LFE280:
 2668              		.size	stat, .-stat
 2669              		.section	.text.unix_time_to_fat,"ax",%progbits
 2670              		.align	1
 2671              		.global	unix_time_to_fat
 2672              		.syntax unified
 2673              		.thumb
 2674              		.thumb_func
 2675              		.fpu fpv4-sp-d16
 2676              		.type	unix_time_to_fat, %function
 2677              	unix_time_to_fat:
 2678              	.LFB310:
 2679              		.loc 1 2308 0
ARM GAS  C:\cygwin64\tmp\ccxdpAIh.s 			page 48


 2680              		.cfi_startproc
 2681              		@ args = 0, pretend = 0, frame = 8
 2682              		@ frame_needed = 0, uses_anonymous_args = 0
 2683              	.LVL274:
 2684 0000 73B5     		push	{r0, r1, r4, r5, r6, lr}
 2685              		.cfi_def_cfa_offset 24
 2686              		.cfi_offset 4, -16
 2687              		.cfi_offset 5, -12
 2688              		.cfi_offset 6, -8
 2689              		.cfi_offset 14, -4
 2690              		.loc 1 2308 0
 2691 0002 02AB     		add	r3, sp, #8
 2692 0004 0E46     		mov	r6, r1
 2693 0006 43F8040D 		str	r0, [r3, #-4]!
 2694              		.loc 1 2309 0
 2695 000a 1846     		mov	r0, r3
 2696              	.LVL275:
 2697              		.loc 1 2308 0
 2698 000c 1546     		mov	r5, r2
 2699              		.loc 1 2309 0
 2700 000e FFF7FEFF 		bl	gmtime
 2701              	.LVL276:
 2702              		.loc 1 2313 0
 2703 0012 038A     		ldrh	r3, [r0, #16]
 2704              		.loc 1 2312 0
 2705 0014 4469     		ldr	r4, [r0, #20]
 2706              		.loc 1 2317 0
 2707 0016 4168     		ldr	r1, [r0, #4]
 2708              		.loc 1 2313 0
 2709 0018 5A1C     		adds	r2, r3, #1
 2710              		.loc 1 2314 0
 2711 001a C368     		ldr	r3, [r0, #12]
 2712              		.loc 1 2312 0
 2713 001c 503C     		subs	r4, r4, #80
 2714              		.loc 1 2314 0
 2715 001e 43EA4213 		orr	r3, r3, r2, lsl #5
 2716              		.loc 1 2312 0
 2717 0022 A4B2     		uxth	r4, r4
 2718              		.loc 1 2314 0
 2719 0024 43EA4423 		orr	r3, r3, r4, lsl #9
 2720              		.loc 1 2316 0
 2721 0028 8268     		ldr	r2, [r0, #8]
 2722              		.loc 1 2312 0
 2723 002a 3380     		strh	r3, [r6]	@ movhi
 2724              		.loc 1 2316 0
 2725 002c 064B     		ldr	r3, .L331
 2726 002e 03EAC223 		and	r3, r3, r2, lsl #11
 2727              		.loc 1 2317 0
 2728 0032 064A     		ldr	r2, .L331+4
 2729 0034 02EA4112 		and	r2, r2, r1, lsl #5
 2730 0038 1343     		orrs	r3, r3, r2
 2731              		.loc 1 2318 0
 2732 003a 0288     		ldrh	r2, [r0]
 2733 003c 43EA5203 		orr	r3, r3, r2, lsr #1
 2734              		.loc 1 2316 0
 2735 0040 2B80     		strh	r3, [r5]	@ movhi
 2736              		.loc 1 2319 0
ARM GAS  C:\cygwin64\tmp\ccxdpAIh.s 			page 49


 2737 0042 02B0     		add	sp, sp, #8
 2738              		.cfi_def_cfa_offset 16
 2739              		@ sp needed
 2740 0044 70BD     		pop	{r4, r5, r6, pc}
 2741              	.LVL277:
 2742              	.L332:
 2743 0046 00BF     		.align	2
 2744              	.L331:
 2745 0048 00F8FF07 		.word	134215680
 2746 004c E0FF1F00 		.word	2097120
 2747              		.cfi_endproc
 2748              	.LFE310:
 2749              		.size	unix_time_to_fat, .-unix_time_to_fat
 2750              		.section	.text.utime,"ax",%progbits
 2751              		.align	1
 2752              		.global	utime
 2753              		.syntax unified
 2754              		.thumb
 2755              		.thumb_func
 2756              		.fpu fpv4-sp-d16
 2757              		.type	utime, %function
 2758              	utime:
 2759              	.LFB281:
 2760              		.loc 1 1383 0
 2761              		.cfi_startproc
 2762              		@ args = 0, pretend = 0, frame = 296
 2763              		@ frame_needed = 0, uses_anonymous_args = 0
 2764              	.LVL278:
 2765 0000 10B5     		push	{r4, lr}
 2766              		.cfi_def_cfa_offset 8
 2767              		.cfi_offset 4, -8
 2768              		.cfi_offset 14, -4
 2769 0002 0446     		mov	r4, r0
 2770 0004 CAB0     		sub	sp, sp, #296
 2771              		.cfi_def_cfa_offset 304
 2772              		.loc 1 1390 0
 2773 0006 C1B1     		cbz	r1, .L336
 2774              		.loc 1 1391 0
 2775 0008 4868     		ldr	r0, [r1, #4]
 2776              	.LVL279:
 2777              	.L334:
 2778              		.loc 1 1394 0
 2779 000a 0DF10602 		add	r2, sp, #6
 2780 000e 01A9     		add	r1, sp, #4
 2781              	.LVL280:
 2782 0010 FFF7FEFF 		bl	unix_time_to_fat
 2783              	.LVL281:
 2784              		.loc 1 1397 0
 2785 0014 BDF80430 		ldrh	r3, [sp, #4]
 2786 0018 ADF81030 		strh	r3, [sp, #16]	@ movhi
 2787              		.loc 1 1400 0
 2788 001c 02A9     		add	r1, sp, #8
 2789              		.loc 1 1398 0
 2790 001e BDF80630 		ldrh	r3, [sp, #6]
 2791 0022 ADF81230 		strh	r3, [sp, #18]	@ movhi
 2792              		.loc 1 1400 0
 2793 0026 2046     		mov	r0, r4
ARM GAS  C:\cygwin64\tmp\ccxdpAIh.s 			page 50


 2794 0028 FFF7FEFF 		bl	f_utime
 2795              	.LVL282:
 2796 002c 1328     		cmp	r0, #19
 2797 002e 9ABF     		itte	ls
 2798 0030 034B     		ldrls	r3, .L338
 2799 0032 1856     		ldrsbls	r0, [r3, r0]
 2800              	.LVL283:
 2801 0034 2320     		movhi	r0, #35
 2802              		.loc 1 1403 0
 2803 0036 4AB0     		add	sp, sp, #296
 2804              		.cfi_remember_state
 2805              		.cfi_def_cfa_offset 8
 2806              		@ sp needed
 2807 0038 10BD     		pop	{r4, pc}
 2808              	.LVL284:
 2809              	.L336:
 2810              		.cfi_restore_state
 2811              		.loc 1 1387 0
 2812 003a 0846     		mov	r0, r1
 2813              	.LVL285:
 2814 003c E5E7     		b	.L334
 2815              	.L339:
 2816 003e 00BF     		.align	2
 2817              	.L338:
 2818 0040 00000000 		.word	.LANCHOR1
 2819              		.cfi_endproc
 2820              	.LFE281:
 2821              		.size	utime, .-utime
 2822              		.section	.text.fileno_to_fatfs,"ax",%progbits
 2823              		.align	1
 2824              		.global	fileno_to_fatfs
 2825              		.syntax unified
 2826              		.thumb
 2827              		.thumb_func
 2828              		.fpu fpv4-sp-d16
 2829              		.type	fileno_to_fatfs, %function
 2830              	fileno_to_fatfs:
 2831              	.LFB311:
 2832              		.loc 1 2332 0
 2833              		.cfi_startproc
 2834              		@ args = 0, pretend = 0, frame = 0
 2835              		@ frame_needed = 0, uses_anonymous_args = 0
 2836              	.LVL286:
 2837              	.LBB99:
 2838              	.LBB100:
 2839              		.loc 1 188 0
 2840 0000 0228     		cmp	r0, #2
 2841              	.LBE100:
 2842              	.LBE99:
 2843              		.loc 1 2332 0
 2844 0002 08B5     		push	{r3, lr}
 2845              		.cfi_def_cfa_offset 8
 2846              		.cfi_offset 3, -8
 2847              		.cfi_offset 14, -4
 2848              	.LBB102:
 2849              	.LBB101:
 2850              		.loc 1 188 0
ARM GAS  C:\cygwin64\tmp\ccxdpAIh.s 			page 51


 2851 0004 0AD9     		bls	.L341
 2852              	.LVL287:
 2853              	.LBE101:
 2854              	.LBE102:
 2855              		.loc 1 2343 0
 2856 0006 FFF7FEFF 		bl	fileno_to_stream
 2857              	.LVL288:
 2858              		.loc 1 2344 0
 2859 000a 00B9     		cbnz	r0, .L347
 2860              	.LVL289:
 2861              	.L340:
 2862              		.loc 1 2354 0
 2863 000c 08BD     		pop	{r3, pc}
 2864              	.LVL290:
 2865              	.L347:
 2866              		.loc 1 2347 0
 2867 000e 8069     		ldr	r0, [r0, #24]
 2868              	.LVL291:
 2869              		.loc 1 2348 0
 2870 0010 0028     		cmp	r0, #0
 2871 0012 FBD1     		bne	.L340
 2872              		.loc 1 2350 0
 2873 0014 044B     		ldr	r3, .L348
 2874 0016 0922     		movs	r2, #9
 2875 0018 1A60     		str	r2, [r3]
 2876              		.loc 1 2351 0
 2877 001a 08BD     		pop	{r3, pc}
 2878              	.LVL292:
 2879              	.L341:
 2880              		.loc 1 2338 0
 2881 001c 024B     		ldr	r3, .L348
 2882 001e 0922     		movs	r2, #9
 2883 0020 1A60     		str	r2, [r3]
 2884              		.loc 1 2339 0
 2885 0022 0020     		movs	r0, #0
 2886              	.LVL293:
 2887 0024 08BD     		pop	{r3, pc}
 2888              	.L349:
 2889 0026 00BF     		.align	2
 2890              	.L348:
 2891 0028 00000000 		.word	.LANCHOR0
 2892              		.cfi_endproc
 2893              	.LFE311:
 2894              		.size	fileno_to_fatfs, .-fileno_to_fatfs
 2895              		.section	.text.ftell,"ax",%progbits
 2896              		.align	1
 2897              		.global	ftell
 2898              		.syntax unified
 2899              		.thumb
 2900              		.thumb_func
 2901              		.fpu fpv4-sp-d16
 2902              		.type	ftell, %function
 2903              	ftell:
 2904              	.LFB262:
 2905              		.loc 1 581 0
 2906              		.cfi_startproc
 2907              		@ args = 0, pretend = 0, frame = 0
ARM GAS  C:\cygwin64\tmp\ccxdpAIh.s 			page 52


 2908              		@ frame_needed = 0, uses_anonymous_args = 0
 2909              	.LVL294:
 2910 0000 10B5     		push	{r4, lr}
 2911              		.cfi_def_cfa_offset 8
 2912              		.cfi_offset 4, -8
 2913              		.cfi_offset 14, -4
 2914              		.loc 1 582 0
 2915 0002 084C     		ldr	r4, .L358
 2916 0004 0023     		movs	r3, #0
 2917 0006 2360     		str	r3, [r4]
 2918              		.loc 1 584 0
 2919 0008 FFF7FEFF 		bl	fileno
 2920              	.LVL295:
 2921              	.LBB103:
 2922              	.LBB104:
 2923              		.loc 1 188 0
 2924 000c 0228     		cmp	r0, #2
 2925 000e 04D9     		bls	.L355
 2926              	.LVL296:
 2927              	.LBE104:
 2928              	.LBE103:
 2929              		.loc 1 588 0
 2930 0010 FFF7FEFF 		bl	fileno_to_fatfs
 2931              	.LVL297:
 2932              		.loc 1 589 0
 2933 0014 20B9     		cbnz	r0, .L357
 2934              		.loc 1 591 0
 2935 0016 0923     		movs	r3, #9
 2936 0018 2360     		str	r3, [r4]
 2937              	.LVL298:
 2938              	.L355:
 2939              		.loc 1 586 0
 2940 001a 4FF0FF30 		mov	r0, #-1
 2941 001e 10BD     		pop	{r4, pc}
 2942              	.LVL299:
 2943              	.L357:
 2944              		.loc 1 595 0
 2945 0020 006B     		ldr	r0, [r0, #48]
 2946              	.LVL300:
 2947 0022 10BD     		pop	{r4, pc}
 2948              	.L359:
 2949              		.align	2
 2950              	.L358:
 2951 0024 00000000 		.word	.LANCHOR0
 2952              		.cfi_endproc
 2953              	.LFE262:
 2954              		.size	ftell, .-ftell
 2955              		.section	.text.fgetpos,"ax",%progbits
 2956              		.align	1
 2957              		.global	fgetpos
 2958              		.syntax unified
 2959              		.thumb
 2960              		.thumb_func
 2961              		.fpu fpv4-sp-d16
 2962              		.type	fgetpos, %function
 2963              	fgetpos:
 2964              	.LFB259:
ARM GAS  C:\cygwin64\tmp\ccxdpAIh.s 			page 53


 2965              		.loc 1 518 0
 2966              		.cfi_startproc
 2967              		@ args = 0, pretend = 0, frame = 0
 2968              		@ frame_needed = 0, uses_anonymous_args = 0
 2969              	.LVL301:
 2970 0000 10B5     		push	{r4, lr}
 2971              		.cfi_def_cfa_offset 8
 2972              		.cfi_offset 4, -8
 2973              		.cfi_offset 14, -4
 2974              		.loc 1 518 0
 2975 0002 0C46     		mov	r4, r1
 2976              		.loc 1 519 0
 2977 0004 FFF7FEFF 		bl	ftell
 2978              	.LVL302:
 2979              		.loc 1 520 0
 2980 0008 2060     		str	r0, [r4]
 2981              		.loc 1 524 0
 2982 000a 0130     		adds	r0, r0, #1
 2983              	.LVL303:
 2984 000c 4FF0FF30 		mov	r0, #-1
 2985 0010 18BF     		it	ne
 2986 0012 0020     		movne	r0, #0
 2987 0014 10BD     		pop	{r4, pc}
 2988              		.cfi_endproc
 2989              	.LFE259:
 2990              		.size	fgetpos, .-fgetpos
 2991              		.section	.text.lseek,"ax",%progbits
 2992              		.align	1
 2993              		.global	lseek
 2994              		.syntax unified
 2995              		.thumb
 2996              		.thumb_func
 2997              		.fpu fpv4-sp-d16
 2998              		.type	lseek, %function
 2999              	lseek:
 3000              	.LFB263:
 3001              		.loc 1 613 0
 3002              		.cfi_startproc
 3003              		@ args = 0, pretend = 0, frame = 0
 3004              		@ frame_needed = 0, uses_anonymous_args = 0
 3005              	.LVL304:
 3006 0000 2DE9F041 		push	{r4, r5, r6, r7, r8, lr}
 3007              		.cfi_def_cfa_offset 24
 3008              		.cfi_offset 4, -24
 3009              		.cfi_offset 5, -20
 3010              		.cfi_offset 6, -16
 3011              		.cfi_offset 7, -12
 3012              		.cfi_offset 8, -8
 3013              		.cfi_offset 14, -4
 3014              		.loc 1 616 0
 3015 0004 184D     		ldr	r5, .L375
 3016 0006 0023     		movs	r3, #0
 3017              		.loc 1 613 0
 3018 0008 8046     		mov	r8, r0
 3019 000a 1646     		mov	r6, r2
 3020              		.loc 1 616 0
 3021 000c 2B60     		str	r3, [r5]
ARM GAS  C:\cygwin64\tmp\ccxdpAIh.s 			page 54


 3022              		.loc 1 621 0
 3023 000e FFF7FEFF 		bl	fileno_to_fatfs
 3024              	.LVL305:
 3025 0012 2F46     		mov	r7, r5
 3026              		.loc 1 622 0
 3027 0014 0446     		mov	r4, r0
 3028 0016 28B9     		cbnz	r0, .L362
 3029              		.loc 1 624 0
 3030 0018 1823     		movs	r3, #24
 3031 001a 2B60     		str	r3, [r5]
 3032              	.LVL306:
 3033              	.L370:
 3034              		.loc 1 628 0
 3035 001c 4FF0FF30 		mov	r0, #-1
 3036 0020 BDE8F081 		pop	{r4, r5, r6, r7, r8, pc}
 3037              	.LVL307:
 3038              	.L362:
 3039              	.LBB105:
 3040              	.LBB106:
 3041              		.loc 1 188 0
 3042 0024 B8F1020F 		cmp	r8, #2
 3043 0028 F8D9     		bls	.L370
 3044              	.LVL308:
 3045              	.LBE106:
 3046              	.LBE105:
 3047              		.loc 1 631 0
 3048 002a 4046     		mov	r0, r8
 3049              	.LVL309:
 3050 002c FFF7FEFF 		bl	fileno_to_stream
 3051              	.LVL310:
 3052              		.loc 1 632 0
 3053 0030 4379     		ldrb	r3, [r0, #5]	@ zero_extendqisi2
 3054              		.loc 1 634 0
 3055 0032 022E     		cmp	r6, #2
 3056              		.loc 1 632 0
 3057 0034 43F04003 		orr	r3, r3, #64
 3058 0038 4371     		strb	r3, [r0, #5]
 3059              		.loc 1 634 0
 3060 003a 0ED1     		bne	.L373
 3061              		.loc 1 635 0
 3062 003c 2369     		ldr	r3, [r4, #16]
 3063              	.L374:
 3064              		.loc 1 637 0
 3065 003e 1944     		add	r1, r1, r3
 3066              	.LVL311:
 3067              	.L365:
 3068              		.loc 1 639 0
 3069 0040 0A46     		mov	r2, r1
 3070 0042 CB17     		asrs	r3, r1, #31
 3071 0044 2046     		mov	r0, r4
 3072              	.LVL312:
 3073 0046 FFF7FEFF 		bl	f_lseek
 3074              	.LVL313:
 3075              		.loc 1 640 0
 3076 004a 50B1     		cbz	r0, .L366
 3077              	.LVL314:
 3078 004c 1328     		cmp	r0, #19
ARM GAS  C:\cygwin64\tmp\ccxdpAIh.s 			page 55


 3079 004e 96BF     		itet	ls
 3080 0050 064B     		ldrls	r3, .L375+4
 3081 0052 2323     		movhi	r3, #35
 3082              	.LVL315:
 3083 0054 1B56     		ldrsbls	r3, [r3, r0]
 3084              		.loc 1 642 0
 3085 0056 3B60     		str	r3, [r7]
 3086 0058 E0E7     		b	.L370
 3087              	.LVL316:
 3088              	.L373:
 3089              		.loc 1 636 0
 3090 005a 012E     		cmp	r6, #1
 3091 005c F0D1     		bne	.L365
 3092              		.loc 1 637 0
 3093 005e 236B     		ldr	r3, [r4, #48]
 3094 0060 EDE7     		b	.L374
 3095              	.LVL317:
 3096              	.L366:
 3097              		.loc 1 645 0
 3098 0062 206B     		ldr	r0, [r4, #48]
 3099              	.LVL318:
 3100 0064 BDE8F081 		pop	{r4, r5, r6, r7, r8, pc}
 3101              	.LVL319:
 3102              	.L376:
 3103              		.align	2
 3104              	.L375:
 3105 0068 00000000 		.word	.LANCHOR0
 3106 006c 00000000 		.word	.LANCHOR1
 3107              		.cfi_endproc
 3108              	.LFE263:
 3109              		.size	lseek, .-lseek
 3110              		.section	.text.fseek,"ax",%progbits
 3111              		.align	1
 3112              		.global	fseek
 3113              		.syntax unified
 3114              		.thumb
 3115              		.thumb_func
 3116              		.fpu fpv4-sp-d16
 3117              		.type	fseek, %function
 3118              	fseek:
 3119              	.LFB260:
 3120              		.loc 1 541 0
 3121              		.cfi_startproc
 3122              		@ args = 0, pretend = 0, frame = 0
 3123              		@ frame_needed = 0, uses_anonymous_args = 0
 3124              	.LVL320:
 3125 0000 38B5     		push	{r3, r4, r5, lr}
 3126              		.cfi_def_cfa_offset 16
 3127              		.cfi_offset 3, -16
 3128              		.cfi_offset 4, -12
 3129              		.cfi_offset 5, -8
 3130              		.cfi_offset 14, -4
 3131              		.loc 1 541 0
 3132 0002 0C46     		mov	r4, r1
 3133 0004 1546     		mov	r5, r2
 3134              		.loc 1 544 0
 3135 0006 FFF7FEFF 		bl	fileno
ARM GAS  C:\cygwin64\tmp\ccxdpAIh.s 			page 56


 3136              	.LVL321:
 3137              		.loc 1 545 0
 3138 000a 0028     		cmp	r0, #0
 3139 000c 09DB     		blt	.L379
 3140              		.loc 1 548 0
 3141 000e 2A46     		mov	r2, r5
 3142 0010 2146     		mov	r1, r4
 3143 0012 FFF7FEFF 		bl	lseek
 3144              	.LVL322:
 3145              		.loc 1 550 0
 3146 0016 0130     		adds	r0, r0, #1
 3147              	.LVL323:
 3148 0018 4FF0FF30 		mov	r0, #-1
 3149              	.LVL324:
 3150 001c 18BF     		it	ne
 3151 001e 0020     		movne	r0, #0
 3152 0020 38BD     		pop	{r3, r4, r5, pc}
 3153              	.LVL325:
 3154              	.L379:
 3155              		.loc 1 546 0
 3156 0022 4FF0FF30 		mov	r0, #-1
 3157              	.LVL326:
 3158              		.loc 1 554 0
 3159 0026 38BD     		pop	{r3, r4, r5, pc}
 3160              		.cfi_endproc
 3161              	.LFE260:
 3162              		.size	fseek, .-fseek
 3163              		.section	.text.fsetpos,"ax",%progbits
 3164              		.align	1
 3165              		.global	fsetpos
 3166              		.syntax unified
 3167              		.thumb
 3168              		.thumb_func
 3169              		.fpu fpv4-sp-d16
 3170              		.type	fsetpos, %function
 3171              	fsetpos:
 3172              	.LFB261:
 3173              		.loc 1 567 0
 3174              		.cfi_startproc
 3175              		@ args = 0, pretend = 0, frame = 0
 3176              		@ frame_needed = 0, uses_anonymous_args = 0
 3177              		@ link register save eliminated.
 3178              	.LVL327:
 3179              		.loc 1 568 0
 3180 0000 0022     		movs	r2, #0
 3181 0002 0968     		ldr	r1, [r1]
 3182              	.LVL328:
 3183 0004 FFF7FEBF 		b	fseek
 3184              	.LVL329:
 3185              		.cfi_endproc
 3186              	.LFE261:
 3187              		.size	fsetpos, .-fsetpos
 3188              		.section	.text.rewind,"ax",%progbits
 3189              		.align	1
 3190              		.global	rewind
 3191              		.syntax unified
 3192              		.thumb
ARM GAS  C:\cygwin64\tmp\ccxdpAIh.s 			page 57


 3193              		.thumb_func
 3194              		.fpu fpv4-sp-d16
 3195              		.type	rewind, %function
 3196              	rewind:
 3197              	.LFB264:
 3198              		.loc 1 657 0
 3199              		.cfi_startproc
 3200              		@ args = 0, pretend = 0, frame = 0
 3201              		@ frame_needed = 0, uses_anonymous_args = 0
 3202              		@ link register save eliminated.
 3203              	.LVL330:
 3204              		.loc 1 658 0
 3205 0000 0022     		movs	r2, #0
 3206 0002 1146     		mov	r1, r2
 3207 0004 FFF7FEBF 		b	fseek
 3208              	.LVL331:
 3209              		.cfi_endproc
 3210              	.LFE264:
 3211              		.size	rewind, .-rewind
 3212              		.section	.text.ftruncate,"ax",%progbits
 3213              		.align	1
 3214              		.global	ftruncate
 3215              		.syntax unified
 3216              		.thumb
 3217              		.thumb_func
 3218              		.fpu fpv4-sp-d16
 3219              		.type	ftruncate, %function
 3220              	ftruncate:
 3221              	.LFB270:
 3222              		.loc 1 818 0
 3223              		.cfi_startproc
 3224              		@ args = 0, pretend = 0, frame = 0
 3225              		@ frame_needed = 0, uses_anonymous_args = 0
 3226              	.LVL332:
 3227 0000 38B5     		push	{r3, r4, r5, lr}
 3228              		.cfi_def_cfa_offset 16
 3229              		.cfi_offset 3, -16
 3230              		.cfi_offset 4, -12
 3231              		.cfi_offset 5, -8
 3232              		.cfi_offset 14, -4
 3233              		.loc 1 819 0
 3234 0002 0F4C     		ldr	r4, .L401
 3235 0004 0023     		movs	r3, #0
 3236              	.LBB107:
 3237              	.LBB108:
 3238              		.loc 1 188 0
 3239 0006 0228     		cmp	r0, #2
 3240              	.LBE108:
 3241              	.LBE107:
 3242              		.loc 1 819 0
 3243 0008 2360     		str	r3, [r4]
 3244              	.LVL333:
 3245              	.LBB110:
 3246              	.LBB109:
 3247              		.loc 1 188 0
 3248 000a 07D8     		bhi	.L383
 3249              	.LVL334:
ARM GAS  C:\cygwin64\tmp\ccxdpAIh.s 			page 58


 3250              	.L397:
 3251              	.LBE109:
 3252              	.LBE110:
 3253              		.loc 1 841 0
 3254 000c 4FF0FF30 		mov	r0, #-1
 3255 0010 38BD     		pop	{r3, r4, r5, pc}
 3256              	.LVL335:
 3257              	.L385:
 3258              		.loc 1 837 0
 3259 0012 2846     		mov	r0, r5
 3260              	.LVL336:
 3261 0014 FFF7FEFF 		bl	f_truncate
 3262              	.LVL337:
 3263              		.loc 1 838 0
 3264 0018 58B9     		cbnz	r0, .L400
 3265              		.loc 1 844 0
 3266 001a 38BD     		pop	{r3, r4, r5, pc}
 3267              	.LVL338:
 3268              	.L383:
 3269              		.loc 1 826 0
 3270 001c FFF7FEFF 		bl	fileno_to_fatfs
 3271              	.LVL339:
 3272              		.loc 1 827 0
 3273 0020 0546     		mov	r5, r0
 3274 0022 0028     		cmp	r0, #0
 3275 0024 F2D0     		beq	.L397
 3276              		.loc 1 831 0
 3277 0026 0A46     		mov	r2, r1
 3278 0028 CB17     		asrs	r3, r1, #31
 3279 002a FFF7FEFF 		bl	f_lseek
 3280              	.LVL340:
 3281              		.loc 1 832 0
 3282 002e 0028     		cmp	r0, #0
 3283 0030 EFD0     		beq	.L385
 3284              	.L400:
 3285              	.LVL341:
 3286 0032 1328     		cmp	r0, #19
 3287 0034 96BF     		itet	ls
 3288 0036 034B     		ldrls	r3, .L401+4
 3289              		.loc 1 838 0
 3290 0038 2323     		movhi	r3, #35
 3291              	.LVL342:
 3292 003a 1B56     		ldrsbls	r3, [r3, r0]
 3293              		.loc 1 840 0
 3294 003c 2360     		str	r3, [r4]
 3295 003e E5E7     		b	.L397
 3296              	.L402:
 3297              		.align	2
 3298              	.L401:
 3299 0040 00000000 		.word	.LANCHOR0
 3300 0044 00000000 		.word	.LANCHOR1
 3301              		.cfi_endproc
 3302              	.LFE270:
 3303              		.size	ftruncate, .-ftruncate
 3304              		.section	.text.read,"ax",%progbits
 3305              		.align	1
 3306              		.global	read
ARM GAS  C:\cygwin64\tmp\ccxdpAIh.s 			page 59


 3307              		.syntax unified
 3308              		.thumb
 3309              		.thumb_func
 3310              		.fpu fpv4-sp-d16
 3311              		.type	read, %function
 3312              	read:
 3313              	.LFB273:
 3314              		.loc 1 996 0
 3315              		.cfi_startproc
 3316              		@ args = 0, pretend = 0, frame = 8
 3317              		@ frame_needed = 0, uses_anonymous_args = 0
 3318              	.LVL343:
 3319 0000 2DE9F743 		push	{r0, r1, r2, r4, r5, r6, r7, r8, r9, lr}
 3320              		.cfi_def_cfa_offset 40
 3321              		.cfi_offset 4, -28
 3322              		.cfi_offset 5, -24
 3323              		.cfi_offset 6, -20
 3324              		.cfi_offset 7, -16
 3325              		.cfi_offset 8, -12
 3326              		.cfi_offset 9, -8
 3327              		.cfi_offset 14, -4
 3328              		.loc 1 1005 0
 3329 0004 0027     		movs	r7, #0
 3330              		.loc 1 1007 0
 3331 0006 204C     		ldr	r4, .L416
 3332              		.loc 1 1005 0
 3333 0008 0F70     		strb	r7, [r1]
 3334              		.loc 1 996 0
 3335 000a 1646     		mov	r6, r2
 3336 000c 8146     		mov	r9, r0
 3337              	.LVL344:
 3338              		.loc 1 1007 0
 3339 000e 2760     		str	r7, [r4]
 3340              		.loc 1 1011 0
 3341 0010 FFF7FEFF 		bl	fileno_to_stream
 3342              	.LVL345:
 3343              		.loc 1 1012 0
 3344 0014 1D4B     		ldr	r3, .L416+4
 3345 0016 1A68     		ldr	r2, [r3]
 3346 0018 9042     		cmp	r0, r2
 3347              		.loc 1 1011 0
 3348 001a 0546     		mov	r5, r0
 3349              	.LVL346:
 3350              		.loc 1 1012 0
 3351 001c 17D1     		bne	.L404
 3352              	.LVL347:
 3353              	.LBB111:
 3354              		.loc 1 1016 0
 3355 001e 4379     		ldrb	r3, [r0, #5]	@ zero_extendqisi2
 3356              		.loc 1 1017 0
 3357 0020 0197     		str	r7, [sp, #4]
 3358              		.loc 1 1016 0
 3359 0022 43F04003 		orr	r3, r3, #64
 3360 0026 4371     		strb	r3, [r0, #5]
 3361 0028 0E44     		add	r6, r6, r1
 3362              	.LVL348:
 3363              		.loc 1 1018 0
ARM GAS  C:\cygwin64\tmp\ccxdpAIh.s 			page 60


 3364 002a 0C46     		mov	r4, r1
 3365              	.LVL349:
 3366              	.L405:
 3367 002c B442     		cmp	r4, r6
 3368 002e 04D0     		beq	.L411
 3369              		.loc 1 1020 0
 3370 0030 2846     		mov	r0, r5
 3371 0032 FFF7FEFF 		bl	fgetc
 3372              	.LVL350:
 3373              		.loc 1 1021 0
 3374 0036 0028     		cmp	r0, #0
 3375 0038 03DA     		bge	.L406
 3376              	.LVL351:
 3377              	.L411:
 3378              	.LBE111:
 3379              		.loc 1 1048 0
 3380 003a 0198     		ldr	r0, [sp, #4]
 3381              	.L403:
 3382              		.loc 1 1049 0
 3383 003c 03B0     		add	sp, sp, #12
 3384              		.cfi_remember_state
 3385              		.cfi_def_cfa_offset 28
 3386              		@ sp needed
 3387 003e BDE8F083 		pop	{r4, r5, r6, r7, r8, r9, pc}
 3388              	.LVL352:
 3389              	.L406:
 3390              		.cfi_restore_state
 3391              	.LBB112:
 3392              		.loc 1 1025 0
 3393 0042 019B     		ldr	r3, [sp, #4]
 3394              		.loc 1 1024 0
 3395 0044 04F8010B 		strb	r0, [r4], #1
 3396              	.LVL353:
 3397              		.loc 1 1025 0
 3398 0048 0133     		adds	r3, r3, #1
 3399 004a 0193     		str	r3, [sp, #4]
 3400 004c EEE7     		b	.L405
 3401              	.LVL354:
 3402              	.L404:
 3403              	.LBE112:
 3404              		.loc 1 1029 0
 3405 004e 5A68     		ldr	r2, [r3, #4]
 3406 0050 9042     		cmp	r0, r2
 3407 0052 08D0     		beq	.L414
 3408              		.loc 1 1029 0 is_stmt 0 discriminator 1
 3409 0054 9B68     		ldr	r3, [r3, #8]
 3410 0056 9842     		cmp	r0, r3
 3411 0058 05D0     		beq	.L414
 3412              		.loc 1 1035 0 is_stmt 1
 3413 005a 4846     		mov	r0, r9
 3414              	.LVL355:
 3415 005c FFF7FEFF 		bl	fileno_to_fatfs
 3416              	.LVL356:
 3417              		.loc 1 1036 0
 3418 0060 20B9     		cbnz	r0, .L410
 3419              		.loc 1 1038 0
 3420 0062 0923     		movs	r3, #9
ARM GAS  C:\cygwin64\tmp\ccxdpAIh.s 			page 61


 3421 0064 2360     		str	r3, [r4]
 3422              	.LVL357:
 3423              	.L414:
 3424              		.loc 1 1031 0
 3425 0066 4FF0FF30 		mov	r0, #-1
 3426 006a E7E7     		b	.L403
 3427              	.LVL358:
 3428              	.L410:
 3429              		.loc 1 1042 0
 3430 006c 01AB     		add	r3, sp, #4
 3431 006e 3246     		mov	r2, r6
 3432 0070 FFF7FEFF 		bl	f_read
 3433              	.LVL359:
 3434              		.loc 1 1043 0
 3435 0074 0028     		cmp	r0, #0
 3436 0076 E0D0     		beq	.L411
 3437              	.LVL360:
 3438 0078 1328     		cmp	r0, #19
 3439 007a 96BF     		itet	ls
 3440 007c 044B     		ldrls	r3, .L416+8
 3441 007e 2323     		movhi	r3, #35
 3442              	.LVL361:
 3443 0080 1B56     		ldrsbls	r3, [r3, r0]
 3444              		.loc 1 1045 0
 3445 0082 2360     		str	r3, [r4]
 3446 0084 EFE7     		b	.L414
 3447              	.L417:
 3448 0086 00BF     		.align	2
 3449              	.L416:
 3450 0088 00000000 		.word	.LANCHOR0
 3451 008c 00000000 		.word	.LANCHOR2
 3452 0090 00000000 		.word	.LANCHOR1
 3453              		.cfi_endproc
 3454              	.LFE273:
 3455              		.size	read, .-read
 3456              		.section	.text.__wrap_fread,"ax",%progbits
 3457              		.align	1
 3458              		.global	__wrap_fread
 3459              		.syntax unified
 3460              		.thumb
 3461              		.thumb_func
 3462              		.fpu fpv4-sp-d16
 3463              		.type	__wrap_fread, %function
 3464              	__wrap_fread:
 3465              	.LFB269:
 3466              		.loc 1 794 0
 3467              		.cfi_startproc
 3468              		@ args = 0, pretend = 0, frame = 0
 3469              		@ frame_needed = 0, uses_anonymous_args = 0
 3470              	.LVL362:
 3471 0000 38B5     		push	{r3, r4, r5, lr}
 3472              		.cfi_def_cfa_offset 16
 3473              		.cfi_offset 3, -16
 3474              		.cfi_offset 4, -12
 3475              		.cfi_offset 5, -8
 3476              		.cfi_offset 14, -4
 3477              		.loc 1 795 0
ARM GAS  C:\cygwin64\tmp\ccxdpAIh.s 			page 62


 3478 0002 02FB01F5 		mul	r5, r2, r1
 3479              	.LVL363:
 3480              		.loc 1 794 0
 3481 0006 0446     		mov	r4, r0
 3482              		.loc 1 796 0
 3483 0008 1846     		mov	r0, r3
 3484              	.LVL364:
 3485 000a FFF7FEFF 		bl	fileno
 3486              	.LVL365:
 3487              		.loc 1 800 0
 3488 000e 2A46     		mov	r2, r5
 3489 0010 2146     		mov	r1, r4
 3490 0012 FFF7FEFF 		bl	read
 3491              	.LVL366:
 3492              		.loc 1 805 0
 3493 0016 20EAE070 		bic	r0, r0, r0, asr #31
 3494              	.LVL367:
 3495 001a 38BD     		pop	{r3, r4, r5, pc}
 3496              		.cfi_endproc
 3497              	.LFE269:
 3498              		.size	__wrap_fread, .-__wrap_fread
 3499              		.section	.text.syncfs,"ax",%progbits
 3500              		.align	1
 3501              		.global	syncfs
 3502              		.syntax unified
 3503              		.thumb
 3504              		.thumb_func
 3505              		.fpu fpv4-sp-d16
 3506              		.type	syncfs, %function
 3507              	syncfs:
 3508              	.LFB275:
 3509              		.loc 1 1086 0
 3510              		.cfi_startproc
 3511              		@ args = 0, pretend = 0, frame = 0
 3512              		@ frame_needed = 0, uses_anonymous_args = 0
 3513              	.LVL368:
 3514 0000 10B5     		push	{r4, lr}
 3515              		.cfi_def_cfa_offset 8
 3516              		.cfi_offset 4, -8
 3517              		.cfi_offset 14, -4
 3518              		.loc 1 1091 0
 3519 0002 104C     		ldr	r4, .L431
 3520 0004 0023     		movs	r3, #0
 3521              	.LBB113:
 3522              	.LBB114:
 3523              		.loc 1 188 0
 3524 0006 0228     		cmp	r0, #2
 3525              	.LBE114:
 3526              	.LBE113:
 3527              		.loc 1 1086 0
 3528 0008 0146     		mov	r1, r0
 3529              		.loc 1 1091 0
 3530 000a 2360     		str	r3, [r4]
 3531              	.LVL369:
 3532              	.LBB116:
 3533              	.LBB115:
 3534              		.loc 1 188 0
ARM GAS  C:\cygwin64\tmp\ccxdpAIh.s 			page 63


 3535 000c 04D8     		bhi	.L420
 3536              	.LVL370:
 3537              	.L423:
 3538              	.LBE115:
 3539              	.LBE116:
 3540              		.loc 1 1106 0
 3541 000e 0923     		movs	r3, #9
 3542              	.LVL371:
 3543              	.L422:
 3544              		.loc 1 1113 0
 3545 0010 2360     		str	r3, [r4]
 3546              		.loc 1 1114 0
 3547 0012 4FF0FF30 		mov	r0, #-1
 3548 0016 10BD     		pop	{r4, pc}
 3549              	.LVL372:
 3550              	.L420:
 3551              		.loc 1 1098 0
 3552 0018 FFF7FEFF 		bl	fileno_to_stream
 3553              	.LVL373:
 3554              		.loc 1 1100 0
 3555 001c 4379     		ldrb	r3, [r0, #5]	@ zero_extendqisi2
 3556 001e 43F04003 		orr	r3, r3, #64
 3557 0022 4371     		strb	r3, [r0, #5]
 3558              		.loc 1 1103 0
 3559 0024 0846     		mov	r0, r1
 3560              	.LVL374:
 3561 0026 FFF7FEFF 		bl	fileno_to_fatfs
 3562              	.LVL375:
 3563              		.loc 1 1104 0
 3564 002a 0028     		cmp	r0, #0
 3565 002c EFD0     		beq	.L423
 3566              		.loc 1 1110 0
 3567 002e FFF7FEFF 		bl	f_sync
 3568              	.LVL376:
 3569              		.loc 1 1111 0
 3570 0032 28B1     		cbz	r0, .L419
 3571              	.LVL377:
 3572 0034 1328     		cmp	r0, #19
 3573 0036 96BF     		itet	ls
 3574 0038 034B     		ldrls	r3, .L431+4
 3575 003a 2323     		movhi	r3, #35
 3576 003c 1B56     		ldrsbls	r3, [r3, r0]
 3577 003e E7E7     		b	.L422
 3578              	.LVL378:
 3579              	.L419:
 3580              		.loc 1 1117 0
 3581 0040 10BD     		pop	{r4, pc}
 3582              	.L432:
 3583 0042 00BF     		.align	2
 3584              	.L431:
 3585 0044 00000000 		.word	.LANCHOR0
 3586 0048 00000000 		.word	.LANCHOR1
 3587              		.cfi_endproc
 3588              	.LFE275:
 3589              		.size	syncfs, .-syncfs
 3590              		.section	.text.sync,"ax",%progbits
 3591              		.align	1
ARM GAS  C:\cygwin64\tmp\ccxdpAIh.s 			page 64


 3592              		.global	sync
 3593              		.syntax unified
 3594              		.thumb
 3595              		.thumb_func
 3596              		.fpu fpv4-sp-d16
 3597              		.type	sync, %function
 3598              	sync:
 3599              	.LFB274:
 3600              		.loc 1 1059 0
 3601              		.cfi_startproc
 3602              		@ args = 0, pretend = 0, frame = 0
 3603              		@ frame_needed = 0, uses_anonymous_args = 0
 3604              	.LVL379:
 3605 0000 10B5     		push	{r4, lr}
 3606              		.cfi_def_cfa_offset 8
 3607              		.cfi_offset 4, -8
 3608              		.cfi_offset 14, -4
 3609              		.loc 1 1063 0
 3610 0002 0024     		movs	r4, #0
 3611              	.LVL380:
 3612              	.L434:
 3613              		.loc 1 1063 0 is_stmt 0 discriminator 2
 3614 0004 0134     		adds	r4, r4, #1
 3615              	.LVL381:
 3616 0006 102C     		cmp	r4, #16
 3617 0008 00D1     		bne	.L437
 3618 000a 10BD     		pop	{r4, pc}
 3619              	.LVL382:
 3620              	.L437:
 3621              	.LBB117:
 3622              	.LBB118:
 3623              		.loc 1 188 0 is_stmt 1
 3624 000c 022C     		cmp	r4, #2
 3625 000e F9DD     		ble	.L434
 3626              	.LVL383:
 3627              	.LBE118:
 3628              	.LBE117:
 3629              		.loc 1 1069 0
 3630 0010 2046     		mov	r0, r4
 3631 0012 FFF7FEFF 		bl	fileno_to_fatfs
 3632              	.LVL384:
 3633              		.loc 1 1070 0
 3634 0016 0028     		cmp	r0, #0
 3635 0018 F4D0     		beq	.L434
 3636              		.loc 1 1073 0
 3637 001a 2046     		mov	r0, r4
 3638              	.LVL385:
 3639 001c FFF7FEFF 		bl	syncfs
 3640              	.LVL386:
 3641 0020 F0E7     		b	.L434
 3642              		.cfi_endproc
 3643              	.LFE274:
 3644              		.size	sync, .-sync
 3645              		.section	.text.write,"ax",%progbits
 3646              		.align	1
 3647              		.global	write
 3648              		.syntax unified
ARM GAS  C:\cygwin64\tmp\ccxdpAIh.s 			page 65


 3649              		.thumb
 3650              		.thumb_func
 3651              		.fpu fpv4-sp-d16
 3652              		.type	write, %function
 3653              	write:
 3654              	.LFB277:
 3655              		.loc 1 1170 0
 3656              		.cfi_startproc
 3657              		@ args = 0, pretend = 0, frame = 8
 3658              		@ frame_needed = 0, uses_anonymous_args = 0
 3659              	.LVL387:
 3660 0000 2DE9F743 		push	{r0, r1, r2, r4, r5, r6, r7, r8, r9, lr}
 3661              		.cfi_def_cfa_offset 40
 3662              		.cfi_offset 4, -28
 3663              		.cfi_offset 5, -24
 3664              		.cfi_offset 6, -20
 3665              		.cfi_offset 7, -16
 3666              		.cfi_offset 8, -12
 3667              		.cfi_offset 9, -8
 3668              		.cfi_offset 14, -4
 3669              		.loc 1 1176 0
 3670 0004 1E4F     		ldr	r7, .L458
 3671 0006 0026     		movs	r6, #0
 3672              		.loc 1 1170 0
 3673 0008 1446     		mov	r4, r2
 3674 000a 8146     		mov	r9, r0
 3675              	.LVL388:
 3676              		.loc 1 1176 0
 3677 000c 3E60     		str	r6, [r7]
 3678              		.loc 1 1179 0
 3679 000e FFF7FEFF 		bl	fileno_to_stream
 3680              	.LVL389:
 3681              		.loc 1 1180 0
 3682 0012 1C4A     		ldr	r2, .L458+4
 3683 0014 5368     		ldr	r3, [r2, #4]
 3684 0016 9842     		cmp	r0, r3
 3685              		.loc 1 1179 0
 3686 0018 0546     		mov	r5, r0
 3687              	.LVL390:
 3688              		.loc 1 1180 0
 3689 001a 02D0     		beq	.L446
 3690              		.loc 1 1180 0 is_stmt 0 discriminator 1
 3691 001c 9368     		ldr	r3, [r2, #8]
 3692 001e 9842     		cmp	r0, r3
 3693 0020 14D1     		bne	.L447
 3694              	.L446:
 3695              	.LVL391:
 3696              	.LBB119:
 3697              		.loc 1 1183 0 is_stmt 1
 3698 0022 0196     		str	r6, [sp, #4]
 3699 0024 0C44     		add	r4, r4, r1
 3700              	.LVL392:
 3701              		.loc 1 1182 0
 3702 0026 0E46     		mov	r6, r1
 3703              	.LVL393:
 3704              	.L448:
 3705              		.loc 1 1184 0
ARM GAS  C:\cygwin64\tmp\ccxdpAIh.s 			page 66


 3706 0028 A642     		cmp	r6, r4
 3707 002a 07D0     		beq	.L454
 3708              	.LBB120:
 3709              		.loc 1 1187 0
 3710 002c 16F8017B 		ldrb	r7, [r6], #1	@ zero_extendqisi2
 3711              	.LVL394:
 3712              		.loc 1 1188 0
 3713 0030 2946     		mov	r1, r5
 3714 0032 3846     		mov	r0, r7
 3715 0034 FFF7FEFF 		bl	fputc
 3716              	.LVL395:
 3717              		.loc 1 1189 0
 3718 0038 8742     		cmp	r7, r0
 3719 003a 03D0     		beq	.L449
 3720              	.LVL396:
 3721              	.L454:
 3722              	.LBE120:
 3723              	.LBE119:
 3724              		.loc 1 1215 0
 3725 003c 0198     		ldr	r0, [sp, #4]
 3726              	.L445:
 3727              		.loc 1 1216 0
 3728 003e 03B0     		add	sp, sp, #12
 3729              		.cfi_remember_state
 3730              		.cfi_def_cfa_offset 28
 3731              		@ sp needed
 3732 0040 BDE8F083 		pop	{r4, r5, r6, r7, r8, r9, pc}
 3733              	.LVL397:
 3734              	.L449:
 3735              		.cfi_restore_state
 3736              	.LBB122:
 3737              	.LBB121:
 3738              		.loc 1 1192 0
 3739 0044 019B     		ldr	r3, [sp, #4]
 3740 0046 0133     		adds	r3, r3, #1
 3741 0048 0193     		str	r3, [sp, #4]
 3742 004a EDE7     		b	.L448
 3743              	.LVL398:
 3744              	.L447:
 3745              	.LBE121:
 3746              	.LBE122:
 3747              		.loc 1 1196 0
 3748 004c 1368     		ldr	r3, [r2]
 3749 004e 9842     		cmp	r0, r3
 3750 0050 05D0     		beq	.L456
 3751              		.loc 1 1202 0
 3752 0052 4846     		mov	r0, r9
 3753              	.LVL399:
 3754 0054 FFF7FEFF 		bl	fileno_to_fatfs
 3755              	.LVL400:
 3756              		.loc 1 1203 0
 3757 0058 20B9     		cbnz	r0, .L453
 3758              		.loc 1 1205 0
 3759 005a 0923     		movs	r3, #9
 3760 005c 3B60     		str	r3, [r7]
 3761              	.LVL401:
 3762              	.L456:
ARM GAS  C:\cygwin64\tmp\ccxdpAIh.s 			page 67


 3763              		.loc 1 1198 0
 3764 005e 4FF0FF30 		mov	r0, #-1
 3765 0062 ECE7     		b	.L445
 3766              	.LVL402:
 3767              	.L453:
 3768              		.loc 1 1209 0
 3769 0064 01AB     		add	r3, sp, #4
 3770 0066 2246     		mov	r2, r4
 3771 0068 FFF7FEFF 		bl	f_write
 3772              	.LVL403:
 3773              		.loc 1 1210 0
 3774 006c 0028     		cmp	r0, #0
 3775 006e E5D0     		beq	.L454
 3776              	.LVL404:
 3777 0070 1328     		cmp	r0, #19
 3778 0072 96BF     		itet	ls
 3779 0074 044B     		ldrls	r3, .L458+8
 3780 0076 2323     		movhi	r3, #35
 3781              	.LVL405:
 3782 0078 1B56     		ldrsbls	r3, [r3, r0]
 3783              		.loc 1 1212 0
 3784 007a 3B60     		str	r3, [r7]
 3785 007c EFE7     		b	.L456
 3786              	.L459:
 3787 007e 00BF     		.align	2
 3788              	.L458:
 3789 0080 00000000 		.word	.LANCHOR0
 3790 0084 00000000 		.word	.LANCHOR2
 3791 0088 00000000 		.word	.LANCHOR1
 3792              		.cfi_endproc
 3793              	.LFE277:
 3794              		.size	write, .-write
 3795              		.section	.text.fwrite,"ax",%progbits
 3796              		.align	1
 3797              		.global	fwrite
 3798              		.syntax unified
 3799              		.thumb
 3800              		.thumb_func
 3801              		.fpu fpv4-sp-d16
 3802              		.type	fwrite, %function
 3803              	fwrite:
 3804              	.LFB271:
 3805              		.loc 1 859 0
 3806              		.cfi_startproc
 3807              		@ args = 0, pretend = 0, frame = 0
 3808              		@ frame_needed = 0, uses_anonymous_args = 0
 3809              	.LVL406:
 3810 0000 38B5     		push	{r3, r4, r5, lr}
 3811              		.cfi_def_cfa_offset 16
 3812              		.cfi_offset 3, -16
 3813              		.cfi_offset 4, -12
 3814              		.cfi_offset 5, -8
 3815              		.cfi_offset 14, -4
 3816              		.loc 1 860 0
 3817 0002 02FB01F5 		mul	r5, r2, r1
 3818              	.LVL407:
 3819              		.loc 1 859 0
ARM GAS  C:\cygwin64\tmp\ccxdpAIh.s 			page 68


 3820 0006 0446     		mov	r4, r0
 3821              		.loc 1 861 0
 3822 0008 1846     		mov	r0, r3
 3823              	.LVL408:
 3824 000a FFF7FEFF 		bl	fileno
 3825              	.LVL409:
 3826              		.loc 1 865 0
 3827 000e 2A46     		mov	r2, r5
 3828 0010 2146     		mov	r1, r4
 3829 0012 FFF7FEFF 		bl	write
 3830              	.LVL410:
 3831              		.loc 1 871 0
 3832 0016 20EAE070 		bic	r0, r0, r0, asr #31
 3833              	.LVL411:
 3834 001a 38BD     		pop	{r3, r4, r5, pc}
 3835              		.cfi_endproc
 3836              	.LFE271:
 3837              		.size	fwrite, .-fwrite
 3838              		.section	.text.free_file_descriptor,"ax",%progbits
 3839              		.align	1
 3840              		.global	free_file_descriptor
 3841              		.syntax unified
 3842              		.thumb
 3843              		.thumb_func
 3844              		.fpu fpv4-sp-d16
 3845              		.type	free_file_descriptor, %function
 3846              	free_file_descriptor:
 3847              	.LFB312:
 3848              		.loc 1 2367 0
 3849              		.cfi_startproc
 3850              		@ args = 0, pretend = 0, frame = 0
 3851              		@ frame_needed = 0, uses_anonymous_args = 0
 3852              	.LVL412:
 3853              	.LBB123:
 3854              	.LBB124:
 3855              		.loc 1 188 0
 3856 0000 0228     		cmp	r0, #2
 3857              	.LBE124:
 3858              	.LBE123:
 3859              		.loc 1 2367 0
 3860 0002 38B5     		push	{r3, r4, r5, lr}
 3861              		.cfi_def_cfa_offset 16
 3862              		.cfi_offset 3, -16
 3863              		.cfi_offset 4, -12
 3864              		.cfi_offset 5, -8
 3865              		.cfi_offset 14, -4
 3866              		.loc 1 2367 0
 3867 0004 0446     		mov	r4, r0
 3868              	.LBB126:
 3869              	.LBB125:
 3870              		.loc 1 188 0
 3871 0006 18D9     		bls	.L462
 3872              	.LVL413:
 3873              	.LBE125:
 3874              	.LBE126:
 3875              		.loc 1 2378 0
 3876 0008 FFF7FEFF 		bl	fileno_to_stream
ARM GAS  C:\cygwin64\tmp\ccxdpAIh.s 			page 69


 3877              	.LVL414:
 3878              		.loc 1 2379 0
 3879 000c 0546     		mov	r5, r0
 3880 000e B8B1     		cbz	r0, .L478
 3881              		.loc 1 2384 0
 3882 0010 A869     		ldr	r0, [r5, #24]
 3883              	.LVL415:
 3884              		.loc 1 2386 0
 3885 0012 08B1     		cbz	r0, .L464
 3886              		.loc 1 2388 0
 3887 0014 FFF7FEFF 		bl	free
 3888              	.LVL416:
 3889              	.L464:
 3890              		.loc 1 2391 0
 3891 0018 2868     		ldr	r0, [r5]
 3892 001a 28B1     		cbz	r0, .L465
 3893              		.loc 1 2391 0 is_stmt 0 discriminator 1
 3894 001c 95F90530 		ldrsb	r3, [r5, #5]
 3895 0020 002B     		cmp	r3, #0
 3896 0022 01DA     		bge	.L465
 3897              		.loc 1 2393 0 is_stmt 1
 3898 0024 FFF7FEFF 		bl	free
 3899              	.LVL417:
 3900              	.L465:
 3901              		.loc 1 2396 0
 3902 0028 074B     		ldr	r3, .L479
 3903 002a 0022     		movs	r2, #0
 3904              		.loc 1 2397 0
 3905 002c 2846     		mov	r0, r5
 3906              		.loc 1 2396 0
 3907 002e 43F82420 		str	r2, [r3, r4, lsl #2]
 3908              		.loc 1 2397 0
 3909 0032 FFF7FEFF 		bl	free
 3910              	.LVL418:
 3911              	.L476:
 3912              		.loc 1 2399 0
 3913 0036 2046     		mov	r0, r4
 3914 0038 38BD     		pop	{r3, r4, r5, pc}
 3915              	.LVL419:
 3916              	.L462:
 3917              		.loc 1 2373 0
 3918 003a 044B     		ldr	r3, .L479+4
 3919 003c 0922     		movs	r2, #9
 3920 003e 1A60     		str	r2, [r3]
 3921              	.LVL420:
 3922              	.L478:
 3923              		.loc 1 2374 0
 3924 0040 4FF0FF34 		mov	r4, #-1
 3925              	.LVL421:
 3926 0044 F7E7     		b	.L476
 3927              	.L480:
 3928 0046 00BF     		.align	2
 3929              	.L479:
 3930 0048 00000000 		.word	.LANCHOR2
 3931 004c 00000000 		.word	.LANCHOR0
 3932              		.cfi_endproc
 3933              	.LFE312:
ARM GAS  C:\cygwin64\tmp\ccxdpAIh.s 			page 70


 3934              		.size	free_file_descriptor, .-free_file_descriptor
 3935              		.section	.text.close,"ax",%progbits
 3936              		.align	1
 3937              		.global	close
 3938              		.syntax unified
 3939              		.thumb
 3940              		.thumb_func
 3941              		.fpu fpv4-sp-d16
 3942              		.type	close, %function
 3943              	close:
 3944              	.LFB265:
 3945              		.loc 1 676 0
 3946              		.cfi_startproc
 3947              		@ args = 0, pretend = 0, frame = 0
 3948              		@ frame_needed = 0, uses_anonymous_args = 0
 3949              	.LVL422:
 3950 0000 70B5     		push	{r4, r5, r6, lr}
 3951              		.cfi_def_cfa_offset 16
 3952              		.cfi_offset 4, -16
 3953              		.cfi_offset 5, -12
 3954              		.cfi_offset 6, -8
 3955              		.cfi_offset 14, -4
 3956              		.loc 1 681 0
 3957 0002 0F4D     		ldr	r5, .L492
 3958 0004 0023     		movs	r3, #0
 3959              		.loc 1 676 0
 3960 0006 0646     		mov	r6, r0
 3961              		.loc 1 681 0
 3962 0008 2B60     		str	r3, [r5]
 3963              		.loc 1 684 0
 3964 000a FFF7FEFF 		bl	fileno_to_stream
 3965              	.LVL423:
 3966              		.loc 1 685 0
 3967 000e 10B9     		cbnz	r0, .L482
 3968              	.LVL424:
 3969              	.L491:
 3970              		.loc 1 701 0
 3971 0010 4FF0FF30 		mov	r0, #-1
 3972 0014 70BD     		pop	{r4, r5, r6, pc}
 3973              	.LVL425:
 3974              	.L482:
 3975              		.loc 1 691 0
 3976 0016 3046     		mov	r0, r6
 3977              	.LVL426:
 3978 0018 FFF7FEFF 		bl	fileno_to_fatfs
 3979              	.LVL427:
 3980              		.loc 1 692 0
 3981 001c 0028     		cmp	r0, #0
 3982 001e F7D0     		beq	.L491
 3983              		.loc 1 696 0
 3984 0020 FFF7FEFF 		bl	f_close
 3985              	.LVL428:
 3986 0024 0446     		mov	r4, r0
 3987              	.LVL429:
 3988              		.loc 1 697 0
 3989 0026 3046     		mov	r0, r6
 3990 0028 FFF7FEFF 		bl	free_file_descriptor
ARM GAS  C:\cygwin64\tmp\ccxdpAIh.s 			page 71


 3991              	.LVL430:
 3992              		.loc 1 698 0
 3993 002c 34B1     		cbz	r4, .L486
 3994              	.LVL431:
 3995 002e 132C     		cmp	r4, #19
 3996 0030 96BF     		itet	ls
 3997 0032 044B     		ldrls	r3, .L492+4
 3998 0034 2323     		movhi	r3, #35
 3999              	.LVL432:
 4000 0036 1B57     		ldrsbls	r3, [r3, r4]
 4001              		.loc 1 700 0
 4002 0038 2B60     		str	r3, [r5]
 4003 003a E9E7     		b	.L491
 4004              	.L486:
 4005              		.loc 1 703 0
 4006 003c 2046     		mov	r0, r4
 4007              		.loc 1 704 0
 4008 003e 70BD     		pop	{r4, r5, r6, pc}
 4009              	.LVL433:
 4010              	.L493:
 4011              		.align	2
 4012              	.L492:
 4013 0040 00000000 		.word	.LANCHOR0
 4014 0044 00000000 		.word	.LANCHOR1
 4015              		.cfi_endproc
 4016              	.LFE265:
 4017              		.size	close, .-close
 4018              		.section	.text.__wrap_fclose,"ax",%progbits
 4019              		.align	1
 4020              		.global	__wrap_fclose
 4021              		.syntax unified
 4022              		.thumb
 4023              		.thumb_func
 4024              		.fpu fpv4-sp-d16
 4025              		.type	__wrap_fclose, %function
 4026              	__wrap_fclose:
 4027              	.LFB279:
 4028              		.loc 1 1237 0
 4029              		.cfi_startproc
 4030              		@ args = 0, pretend = 0, frame = 0
 4031              		@ frame_needed = 0, uses_anonymous_args = 0
 4032              	.LVL434:
 4033 0000 08B5     		push	{r3, lr}
 4034              		.cfi_def_cfa_offset 8
 4035              		.cfi_offset 3, -8
 4036              		.cfi_offset 14, -4
 4037              		.loc 1 1238 0
 4038 0002 FFF7FEFF 		bl	fileno
 4039              	.LVL435:
 4040              		.loc 1 1239 0
 4041 0006 0028     		cmp	r0, #0
 4042 0008 03DB     		blt	.L495
 4043              		.loc 1 1243 0
 4044 000a BDE80840 		pop	{r3, lr}
 4045              		.cfi_remember_state
 4046              		.cfi_restore 14
 4047              		.cfi_restore 3
ARM GAS  C:\cygwin64\tmp\ccxdpAIh.s 			page 72


 4048              		.cfi_def_cfa_offset 0
 4049              		.loc 1 1242 0
 4050 000e FFF7FEBF 		b	close
 4051              	.LVL436:
 4052              	.L495:
 4053              		.cfi_restore_state
 4054              		.loc 1 1243 0
 4055 0012 4FF0FF30 		mov	r0, #-1
 4056              	.LVL437:
 4057 0016 08BD     		pop	{r3, pc}
 4058              		.cfi_endproc
 4059              	.LFE279:
 4060              		.size	__wrap_fclose, .-__wrap_fclose
 4061              		.section	.text.new_file_descriptor,"ax",%progbits
 4062              		.align	1
 4063              		.global	new_file_descriptor
 4064              		.syntax unified
 4065              		.thumb
 4066              		.thumb_func
 4067              		.fpu fpv4-sp-d16
 4068              		.type	new_file_descriptor, %function
 4069              	new_file_descriptor:
 4070              	.LFB313:
 4071              		.loc 1 2411 0
 4072              		.cfi_startproc
 4073              		@ args = 0, pretend = 0, frame = 0
 4074              		@ frame_needed = 0, uses_anonymous_args = 0
 4075              	.LVL438:
 4076 0000 70B5     		push	{r4, r5, r6, lr}
 4077              		.cfi_def_cfa_offset 16
 4078              		.cfi_offset 4, -16
 4079              		.cfi_offset 5, -12
 4080              		.cfi_offset 6, -8
 4081              		.cfi_offset 14, -4
 4082              		.loc 1 2420 0
 4083 0002 144E     		ldr	r6, .L508
 4084              		.loc 1 2416 0
 4085 0004 0024     		movs	r4, #0
 4086              	.LVL439:
 4087              	.L497:
 4088              		.loc 1 2416 0 is_stmt 0 discriminator 2
 4089 0006 0134     		adds	r4, r4, #1
 4090              	.LVL440:
 4091 0008 102C     		cmp	r4, #16
 4092 000a 01D1     		bne	.L503
 4093              		.loc 1 2441 0 is_stmt 1
 4094 000c 1722     		movs	r2, #23
 4095 000e 0CE0     		b	.L506
 4096              	.L503:
 4097              	.LVL441:
 4098              	.LBB127:
 4099              	.LBB128:
 4100              		.loc 1 188 0
 4101 0010 022C     		cmp	r4, #2
 4102 0012 F8DD     		ble	.L497
 4103              	.LVL442:
 4104              	.LBE128:
ARM GAS  C:\cygwin64\tmp\ccxdpAIh.s 			page 73


 4105              	.LBE127:
 4106              		.loc 1 2420 0
 4107 0014 56F82430 		ldr	r3, [r6, r4, lsl #2]
 4108 0018 002B     		cmp	r3, #0
 4109 001a F4D1     		bne	.L497
 4110              		.loc 1 2422 0
 4111 001c 0121     		movs	r1, #1
 4112 001e 1C20     		movs	r0, #28
 4113 0020 FFF7FEFF 		bl	calloc
 4114              	.LVL443:
 4115              		.loc 1 2423 0
 4116 0024 0546     		mov	r5, r0
 4117 0026 28B9     		cbnz	r0, .L500
 4118              	.LVL444:
 4119              	.L507:
 4120              		.loc 1 2432 0
 4121 0028 0C22     		movs	r2, #12
 4122              	.LVL445:
 4123              	.L506:
 4124              		.loc 1 2441 0
 4125 002a 0B4B     		ldr	r3, .L508+4
 4126              		.loc 1 2442 0
 4127 002c 4FF0FF34 		mov	r4, #-1
 4128              	.LVL446:
 4129              		.loc 1 2441 0
 4130 0030 1A60     		str	r2, [r3]
 4131              		.loc 1 2442 0
 4132 0032 0CE0     		b	.L496
 4133              	.LVL447:
 4134              	.L500:
 4135              		.loc 1 2428 0
 4136 0034 0121     		movs	r1, #1
 4137 0036 4FF41270 		mov	r0, #584
 4138              	.LVL448:
 4139 003a FFF7FEFF 		bl	calloc
 4140              	.LVL449:
 4141              		.loc 1 2429 0
 4142 003e 18B9     		cbnz	r0, .L502
 4143              		.loc 1 2431 0
 4144 0040 2846     		mov	r0, r5
 4145              	.LVL450:
 4146 0042 FFF7FEFF 		bl	free
 4147              	.LVL451:
 4148 0046 EFE7     		b	.L507
 4149              	.LVL452:
 4150              	.L502:
 4151              		.loc 1 2436 0
 4152 0048 46F82450 		str	r5, [r6, r4, lsl #2]
 4153              		.loc 1 2437 0
 4154 004c A861     		str	r0, [r5, #24]
 4155              	.LVL453:
 4156              	.L496:
 4157              		.loc 1 2443 0
 4158 004e 2046     		mov	r0, r4
 4159 0050 70BD     		pop	{r4, r5, r6, pc}
 4160              	.L509:
 4161 0052 00BF     		.align	2
ARM GAS  C:\cygwin64\tmp\ccxdpAIh.s 			page 74


 4162              	.L508:
 4163 0054 00000000 		.word	.LANCHOR2
 4164 0058 00000000 		.word	.LANCHOR0
 4165              		.cfi_endproc
 4166              	.LFE313:
 4167              		.size	new_file_descriptor, .-new_file_descriptor
 4168              		.section	.text.open,"ax",%progbits
 4169              		.align	1
 4170              		.global	open
 4171              		.syntax unified
 4172              		.thumb
 4173              		.thumb_func
 4174              		.fpu fpv4-sp-d16
 4175              		.type	open, %function
 4176              	open:
 4177              	.LFB272:
 4178              		.loc 1 886 0
 4179              		.cfi_startproc
 4180              		@ args = 0, pretend = 0, frame = 0
 4181              		@ frame_needed = 0, uses_anonymous_args = 0
 4182              	.LVL454:
 4183 0000 2DE9F84F 		push	{r3, r4, r5, r6, r7, r8, r9, r10, fp, lr}
 4184              		.cfi_def_cfa_offset 40
 4185              		.cfi_offset 3, -40
 4186              		.cfi_offset 4, -36
 4187              		.cfi_offset 5, -32
 4188              		.cfi_offset 6, -28
 4189              		.cfi_offset 7, -24
 4190              		.cfi_offset 8, -20
 4191              		.cfi_offset 9, -16
 4192              		.cfi_offset 10, -12
 4193              		.cfi_offset 11, -8
 4194              		.cfi_offset 14, -4
 4195              		.loc 1 893 0
 4196 0004 354E     		ldr	r6, .L540
 4197              		.loc 1 906 0
 4198 0006 01F00308 		and	r8, r1, #3
 4199              		.loc 1 893 0
 4200 000a 0023     		movs	r3, #0
 4201              		.loc 1 906 0
 4202 000c B8F1020F 		cmp	r8, #2
 4203              		.loc 1 886 0
 4204 0010 8346     		mov	fp, r0
 4205 0012 8946     		mov	r9, r1
 4206              		.loc 1 893 0
 4207 0014 3360     		str	r3, [r6]
 4208              		.loc 1 906 0
 4209 0016 18D0     		beq	.L523
 4210              		.loc 1 911 0
 4211 0018 9845     		cmp	r8, r3
 4212 001a 0CBF     		ite	eq
 4213 001c 0127     		moveq	r7, #1
 4214 001e 0227     		movne	r7, #2
 4215              	.L511:
 4216              	.LVL455:
 4217              		.loc 1 913 0
 4218 0020 19F0400F 		tst	r9, #64
ARM GAS  C:\cygwin64\tmp\ccxdpAIh.s 			page 75


 4219 0024 06D0     		beq	.L512
 4220              		.loc 1 915 0
 4221 0026 19F4007F 		tst	r9, #512
 4222              		.loc 1 916 0
 4223 002a 14BF     		ite	ne
 4224 002c 47F00807 		orrne	r7, r7, #8
 4225              	.LVL456:
 4226              		.loc 1 918 0
 4227 0030 47F01007 		orreq	r7, r7, #16
 4228              	.LVL457:
 4229              	.L512:
 4230              		.loc 1 921 0
 4231 0034 FFF7FEFF 		bl	new_file_descriptor
 4232              	.LVL458:
 4233 0038 0446     		mov	r4, r0
 4234              	.LVL459:
 4235              		.loc 1 924 0
 4236 003a FFF7FEFF 		bl	fileno_to_stream
 4237              	.LVL460:
 4238              		.loc 1 925 0
 4239 003e 0546     		mov	r5, r0
 4240              		.loc 1 927 0
 4241 0040 2046     		mov	r0, r4
 4242              	.LVL461:
 4243              		.loc 1 925 0
 4244 0042 25B9     		cbnz	r5, .L514
 4245              	.L537:
 4246              		.loc 1 954 0
 4247 0044 FFF7FEFF 		bl	free_file_descriptor
 4248              	.LVL462:
 4249 0048 0AE0     		b	.L539
 4250              	.LVL463:
 4251              	.L523:
 4252              		.loc 1 907 0
 4253 004a 0327     		movs	r7, #3
 4254 004c E8E7     		b	.L511
 4255              	.LVL464:
 4256              	.L514:
 4257              		.loc 1 932 0
 4258 004e FFF7FEFF 		bl	fileno_to_fatfs
 4259              	.LVL465:
 4260              		.loc 1 933 0
 4261 0052 8246     		mov	r10, r0
 4262 0054 48B9     		cbnz	r0, .L516
 4263              		.loc 1 935 0
 4264 0056 2046     		mov	r0, r4
 4265              	.LVL466:
 4266 0058 FFF7FEFF 		bl	free_file_descriptor
 4267              	.LVL467:
 4268              		.loc 1 936 0
 4269 005c 0923     		movs	r3, #9
 4270 005e 3360     		str	r3, [r6]
 4271              	.LVL468:
 4272              	.L539:
 4273              		.loc 1 955 0
 4274 0060 4FF0FF34 		mov	r4, #-1
 4275              	.LVL469:
ARM GAS  C:\cygwin64\tmp\ccxdpAIh.s 			page 76


 4276              	.L510:
 4277              		.loc 1 982 0
 4278 0064 2046     		mov	r0, r4
 4279 0066 BDE8F88F 		pop	{r3, r4, r5, r6, r7, r8, r9, r10, fp, pc}
 4280              	.LVL470:
 4281              	.L516:
 4282              		.loc 1 939 0
 4283 006a FAB2     		uxtb	r2, r7
 4284 006c 5946     		mov	r1, fp
 4285 006e FFF7FEFF 		bl	f_open
 4286              	.LVL471:
 4287              		.loc 1 940 0
 4288 0072 38B1     		cbz	r0, .L517
 4289              	.LVL472:
 4290 0074 1328     		cmp	r0, #19
 4291 0076 96BF     		itet	ls
 4292 0078 194B     		ldrls	r3, .L540+4
 4293 007a 2323     		movhi	r3, #35
 4294              	.LVL473:
 4295 007c 1B56     		ldrsbls	r3, [r3, r0]
 4296              		.loc 1 942 0
 4297 007e 3360     		str	r3, [r6]
 4298              	.LVL474:
 4299              	.L538:
 4300              		.loc 1 954 0
 4301 0080 2046     		mov	r0, r4
 4302 0082 DFE7     		b	.L537
 4303              	.LVL475:
 4304              	.L517:
 4305              		.loc 1 946 0
 4306 0084 19F4806F 		tst	r9, #1024
 4307 0088 0FD0     		beq	.L519
 4308              		.loc 1 949 0
 4309 008a DAE90423 		ldrd	r2, [r10, #16]
 4310 008e 5046     		mov	r0, r10
 4311              	.LVL476:
 4312 0090 FFF7FEFF 		bl	f_lseek
 4313              	.LVL477:
 4314              		.loc 1 950 0
 4315 0094 48B1     		cbz	r0, .L519
 4316              	.LVL478:
 4317 0096 1328     		cmp	r0, #19
 4318 0098 96BF     		itet	ls
 4319 009a 114B     		ldrls	r3, .L540+4
 4320 009c 2323     		movhi	r3, #35
 4321              	.LVL479:
 4322 009e 1B56     		ldrsbls	r3, [r3, r0]
 4323              		.loc 1 952 0
 4324 00a0 3360     		str	r3, [r6]
 4325              		.loc 1 953 0
 4326 00a2 5046     		mov	r0, r10
 4327              	.LVL480:
 4328 00a4 FFF7FEFF 		bl	f_close
 4329              	.LVL481:
 4330 00a8 EAE7     		b	.L538
 4331              	.L519:
 4332              		.loc 1 959 0
ARM GAS  C:\cygwin64\tmp\ccxdpAIh.s 			page 77


 4333 00aa B8F1020F 		cmp	r8, #2
 4334 00ae 06D1     		bne	.L521
 4335              		.loc 1 962 0
 4336 00b0 0C4B     		ldr	r3, .L540+8
 4337 00b2 2B61     		str	r3, [r5, #16]
 4338              		.loc 1 963 0
 4339 00b4 0C4B     		ldr	r3, .L540+12
 4340 00b6 6B61     		str	r3, [r5, #20]
 4341              		.loc 1 964 0
 4342 00b8 0323     		movs	r3, #3
 4343              	.L536:
 4344              		.loc 1 978 0
 4345 00ba 6B71     		strb	r3, [r5, #5]
 4346 00bc D2E7     		b	.L510
 4347              	.L521:
 4348              		.loc 1 966 0
 4349 00be B8F1000F 		cmp	r8, #0
 4350 00c2 05D1     		bne	.L522
 4351              		.loc 1 970 0
 4352 00c4 084B     		ldr	r3, .L540+12
 4353 00c6 6B61     		str	r3, [r5, #20]
 4354              		.loc 1 969 0
 4355 00c8 C5F81080 		str	r8, [r5, #16]
 4356              		.loc 1 971 0
 4357 00cc 0123     		movs	r3, #1
 4358 00ce F4E7     		b	.L536
 4359              	.L522:
 4360              		.loc 1 976 0
 4361 00d0 044B     		ldr	r3, .L540+8
 4362 00d2 2B61     		str	r3, [r5, #16]
 4363              		.loc 1 977 0
 4364 00d4 0023     		movs	r3, #0
 4365 00d6 6B61     		str	r3, [r5, #20]
 4366              		.loc 1 978 0
 4367 00d8 0223     		movs	r3, #2
 4368 00da EEE7     		b	.L536
 4369              	.L541:
 4370              		.align	2
 4371              	.L540:
 4372 00dc 00000000 		.word	.LANCHOR0
 4373 00e0 00000000 		.word	.LANCHOR1
 4374 00e4 00000000 		.word	fatfs_putc
 4375 00e8 00000000 		.word	fatfs_getc
 4376              		.cfi_endproc
 4377              	.LFE272:
 4378              		.size	open, .-open
 4379              		.section	.text.posix_fopen_modes_to_open,"ax",%progbits
 4380              		.align	1
 4381              		.global	posix_fopen_modes_to_open
 4382              		.syntax unified
 4383              		.thumb
 4384              		.thumb_func
 4385              		.fpu fpv4-sp-d16
 4386              		.type	posix_fopen_modes_to_open, %function
 4387              	posix_fopen_modes_to_open:
 4388              	.LFB314:
 4389              		.loc 1 2474 0
ARM GAS  C:\cygwin64\tmp\ccxdpAIh.s 			page 78


 4390              		.cfi_startproc
 4391              		@ args = 0, pretend = 0, frame = 0
 4392              		@ frame_needed = 0, uses_anonymous_args = 0
 4393              	.LVL482:
 4394 0000 10B5     		push	{r4, lr}
 4395              		.cfi_def_cfa_offset 8
 4396              		.cfi_offset 4, -8
 4397              		.cfi_offset 14, -4
 4398              		.loc 1 2477 0
 4399 0002 2849     		ldr	r1, .L560
 4400              		.loc 1 2474 0
 4401 0004 0446     		mov	r4, r0
 4402              		.loc 1 2477 0
 4403 0006 FFF7FEFF 		bl	strcmp
 4404              	.LVL483:
 4405 000a 0028     		cmp	r0, #0
 4406 000c 48D0     		beq	.L542
 4407              		.loc 1 2477 0 is_stmt 0 discriminator 1
 4408 000e 2649     		ldr	r1, .L560+4
 4409 0010 2046     		mov	r0, r4
 4410 0012 FFF7FEFF 		bl	strcmp
 4411              	.LVL484:
 4412 0016 0028     		cmp	r0, #0
 4413 0018 42D0     		beq	.L542
 4414              		.loc 1 2482 0 is_stmt 1
 4415 001a 2449     		ldr	r1, .L560+8
 4416 001c 2046     		mov	r0, r4
 4417 001e FFF7FEFF 		bl	strcmp
 4418              	.LVL485:
 4419 0022 90B3     		cbz	r0, .L546
 4420              		.loc 1 2482 0 is_stmt 0 discriminator 1
 4421 0024 2249     		ldr	r1, .L560+12
 4422 0026 2046     		mov	r0, r4
 4423 0028 FFF7FEFF 		bl	strcmp
 4424              	.LVL486:
 4425 002c 68B3     		cbz	r0, .L546
 4426              		.loc 1 2482 0 discriminator 2
 4427 002e 2149     		ldr	r1, .L560+16
 4428 0030 2046     		mov	r0, r4
 4429 0032 FFF7FEFF 		bl	strcmp
 4430              	.LVL487:
 4431 0036 40B3     		cbz	r0, .L546
 4432              	.LVL488:
 4433              	.LBB131:
 4434              	.LBB132:
 4435              		.loc 1 2487 0 is_stmt 1
 4436 0038 1F49     		ldr	r1, .L560+20
 4437 003a 2046     		mov	r0, r4
 4438 003c FFF7FEFF 		bl	strcmp
 4439              	.LVL489:
 4440 0040 30B3     		cbz	r0, .L548
 4441 0042 1E49     		ldr	r1, .L560+24
 4442 0044 2046     		mov	r0, r4
 4443 0046 FFF7FEFF 		bl	strcmp
 4444              	.LVL490:
 4445 004a 08B3     		cbz	r0, .L548
 4446              		.loc 1 2492 0
ARM GAS  C:\cygwin64\tmp\ccxdpAIh.s 			page 79


 4447 004c 1C49     		ldr	r1, .L560+28
 4448 004e 2046     		mov	r0, r4
 4449 0050 FFF7FEFF 		bl	strcmp
 4450              	.LVL491:
 4451 0054 F8B1     		cbz	r0, .L551
 4452 0056 1B49     		ldr	r1, .L560+32
 4453 0058 2046     		mov	r0, r4
 4454 005a FFF7FEFF 		bl	strcmp
 4455              	.LVL492:
 4456 005e D0B1     		cbz	r0, .L551
 4457 0060 1949     		ldr	r1, .L560+36
 4458 0062 2046     		mov	r0, r4
 4459 0064 FFF7FEFF 		bl	strcmp
 4460              	.LVL493:
 4461 0068 A8B1     		cbz	r0, .L551
 4462              		.loc 1 2497 0
 4463 006a 1849     		ldr	r1, .L560+40
 4464 006c 2046     		mov	r0, r4
 4465 006e FFF7FEFF 		bl	strcmp
 4466              	.LVL494:
 4467 0072 98B1     		cbz	r0, .L552
 4468 0074 1649     		ldr	r1, .L560+44
 4469 0076 2046     		mov	r0, r4
 4470 0078 FFF7FEFF 		bl	strcmp
 4471              	.LVL495:
 4472              		.loc 1 2505 0
 4473 007c 0028     		cmp	r0, #0
 4474 007e 40F24140 		movw	r0, #1089
 4475 0082 18BF     		it	ne
 4476 0084 4FF0FF30 		movne	r0, #-1
 4477 0088 10BD     		pop	{r4, pc}
 4478              	.LVL496:
 4479              	.L546:
 4480              	.LBE132:
 4481              	.LBE131:
 4482              		.loc 1 2485 0
 4483 008a 40F20220 		movw	r0, #514
 4484 008e 10BD     		pop	{r4, pc}
 4485              	.LVL497:
 4486              	.L548:
 4487              	.LBB134:
 4488              	.LBB133:
 4489              		.loc 1 2490 0
 4490 0090 40F24120 		movw	r0, #577
 4491 0094 10BD     		pop	{r4, pc}
 4492              	.LVL498:
 4493              	.L551:
 4494              		.loc 1 2495 0
 4495 0096 40F24220 		movw	r0, #578
 4496 009a 10BD     		pop	{r4, pc}
 4497              	.LVL499:
 4498              	.L552:
 4499              		.loc 1 2500 0
 4500 009c 40F24140 		movw	r0, #1089
 4501              	.LVL500:
 4502              	.L542:
 4503              	.LBE133:
ARM GAS  C:\cygwin64\tmp\ccxdpAIh.s 			page 80


 4504              	.LBE134:
 4505              		.loc 1 2508 0
 4506 00a0 10BD     		pop	{r4, pc}
 4507              	.LVL501:
 4508              	.L561:
 4509 00a2 00BF     		.align	2
 4510              	.L560:
 4511 00a4 00000000 		.word	.LC5
 4512 00a8 02000000 		.word	.LC6
 4513 00ac 05000000 		.word	.LC7
 4514 00b0 08000000 		.word	.LC8
 4515 00b4 0C000000 		.word	.LC9
 4516 00b8 10000000 		.word	.LC10
 4517 00bc 12000000 		.word	.LC11
 4518 00c0 15000000 		.word	.LC12
 4519 00c4 18000000 		.word	.LC13
 4520 00c8 1C000000 		.word	.LC14
 4521 00cc 20000000 		.word	.LC15
 4522 00d0 22000000 		.word	.LC16
 4523              		.cfi_endproc
 4524              	.LFE314:
 4525              		.size	posix_fopen_modes_to_open, .-posix_fopen_modes_to_open
 4526              		.section	.text.fopen,"ax",%progbits
 4527              		.align	1
 4528              		.global	fopen
 4529              		.syntax unified
 4530              		.thumb
 4531              		.thumb_func
 4532              		.fpu fpv4-sp-d16
 4533              		.type	fopen, %function
 4534              	fopen:
 4535              	.LFB268:
 4536              		.loc 1 773 0
 4537              		.cfi_startproc
 4538              		@ args = 0, pretend = 0, frame = 0
 4539              		@ frame_needed = 0, uses_anonymous_args = 0
 4540              	.LVL502:
 4541 0000 10B5     		push	{r4, lr}
 4542              		.cfi_def_cfa_offset 8
 4543              		.cfi_offset 4, -8
 4544              		.cfi_offset 14, -4
 4545              		.loc 1 773 0
 4546 0002 0446     		mov	r4, r0
 4547              		.loc 1 774 0
 4548 0004 0846     		mov	r0, r1
 4549              	.LVL503:
 4550 0006 FFF7FEFF 		bl	posix_fopen_modes_to_open
 4551              	.LVL504:
 4552              		.loc 1 775 0
 4553 000a 0146     		mov	r1, r0
 4554 000c 2046     		mov	r0, r4
 4555              	.LVL505:
 4556 000e FFF7FEFF 		bl	open
 4557              	.LVL506:
 4558              		.loc 1 779 0
 4559 0012 BDE81040 		pop	{r4, lr}
 4560              		.cfi_restore 14
ARM GAS  C:\cygwin64\tmp\ccxdpAIh.s 			page 81


 4561              		.cfi_restore 4
 4562              		.cfi_def_cfa_offset 0
 4563              	.LVL507:
 4564              		.loc 1 778 0
 4565 0016 FFF7FEBF 		b	fileno_to_stream
 4566              	.LVL508:
 4567              		.cfi_endproc
 4568              	.LFE268:
 4569              		.size	fopen, .-fopen
 4570              		.section	.text.__wrap_freopen,"ax",%progbits
 4571              		.align	1
 4572              		.global	__wrap_freopen
 4573              		.syntax unified
 4574              		.thumb
 4575              		.thumb_func
 4576              		.fpu fpv4-sp-d16
 4577              		.type	__wrap_freopen, %function
 4578              	__wrap_freopen:
 4579              	.LFB278:
 4580              		.loc 1 1219 0
 4581              		.cfi_startproc
 4582              		@ args = 0, pretend = 0, frame = 0
 4583              		@ frame_needed = 0, uses_anonymous_args = 0
 4584              	.LVL509:
 4585 0000 38B5     		push	{r3, r4, r5, lr}
 4586              		.cfi_def_cfa_offset 16
 4587              		.cfi_offset 3, -16
 4588              		.cfi_offset 4, -12
 4589              		.cfi_offset 5, -8
 4590              		.cfi_offset 14, -4
 4591              		.loc 1 1219 0
 4592 0002 0446     		mov	r4, r0
 4593              		.loc 1 1220 0
 4594 0004 1046     		mov	r0, r2
 4595              	.LVL510:
 4596              		.loc 1 1219 0
 4597 0006 0D46     		mov	r5, r1
 4598              		.loc 1 1220 0
 4599 0008 FFF7FEFF 		bl	fileno
 4600              	.LVL511:
 4601              		.loc 1 1221 0
 4602 000c FFF7FEFF 		bl	close
 4603              	.LVL512:
 4604              		.loc 1 1222 0
 4605 0010 0028     		cmp	r0, #0
 4606 0012 05DB     		blt	.L564
 4607              		.loc 1 1225 0
 4608 0014 2946     		mov	r1, r5
 4609 0016 2046     		mov	r0, r4
 4610              	.LVL513:
 4611              		.loc 1 1226 0
 4612 0018 BDE83840 		pop	{r3, r4, r5, lr}
 4613              		.cfi_remember_state
 4614              		.cfi_restore 14
 4615              		.cfi_restore 5
 4616              		.cfi_restore 4
 4617              		.cfi_restore 3
ARM GAS  C:\cygwin64\tmp\ccxdpAIh.s 			page 82


 4618              		.cfi_def_cfa_offset 0
 4619              	.LVL514:
 4620              		.loc 1 1225 0
 4621 001c FFF7FEBF 		b	fopen
 4622              	.LVL515:
 4623              	.L564:
 4624              		.cfi_restore_state
 4625              		.loc 1 1226 0
 4626 0020 0020     		movs	r0, #0
 4627              	.LVL516:
 4628 0022 38BD     		pop	{r3, r4, r5, pc}
 4629              		.cfi_endproc
 4630              	.LFE278:
 4631              		.size	__wrap_freopen, .-__wrap_freopen
 4632              		.section	.text.fprintf,"ax",%progbits
 4633              		.align	1
 4634              		.global	fprintf
 4635              		.syntax unified
 4636              		.thumb
 4637              		.thumb_func
 4638              		.fpu fpv4-sp-d16
 4639              		.type	fprintf, %function
 4640              	fprintf:
 4641              	.LFB315:
 4642              		.loc 1 2540 0
 4643              		.cfi_startproc
 4644              		@ args = 4, pretend = 12, frame = 8
 4645              		@ frame_needed = 0, uses_anonymous_args = 1
 4646              	.LVL517:
 4647 0000 0EB4     		push	{r1, r2, r3}
 4648              		.cfi_def_cfa_offset 12
 4649              		.cfi_offset 1, -12
 4650              		.cfi_offset 2, -8
 4651              		.cfi_offset 3, -4
 4652 0002 77B5     		push	{r0, r1, r2, r4, r5, r6, lr}
 4653              		.cfi_def_cfa_offset 40
 4654              		.cfi_offset 4, -28
 4655              		.cfi_offset 5, -24
 4656              		.cfi_offset 6, -20
 4657              		.cfi_offset 14, -16
 4658              		.loc 1 2540 0
 4659 0004 07AA     		add	r2, sp, #28
 4660 0006 0646     		mov	r6, r0
 4661 0008 52F8041B 		ldr	r1, [r2], #4
 4662              		.loc 1 2544 0
 4663 000c 0092     		str	r2, [sp]
 4664              		.loc 1 2545 0
 4665 000e 01A8     		add	r0, sp, #4
 4666              	.LVL518:
 4667 0010 FFF7FEFF 		bl	vasprintf
 4668              	.LVL519:
 4669 0014 04B2     		sxth	r4, r0
 4670              	.LVL520:
 4671              		.loc 1 2546 0
 4672 0016 002C     		cmp	r4, #0
 4673 0018 0FDD     		ble	.L568
 4674 001a 0025     		movs	r5, #0
ARM GAS  C:\cygwin64\tmp\ccxdpAIh.s 			page 83


 4675              	.L567:
 4676              	.LVL521:
 4677              		.loc 1 2548 0 discriminator 3
 4678 001c 019B     		ldr	r3, [sp, #4]
 4679 001e 3146     		mov	r1, r6
 4680 0020 585D     		ldrb	r0, [r3, r5]	@ zero_extendqisi2
 4681 0022 0135     		adds	r5, r5, #1
 4682              	.LVL522:
 4683 0024 FFF7FEFF 		bl	fputc
 4684              	.LVL523:
 4685              		.loc 1 2547 0 discriminator 3
 4686 0028 2BB2     		sxth	r3, r5
 4687 002a 9C42     		cmp	r4, r3
 4688 002c F6DC     		bgt	.L567
 4689              		.loc 1 2556 0
 4690 002e 2046     		mov	r0, r4
 4691              	.L565:
 4692              		.loc 1 2557 0
 4693 0030 03B0     		add	sp, sp, #12
 4694              		.cfi_remember_state
 4695              		.cfi_def_cfa_offset 28
 4696              		@ sp needed
 4697 0032 BDE87040 		pop	{r4, r5, r6, lr}
 4698              		.cfi_restore 14
 4699              		.cfi_restore 6
 4700              		.cfi_restore 5
 4701              		.cfi_restore 4
 4702              		.cfi_def_cfa_offset 12
 4703              	.LVL524:
 4704 0036 03B0     		add	sp, sp, #12
 4705              		.cfi_restore 3
 4706              		.cfi_restore 2
 4707              		.cfi_restore 1
 4708              		.cfi_def_cfa_offset 0
 4709 0038 7047     		bx	lr
 4710              	.LVL525:
 4711              	.L568:
 4712              		.cfi_restore_state
 4713              		.loc 1 2552 0
 4714 003a 4FF0FF30 		mov	r0, #-1
 4715 003e F7E7     		b	.L565
 4716              		.cfi_endproc
 4717              	.LFE315:
 4718              		.size	fprintf, .-fprintf
 4719              		.section	.text.fsync,"ax",%progbits
 4720              		.align	1
 4721              		.global	fsync
 4722              		.syntax unified
 4723              		.thumb
 4724              		.thumb_func
 4725              		.fpu fpv4-sp-d16
 4726              		.type	fsync, %function
 4727              	fsync:
 4728              	.LFB316:
 4729              		.loc 1 2564 0
 4730              		.cfi_startproc
 4731              		@ args = 0, pretend = 0, frame = 0
ARM GAS  C:\cygwin64\tmp\ccxdpAIh.s 			page 84


 4732              		@ frame_needed = 0, uses_anonymous_args = 0
 4733              	.LVL526:
 4734 0000 38B5     		push	{r3, r4, r5, lr}
 4735              		.cfi_def_cfa_offset 16
 4736              		.cfi_offset 3, -16
 4737              		.cfi_offset 4, -12
 4738              		.cfi_offset 5, -8
 4739              		.cfi_offset 14, -4
 4740              		.loc 1 2569 0
 4741 0002 0D4C     		ldr	r4, .L581
 4742 0004 0023     		movs	r3, #0
 4743              		.loc 1 2564 0
 4744 0006 0546     		mov	r5, r0
 4745              		.loc 1 2569 0
 4746 0008 2360     		str	r3, [r4]
 4747              		.loc 1 2572 0
 4748 000a FFF7FEFF 		bl	fileno_to_stream
 4749              	.LVL527:
 4750              		.loc 1 2573 0
 4751 000e 10B9     		cbnz	r0, .L571
 4752              	.LVL528:
 4753              	.L580:
 4754              		.loc 1 2588 0
 4755 0010 4FF0FF30 		mov	r0, #-1
 4756              	.L570:
 4757              		.loc 1 2591 0
 4758 0014 38BD     		pop	{r3, r4, r5, pc}
 4759              	.LVL529:
 4760              	.L571:
 4761              		.loc 1 2579 0
 4762 0016 2846     		mov	r0, r5
 4763              	.LVL530:
 4764 0018 FFF7FEFF 		bl	fileno_to_fatfs
 4765              	.LVL531:
 4766              		.loc 1 2580 0
 4767 001c 0028     		cmp	r0, #0
 4768 001e F7D0     		beq	.L580
 4769              		.loc 1 2584 0
 4770 0020 FFF7FEFF 		bl	f_sync
 4771              	.LVL532:
 4772              		.loc 1 2585 0
 4773 0024 0028     		cmp	r0, #0
 4774 0026 F5D0     		beq	.L570
 4775              	.LVL533:
 4776 0028 1328     		cmp	r0, #19
 4777 002a 96BF     		itet	ls
 4778 002c 034B     		ldrls	r3, .L581+4
 4779 002e 2323     		movhi	r3, #35
 4780              	.LVL534:
 4781 0030 1B56     		ldrsbls	r3, [r3, r0]
 4782              		.loc 1 2587 0
 4783 0032 2360     		str	r3, [r4]
 4784 0034 ECE7     		b	.L580
 4785              	.L582:
 4786 0036 00BF     		.align	2
 4787              	.L581:
 4788 0038 00000000 		.word	.LANCHOR0
ARM GAS  C:\cygwin64\tmp\ccxdpAIh.s 			page 85


 4789 003c 00000000 		.word	.LANCHOR1
 4790              		.cfi_endproc
 4791              	.LFE316:
 4792              		.size	fsync, .-fsync
 4793              		.global	sys_errlist
 4794              		.global	__iob
 4795              		.global	errno
 4796              		.section	.rodata
 4797              		.align	2
 4798              		.set	.LANCHOR6,. + 0
 4799              	.LC0:
 4800 0000 1F000000 		.word	31
 4801 0004 1C000000 		.word	28
 4802 0008 1F000000 		.word	31
 4803 000c 1E000000 		.word	30
 4804 0010 1F000000 		.word	31
 4805 0014 1E000000 		.word	30
 4806 0018 1F000000 		.word	31
 4807 001c 1F000000 		.word	31
 4808 0020 1E000000 		.word	30
 4809 0024 1F000000 		.word	31
 4810 0028 1E000000 		.word	30
 4811 002c 1F000000 		.word	31
 4812              		.section	.bss.__iob,"aw",%nobits
 4813              		.align	2
 4814              		.set	.LANCHOR2,. + 0
 4815              		.type	__iob, %object
 4816              		.size	__iob, 64
 4817              	__iob:
 4818 0000 00000000 		.space	64
 4818      00000000 
 4818      00000000 
 4818      00000000 
 4818      00000000 
 4819              		.section	.bss._de,"aw",%nobits
 4820              		.set	.LANCHOR4,. + 0
 4821              		.type	_de, %object
 4822              		.size	_de, 255
 4823              	_de:
 4824 0000 00000000 		.space	255
 4824      00000000 
 4824      00000000 
 4824      00000000 
 4824      00000000 
 4825              		.section	.bss._dp,"aw",%nobits
 4826              		.align	3
 4827              		.set	.LANCHOR3,. + 0
 4828              		.type	_dp, %object
 4829              		.size	_dp, 72
 4830              	_dp:
 4831 0000 00000000 		.space	72
 4831      00000000 
 4831      00000000 
 4831      00000000 
 4831      00000000 
 4832              		.section	.bss.errno,"aw",%nobits
 4833              		.align	2
ARM GAS  C:\cygwin64\tmp\ccxdpAIh.s 			page 86


 4834              		.set	.LANCHOR0,. + 0
 4835              		.type	errno, %object
 4836              		.size	errno, 4
 4837              	errno:
 4838 0000 00000000 		.space	4
 4839              		.section	.data.sys_errlist,"aw",%progbits
 4840              		.align	2
 4841              		.set	.LANCHOR5,. + 0
 4842              		.type	sys_errlist, %object
 4843              		.size	sys_errlist, 148
 4844              	sys_errlist:
 4845 0000 00000000 		.word	.LC17
 4846 0004 03000000 		.word	.LC18
 4847 0008 1B000000 		.word	.LC19
 4848 000c 35000000 		.word	.LC20
 4849 0010 45000000 		.word	.LC21
 4850 0014 5D000000 		.word	.LC22
 4851 0018 67000000 		.word	.LC23
 4852 001c 81000000 		.word	.LC24
 4853 0020 98000000 		.word	.LC25
 4854 0024 AA000000 		.word	.LC26
 4855 0028 BA000000 		.word	.LC27
 4856 002c CD000000 		.word	.LC28
 4857 0030 D7000000 		.word	.LC29
 4858 0034 E5000000 		.word	.LC30
 4859 0038 F7000000 		.word	.LC31
 4860 003c 03010000 		.word	.LC32
 4861 0040 19010000 		.word	.LC33
 4862 0044 31010000 		.word	.LC34
 4863 0048 3D010000 		.word	.LC35
 4864 004c 4F010000 		.word	.LC36
 4865 0050 5E010000 		.word	.LC37
 4866 0054 6E010000 		.word	.LC38
 4867 0058 7D010000 		.word	.LC39
 4868 005c 8E010000 		.word	.LC40
 4869 0060 A2010000 		.word	.LC41
 4870 0064 B6010000 		.word	.LC42
 4871 0068 C7010000 		.word	.LC43
 4872 006c D6010000 		.word	.LC44
 4873 0070 E5010000 		.word	.LC45
 4874 0074 FD010000 		.word	.LC46
 4875 0078 0A020000 		.word	.LC47
 4876 007c 20020000 		.word	.LC48
 4877 0080 2F020000 		.word	.LC49
 4878 0084 3B020000 		.word	.LC50
 4879 0088 5F020000 		.word	.LC51
 4880 008c 7D020000 		.word	.LC52
 4881 0090 00000000 		.word	0
 4882              		.section	.rodata.CSWTCH.61,"a",%progbits
 4883              		.set	.LANCHOR1,. + 0
 4884              		.type	CSWTCH.61, %object
 4885              		.size	CSWTCH.61, 20
 4886              	CSWTCH.61:
 4887 0000 00       		.byte	0
 4888 0001 05       		.byte	5
 4889 0002 01       		.byte	1
 4890 0003 10       		.byte	16
ARM GAS  C:\cygwin64\tmp\ccxdpAIh.s 			page 87


 4891 0004 02       		.byte	2
 4892 0005 02       		.byte	2
 4893 0006 16       		.byte	22
 4894 0007 0D       		.byte	13
 4895 0008 11       		.byte	17
 4896 0009 16       		.byte	22
 4897 000a 1E       		.byte	30
 4898 000b 06       		.byte	6
 4899 000c 1C       		.byte	28
 4900 000d 06       		.byte	6
 4901 000e 16       		.byte	22
 4902 000f 10       		.byte	16
 4903 0010 10       		.byte	16
 4904 0011 0C       		.byte	12
 4905 0012 18       		.byte	24
 4906 0013 16       		.byte	22
 4907              		.section	.rodata.basename.str1.1,"aMS",%progbits,1
 4908              	.LC2:
 4909 0000 00       		.ascii	"\000"
 4910              		.section	.rodata.fs_getfree.str1.1,"aMS",%progbits,1
 4911              	.LC1:
 4912 0000 2F00     		.ascii	"/\000"
 4913              		.section	.rodata.perror.str1.1,"aMS",%progbits,1
 4914              	.LC3:
 4915 0000 25733A20 		.ascii	"%s: %s\012\000"
 4915      25730A00 
 4916              		.section	.rodata.posix_fopen_modes_to_open.str1.1,"aMS",%progbits,1
 4917              	.LC5:
 4918 0000 7200     		.ascii	"r\000"
 4919              	.LC6:
 4920 0002 726200   		.ascii	"rb\000"
 4921              	.LC7:
 4922 0005 722B00   		.ascii	"r+\000"
 4923              	.LC8:
 4924 0008 722B6200 		.ascii	"r+b\000"
 4925              	.LC9:
 4926 000c 72622B00 		.ascii	"rb+\000"
 4927              	.LC10:
 4928 0010 7700     		.ascii	"w\000"
 4929              	.LC11:
 4930 0012 776200   		.ascii	"wb\000"
 4931              	.LC12:
 4932 0015 772B00   		.ascii	"w+\000"
 4933              	.LC13:
 4934 0018 772B6200 		.ascii	"w+b\000"
 4935              	.LC14:
 4936 001c 77622B00 		.ascii	"wb+\000"
 4937              	.LC15:
 4938 0020 6100     		.ascii	"a\000"
 4939              	.LC16:
 4940 0022 616200   		.ascii	"ab\000"
 4941              		.section	.rodata.stat.str1.1,"aMS",%progbits,1
 4942              	.LC4:
 4943 0000 2E00     		.ascii	".\000"
 4944              		.section	.rodata.str1.1,"aMS",%progbits,1
 4945              	.LC17:
 4946 0000 4F4B00   		.ascii	"OK\000"
ARM GAS  C:\cygwin64\tmp\ccxdpAIh.s 			page 88


 4947              	.LC18:
 4948 0003 4F706572 		.ascii	"Operation not permitted\000"
 4948      6174696F 
 4948      6E206E6F 
 4948      74207065 
 4948      726D6974 
 4949              	.LC19:
 4950 001b 4E6F2073 		.ascii	"No such file or directory\000"
 4950      75636820 
 4950      66696C65 
 4950      206F7220 
 4950      64697265 
 4951              	.LC20:
 4952 0035 4E6F2073 		.ascii	"No such process\000"
 4952      75636820 
 4952      70726F63 
 4952      65737300 
 4953              	.LC21:
 4954 0045 496E7465 		.ascii	"Interrupted system call\000"
 4954      72727570 
 4954      74656420 
 4954      73797374 
 4954      656D2063 
 4955              	.LC22:
 4956 005d 492F4F20 		.ascii	"I/O error\000"
 4956      6572726F 
 4956      7200
 4957              	.LC23:
 4958 0067 4E6F2073 		.ascii	"No such device or address\000"
 4958      75636820 
 4958      64657669 
 4958      6365206F 
 4958      72206164 
 4959              	.LC24:
 4960 0081 41726775 		.ascii	"Argument list too long\000"
 4960      6D656E74 
 4960      206C6973 
 4960      7420746F 
 4960      6F206C6F 
 4961              	.LC25:
 4962 0098 45786563 		.ascii	"Exec format error\000"
 4962      20666F72 
 4962      6D617420 
 4962      6572726F 
 4962      7200
 4963              	.LC26:
 4964 00aa 42616420 		.ascii	"Bad file number\000"
 4964      66696C65 
 4964      206E756D 
 4964      62657200 
 4965              	.LC27:
 4966 00ba 4E6F2063 		.ascii	"No child processes\000"
 4966      68696C64 
 4966      2070726F 
 4966      63657373 
 4966      657300
 4967              	.LC28:
ARM GAS  C:\cygwin64\tmp\ccxdpAIh.s 			page 89


 4968 00cd 54727920 		.ascii	"Try again\000"
 4968      61676169 
 4968      6E00
 4969              	.LC29:
 4970 00d7 4F757420 		.ascii	"Out of memory\000"
 4970      6F66206D 
 4970      656D6F72 
 4970      7900
 4971              	.LC30:
 4972 00e5 5065726D 		.ascii	"Permission denied\000"
 4972      69737369 
 4972      6F6E2064 
 4972      656E6965 
 4972      6400
 4973              	.LC31:
 4974 00f7 42616420 		.ascii	"Bad address\000"
 4974      61646472 
 4974      65737300 
 4975              	.LC32:
 4976 0103 426C6F63 		.ascii	"Block device required\000"
 4976      6B206465 
 4976      76696365 
 4976      20726571 
 4976      75697265 
 4977              	.LC33:
 4978 0119 44657669 		.ascii	"Device or resource busy\000"
 4978      6365206F 
 4978      72207265 
 4978      736F7572 
 4978      63652062 
 4979              	.LC34:
 4980 0131 46696C65 		.ascii	"File exists\000"
 4980      20657869 
 4980      73747300 
 4981              	.LC35:
 4982 013d 43726F73 		.ascii	"Cross-device link\000"
 4982      732D6465 
 4982      76696365 
 4982      206C696E 
 4982      6B00
 4983              	.LC36:
 4984 014f 4E6F2073 		.ascii	"No such device\000"
 4984      75636820 
 4984      64657669 
 4984      636500
 4985              	.LC37:
 4986 015e 4E6F7420 		.ascii	"Not a directory\000"
 4986      61206469 
 4986      72656374 
 4986      6F727900 
 4987              	.LC38:
 4988 016e 49732061 		.ascii	"Is a directory\000"
 4988      20646972 
 4988      6563746F 
 4988      727900
 4989              	.LC39:
 4990 017d 496E7661 		.ascii	"Invalid argument\000"
ARM GAS  C:\cygwin64\tmp\ccxdpAIh.s 			page 90


 4990      6C696420 
 4990      61726775 
 4990      6D656E74 
 4990      00
 4991              	.LC40:
 4992 018e 46696C65 		.ascii	"File table overflow\000"
 4992      20746162 
 4992      6C65206F 
 4992      76657266 
 4992      6C6F7700 
 4993              	.LC41:
 4994 01a2 546F6F20 		.ascii	"Too many open files\000"
 4994      6D616E79 
 4994      206F7065 
 4994      6E206669 
 4994      6C657300 
 4995              	.LC42:
 4996 01b6 4E6F7420 		.ascii	"Not a typewriter\000"
 4996      61207479 
 4996      70657772 
 4996      69746572 
 4996      00
 4997              	.LC43:
 4998 01c7 54657874 		.ascii	"Text file busy\000"
 4998      2066696C 
 4998      65206275 
 4998      737900
 4999              	.LC44:
 5000 01d6 46696C65 		.ascii	"File too large\000"
 5000      20746F6F 
 5000      206C6172 
 5000      676500
 5001              	.LC45:
 5002 01e5 4E6F2073 		.ascii	"No space left on device\000"
 5002      70616365 
 5002      206C6566 
 5002      74206F6E 
 5002      20646576 
 5003              	.LC46:
 5004 01fd 496C6C65 		.ascii	"Illegal seek\000"
 5004      67616C20 
 5004      7365656B 
 5004      00
 5005              	.LC47:
 5006 020a 52656164 		.ascii	"Read-only file system\000"
 5006      2D6F6E6C 
 5006      79206669 
 5006      6C652073 
 5006      79737465 
 5007              	.LC48:
 5008 0220 546F6F20 		.ascii	"Too many links\000"
 5008      6D616E79 
 5008      206C696E 
 5008      6B7300
 5009              	.LC49:
 5010 022f 42726F6B 		.ascii	"Broken pipe\000"
 5010      656E2070 
ARM GAS  C:\cygwin64\tmp\ccxdpAIh.s 			page 91


 5010      69706500 
 5011              	.LC50:
 5012 023b 4D617468 		.ascii	"Math argument out of domain of func\000"
 5012      20617267 
 5012      756D656E 
 5012      74206F75 
 5012      74206F66 
 5013              	.LC51:
 5014 025f 4D617468 		.ascii	"Math result not representable\000"
 5014      20726573 
 5014      756C7420 
 5014      6E6F7420 
 5014      72657072 
 5015              	.LC52:
 5016 027d 42616420 		.ascii	"Bad Message\000"
 5016      4D657373 
 5016      61676500 
 5017              		.text
 5018              	.Letext0:
 5019              		.file 2 "c:\\program files (x86)\\gnu tools arm embedded\\6 2017-q2-update\\lib\\gcc\\arm-none-eab
 5020              		.file 3 "c:\\program files (x86)\\gnu tools arm embedded\\6 2017-q2-update\\arm-none-eabi\\include
 5021              		.file 4 "c:\\program files (x86)\\gnu tools arm embedded\\6 2017-q2-update\\arm-none-eabi\\include
 5022              		.file 5 "c:\\program files (x86)\\gnu tools arm embedded\\6 2017-q2-update\\arm-none-eabi\\include
 5023              		.file 6 "c:\\program files (x86)\\gnu tools arm embedded\\6 2017-q2-update\\arm-none-eabi\\include
 5024              		.file 7 "c:\\program files (x86)\\gnu tools arm embedded\\6 2017-q2-update\\arm-none-eabi\\include
 5025              		.file 8 "../../modules/ChibiOS/ext/fatfs/src/integer.h"
 5026              		.file 9 "../../modules/ChibiOS/os/common/ports/ARMCMx/compilers/GCC/chtypes.h"
 5027              		.file 10 "../../modules/ChibiOS/os/rt/include/chsystypes.h"
 5028              		.file 11 "../../modules/ChibiOS/os/rt/include/chschd.h"
 5029              		.file 12 "../../modules/ChibiOS/os/common/ext/CMSIS/include/core_cm4.h"
 5030              		.file 13 "../../modules/ChibiOS/os/common/ext/CMSIS/ST/STM32F4xx/system_stm32f4xx.h"
 5031              		.file 14 "../../modules/ChibiOS/os/common/ports/ARMCMx/chcore.h"
 5032              		.file 15 "../../modules/ChibiOS/os/common/ports/ARMCMx/chcore_v7m.h"
 5033              		.file 16 "../../modules/ChibiOS/os/rt/include/chtm.h"
 5034              		.file 17 "../../modules/ChibiOS/os/rt/include/chstats.h"
 5035              		.file 18 "../../modules/ChibiOS/os/rt/include/chsem.h"
 5036              		.file 19 "../../modules/ChibiOS/os/rt/include/chmtx.h"
 5037              		.file 20 "../../modules/ChibiOS/os/rt/include/chsys.h"
 5038              		.file 21 "../../modules/ChibiOS/os/rt/include/chregistry.h"
 5039              		.file 22 "../../modules/ChibiOS/ext/fatfs/src/ff.h"
 5040              		.file 23 "c:\\program files (x86)\\gnu tools arm embedded\\6 2017-q2-update\\lib\\gcc\\arm-none-ea
 5041              		.file 24 "<built-in>"
 5042              		.file 25 "c:\\program files (x86)\\gnu tools arm embedded\\6 2017-q2-update\\arm-none-eabi\\includ
 5043              		.file 26 "c:\\program files (x86)\\gnu tools arm embedded\\6 2017-q2-update\\arm-none-eabi\\includ
 5044              		.file 27 "c:\\program files (x86)\\gnu tools arm embedded\\6 2017-q2-update\\arm-none-eabi\\includ
 5045              		.file 28 "../../libraries/AP_HAL_ChibiOS/hwdef/common/posix.h"
 5046              		.file 29 "../../libraries/AP_HAL_ChibiOS/hwdef/common/stdio.h"
 5047              		.file 30 "c:\\program files (x86)\\gnu tools arm embedded\\6 2017-q2-update\\arm-none-eabi\\includ
 5048              		.section	.debug_info,"",%progbits
 5049              	.Ldebug_info0:
 5050 0000 A63D0000 		.4byte	0x3da6
 5051 0004 0400     		.2byte	0x4
 5052 0006 00000000 		.4byte	.Ldebug_abbrev0
 5053 000a 04       		.byte	0x4
 5054 000b 01       		.uleb128 0x1
 5055 000c 04060000 		.4byte	.LASF543
 5056 0010 0C       		.byte	0xc
ARM GAS  C:\cygwin64\tmp\ccxdpAIh.s 			page 92


 5057 0011 750B0000 		.4byte	.LASF544
 5058 0015 61070000 		.4byte	.LASF545
 5059 0019 F0000000 		.4byte	.Ldebug_ranges0+0xf0
 5060 001d 00000000 		.4byte	0
 5061 0021 00000000 		.4byte	.Ldebug_line0
 5062 0025 02       		.uleb128 0x2
 5063 0026 04       		.byte	0x4
 5064 0027 05       		.byte	0x5
 5065 0028 696E7400 		.ascii	"int\000"
 5066 002c 03       		.uleb128 0x3
 5067 002d 22000000 		.4byte	.LASF4
 5068 0031 02       		.byte	0x2
 5069 0032 D8       		.byte	0xd8
 5070 0033 37000000 		.4byte	0x37
 5071 0037 04       		.uleb128 0x4
 5072 0038 04       		.byte	0x4
 5073 0039 07       		.byte	0x7
 5074 003a BE0B0000 		.4byte	.LASF0
 5075 003e 05       		.uleb128 0x5
 5076 003f 37000000 		.4byte	0x37
 5077 0043 04       		.uleb128 0x4
 5078 0044 08       		.byte	0x8
 5079 0045 05       		.byte	0x5
 5080 0046 B70A0000 		.4byte	.LASF1
 5081 004a 04       		.uleb128 0x4
 5082 004b 08       		.byte	0x8
 5083 004c 04       		.byte	0x4
 5084 004d C70D0000 		.4byte	.LASF2
 5085 0051 04       		.uleb128 0x4
 5086 0052 01       		.byte	0x1
 5087 0053 06       		.byte	0x6
 5088 0054 DE030000 		.4byte	.LASF3
 5089 0058 03       		.uleb128 0x3
 5090 0059 7B020000 		.4byte	.LASF5
 5091 005d 03       		.byte	0x3
 5092 005e 2B       		.byte	0x2b
 5093 005f 63000000 		.4byte	0x63
 5094 0063 04       		.uleb128 0x4
 5095 0064 01       		.byte	0x1
 5096 0065 08       		.byte	0x8
 5097 0066 53040000 		.4byte	.LASF6
 5098 006a 03       		.uleb128 0x3
 5099 006b 05100000 		.4byte	.LASF7
 5100 006f 03       		.byte	0x3
 5101 0070 37       		.byte	0x37
 5102 0071 75000000 		.4byte	0x75
 5103 0075 04       		.uleb128 0x4
 5104 0076 02       		.byte	0x2
 5105 0077 05       		.byte	0x5
 5106 0078 15110000 		.4byte	.LASF8
 5107 007c 03       		.uleb128 0x3
 5108 007d A3050000 		.4byte	.LASF9
 5109 0081 03       		.byte	0x3
 5110 0082 39       		.byte	0x39
 5111 0083 87000000 		.4byte	0x87
 5112 0087 04       		.uleb128 0x4
 5113 0088 02       		.byte	0x2
ARM GAS  C:\cygwin64\tmp\ccxdpAIh.s 			page 93


 5114 0089 07       		.byte	0x7
 5115 008a 13130000 		.4byte	.LASF10
 5116 008e 03       		.uleb128 0x3
 5117 008f A3130000 		.4byte	.LASF11
 5118 0093 03       		.byte	0x3
 5119 0094 4D       		.byte	0x4d
 5120 0095 99000000 		.4byte	0x99
 5121 0099 04       		.uleb128 0x4
 5122 009a 04       		.byte	0x4
 5123 009b 05       		.byte	0x5
 5124 009c E8020000 		.4byte	.LASF12
 5125 00a0 03       		.uleb128 0x3
 5126 00a1 990A0000 		.4byte	.LASF13
 5127 00a5 03       		.byte	0x3
 5128 00a6 4F       		.byte	0x4f
 5129 00a7 AB000000 		.4byte	0xab
 5130 00ab 04       		.uleb128 0x4
 5131 00ac 04       		.byte	0x4
 5132 00ad 07       		.byte	0x7
 5133 00ae 0F090000 		.4byte	.LASF14
 5134 00b2 03       		.uleb128 0x3
 5135 00b3 F8110000 		.4byte	.LASF15
 5136 00b7 03       		.byte	0x3
 5137 00b8 67       		.byte	0x67
 5138 00b9 43000000 		.4byte	0x43
 5139 00bd 03       		.uleb128 0x3
 5140 00be EF080000 		.4byte	.LASF16
 5141 00c2 03       		.byte	0x3
 5142 00c3 69       		.byte	0x69
 5143 00c4 C8000000 		.4byte	0xc8
 5144 00c8 04       		.uleb128 0x4
 5145 00c9 08       		.byte	0x8
 5146 00ca 07       		.byte	0x7
 5147 00cb C20E0000 		.4byte	.LASF17
 5148 00cf 03       		.uleb128 0x3
 5149 00d0 11120000 		.4byte	.LASF18
 5150 00d4 04       		.byte	0x4
 5151 00d5 22       		.byte	0x22
 5152 00d6 DA000000 		.4byte	0xda
 5153 00da 06       		.uleb128 0x6
 5154 00db 04       		.byte	0x4
 5155 00dc E0000000 		.4byte	0xe0
 5156 00e0 07       		.uleb128 0x7
 5157 00e1 3C080000 		.4byte	.LASF134
 5158 00e5 03       		.uleb128 0x3
 5159 00e6 E4120000 		.4byte	.LASF19
 5160 00ea 05       		.byte	0x5
 5161 00eb 2C       		.byte	0x2c
 5162 00ec 99000000 		.4byte	0x99
 5163 00f0 03       		.uleb128 0x3
 5164 00f1 8A020000 		.4byte	.LASF20
 5165 00f5 05       		.byte	0x5
 5166 00f6 36       		.byte	0x36
 5167 00f7 75000000 		.4byte	0x75
 5168 00fb 03       		.uleb128 0x3
 5169 00fc 29120000 		.4byte	.LASF21
 5170 0100 05       		.byte	0x5
ARM GAS  C:\cygwin64\tmp\ccxdpAIh.s 			page 94


 5171 0101 3A       		.byte	0x3a
 5172 0102 87000000 		.4byte	0x87
 5173 0106 03       		.uleb128 0x3
 5174 0107 1F010000 		.4byte	.LASF22
 5175 010b 05       		.byte	0x5
 5176 010c 3D       		.byte	0x3d
 5177 010d 87000000 		.4byte	0x87
 5178 0111 03       		.uleb128 0x3
 5179 0112 7F0A0000 		.4byte	.LASF23
 5180 0116 05       		.byte	0x5
 5181 0117 49       		.byte	0x49
 5182 0118 87000000 		.4byte	0x87
 5183 011c 03       		.uleb128 0x3
 5184 011d FB050000 		.4byte	.LASF24
 5185 0121 05       		.byte	0x5
 5186 0122 58       		.byte	0x58
 5187 0123 A0000000 		.4byte	0xa0
 5188 0127 03       		.uleb128 0x3
 5189 0128 F70E0000 		.4byte	.LASF25
 5190 012c 05       		.byte	0x5
 5191 012d 64       		.byte	0x64
 5192 012e E5000000 		.4byte	0xe5
 5193 0132 03       		.uleb128 0x3
 5194 0133 630E0000 		.4byte	.LASF26
 5195 0137 05       		.byte	0x5
 5196 0138 72       		.byte	0x72
 5197 0139 99000000 		.4byte	0x99
 5198 013d 03       		.uleb128 0x3
 5199 013e 19000000 		.4byte	.LASF27
 5200 0142 05       		.byte	0x5
 5201 0143 91       		.byte	0x91
 5202 0144 25000000 		.4byte	0x25
 5203 0148 08       		.uleb128 0x8
 5204 0149 55100000 		.4byte	.LASF28
 5205 014d 02       		.byte	0x2
 5206 014e 6501     		.2byte	0x165
 5207 0150 37000000 		.4byte	0x37
 5208 0154 09       		.uleb128 0x9
 5209 0155 04       		.byte	0x4
 5210 0156 05       		.byte	0x5
 5211 0157 A6       		.byte	0xa6
 5212 0158 73010000 		.4byte	0x173
 5213 015c 0A       		.uleb128 0xa
 5214 015d 6C020000 		.4byte	.LASF29
 5215 0161 05       		.byte	0x5
 5216 0162 A8       		.byte	0xa8
 5217 0163 48010000 		.4byte	0x148
 5218 0167 0A       		.uleb128 0xa
 5219 0168 700E0000 		.4byte	.LASF30
 5220 016c 05       		.byte	0x5
 5221 016d A9       		.byte	0xa9
 5222 016e 73010000 		.4byte	0x173
 5223 0172 00       		.byte	0
 5224 0173 0B       		.uleb128 0xb
 5225 0174 63000000 		.4byte	0x63
 5226 0178 83010000 		.4byte	0x183
 5227 017c 0C       		.uleb128 0xc
ARM GAS  C:\cygwin64\tmp\ccxdpAIh.s 			page 95


 5228 017d 83010000 		.4byte	0x183
 5229 0181 03       		.byte	0x3
 5230 0182 00       		.byte	0
 5231 0183 04       		.uleb128 0x4
 5232 0184 04       		.byte	0x4
 5233 0185 07       		.byte	0x7
 5234 0186 39000000 		.4byte	.LASF31
 5235 018a 0D       		.uleb128 0xd
 5236 018b 08       		.byte	0x8
 5237 018c 05       		.byte	0x5
 5238 018d A3       		.byte	0xa3
 5239 018e AB010000 		.4byte	0x1ab
 5240 0192 0E       		.uleb128 0xe
 5241 0193 360D0000 		.4byte	.LASF32
 5242 0197 05       		.byte	0x5
 5243 0198 A5       		.byte	0xa5
 5244 0199 25000000 		.4byte	0x25
 5245 019d 00       		.byte	0
 5246 019e 0E       		.uleb128 0xe
 5247 019f 4D000000 		.4byte	.LASF33
 5248 01a3 05       		.byte	0x5
 5249 01a4 AA       		.byte	0xaa
 5250 01a5 54010000 		.4byte	0x154
 5251 01a9 04       		.byte	0x4
 5252 01aa 00       		.byte	0
 5253 01ab 03       		.uleb128 0x3
 5254 01ac 2C100000 		.4byte	.LASF34
 5255 01b0 05       		.byte	0x5
 5256 01b1 AB       		.byte	0xab
 5257 01b2 8A010000 		.4byte	0x18a
 5258 01b6 03       		.uleb128 0x3
 5259 01b7 E30F0000 		.4byte	.LASF35
 5260 01bb 05       		.byte	0x5
 5261 01bc AF       		.byte	0xaf
 5262 01bd CF000000 		.4byte	0xcf
 5263 01c1 0F       		.uleb128 0xf
 5264 01c2 04       		.byte	0x4
 5265 01c3 03       		.uleb128 0x3
 5266 01c4 CC130000 		.4byte	.LASF36
 5267 01c8 05       		.byte	0x5
 5268 01c9 CB       		.byte	0xcb
 5269 01ca 87000000 		.4byte	0x87
 5270 01ce 06       		.uleb128 0x6
 5271 01cf 04       		.byte	0x4
 5272 01d0 D4010000 		.4byte	0x1d4
 5273 01d4 04       		.uleb128 0x4
 5274 01d5 01       		.byte	0x1
 5275 01d6 08       		.byte	0x8
 5276 01d7 5B050000 		.4byte	.LASF37
 5277 01db 05       		.uleb128 0x5
 5278 01dc D4010000 		.4byte	0x1d4
 5279 01e0 03       		.uleb128 0x3
 5280 01e1 81120000 		.4byte	.LASF38
 5281 01e5 06       		.byte	0x6
 5282 01e6 16       		.byte	0x16
 5283 01e7 AB000000 		.4byte	0xab
 5284 01eb 10       		.uleb128 0x10
ARM GAS  C:\cygwin64\tmp\ccxdpAIh.s 			page 96


 5285 01ec 200A0000 		.4byte	.LASF43
 5286 01f0 18       		.byte	0x18
 5287 01f1 06       		.byte	0x6
 5288 01f2 2F       		.byte	0x2f
 5289 01f3 3E020000 		.4byte	0x23e
 5290 01f7 0E       		.uleb128 0xe
 5291 01f8 61100000 		.4byte	.LASF39
 5292 01fc 06       		.byte	0x6
 5293 01fd 31       		.byte	0x31
 5294 01fe 3E020000 		.4byte	0x23e
 5295 0202 00       		.byte	0
 5296 0203 11       		.uleb128 0x11
 5297 0204 5F6B00   		.ascii	"_k\000"
 5298 0207 06       		.byte	0x6
 5299 0208 32       		.byte	0x32
 5300 0209 25000000 		.4byte	0x25
 5301 020d 04       		.byte	0x4
 5302 020e 0E       		.uleb128 0xe
 5303 020f 380A0000 		.4byte	.LASF40
 5304 0213 06       		.byte	0x6
 5305 0214 32       		.byte	0x32
 5306 0215 25000000 		.4byte	0x25
 5307 0219 08       		.byte	0x8
 5308 021a 0E       		.uleb128 0xe
 5309 021b 410B0000 		.4byte	.LASF41
 5310 021f 06       		.byte	0x6
 5311 0220 32       		.byte	0x32
 5312 0221 25000000 		.4byte	0x25
 5313 0225 0C       		.byte	0xc
 5314 0226 0E       		.uleb128 0xe
 5315 0227 12080000 		.4byte	.LASF42
 5316 022b 06       		.byte	0x6
 5317 022c 32       		.byte	0x32
 5318 022d 25000000 		.4byte	0x25
 5319 0231 10       		.byte	0x10
 5320 0232 11       		.uleb128 0x11
 5321 0233 5F7800   		.ascii	"_x\000"
 5322 0236 06       		.byte	0x6
 5323 0237 33       		.byte	0x33
 5324 0238 44020000 		.4byte	0x244
 5325 023c 14       		.byte	0x14
 5326 023d 00       		.byte	0
 5327 023e 06       		.uleb128 0x6
 5328 023f 04       		.byte	0x4
 5329 0240 EB010000 		.4byte	0x1eb
 5330 0244 0B       		.uleb128 0xb
 5331 0245 E0010000 		.4byte	0x1e0
 5332 0249 54020000 		.4byte	0x254
 5333 024d 0C       		.uleb128 0xc
 5334 024e 83010000 		.4byte	0x183
 5335 0252 00       		.byte	0
 5336 0253 00       		.byte	0
 5337 0254 10       		.uleb128 0x10
 5338 0255 2F010000 		.4byte	.LASF44
 5339 0259 24       		.byte	0x24
 5340 025a 06       		.byte	0x6
 5341 025b 37       		.byte	0x37
ARM GAS  C:\cygwin64\tmp\ccxdpAIh.s 			page 97


 5342 025c CD020000 		.4byte	0x2cd
 5343 0260 0E       		.uleb128 0xe
 5344 0261 4B010000 		.4byte	.LASF45
 5345 0265 06       		.byte	0x6
 5346 0266 39       		.byte	0x39
 5347 0267 25000000 		.4byte	0x25
 5348 026b 00       		.byte	0
 5349 026c 0E       		.uleb128 0xe
 5350 026d 1D140000 		.4byte	.LASF46
 5351 0271 06       		.byte	0x6
 5352 0272 3A       		.byte	0x3a
 5353 0273 25000000 		.4byte	0x25
 5354 0277 04       		.byte	0x4
 5355 0278 0E       		.uleb128 0xe
 5356 0279 2F130000 		.4byte	.LASF47
 5357 027d 06       		.byte	0x6
 5358 027e 3B       		.byte	0x3b
 5359 027f 25000000 		.4byte	0x25
 5360 0283 08       		.byte	0x8
 5361 0284 0E       		.uleb128 0xe
 5362 0285 570C0000 		.4byte	.LASF48
 5363 0289 06       		.byte	0x6
 5364 028a 3C       		.byte	0x3c
 5365 028b 25000000 		.4byte	0x25
 5366 028f 0C       		.byte	0xc
 5367 0290 0E       		.uleb128 0xe
 5368 0291 85030000 		.4byte	.LASF49
 5369 0295 06       		.byte	0x6
 5370 0296 3D       		.byte	0x3d
 5371 0297 25000000 		.4byte	0x25
 5372 029b 10       		.byte	0x10
 5373 029c 0E       		.uleb128 0xe
 5374 029d 8F110000 		.4byte	.LASF50
 5375 02a1 06       		.byte	0x6
 5376 02a2 3E       		.byte	0x3e
 5377 02a3 25000000 		.4byte	0x25
 5378 02a7 14       		.byte	0x14
 5379 02a8 0E       		.uleb128 0xe
 5380 02a9 8B0D0000 		.4byte	.LASF51
 5381 02ad 06       		.byte	0x6
 5382 02ae 3F       		.byte	0x3f
 5383 02af 25000000 		.4byte	0x25
 5384 02b3 18       		.byte	0x18
 5385 02b4 0E       		.uleb128 0xe
 5386 02b5 E40D0000 		.4byte	.LASF52
 5387 02b9 06       		.byte	0x6
 5388 02ba 40       		.byte	0x40
 5389 02bb 25000000 		.4byte	0x25
 5390 02bf 1C       		.byte	0x1c
 5391 02c0 0E       		.uleb128 0xe
 5392 02c1 DE130000 		.4byte	.LASF53
 5393 02c5 06       		.byte	0x6
 5394 02c6 41       		.byte	0x41
 5395 02c7 25000000 		.4byte	0x25
 5396 02cb 20       		.byte	0x20
 5397 02cc 00       		.byte	0
 5398 02cd 12       		.uleb128 0x12
ARM GAS  C:\cygwin64\tmp\ccxdpAIh.s 			page 98


 5399 02ce B5020000 		.4byte	.LASF54
 5400 02d2 0801     		.2byte	0x108
 5401 02d4 06       		.byte	0x6
 5402 02d5 4A       		.byte	0x4a
 5403 02d6 0D030000 		.4byte	0x30d
 5404 02da 0E       		.uleb128 0xe
 5405 02db D6130000 		.4byte	.LASF55
 5406 02df 06       		.byte	0x6
 5407 02e0 4B       		.byte	0x4b
 5408 02e1 0D030000 		.4byte	0x30d
 5409 02e5 00       		.byte	0
 5410 02e6 0E       		.uleb128 0xe
 5411 02e7 080F0000 		.4byte	.LASF56
 5412 02eb 06       		.byte	0x6
 5413 02ec 4C       		.byte	0x4c
 5414 02ed 0D030000 		.4byte	0x30d
 5415 02f1 80       		.byte	0x80
 5416 02f2 13       		.uleb128 0x13
 5417 02f3 6E110000 		.4byte	.LASF57
 5418 02f7 06       		.byte	0x6
 5419 02f8 4E       		.byte	0x4e
 5420 02f9 E0010000 		.4byte	0x1e0
 5421 02fd 0001     		.2byte	0x100
 5422 02ff 13       		.uleb128 0x13
 5423 0300 09120000 		.4byte	.LASF58
 5424 0304 06       		.byte	0x6
 5425 0305 51       		.byte	0x51
 5426 0306 E0010000 		.4byte	0x1e0
 5427 030a 0401     		.2byte	0x104
 5428 030c 00       		.byte	0
 5429 030d 0B       		.uleb128 0xb
 5430 030e C1010000 		.4byte	0x1c1
 5431 0312 1D030000 		.4byte	0x31d
 5432 0316 0C       		.uleb128 0xc
 5433 0317 83010000 		.4byte	0x183
 5434 031b 1F       		.byte	0x1f
 5435 031c 00       		.byte	0
 5436 031d 12       		.uleb128 0x12
 5437 031e 0B0D0000 		.4byte	.LASF59
 5438 0322 9001     		.2byte	0x190
 5439 0324 06       		.byte	0x6
 5440 0325 5D       		.byte	0x5d
 5441 0326 5B030000 		.4byte	0x35b
 5442 032a 0E       		.uleb128 0xe
 5443 032b 61100000 		.4byte	.LASF39
 5444 032f 06       		.byte	0x6
 5445 0330 5E       		.byte	0x5e
 5446 0331 5B030000 		.4byte	0x35b
 5447 0335 00       		.byte	0
 5448 0336 0E       		.uleb128 0xe
 5449 0337 EB110000 		.4byte	.LASF60
 5450 033b 06       		.byte	0x6
 5451 033c 5F       		.byte	0x5f
 5452 033d 25000000 		.4byte	0x25
 5453 0341 04       		.byte	0x4
 5454 0342 0E       		.uleb128 0xe
 5455 0343 66050000 		.4byte	.LASF61
ARM GAS  C:\cygwin64\tmp\ccxdpAIh.s 			page 99


 5456 0347 06       		.byte	0x6
 5457 0348 61       		.byte	0x61
 5458 0349 61030000 		.4byte	0x361
 5459 034d 08       		.byte	0x8
 5460 034e 0E       		.uleb128 0xe
 5461 034f B5020000 		.4byte	.LASF54
 5462 0353 06       		.byte	0x6
 5463 0354 62       		.byte	0x62
 5464 0355 CD020000 		.4byte	0x2cd
 5465 0359 88       		.byte	0x88
 5466 035a 00       		.byte	0
 5467 035b 06       		.uleb128 0x6
 5468 035c 04       		.byte	0x4
 5469 035d 1D030000 		.4byte	0x31d
 5470 0361 0B       		.uleb128 0xb
 5471 0362 71030000 		.4byte	0x371
 5472 0366 71030000 		.4byte	0x371
 5473 036a 0C       		.uleb128 0xc
 5474 036b 83010000 		.4byte	0x183
 5475 036f 1F       		.byte	0x1f
 5476 0370 00       		.byte	0
 5477 0371 06       		.uleb128 0x6
 5478 0372 04       		.byte	0x4
 5479 0373 77030000 		.4byte	0x377
 5480 0377 14       		.uleb128 0x14
 5481 0378 10       		.uleb128 0x10
 5482 0379 02120000 		.4byte	.LASF62
 5483 037d 08       		.byte	0x8
 5484 037e 06       		.byte	0x6
 5485 037f 75       		.byte	0x75
 5486 0380 9D030000 		.4byte	0x39d
 5487 0384 0E       		.uleb128 0xe
 5488 0385 880F0000 		.4byte	.LASF63
 5489 0389 06       		.byte	0x6
 5490 038a 76       		.byte	0x76
 5491 038b 9D030000 		.4byte	0x39d
 5492 038f 00       		.byte	0
 5493 0390 0E       		.uleb128 0xe
 5494 0391 0D030000 		.4byte	.LASF64
 5495 0395 06       		.byte	0x6
 5496 0396 77       		.byte	0x77
 5497 0397 25000000 		.4byte	0x25
 5498 039b 04       		.byte	0x4
 5499 039c 00       		.byte	0
 5500 039d 06       		.uleb128 0x6
 5501 039e 04       		.byte	0x4
 5502 039f 63000000 		.4byte	0x63
 5503 03a3 10       		.uleb128 0x10
 5504 03a4 3C090000 		.4byte	.LASF65
 5505 03a8 68       		.byte	0x68
 5506 03a9 06       		.byte	0x6
 5507 03aa B5       		.byte	0xb5
 5508 03ab CD040000 		.4byte	0x4cd
 5509 03af 11       		.uleb128 0x11
 5510 03b0 5F7000   		.ascii	"_p\000"
 5511 03b3 06       		.byte	0x6
 5512 03b4 B6       		.byte	0xb6
ARM GAS  C:\cygwin64\tmp\ccxdpAIh.s 			page 100


 5513 03b5 9D030000 		.4byte	0x39d
 5514 03b9 00       		.byte	0
 5515 03ba 11       		.uleb128 0x11
 5516 03bb 5F7200   		.ascii	"_r\000"
 5517 03be 06       		.byte	0x6
 5518 03bf B7       		.byte	0xb7
 5519 03c0 25000000 		.4byte	0x25
 5520 03c4 04       		.byte	0x4
 5521 03c5 11       		.uleb128 0x11
 5522 03c6 5F7700   		.ascii	"_w\000"
 5523 03c9 06       		.byte	0x6
 5524 03ca B8       		.byte	0xb8
 5525 03cb 25000000 		.4byte	0x25
 5526 03cf 08       		.byte	0x8
 5527 03d0 0E       		.uleb128 0xe
 5528 03d1 E10C0000 		.4byte	.LASF66
 5529 03d5 06       		.byte	0x6
 5530 03d6 B9       		.byte	0xb9
 5531 03d7 75000000 		.4byte	0x75
 5532 03db 0C       		.byte	0xc
 5533 03dc 0E       		.uleb128 0xe
 5534 03dd A8020000 		.4byte	.LASF67
 5535 03e1 06       		.byte	0x6
 5536 03e2 BA       		.byte	0xba
 5537 03e3 75000000 		.4byte	0x75
 5538 03e7 0E       		.byte	0xe
 5539 03e8 11       		.uleb128 0x11
 5540 03e9 5F626600 		.ascii	"_bf\000"
 5541 03ed 06       		.byte	0x6
 5542 03ee BB       		.byte	0xbb
 5543 03ef 78030000 		.4byte	0x378
 5544 03f3 10       		.byte	0x10
 5545 03f4 0E       		.uleb128 0xe
 5546 03f5 D6110000 		.4byte	.LASF68
 5547 03f9 06       		.byte	0x6
 5548 03fa BC       		.byte	0xbc
 5549 03fb 25000000 		.4byte	0x25
 5550 03ff 18       		.byte	0x18
 5551 0400 0E       		.uleb128 0xe
 5552 0401 03080000 		.4byte	.LASF69
 5553 0405 06       		.byte	0x6
 5554 0406 C3       		.byte	0xc3
 5555 0407 C1010000 		.4byte	0x1c1
 5556 040b 1C       		.byte	0x1c
 5557 040c 0E       		.uleb128 0xe
 5558 040d 81000000 		.4byte	.LASF70
 5559 0411 06       		.byte	0x6
 5560 0412 C5       		.byte	0xc5
 5561 0413 28060000 		.4byte	0x628
 5562 0417 20       		.byte	0x20
 5563 0418 0E       		.uleb128 0xe
 5564 0419 AA000000 		.4byte	.LASF71
 5565 041d 06       		.byte	0x6
 5566 041e C7       		.byte	0xc7
 5567 041f 57060000 		.4byte	0x657
 5568 0423 24       		.byte	0x24
 5569 0424 0E       		.uleb128 0xe
ARM GAS  C:\cygwin64\tmp\ccxdpAIh.s 			page 101


 5570 0425 300E0000 		.4byte	.LASF72
 5571 0429 06       		.byte	0x6
 5572 042a CA       		.byte	0xca
 5573 042b 7B060000 		.4byte	0x67b
 5574 042f 28       		.byte	0x28
 5575 0430 0E       		.uleb128 0xe
 5576 0431 70050000 		.4byte	.LASF73
 5577 0435 06       		.byte	0x6
 5578 0436 CB       		.byte	0xcb
 5579 0437 95060000 		.4byte	0x695
 5580 043b 2C       		.byte	0x2c
 5581 043c 11       		.uleb128 0x11
 5582 043d 5F756200 		.ascii	"_ub\000"
 5583 0441 06       		.byte	0x6
 5584 0442 CE       		.byte	0xce
 5585 0443 78030000 		.4byte	0x378
 5586 0447 30       		.byte	0x30
 5587 0448 11       		.uleb128 0x11
 5588 0449 5F757000 		.ascii	"_up\000"
 5589 044d 06       		.byte	0x6
 5590 044e CF       		.byte	0xcf
 5591 044f 9D030000 		.4byte	0x39d
 5592 0453 38       		.byte	0x38
 5593 0454 11       		.uleb128 0x11
 5594 0455 5F757200 		.ascii	"_ur\000"
 5595 0459 06       		.byte	0x6
 5596 045a D0       		.byte	0xd0
 5597 045b 25000000 		.4byte	0x25
 5598 045f 3C       		.byte	0x3c
 5599 0460 0E       		.uleb128 0xe
 5600 0461 850C0000 		.4byte	.LASF74
 5601 0465 06       		.byte	0x6
 5602 0466 D3       		.byte	0xd3
 5603 0467 9B060000 		.4byte	0x69b
 5604 046b 40       		.byte	0x40
 5605 046c 0E       		.uleb128 0xe
 5606 046d 45010000 		.4byte	.LASF75
 5607 0471 06       		.byte	0x6
 5608 0472 D4       		.byte	0xd4
 5609 0473 AB060000 		.4byte	0x6ab
 5610 0477 43       		.byte	0x43
 5611 0478 11       		.uleb128 0x11
 5612 0479 5F6C6200 		.ascii	"_lb\000"
 5613 047d 06       		.byte	0x6
 5614 047e D7       		.byte	0xd7
 5615 047f 78030000 		.4byte	0x378
 5616 0483 44       		.byte	0x44
 5617 0484 0E       		.uleb128 0xe
 5618 0485 680F0000 		.4byte	.LASF76
 5619 0489 06       		.byte	0x6
 5620 048a DA       		.byte	0xda
 5621 048b 25000000 		.4byte	0x25
 5622 048f 4C       		.byte	0x4c
 5623 0490 0E       		.uleb128 0xe
 5624 0491 6A080000 		.4byte	.LASF77
 5625 0495 06       		.byte	0x6
 5626 0496 DB       		.byte	0xdb
ARM GAS  C:\cygwin64\tmp\ccxdpAIh.s 			page 102


 5627 0497 E5000000 		.4byte	0xe5
 5628 049b 50       		.byte	0x50
 5629 049c 0E       		.uleb128 0xe
 5630 049d 67100000 		.4byte	.LASF78
 5631 04a1 06       		.byte	0x6
 5632 04a2 DE       		.byte	0xde
 5633 04a3 EB040000 		.4byte	0x4eb
 5634 04a7 54       		.byte	0x54
 5635 04a8 0E       		.uleb128 0xe
 5636 04a9 A6010000 		.4byte	.LASF79
 5637 04ad 06       		.byte	0x6
 5638 04ae E2       		.byte	0xe2
 5639 04af B6010000 		.4byte	0x1b6
 5640 04b3 58       		.byte	0x58
 5641 04b4 0E       		.uleb128 0xe
 5642 04b5 A80C0000 		.4byte	.LASF80
 5643 04b9 06       		.byte	0x6
 5644 04ba E4       		.byte	0xe4
 5645 04bb AB010000 		.4byte	0x1ab
 5646 04bf 5C       		.byte	0x5c
 5647 04c0 0E       		.uleb128 0xe
 5648 04c1 4F090000 		.4byte	.LASF81
 5649 04c5 06       		.byte	0x6
 5650 04c6 E5       		.byte	0xe5
 5651 04c7 25000000 		.4byte	0x25
 5652 04cb 64       		.byte	0x64
 5653 04cc 00       		.byte	0
 5654 04cd 15       		.uleb128 0x15
 5655 04ce 25000000 		.4byte	0x25
 5656 04d2 EB040000 		.4byte	0x4eb
 5657 04d6 16       		.uleb128 0x16
 5658 04d7 EB040000 		.4byte	0x4eb
 5659 04db 16       		.uleb128 0x16
 5660 04dc C1010000 		.4byte	0x1c1
 5661 04e0 16       		.uleb128 0x16
 5662 04e1 CE010000 		.4byte	0x1ce
 5663 04e5 16       		.uleb128 0x16
 5664 04e6 25000000 		.4byte	0x25
 5665 04ea 00       		.byte	0
 5666 04eb 06       		.uleb128 0x6
 5667 04ec 04       		.byte	0x4
 5668 04ed F6040000 		.4byte	0x4f6
 5669 04f1 05       		.uleb128 0x5
 5670 04f2 EB040000 		.4byte	0x4eb
 5671 04f6 17       		.uleb128 0x17
 5672 04f7 B3040000 		.4byte	.LASF82
 5673 04fb 2804     		.2byte	0x428
 5674 04fd 06       		.byte	0x6
 5675 04fe 3902     		.2byte	0x239
 5676 0500 28060000 		.4byte	0x628
 5677 0504 18       		.uleb128 0x18
 5678 0505 BF090000 		.4byte	.LASF83
 5679 0509 06       		.byte	0x6
 5680 050a 3B02     		.2byte	0x23b
 5681 050c 25000000 		.4byte	0x25
 5682 0510 00       		.byte	0
 5683 0511 18       		.uleb128 0x18
ARM GAS  C:\cygwin64\tmp\ccxdpAIh.s 			page 103


 5684 0512 D3050000 		.4byte	.LASF84
 5685 0516 06       		.byte	0x6
 5686 0517 4002     		.2byte	0x240
 5687 0519 02070000 		.4byte	0x702
 5688 051d 04       		.byte	0x4
 5689 051e 18       		.uleb128 0x18
 5690 051f 330F0000 		.4byte	.LASF85
 5691 0523 06       		.byte	0x6
 5692 0524 4002     		.2byte	0x240
 5693 0526 02070000 		.4byte	0x702
 5694 052a 08       		.byte	0x8
 5695 052b 18       		.uleb128 0x18
 5696 052c 920C0000 		.4byte	.LASF86
 5697 0530 06       		.byte	0x6
 5698 0531 4002     		.2byte	0x240
 5699 0533 02070000 		.4byte	0x702
 5700 0537 0C       		.byte	0xc
 5701 0538 18       		.uleb128 0x18
 5702 0539 E6110000 		.4byte	.LASF87
 5703 053d 06       		.byte	0x6
 5704 053e 4202     		.2byte	0x242
 5705 0540 25000000 		.4byte	0x25
 5706 0544 10       		.byte	0x10
 5707 0545 18       		.uleb128 0x18
 5708 0546 A40A0000 		.4byte	.LASF88
 5709 054a 06       		.byte	0x6
 5710 054b 4302     		.2byte	0x243
 5711 054d E4080000 		.4byte	0x8e4
 5712 0551 14       		.byte	0x14
 5713 0552 18       		.uleb128 0x18
 5714 0553 8B040000 		.4byte	.LASF89
 5715 0557 06       		.byte	0x6
 5716 0558 4602     		.2byte	0x246
 5717 055a 25000000 		.4byte	0x25
 5718 055e 30       		.byte	0x30
 5719 055f 18       		.uleb128 0x18
 5720 0560 79120000 		.4byte	.LASF90
 5721 0564 06       		.byte	0x6
 5722 0565 4702     		.2byte	0x247
 5723 0567 F9080000 		.4byte	0x8f9
 5724 056b 34       		.byte	0x34
 5725 056c 18       		.uleb128 0x18
 5726 056d 44090000 		.4byte	.LASF91
 5727 0571 06       		.byte	0x6
 5728 0572 4902     		.2byte	0x249
 5729 0574 25000000 		.4byte	0x25
 5730 0578 38       		.byte	0x38
 5731 0579 18       		.uleb128 0x18
 5732 057a 550A0000 		.4byte	.LASF92
 5733 057e 06       		.byte	0x6
 5734 057f 4B02     		.2byte	0x24b
 5735 0581 0A090000 		.4byte	0x90a
 5736 0585 3C       		.byte	0x3c
 5737 0586 18       		.uleb128 0x18
 5738 0587 BF120000 		.4byte	.LASF93
 5739 058b 06       		.byte	0x6
 5740 058c 4E02     		.2byte	0x24e
ARM GAS  C:\cygwin64\tmp\ccxdpAIh.s 			page 104


 5741 058e 3E020000 		.4byte	0x23e
 5742 0592 40       		.byte	0x40
 5743 0593 18       		.uleb128 0x18
 5744 0594 03030000 		.4byte	.LASF94
 5745 0598 06       		.byte	0x6
 5746 0599 4F02     		.2byte	0x24f
 5747 059b 25000000 		.4byte	0x25
 5748 059f 44       		.byte	0x44
 5749 05a0 18       		.uleb128 0x18
 5750 05a1 0A090000 		.4byte	.LASF95
 5751 05a5 06       		.byte	0x6
 5752 05a6 5002     		.2byte	0x250
 5753 05a8 3E020000 		.4byte	0x23e
 5754 05ac 48       		.byte	0x48
 5755 05ad 18       		.uleb128 0x18
 5756 05ae 130B0000 		.4byte	.LASF96
 5757 05b2 06       		.byte	0x6
 5758 05b3 5102     		.2byte	0x251
 5759 05b5 10090000 		.4byte	0x910
 5760 05b9 4C       		.byte	0x4c
 5761 05ba 18       		.uleb128 0x18
 5762 05bb CF000000 		.4byte	.LASF97
 5763 05bf 06       		.byte	0x6
 5764 05c0 5402     		.2byte	0x254
 5765 05c2 25000000 		.4byte	0x25
 5766 05c6 50       		.byte	0x50
 5767 05c7 18       		.uleb128 0x18
 5768 05c8 72080000 		.4byte	.LASF98
 5769 05cc 06       		.byte	0x6
 5770 05cd 5502     		.2byte	0x255
 5771 05cf CE010000 		.4byte	0x1ce
 5772 05d3 54       		.byte	0x54
 5773 05d4 18       		.uleb128 0x18
 5774 05d5 800C0000 		.4byte	.LASF99
 5775 05d9 06       		.byte	0x6
 5776 05da 7802     		.2byte	0x278
 5777 05dc C2080000 		.4byte	0x8c2
 5778 05e0 58       		.byte	0x58
 5779 05e1 19       		.uleb128 0x19
 5780 05e2 0B0D0000 		.4byte	.LASF59
 5781 05e6 06       		.byte	0x6
 5782 05e7 7C02     		.2byte	0x27c
 5783 05e9 5B030000 		.4byte	0x35b
 5784 05ed 4801     		.2byte	0x148
 5785 05ef 19       		.uleb128 0x19
 5786 05f0 5F0A0000 		.4byte	.LASF100
 5787 05f4 06       		.byte	0x6
 5788 05f5 7D02     		.2byte	0x27d
 5789 05f7 1D030000 		.4byte	0x31d
 5790 05fb 4C01     		.2byte	0x14c
 5791 05fd 19       		.uleb128 0x19
 5792 05fe 43080000 		.4byte	.LASF101
 5793 0602 06       		.byte	0x6
 5794 0603 8102     		.2byte	0x281
 5795 0605 21090000 		.4byte	0x921
 5796 0609 DC02     		.2byte	0x2dc
 5797 060b 19       		.uleb128 0x19
ARM GAS  C:\cygwin64\tmp\ccxdpAIh.s 			page 105


 5798 060c E10A0000 		.4byte	.LASF102
 5799 0610 06       		.byte	0x6
 5800 0611 8602     		.2byte	0x286
 5801 0613 C7060000 		.4byte	0x6c7
 5802 0617 E002     		.2byte	0x2e0
 5803 0619 19       		.uleb128 0x19
 5804 061a 6B000000 		.4byte	.LASF103
 5805 061e 06       		.byte	0x6
 5806 061f 8702     		.2byte	0x287
 5807 0621 2D090000 		.4byte	0x92d
 5808 0625 EC02     		.2byte	0x2ec
 5809 0627 00       		.byte	0
 5810 0628 06       		.uleb128 0x6
 5811 0629 04       		.byte	0x4
 5812 062a CD040000 		.4byte	0x4cd
 5813 062e 15       		.uleb128 0x15
 5814 062f 25000000 		.4byte	0x25
 5815 0633 4C060000 		.4byte	0x64c
 5816 0637 16       		.uleb128 0x16
 5817 0638 EB040000 		.4byte	0x4eb
 5818 063c 16       		.uleb128 0x16
 5819 063d C1010000 		.4byte	0x1c1
 5820 0641 16       		.uleb128 0x16
 5821 0642 4C060000 		.4byte	0x64c
 5822 0646 16       		.uleb128 0x16
 5823 0647 25000000 		.4byte	0x25
 5824 064b 00       		.byte	0
 5825 064c 06       		.uleb128 0x6
 5826 064d 04       		.byte	0x4
 5827 064e DB010000 		.4byte	0x1db
 5828 0652 1A       		.uleb128 0x1a
 5829 0653 4C060000 		.4byte	0x64c
 5830 0657 06       		.uleb128 0x6
 5831 0658 04       		.byte	0x4
 5832 0659 2E060000 		.4byte	0x62e
 5833 065d 15       		.uleb128 0x15
 5834 065e 32010000 		.4byte	0x132
 5835 0662 7B060000 		.4byte	0x67b
 5836 0666 16       		.uleb128 0x16
 5837 0667 EB040000 		.4byte	0x4eb
 5838 066b 16       		.uleb128 0x16
 5839 066c C1010000 		.4byte	0x1c1
 5840 0670 16       		.uleb128 0x16
 5841 0671 32010000 		.4byte	0x132
 5842 0675 16       		.uleb128 0x16
 5843 0676 25000000 		.4byte	0x25
 5844 067a 00       		.byte	0
 5845 067b 06       		.uleb128 0x6
 5846 067c 04       		.byte	0x4
 5847 067d 5D060000 		.4byte	0x65d
 5848 0681 15       		.uleb128 0x15
 5849 0682 25000000 		.4byte	0x25
 5850 0686 95060000 		.4byte	0x695
 5851 068a 16       		.uleb128 0x16
 5852 068b EB040000 		.4byte	0x4eb
 5853 068f 16       		.uleb128 0x16
 5854 0690 C1010000 		.4byte	0x1c1
ARM GAS  C:\cygwin64\tmp\ccxdpAIh.s 			page 106


 5855 0694 00       		.byte	0
 5856 0695 06       		.uleb128 0x6
 5857 0696 04       		.byte	0x4
 5858 0697 81060000 		.4byte	0x681
 5859 069b 0B       		.uleb128 0xb
 5860 069c 63000000 		.4byte	0x63
 5861 06a0 AB060000 		.4byte	0x6ab
 5862 06a4 0C       		.uleb128 0xc
 5863 06a5 83010000 		.4byte	0x183
 5864 06a9 02       		.byte	0x2
 5865 06aa 00       		.byte	0
 5866 06ab 0B       		.uleb128 0xb
 5867 06ac 63000000 		.4byte	0x63
 5868 06b0 BB060000 		.4byte	0x6bb
 5869 06b4 0C       		.uleb128 0xc
 5870 06b5 83010000 		.4byte	0x183
 5871 06b9 00       		.byte	0
 5872 06ba 00       		.byte	0
 5873 06bb 08       		.uleb128 0x8
 5874 06bc FE0F0000 		.4byte	.LASF104
 5875 06c0 06       		.byte	0x6
 5876 06c1 1F01     		.2byte	0x11f
 5877 06c3 A3030000 		.4byte	0x3a3
 5878 06c7 1B       		.uleb128 0x1b
 5879 06c8 2E0B0000 		.4byte	.LASF105
 5880 06cc 0C       		.byte	0xc
 5881 06cd 06       		.byte	0x6
 5882 06ce 2301     		.2byte	0x123
 5883 06d0 FC060000 		.4byte	0x6fc
 5884 06d4 18       		.uleb128 0x18
 5885 06d5 61100000 		.4byte	.LASF39
 5886 06d9 06       		.byte	0x6
 5887 06da 2501     		.2byte	0x125
 5888 06dc FC060000 		.4byte	0x6fc
 5889 06e0 00       		.byte	0
 5890 06e1 18       		.uleb128 0x18
 5891 06e2 D40A0000 		.4byte	.LASF106
 5892 06e6 06       		.byte	0x6
 5893 06e7 2601     		.2byte	0x126
 5894 06e9 25000000 		.4byte	0x25
 5895 06ed 04       		.byte	0x4
 5896 06ee 18       		.uleb128 0x18
 5897 06ef 280B0000 		.4byte	.LASF107
 5898 06f3 06       		.byte	0x6
 5899 06f4 2701     		.2byte	0x127
 5900 06f6 02070000 		.4byte	0x702
 5901 06fa 08       		.byte	0x8
 5902 06fb 00       		.byte	0
 5903 06fc 06       		.uleb128 0x6
 5904 06fd 04       		.byte	0x4
 5905 06fe C7060000 		.4byte	0x6c7
 5906 0702 06       		.uleb128 0x6
 5907 0703 04       		.byte	0x4
 5908 0704 BB060000 		.4byte	0x6bb
 5909 0708 1B       		.uleb128 0x1b
 5910 0709 2B0F0000 		.4byte	.LASF108
 5911 070d 0E       		.byte	0xe
ARM GAS  C:\cygwin64\tmp\ccxdpAIh.s 			page 107


 5912 070e 06       		.byte	0x6
 5913 070f 3F01     		.2byte	0x13f
 5914 0711 3D070000 		.4byte	0x73d
 5915 0715 18       		.uleb128 0x18
 5916 0716 180E0000 		.4byte	.LASF109
 5917 071a 06       		.byte	0x6
 5918 071b 4001     		.2byte	0x140
 5919 071d 3D070000 		.4byte	0x73d
 5920 0721 00       		.byte	0
 5921 0722 18       		.uleb128 0x18
 5922 0723 CB010000 		.4byte	.LASF110
 5923 0727 06       		.byte	0x6
 5924 0728 4101     		.2byte	0x141
 5925 072a 3D070000 		.4byte	0x73d
 5926 072e 06       		.byte	0x6
 5927 072f 18       		.uleb128 0x18
 5928 0730 06130000 		.4byte	.LASF111
 5929 0734 06       		.byte	0x6
 5930 0735 4201     		.2byte	0x142
 5931 0737 87000000 		.4byte	0x87
 5932 073b 0C       		.byte	0xc
 5933 073c 00       		.byte	0
 5934 073d 0B       		.uleb128 0xb
 5935 073e 87000000 		.4byte	0x87
 5936 0742 4D070000 		.4byte	0x74d
 5937 0746 0C       		.uleb128 0xc
 5938 0747 83010000 		.4byte	0x183
 5939 074b 02       		.byte	0x2
 5940 074c 00       		.byte	0
 5941 074d 1C       		.uleb128 0x1c
 5942 074e D0       		.byte	0xd0
 5943 074f 06       		.byte	0x6
 5944 0750 5902     		.2byte	0x259
 5945 0752 4E080000 		.4byte	0x84e
 5946 0756 18       		.uleb128 0x18
 5947 0757 D1030000 		.4byte	.LASF112
 5948 075b 06       		.byte	0x6
 5949 075c 5B02     		.2byte	0x25b
 5950 075e 37000000 		.4byte	0x37
 5951 0762 00       		.byte	0
 5952 0763 18       		.uleb128 0x18
 5953 0764 AD0F0000 		.4byte	.LASF113
 5954 0768 06       		.byte	0x6
 5955 0769 5C02     		.2byte	0x25c
 5956 076b CE010000 		.4byte	0x1ce
 5957 076f 04       		.byte	0x4
 5958 0770 18       		.uleb128 0x18
 5959 0771 C2000000 		.4byte	.LASF114
 5960 0775 06       		.byte	0x6
 5961 0776 5D02     		.2byte	0x25d
 5962 0778 4E080000 		.4byte	0x84e
 5963 077c 08       		.byte	0x8
 5964 077d 18       		.uleb128 0x18
 5965 077e 20030000 		.4byte	.LASF115
 5966 0782 06       		.byte	0x6
 5967 0783 5E02     		.2byte	0x25e
 5968 0785 54020000 		.4byte	0x254
ARM GAS  C:\cygwin64\tmp\ccxdpAIh.s 			page 108


 5969 0789 24       		.byte	0x24
 5970 078a 18       		.uleb128 0x18
 5971 078b F70A0000 		.4byte	.LASF116
 5972 078f 06       		.byte	0x6
 5973 0790 5F02     		.2byte	0x25f
 5974 0792 25000000 		.4byte	0x25
 5975 0796 48       		.byte	0x48
 5976 0797 18       		.uleb128 0x18
 5977 0798 CE0C0000 		.4byte	.LASF117
 5978 079c 06       		.byte	0x6
 5979 079d 6002     		.2byte	0x260
 5980 079f C8000000 		.4byte	0xc8
 5981 07a3 50       		.byte	0x50
 5982 07a4 18       		.uleb128 0x18
 5983 07a5 49100000 		.4byte	.LASF118
 5984 07a9 06       		.byte	0x6
 5985 07aa 6102     		.2byte	0x261
 5986 07ac 08070000 		.4byte	0x708
 5987 07b0 58       		.byte	0x58
 5988 07b1 18       		.uleb128 0x18
 5989 07b2 01110000 		.4byte	.LASF119
 5990 07b6 06       		.byte	0x6
 5991 07b7 6202     		.2byte	0x262
 5992 07b9 AB010000 		.4byte	0x1ab
 5993 07bd 68       		.byte	0x68
 5994 07be 18       		.uleb128 0x18
 5995 07bf 990E0000 		.4byte	.LASF120
 5996 07c3 06       		.byte	0x6
 5997 07c4 6302     		.2byte	0x263
 5998 07c6 AB010000 		.4byte	0x1ab
 5999 07ca 70       		.byte	0x70
 6000 07cb 18       		.uleb128 0x18
 6001 07cc 9A0C0000 		.4byte	.LASF121
 6002 07d0 06       		.byte	0x6
 6003 07d1 6402     		.2byte	0x264
 6004 07d3 AB010000 		.4byte	0x1ab
 6005 07d7 78       		.byte	0x78
 6006 07d8 18       		.uleb128 0x18
 6007 07d9 54010000 		.4byte	.LASF122
 6008 07dd 06       		.byte	0x6
 6009 07de 6502     		.2byte	0x265
 6010 07e0 5E080000 		.4byte	0x85e
 6011 07e4 80       		.byte	0x80
 6012 07e5 18       		.uleb128 0x18
 6013 07e6 F1090000 		.4byte	.LASF123
 6014 07ea 06       		.byte	0x6
 6015 07eb 6602     		.2byte	0x266
 6016 07ed 6E080000 		.4byte	0x86e
 6017 07f1 88       		.byte	0x88
 6018 07f2 18       		.uleb128 0x18
 6019 07f3 31140000 		.4byte	.LASF124
 6020 07f7 06       		.byte	0x6
 6021 07f8 6702     		.2byte	0x267
 6022 07fa 25000000 		.4byte	0x25
 6023 07fe A0       		.byte	0xa0
 6024 07ff 18       		.uleb128 0x18
 6025 0800 DA020000 		.4byte	.LASF125
ARM GAS  C:\cygwin64\tmp\ccxdpAIh.s 			page 109


 6026 0804 06       		.byte	0x6
 6027 0805 6802     		.2byte	0x268
 6028 0807 AB010000 		.4byte	0x1ab
 6029 080b A4       		.byte	0xa4
 6030 080c 18       		.uleb128 0x18
 6031 080d C90F0000 		.4byte	.LASF126
 6032 0811 06       		.byte	0x6
 6033 0812 6902     		.2byte	0x269
 6034 0814 AB010000 		.4byte	0x1ab
 6035 0818 AC       		.byte	0xac
 6036 0819 18       		.uleb128 0x18
 6037 081a 6B130000 		.4byte	.LASF127
 6038 081e 06       		.byte	0x6
 6039 081f 6A02     		.2byte	0x26a
 6040 0821 AB010000 		.4byte	0x1ab
 6041 0825 B4       		.byte	0xb4
 6042 0826 18       		.uleb128 0x18
 6043 0827 430C0000 		.4byte	.LASF128
 6044 082b 06       		.byte	0x6
 6045 082c 6B02     		.2byte	0x26b
 6046 082e AB010000 		.4byte	0x1ab
 6047 0832 BC       		.byte	0xbc
 6048 0833 18       		.uleb128 0x18
 6049 0834 34010000 		.4byte	.LASF129
 6050 0838 06       		.byte	0x6
 6051 0839 6C02     		.2byte	0x26c
 6052 083b AB010000 		.4byte	0x1ab
 6053 083f C4       		.byte	0xc4
 6054 0840 18       		.uleb128 0x18
 6055 0841 120C0000 		.4byte	.LASF130
 6056 0845 06       		.byte	0x6
 6057 0846 6D02     		.2byte	0x26d
 6058 0848 25000000 		.4byte	0x25
 6059 084c CC       		.byte	0xcc
 6060 084d 00       		.byte	0
 6061 084e 0B       		.uleb128 0xb
 6062 084f D4010000 		.4byte	0x1d4
 6063 0853 5E080000 		.4byte	0x85e
 6064 0857 0C       		.uleb128 0xc
 6065 0858 83010000 		.4byte	0x183
 6066 085c 19       		.byte	0x19
 6067 085d 00       		.byte	0
 6068 085e 0B       		.uleb128 0xb
 6069 085f D4010000 		.4byte	0x1d4
 6070 0863 6E080000 		.4byte	0x86e
 6071 0867 0C       		.uleb128 0xc
 6072 0868 83010000 		.4byte	0x183
 6073 086c 07       		.byte	0x7
 6074 086d 00       		.byte	0
 6075 086e 0B       		.uleb128 0xb
 6076 086f D4010000 		.4byte	0x1d4
 6077 0873 7E080000 		.4byte	0x87e
 6078 0877 0C       		.uleb128 0xc
 6079 0878 83010000 		.4byte	0x183
 6080 087c 17       		.byte	0x17
 6081 087d 00       		.byte	0
 6082 087e 1C       		.uleb128 0x1c
ARM GAS  C:\cygwin64\tmp\ccxdpAIh.s 			page 110


 6083 087f F0       		.byte	0xf0
 6084 0880 06       		.byte	0x6
 6085 0881 7202     		.2byte	0x272
 6086 0883 A2080000 		.4byte	0x8a2
 6087 0887 18       		.uleb128 0x18
 6088 0888 31120000 		.4byte	.LASF131
 6089 088c 06       		.byte	0x6
 6090 088d 7502     		.2byte	0x275
 6091 088f A2080000 		.4byte	0x8a2
 6092 0893 00       		.byte	0
 6093 0894 18       		.uleb128 0x18
 6094 0895 E90A0000 		.4byte	.LASF132
 6095 0899 06       		.byte	0x6
 6096 089a 7602     		.2byte	0x276
 6097 089c B2080000 		.4byte	0x8b2
 6098 08a0 78       		.byte	0x78
 6099 08a1 00       		.byte	0
 6100 08a2 0B       		.uleb128 0xb
 6101 08a3 9D030000 		.4byte	0x39d
 6102 08a7 B2080000 		.4byte	0x8b2
 6103 08ab 0C       		.uleb128 0xc
 6104 08ac 83010000 		.4byte	0x183
 6105 08b0 1D       		.byte	0x1d
 6106 08b1 00       		.byte	0
 6107 08b2 0B       		.uleb128 0xb
 6108 08b3 37000000 		.4byte	0x37
 6109 08b7 C2080000 		.4byte	0x8c2
 6110 08bb 0C       		.uleb128 0xc
 6111 08bc 83010000 		.4byte	0x183
 6112 08c0 1D       		.byte	0x1d
 6113 08c1 00       		.byte	0
 6114 08c2 1D       		.uleb128 0x1d
 6115 08c3 F0       		.byte	0xf0
 6116 08c4 06       		.byte	0x6
 6117 08c5 5702     		.2byte	0x257
 6118 08c7 E4080000 		.4byte	0x8e4
 6119 08cb 1E       		.uleb128 0x1e
 6120 08cc B3040000 		.4byte	.LASF82
 6121 08d0 06       		.byte	0x6
 6122 08d1 6E02     		.2byte	0x26e
 6123 08d3 4D070000 		.4byte	0x74d
 6124 08d7 1E       		.uleb128 0x1e
 6125 08d8 27010000 		.4byte	.LASF133
 6126 08dc 06       		.byte	0x6
 6127 08dd 7702     		.2byte	0x277
 6128 08df 7E080000 		.4byte	0x87e
 6129 08e3 00       		.byte	0
 6130 08e4 0B       		.uleb128 0xb
 6131 08e5 D4010000 		.4byte	0x1d4
 6132 08e9 F4080000 		.4byte	0x8f4
 6133 08ed 0C       		.uleb128 0xc
 6134 08ee 83010000 		.4byte	0x183
 6135 08f2 18       		.byte	0x18
 6136 08f3 00       		.byte	0
 6137 08f4 07       		.uleb128 0x7
 6138 08f5 42000000 		.4byte	.LASF135
 6139 08f9 06       		.uleb128 0x6
ARM GAS  C:\cygwin64\tmp\ccxdpAIh.s 			page 111


 6140 08fa 04       		.byte	0x4
 6141 08fb F4080000 		.4byte	0x8f4
 6142 08ff 1F       		.uleb128 0x1f
 6143 0900 0A090000 		.4byte	0x90a
 6144 0904 16       		.uleb128 0x16
 6145 0905 EB040000 		.4byte	0x4eb
 6146 0909 00       		.byte	0
 6147 090a 06       		.uleb128 0x6
 6148 090b 04       		.byte	0x4
 6149 090c FF080000 		.4byte	0x8ff
 6150 0910 06       		.uleb128 0x6
 6151 0911 04       		.byte	0x4
 6152 0912 3E020000 		.4byte	0x23e
 6153 0916 1F       		.uleb128 0x1f
 6154 0917 21090000 		.4byte	0x921
 6155 091b 16       		.uleb128 0x16
 6156 091c 25000000 		.4byte	0x25
 6157 0920 00       		.byte	0
 6158 0921 06       		.uleb128 0x6
 6159 0922 04       		.byte	0x4
 6160 0923 27090000 		.4byte	0x927
 6161 0927 06       		.uleb128 0x6
 6162 0928 04       		.byte	0x4
 6163 0929 16090000 		.4byte	0x916
 6164 092d 0B       		.uleb128 0xb
 6165 092e BB060000 		.4byte	0x6bb
 6166 0932 3D090000 		.4byte	0x93d
 6167 0936 0C       		.uleb128 0xc
 6168 0937 83010000 		.4byte	0x183
 6169 093b 02       		.byte	0x2
 6170 093c 00       		.byte	0
 6171 093d 20       		.uleb128 0x20
 6172 093e F7020000 		.4byte	.LASF136
 6173 0942 06       		.byte	0x6
 6174 0943 FE02     		.2byte	0x2fe
 6175 0945 EB040000 		.4byte	0x4eb
 6176 0949 20       		.uleb128 0x20
 6177 094a CD040000 		.4byte	.LASF137
 6178 094e 06       		.byte	0x6
 6179 094f FF02     		.2byte	0x2ff
 6180 0951 F1040000 		.4byte	0x4f1
 6181 0955 03       		.uleb128 0x3
 6182 0956 F1030000 		.4byte	.LASF138
 6183 095a 07       		.byte	0x7
 6184 095b 18       		.byte	0x18
 6185 095c 58000000 		.4byte	0x58
 6186 0960 03       		.uleb128 0x3
 6187 0961 57110000 		.4byte	.LASF139
 6188 0965 07       		.byte	0x7
 6189 0966 20       		.byte	0x20
 6190 0967 6A000000 		.4byte	0x6a
 6191 096b 03       		.uleb128 0x3
 6192 096c EE0E0000 		.4byte	.LASF140
 6193 0970 07       		.byte	0x7
 6194 0971 24       		.byte	0x24
 6195 0972 7C000000 		.4byte	0x7c
 6196 0976 03       		.uleb128 0x3
ARM GAS  C:\cygwin64\tmp\ccxdpAIh.s 			page 112


 6197 0977 B1000000 		.4byte	.LASF141
 6198 097b 07       		.byte	0x7
 6199 097c 2C       		.byte	0x2c
 6200 097d 8E000000 		.4byte	0x8e
 6201 0981 1A       		.uleb128 0x1a
 6202 0982 76090000 		.4byte	0x976
 6203 0986 03       		.uleb128 0x3
 6204 0987 A6120000 		.4byte	.LASF142
 6205 098b 07       		.byte	0x7
 6206 098c 30       		.byte	0x30
 6207 098d A0000000 		.4byte	0xa0
 6208 0991 03       		.uleb128 0x3
 6209 0992 AD130000 		.4byte	.LASF143
 6210 0996 07       		.byte	0x7
 6211 0997 38       		.byte	0x38
 6212 0998 B2000000 		.4byte	0xb2
 6213 099c 03       		.uleb128 0x3
 6214 099d 2F110000 		.4byte	.LASF144
 6215 09a1 07       		.byte	0x7
 6216 09a2 3C       		.byte	0x3c
 6217 09a3 BD000000 		.4byte	0xbd
 6218 09a7 03       		.uleb128 0x3
 6219 09a8 27070000 		.4byte	.LASF145
 6220 09ac 08       		.byte	0x8
 6221 09ad 13       		.byte	0x13
 6222 09ae 37000000 		.4byte	0x37
 6223 09b2 03       		.uleb128 0x3
 6224 09b3 85020000 		.4byte	.LASF146
 6225 09b7 08       		.byte	0x8
 6226 09b8 16       		.byte	0x16
 6227 09b9 63000000 		.4byte	0x63
 6228 09bd 03       		.uleb128 0x3
 6229 09be EE0D0000 		.4byte	.LASF147
 6230 09c2 08       		.byte	0x8
 6231 09c3 1A       		.byte	0x1a
 6232 09c4 87000000 		.4byte	0x87
 6233 09c8 03       		.uleb128 0x3
 6234 09c9 1A0D0000 		.4byte	.LASF148
 6235 09cd 08       		.byte	0x8
 6236 09ce 1B       		.byte	0x1b
 6237 09cf 87000000 		.4byte	0x87
 6238 09d3 03       		.uleb128 0x3
 6239 09d4 470D0000 		.4byte	.LASF149
 6240 09d8 08       		.byte	0x8
 6241 09d9 1F       		.byte	0x1f
 6242 09da AB000000 		.4byte	0xab
 6243 09de 03       		.uleb128 0x3
 6244 09df 7B000000 		.4byte	.LASF150
 6245 09e3 08       		.byte	0x8
 6246 09e4 22       		.byte	0x22
 6247 09e5 C8000000 		.4byte	0xc8
 6248 09e9 03       		.uleb128 0x3
 6249 09ea 050C0000 		.4byte	.LASF151
 6250 09ee 09       		.byte	0x9
 6251 09ef 39       		.byte	0x39
 6252 09f0 86090000 		.4byte	0x986
 6253 09f4 03       		.uleb128 0x3
ARM GAS  C:\cygwin64\tmp\ccxdpAIh.s 			page 113


 6254 09f5 3E030000 		.4byte	.LASF152
 6255 09f9 09       		.byte	0x9
 6256 09fa 3A       		.byte	0x3a
 6257 09fb 9C090000 		.4byte	0x99c
 6258 09ff 03       		.uleb128 0x3
 6259 0a00 92100000 		.4byte	.LASF153
 6260 0a04 09       		.byte	0x9
 6261 0a05 3C       		.byte	0x3c
 6262 0a06 55090000 		.4byte	0x955
 6263 0a0a 03       		.uleb128 0x3
 6264 0a0b 35030000 		.4byte	.LASF154
 6265 0a0f 09       		.byte	0x9
 6266 0a10 3D       		.byte	0x3d
 6267 0a11 55090000 		.4byte	0x955
 6268 0a15 03       		.uleb128 0x3
 6269 0a16 AE070000 		.4byte	.LASF155
 6270 0a1a 09       		.byte	0x9
 6271 0a1b 3E       		.byte	0x3e
 6272 0a1c 55090000 		.4byte	0x955
 6273 0a20 03       		.uleb128 0x3
 6274 0a21 87000000 		.4byte	.LASF156
 6275 0a25 09       		.byte	0x9
 6276 0a26 40       		.byte	0x40
 6277 0a27 86090000 		.4byte	0x986
 6278 0a2b 03       		.uleb128 0x3
 6279 0a2c 140F0000 		.4byte	.LASF157
 6280 0a30 09       		.byte	0x9
 6281 0a31 41       		.byte	0x41
 6282 0a32 76090000 		.4byte	0x976
 6283 0a36 03       		.uleb128 0x3
 6284 0a37 10040000 		.4byte	.LASF158
 6285 0a3b 09       		.byte	0x9
 6286 0a3c 43       		.byte	0x43
 6287 0a3d 86090000 		.4byte	0x986
 6288 0a41 03       		.uleb128 0x3
 6289 0a42 DB070000 		.4byte	.LASF159
 6290 0a46 09       		.byte	0x9
 6291 0a47 45       		.byte	0x45
 6292 0a48 76090000 		.4byte	0x976
 6293 0a4c 03       		.uleb128 0x3
 6294 0a4d 060A0000 		.4byte	.LASF160
 6295 0a51 09       		.byte	0x9
 6296 0a52 46       		.byte	0x46
 6297 0a53 86090000 		.4byte	0x986
 6298 0a57 03       		.uleb128 0x3
 6299 0a58 55000000 		.4byte	.LASF161
 6300 0a5c 0A       		.byte	0xa
 6301 0a5d 33       		.byte	0x33
 6302 0a5e 86090000 		.4byte	0x986
 6303 0a62 03       		.uleb128 0x3
 6304 0a63 AC0D0000 		.4byte	.LASF162
 6305 0a67 0A       		.byte	0xa
 6306 0a68 3F       		.byte	0x3f
 6307 0a69 6D0A0000 		.4byte	0xa6d
 6308 0a6d 10       		.uleb128 0x10
 6309 0a6e 83090000 		.4byte	.LASF163
 6310 0a72 60       		.byte	0x60
ARM GAS  C:\cygwin64\tmp\ccxdpAIh.s 			page 114


 6311 0a73 0B       		.byte	0xb
 6312 0a74 9A       		.byte	0x9a
 6313 0a75 580B0000 		.4byte	0xb58
 6314 0a79 0E       		.uleb128 0xe
 6315 0a7a 8E0F0000 		.4byte	.LASF164
 6316 0a7e 0B       		.byte	0xb
 6317 0a7f 9B       		.byte	0x9b
 6318 0a80 8D0B0000 		.4byte	0xb8d
 6319 0a84 00       		.byte	0
 6320 0a85 0E       		.uleb128 0xe
 6321 0a86 2E020000 		.4byte	.LASF165
 6322 0a8a 0B       		.byte	0xb
 6323 0a8b 9C       		.byte	0x9c
 6324 0a8c 200A0000 		.4byte	0xa20
 6325 0a90 08       		.byte	0x8
 6326 0a91 11       		.uleb128 0x11
 6327 0a92 63747800 		.ascii	"ctx\000"
 6328 0a96 0B       		.byte	0xb
 6329 0a97 9D       		.byte	0x9d
 6330 0a98 A00D0000 		.4byte	0xda0
 6331 0a9c 0C       		.byte	0xc
 6332 0a9d 0E       		.uleb128 0xe
 6333 0a9e 89120000 		.4byte	.LASF166
 6334 0aa2 0B       		.byte	0xb
 6335 0aa3 9F       		.byte	0x9f
 6336 0aa4 630B0000 		.4byte	0xb63
 6337 0aa8 10       		.byte	0x10
 6338 0aa9 0E       		.uleb128 0xe
 6339 0aaa E3090000 		.4byte	.LASF167
 6340 0aae 0B       		.byte	0xb
 6341 0aaf A0       		.byte	0xa0
 6342 0ab0 630B0000 		.4byte	0xb63
 6343 0ab4 14       		.byte	0x14
 6344 0ab5 0E       		.uleb128 0xe
 6345 0ab6 DF100000 		.4byte	.LASF168
 6346 0aba 0B       		.byte	0xb
 6347 0abb A7       		.byte	0xa7
 6348 0abc 4C060000 		.4byte	0x64c
 6349 0ac0 18       		.byte	0x18
 6350 0ac1 0E       		.uleb128 0xe
 6351 0ac2 4E100000 		.4byte	.LASF169
 6352 0ac6 0B       		.byte	0xb
 6353 0ac7 B0       		.byte	0xb0
 6354 0ac8 87100000 		.4byte	0x1087
 6355 0acc 1C       		.byte	0x1c
 6356 0acd 0E       		.uleb128 0xe
 6357 0ace 91010000 		.4byte	.LASF170
 6358 0ad2 0B       		.byte	0xb
 6359 0ad3 B5       		.byte	0xb5
 6360 0ad4 0A0A0000 		.4byte	0xa0a
 6361 0ad8 20       		.byte	0x20
 6362 0ad9 0E       		.uleb128 0xe
 6363 0ada 1A070000 		.4byte	.LASF171
 6364 0ade 0B       		.byte	0xb
 6365 0adf B9       		.byte	0xb9
 6366 0ae0 FF090000 		.4byte	0x9ff
 6367 0ae4 21       		.byte	0x21
ARM GAS  C:\cygwin64\tmp\ccxdpAIh.s 			page 115


 6368 0ae5 0E       		.uleb128 0xe
 6369 0ae6 0D0C0000 		.4byte	.LASF172
 6370 0aea 0B       		.byte	0xb
 6371 0aeb BE       		.byte	0xbe
 6372 0aec 150A0000 		.4byte	0xa15
 6373 0af0 22       		.byte	0x22
 6374 0af1 21       		.uleb128 0x21
 6375 0af2 7500     		.ascii	"u\000"
 6376 0af4 0B       		.byte	0xb
 6377 0af5 0F01     		.2byte	0x10f
 6378 0af7 BC0F0000 		.4byte	0xfbc
 6379 0afb 24       		.byte	0x24
 6380 0afc 18       		.uleb128 0x18
 6381 0afd F0110000 		.4byte	.LASF173
 6382 0b01 0B       		.byte	0xb
 6383 0b02 1401     		.2byte	0x114
 6384 0b04 690B0000 		.4byte	0xb69
 6385 0b08 28       		.byte	0x28
 6386 0b09 18       		.uleb128 0x18
 6387 0b0a 5F110000 		.4byte	.LASF174
 6388 0b0e 0B       		.byte	0xb
 6389 0b0f 1A01     		.2byte	0x11a
 6390 0b11 8D0B0000 		.4byte	0xb8d
 6391 0b15 2C       		.byte	0x2c
 6392 0b16 18       		.uleb128 0x18
 6393 0b17 9C0F0000 		.4byte	.LASF175
 6394 0b1b 0B       		.byte	0xb
 6395 0b1c 2001     		.2byte	0x120
 6396 0b1e 360A0000 		.4byte	0xa36
 6397 0b22 34       		.byte	0x34
 6398 0b23 18       		.uleb128 0x18
 6399 0b24 AF0A0000 		.4byte	.LASF176
 6400 0b28 0B       		.byte	0xb
 6401 0b29 2701     		.2byte	0x127
 6402 0b2b 81100000 		.4byte	0x1081
 6403 0b2f 38       		.byte	0x38
 6404 0b30 18       		.uleb128 0x18
 6405 0b31 FD090000 		.4byte	.LASF177
 6406 0b35 0B       		.byte	0xb
 6407 0b36 2B01     		.2byte	0x12b
 6408 0b38 200A0000 		.4byte	0xa20
 6409 0b3c 3C       		.byte	0x3c
 6410 0b3d 18       		.uleb128 0x18
 6411 0b3e 8F070000 		.4byte	.LASF178
 6412 0b42 0B       		.byte	0xb
 6413 0b43 3201     		.2byte	0x132
 6414 0b45 C1010000 		.4byte	0x1c1
 6415 0b49 40       		.byte	0x40
 6416 0b4a 18       		.uleb128 0x18
 6417 0b4b B2010000 		.4byte	.LASF179
 6418 0b4f 0B       		.byte	0xb
 6419 0b50 3801     		.2byte	0x138
 6420 0b52 6D0F0000 		.4byte	0xf6d
 6421 0b56 48       		.byte	0x48
 6422 0b57 00       		.byte	0
 6423 0b58 03       		.uleb128 0x3
 6424 0b59 F80C0000 		.4byte	.LASF180
ARM GAS  C:\cygwin64\tmp\ccxdpAIh.s 			page 116


 6425 0b5d 0A       		.byte	0xa
 6426 0b5e 44       		.byte	0x44
 6427 0b5f 630B0000 		.4byte	0xb63
 6428 0b63 06       		.uleb128 0x6
 6429 0b64 04       		.byte	0x4
 6430 0b65 620A0000 		.4byte	0xa62
 6431 0b69 03       		.uleb128 0x3
 6432 0b6a 4A120000 		.4byte	.LASF181
 6433 0b6e 0A       		.byte	0xa
 6434 0b6f 49       		.byte	0x49
 6435 0b70 740B0000 		.4byte	0xb74
 6436 0b74 10       		.uleb128 0x10
 6437 0b75 280A0000 		.4byte	.LASF182
 6438 0b79 04       		.byte	0x4
 6439 0b7a 0B       		.byte	0xb
 6440 0b7b 88       		.byte	0x88
 6441 0b7c 8D0B0000 		.4byte	0xb8d
 6442 0b80 0E       		.uleb128 0xe
 6443 0b81 06140000 		.4byte	.LASF183
 6444 0b85 0B       		.byte	0xb
 6445 0b86 89       		.byte	0x89
 6446 0b87 630B0000 		.4byte	0xb63
 6447 0b8b 00       		.byte	0
 6448 0b8c 00       		.byte	0
 6449 0b8d 03       		.uleb128 0x3
 6450 0b8e 47030000 		.4byte	.LASF184
 6451 0b92 0A       		.byte	0xa
 6452 0b93 50       		.byte	0x50
 6453 0b94 980B0000 		.4byte	0xb98
 6454 0b98 10       		.uleb128 0x10
 6455 0b99 1A0F0000 		.4byte	.LASF185
 6456 0b9d 08       		.byte	0x8
 6457 0b9e 0B       		.byte	0xb
 6458 0b9f 8F       		.byte	0x8f
 6459 0ba0 BD0B0000 		.4byte	0xbbd
 6460 0ba4 0E       		.uleb128 0xe
 6461 0ba5 06140000 		.4byte	.LASF183
 6462 0ba9 0B       		.byte	0xb
 6463 0baa 90       		.byte	0x90
 6464 0bab 630B0000 		.4byte	0xb63
 6465 0baf 00       		.byte	0
 6466 0bb0 0E       		.uleb128 0xe
 6467 0bb1 84130000 		.4byte	.LASF186
 6468 0bb5 0B       		.byte	0xb
 6469 0bb6 91       		.byte	0x91
 6470 0bb7 630B0000 		.4byte	0xb63
 6471 0bbb 04       		.byte	0x4
 6472 0bbc 00       		.byte	0
 6473 0bbd 03       		.uleb128 0x3
 6474 0bbe D6090000 		.4byte	.LASF187
 6475 0bc2 0A       		.byte	0xa
 6476 0bc3 57       		.byte	0x57
 6477 0bc4 C80B0000 		.4byte	0xbc8
 6478 0bc8 1B       		.uleb128 0x1b
 6479 0bc9 28080000 		.4byte	.LASF188
 6480 0bcd 1C       		.byte	0x1c
 6481 0bce 0B       		.byte	0xb
ARM GAS  C:\cygwin64\tmp\ccxdpAIh.s 			page 117


 6482 0bcf 6A01     		.2byte	0x16a
 6483 0bd1 240C0000 		.4byte	0xc24
 6484 0bd5 18       		.uleb128 0x18
 6485 0bd6 8E0F0000 		.4byte	.LASF164
 6486 0bda 0B       		.byte	0xb
 6487 0bdb 6B01     		.2byte	0x16b
 6488 0bdd 8D0B0000 		.4byte	0xb8d
 6489 0be1 00       		.byte	0
 6490 0be2 18       		.uleb128 0x18
 6491 0be3 2E020000 		.4byte	.LASF165
 6492 0be7 0B       		.byte	0xb
 6493 0be8 6C01     		.2byte	0x16c
 6494 0bea 200A0000 		.4byte	0xa20
 6495 0bee 08       		.byte	0x8
 6496 0bef 21       		.uleb128 0x21
 6497 0bf0 63747800 		.ascii	"ctx\000"
 6498 0bf4 0B       		.byte	0xb
 6499 0bf5 6E01     		.2byte	0x16e
 6500 0bf7 A00D0000 		.4byte	0xda0
 6501 0bfb 0C       		.byte	0xc
 6502 0bfc 18       		.uleb128 0x18
 6503 0bfd 89120000 		.4byte	.LASF166
 6504 0c01 0B       		.byte	0xb
 6505 0c02 7101     		.2byte	0x171
 6506 0c04 630B0000 		.4byte	0xb63
 6507 0c08 10       		.byte	0x10
 6508 0c09 18       		.uleb128 0x18
 6509 0c0a E3090000 		.4byte	.LASF167
 6510 0c0e 0B       		.byte	0xb
 6511 0c0f 7201     		.2byte	0x172
 6512 0c11 630B0000 		.4byte	0xb63
 6513 0c15 14       		.byte	0x14
 6514 0c16 18       		.uleb128 0x18
 6515 0c17 C60C0000 		.4byte	.LASF189
 6516 0c1b 0B       		.byte	0xb
 6517 0c1c 7501     		.2byte	0x175
 6518 0c1e 630B0000 		.4byte	0xb63
 6519 0c22 18       		.byte	0x18
 6520 0c23 00       		.byte	0
 6521 0c24 03       		.uleb128 0x3
 6522 0c25 D7000000 		.4byte	.LASF190
 6523 0c29 0A       		.byte	0xa
 6524 0c2a 5C       		.byte	0x5c
 6525 0c2b 2F0C0000 		.4byte	0xc2f
 6526 0c2f 06       		.uleb128 0x6
 6527 0c30 04       		.byte	0x4
 6528 0c31 350C0000 		.4byte	0xc35
 6529 0c35 1F       		.uleb128 0x1f
 6530 0c36 400C0000 		.4byte	0xc40
 6531 0c3a 16       		.uleb128 0x16
 6532 0c3b C1010000 		.4byte	0x1c1
 6533 0c3f 00       		.byte	0
 6534 0c40 03       		.uleb128 0x3
 6535 0c41 C6090000 		.4byte	.LASF191
 6536 0c45 0A       		.byte	0xa
 6537 0c46 61       		.byte	0x61
 6538 0c47 4B0C0000 		.4byte	0xc4b
ARM GAS  C:\cygwin64\tmp\ccxdpAIh.s 			page 118


 6539 0c4b 1B       		.uleb128 0x1b
 6540 0c4c 880E0000 		.4byte	.LASF192
 6541 0c50 14       		.byte	0x14
 6542 0c51 0B       		.byte	0xb
 6543 0c52 4501     		.2byte	0x145
 6544 0c54 9A0C0000 		.4byte	0xc9a
 6545 0c58 18       		.uleb128 0x18
 6546 0c59 06140000 		.4byte	.LASF183
 6547 0c5d 0B       		.byte	0xb
 6548 0c5e 4601     		.2byte	0x146
 6549 0c60 8D100000 		.4byte	0x108d
 6550 0c64 00       		.byte	0
 6551 0c65 18       		.uleb128 0x18
 6552 0c66 84130000 		.4byte	.LASF186
 6553 0c6a 0B       		.byte	0xb
 6554 0c6b 4701     		.2byte	0x147
 6555 0c6d 8D100000 		.4byte	0x108d
 6556 0c71 04       		.byte	0x4
 6557 0c72 18       		.uleb128 0x18
 6558 0c73 4D0F0000 		.4byte	.LASF193
 6559 0c77 0B       		.byte	0xb
 6560 0c78 4801     		.2byte	0x148
 6561 0c7a 570A0000 		.4byte	0xa57
 6562 0c7e 08       		.byte	0x8
 6563 0c7f 18       		.uleb128 0x18
 6564 0c80 43110000 		.4byte	.LASF194
 6565 0c84 0B       		.byte	0xb
 6566 0c85 4901     		.2byte	0x149
 6567 0c87 240C0000 		.4byte	0xc24
 6568 0c8b 0C       		.byte	0xc
 6569 0c8c 21       		.uleb128 0x21
 6570 0c8d 70617200 		.ascii	"par\000"
 6571 0c91 0B       		.byte	0xb
 6572 0c92 4B01     		.2byte	0x14b
 6573 0c94 C1010000 		.4byte	0x1c1
 6574 0c98 10       		.byte	0x10
 6575 0c99 00       		.byte	0
 6576 0c9a 03       		.uleb128 0x3
 6577 0c9b 92090000 		.4byte	.LASF195
 6578 0c9f 0A       		.byte	0xa
 6579 0ca0 66       		.byte	0x66
 6580 0ca1 A50C0000 		.4byte	0xca5
 6581 0ca5 1B       		.uleb128 0x1b
 6582 0ca6 E5000000 		.4byte	.LASF196
 6583 0caa 10       		.byte	0x10
 6584 0cab 0B       		.byte	0xb
 6585 0cac 5501     		.2byte	0x155
 6586 0cae E70C0000 		.4byte	0xce7
 6587 0cb2 18       		.uleb128 0x18
 6588 0cb3 06140000 		.4byte	.LASF183
 6589 0cb7 0B       		.byte	0xb
 6590 0cb8 5601     		.2byte	0x156
 6591 0cba 8D100000 		.4byte	0x108d
 6592 0cbe 00       		.byte	0
 6593 0cbf 18       		.uleb128 0x18
 6594 0cc0 84130000 		.4byte	.LASF186
 6595 0cc4 0B       		.byte	0xb
ARM GAS  C:\cygwin64\tmp\ccxdpAIh.s 			page 119


 6596 0cc5 5801     		.2byte	0x158
 6597 0cc7 8D100000 		.4byte	0x108d
 6598 0ccb 04       		.byte	0x4
 6599 0ccc 18       		.uleb128 0x18
 6600 0ccd 4D0F0000 		.4byte	.LASF193
 6601 0cd1 0B       		.byte	0xb
 6602 0cd2 5A01     		.2byte	0x15a
 6603 0cd4 570A0000 		.4byte	0xa57
 6604 0cd8 08       		.byte	0x8
 6605 0cd9 18       		.uleb128 0x18
 6606 0cda 61040000 		.4byte	.LASF197
 6607 0cde 0B       		.byte	0xb
 6608 0cdf 6201     		.2byte	0x162
 6609 0ce1 570A0000 		.4byte	0xa57
 6610 0ce5 0C       		.byte	0xc
 6611 0ce6 00       		.byte	0
 6612 0ce7 03       		.uleb128 0x3
 6613 0ce8 E5040000 		.4byte	.LASF198
 6614 0cec 0A       		.byte	0xa
 6615 0ced 6B       		.byte	0x6b
 6616 0cee F20C0000 		.4byte	0xcf2
 6617 0cf2 1B       		.uleb128 0x1b
 6618 0cf3 77110000 		.4byte	.LASF199
 6619 0cf7 04       		.byte	0x4
 6620 0cf8 0B       		.byte	0xb
 6621 0cf9 7C01     		.2byte	0x17c
 6622 0cfb 0D0D0000 		.4byte	0xd0d
 6623 0cff 18       		.uleb128 0x18
 6624 0d00 81040000 		.4byte	.LASF200
 6625 0d04 0B       		.byte	0xb
 6626 0d05 8401     		.2byte	0x184
 6627 0d07 52060000 		.4byte	0x652
 6628 0d0b 00       		.byte	0
 6629 0d0c 00       		.byte	0
 6630 0d0d 03       		.uleb128 0x3
 6631 0d0e 45130000 		.4byte	.LASF201
 6632 0d12 0A       		.byte	0xa
 6633 0d13 70       		.byte	0x70
 6634 0d14 180D0000 		.4byte	0xd18
 6635 0d18 1B       		.uleb128 0x1b
 6636 0d19 6F120000 		.4byte	.LASF202
 6637 0d1d D0       		.byte	0xd0
 6638 0d1e 0B       		.byte	0xb
 6639 0d1f 9C01     		.2byte	0x19c
 6640 0d21 730D0000 		.4byte	0xd73
 6641 0d25 18       		.uleb128 0x18
 6642 0d26 82100000 		.4byte	.LASF203
 6643 0d2a 0B       		.byte	0xb
 6644 0d2b A001     		.2byte	0x1a0
 6645 0d2d BD0B0000 		.4byte	0xbbd
 6646 0d31 00       		.byte	0
 6647 0d32 18       		.uleb128 0x18
 6648 0d33 DF110000 		.4byte	.LASF204
 6649 0d37 0B       		.byte	0xb
 6650 0d38 A401     		.2byte	0x1a4
 6651 0d3a 9A0C0000 		.4byte	0xc9a
 6652 0d3e 1C       		.byte	0x1c
ARM GAS  C:\cygwin64\tmp\ccxdpAIh.s 			page 120


 6653 0d3f 21       		.uleb128 0x21
 6654 0d40 64626700 		.ascii	"dbg\000"
 6655 0d44 0B       		.byte	0xb
 6656 0d45 A801     		.2byte	0x1a8
 6657 0d47 E70C0000 		.4byte	0xce7
 6658 0d4b 2C       		.byte	0x2c
 6659 0d4c 18       		.uleb128 0x18
 6660 0d4d D80F0000 		.4byte	.LASF205
 6661 0d51 0B       		.byte	0xb
 6662 0d52 AC01     		.2byte	0x1ac
 6663 0d54 620A0000 		.4byte	0xa62
 6664 0d58 30       		.byte	0x30
 6665 0d59 21       		.uleb128 0x21
 6666 0d5a 746D00   		.ascii	"tm\000"
 6667 0d5d 0B       		.byte	0xb
 6668 0d5e B101     		.2byte	0x1b1
 6669 0d60 1F0F0000 		.4byte	0xf1f
 6670 0d64 90       		.byte	0x90
 6671 0d65 18       		.uleb128 0x18
 6672 0d66 A70E0000 		.4byte	.LASF206
 6673 0d6a 0B       		.byte	0xb
 6674 0d6b B701     		.2byte	0x1b7
 6675 0d6d B10F0000 		.4byte	0xfb1
 6676 0d71 98       		.byte	0x98
 6677 0d72 00       		.byte	0
 6678 0d73 20       		.uleb128 0x20
 6679 0d74 340B0000 		.4byte	.LASF207
 6680 0d78 0C       		.byte	0xc
 6681 0d79 4407     		.2byte	0x744
 6682 0d7b 81090000 		.4byte	0x981
 6683 0d7f 22       		.uleb128 0x22
 6684 0d80 66090000 		.4byte	.LASF208
 6685 0d84 0D       		.byte	0xd
 6686 0d85 4C       		.byte	0x4c
 6687 0d86 86090000 		.4byte	0x986
 6688 0d8a 03       		.uleb128 0x3
 6689 0d8b 77030000 		.4byte	.LASF209
 6690 0d8f 0E       		.byte	0xe
 6691 0d90 65       		.byte	0x65
 6692 0d91 C1010000 		.4byte	0x1c1
 6693 0d95 03       		.uleb128 0x3
 6694 0d96 31070000 		.4byte	.LASF210
 6695 0d9a 0E       		.byte	0xe
 6696 0d9b 6D       		.byte	0x6d
 6697 0d9c 9C090000 		.4byte	0x99c
 6698 0da0 10       		.uleb128 0x10
 6699 0da1 3D120000 		.4byte	.LASF211
 6700 0da5 04       		.byte	0x4
 6701 0da6 0E       		.byte	0xe
 6702 0da7 89       		.byte	0x89
 6703 0da8 B80D0000 		.4byte	0xdb8
 6704 0dac 11       		.uleb128 0x11
 6705 0dad 737000   		.ascii	"sp\000"
 6706 0db0 0E       		.byte	0xe
 6707 0db1 8A       		.byte	0x8a
 6708 0db2 040F0000 		.4byte	0xf04
 6709 0db6 00       		.byte	0
ARM GAS  C:\cygwin64\tmp\ccxdpAIh.s 			page 121


 6710 0db7 00       		.byte	0
 6711 0db8 1B       		.uleb128 0x1b
 6712 0db9 FB0D0000 		.4byte	.LASF212
 6713 0dbd 64       		.byte	0x64
 6714 0dbe 0F       		.byte	0xf
 6715 0dbf 5901     		.2byte	0x159
 6716 0dc1 040F0000 		.4byte	0xf04
 6717 0dc5 21       		.uleb128 0x21
 6718 0dc6 73313600 		.ascii	"s16\000"
 6719 0dca 0F       		.byte	0xf
 6720 0dcb 5B01     		.2byte	0x15b
 6721 0dcd 8A0D0000 		.4byte	0xd8a
 6722 0dd1 00       		.byte	0
 6723 0dd2 21       		.uleb128 0x21
 6724 0dd3 73313700 		.ascii	"s17\000"
 6725 0dd7 0F       		.byte	0xf
 6726 0dd8 5C01     		.2byte	0x15c
 6727 0dda 8A0D0000 		.4byte	0xd8a
 6728 0dde 04       		.byte	0x4
 6729 0ddf 21       		.uleb128 0x21
 6730 0de0 73313800 		.ascii	"s18\000"
 6731 0de4 0F       		.byte	0xf
 6732 0de5 5D01     		.2byte	0x15d
 6733 0de7 8A0D0000 		.4byte	0xd8a
 6734 0deb 08       		.byte	0x8
 6735 0dec 21       		.uleb128 0x21
 6736 0ded 73313900 		.ascii	"s19\000"
 6737 0df1 0F       		.byte	0xf
 6738 0df2 5E01     		.2byte	0x15e
 6739 0df4 8A0D0000 		.4byte	0xd8a
 6740 0df8 0C       		.byte	0xc
 6741 0df9 21       		.uleb128 0x21
 6742 0dfa 73323000 		.ascii	"s20\000"
 6743 0dfe 0F       		.byte	0xf
 6744 0dff 5F01     		.2byte	0x15f
 6745 0e01 8A0D0000 		.4byte	0xd8a
 6746 0e05 10       		.byte	0x10
 6747 0e06 21       		.uleb128 0x21
 6748 0e07 73323100 		.ascii	"s21\000"
 6749 0e0b 0F       		.byte	0xf
 6750 0e0c 6001     		.2byte	0x160
 6751 0e0e 8A0D0000 		.4byte	0xd8a
 6752 0e12 14       		.byte	0x14
 6753 0e13 21       		.uleb128 0x21
 6754 0e14 73323200 		.ascii	"s22\000"
 6755 0e18 0F       		.byte	0xf
 6756 0e19 6101     		.2byte	0x161
 6757 0e1b 8A0D0000 		.4byte	0xd8a
 6758 0e1f 18       		.byte	0x18
 6759 0e20 21       		.uleb128 0x21
 6760 0e21 73323300 		.ascii	"s23\000"
 6761 0e25 0F       		.byte	0xf
 6762 0e26 6201     		.2byte	0x162
 6763 0e28 8A0D0000 		.4byte	0xd8a
 6764 0e2c 1C       		.byte	0x1c
 6765 0e2d 21       		.uleb128 0x21
 6766 0e2e 73323400 		.ascii	"s24\000"
ARM GAS  C:\cygwin64\tmp\ccxdpAIh.s 			page 122


 6767 0e32 0F       		.byte	0xf
 6768 0e33 6301     		.2byte	0x163
 6769 0e35 8A0D0000 		.4byte	0xd8a
 6770 0e39 20       		.byte	0x20
 6771 0e3a 21       		.uleb128 0x21
 6772 0e3b 73323500 		.ascii	"s25\000"
 6773 0e3f 0F       		.byte	0xf
 6774 0e40 6401     		.2byte	0x164
 6775 0e42 8A0D0000 		.4byte	0xd8a
 6776 0e46 24       		.byte	0x24
 6777 0e47 21       		.uleb128 0x21
 6778 0e48 73323600 		.ascii	"s26\000"
 6779 0e4c 0F       		.byte	0xf
 6780 0e4d 6501     		.2byte	0x165
 6781 0e4f 8A0D0000 		.4byte	0xd8a
 6782 0e53 28       		.byte	0x28
 6783 0e54 21       		.uleb128 0x21
 6784 0e55 73323700 		.ascii	"s27\000"
 6785 0e59 0F       		.byte	0xf
 6786 0e5a 6601     		.2byte	0x166
 6787 0e5c 8A0D0000 		.4byte	0xd8a
 6788 0e60 2C       		.byte	0x2c
 6789 0e61 21       		.uleb128 0x21
 6790 0e62 73323800 		.ascii	"s28\000"
 6791 0e66 0F       		.byte	0xf
 6792 0e67 6701     		.2byte	0x167
 6793 0e69 8A0D0000 		.4byte	0xd8a
 6794 0e6d 30       		.byte	0x30
 6795 0e6e 21       		.uleb128 0x21
 6796 0e6f 73323900 		.ascii	"s29\000"
 6797 0e73 0F       		.byte	0xf
 6798 0e74 6801     		.2byte	0x168
 6799 0e76 8A0D0000 		.4byte	0xd8a
 6800 0e7a 34       		.byte	0x34
 6801 0e7b 21       		.uleb128 0x21
 6802 0e7c 73333000 		.ascii	"s30\000"
 6803 0e80 0F       		.byte	0xf
 6804 0e81 6901     		.2byte	0x169
 6805 0e83 8A0D0000 		.4byte	0xd8a
 6806 0e87 38       		.byte	0x38
 6807 0e88 21       		.uleb128 0x21
 6808 0e89 73333100 		.ascii	"s31\000"
 6809 0e8d 0F       		.byte	0xf
 6810 0e8e 6A01     		.2byte	0x16a
 6811 0e90 8A0D0000 		.4byte	0xd8a
 6812 0e94 3C       		.byte	0x3c
 6813 0e95 21       		.uleb128 0x21
 6814 0e96 723400   		.ascii	"r4\000"
 6815 0e99 0F       		.byte	0xf
 6816 0e9a 6C01     		.2byte	0x16c
 6817 0e9c 8A0D0000 		.4byte	0xd8a
 6818 0ea0 40       		.byte	0x40
 6819 0ea1 21       		.uleb128 0x21
 6820 0ea2 723500   		.ascii	"r5\000"
 6821 0ea5 0F       		.byte	0xf
 6822 0ea6 6D01     		.2byte	0x16d
 6823 0ea8 8A0D0000 		.4byte	0xd8a
ARM GAS  C:\cygwin64\tmp\ccxdpAIh.s 			page 123


 6824 0eac 44       		.byte	0x44
 6825 0ead 21       		.uleb128 0x21
 6826 0eae 723600   		.ascii	"r6\000"
 6827 0eb1 0F       		.byte	0xf
 6828 0eb2 6E01     		.2byte	0x16e
 6829 0eb4 8A0D0000 		.4byte	0xd8a
 6830 0eb8 48       		.byte	0x48
 6831 0eb9 21       		.uleb128 0x21
 6832 0eba 723700   		.ascii	"r7\000"
 6833 0ebd 0F       		.byte	0xf
 6834 0ebe 6F01     		.2byte	0x16f
 6835 0ec0 8A0D0000 		.4byte	0xd8a
 6836 0ec4 4C       		.byte	0x4c
 6837 0ec5 21       		.uleb128 0x21
 6838 0ec6 723800   		.ascii	"r8\000"
 6839 0ec9 0F       		.byte	0xf
 6840 0eca 7001     		.2byte	0x170
 6841 0ecc 8A0D0000 		.4byte	0xd8a
 6842 0ed0 50       		.byte	0x50
 6843 0ed1 21       		.uleb128 0x21
 6844 0ed2 723900   		.ascii	"r9\000"
 6845 0ed5 0F       		.byte	0xf
 6846 0ed6 7101     		.2byte	0x171
 6847 0ed8 8A0D0000 		.4byte	0xd8a
 6848 0edc 54       		.byte	0x54
 6849 0edd 21       		.uleb128 0x21
 6850 0ede 72313000 		.ascii	"r10\000"
 6851 0ee2 0F       		.byte	0xf
 6852 0ee3 7201     		.2byte	0x172
 6853 0ee5 8A0D0000 		.4byte	0xd8a
 6854 0ee9 58       		.byte	0x58
 6855 0eea 21       		.uleb128 0x21
 6856 0eeb 72313100 		.ascii	"r11\000"
 6857 0eef 0F       		.byte	0xf
 6858 0ef0 7301     		.2byte	0x173
 6859 0ef2 8A0D0000 		.4byte	0xd8a
 6860 0ef6 5C       		.byte	0x5c
 6861 0ef7 21       		.uleb128 0x21
 6862 0ef8 6C7200   		.ascii	"lr\000"
 6863 0efb 0F       		.byte	0xf
 6864 0efc 7401     		.2byte	0x174
 6865 0efe 8A0D0000 		.4byte	0xd8a
 6866 0f02 60       		.byte	0x60
 6867 0f03 00       		.byte	0
 6868 0f04 06       		.uleb128 0x6
 6869 0f05 04       		.byte	0x4
 6870 0f06 B80D0000 		.4byte	0xdb8
 6871 0f0a 0D       		.uleb128 0xd
 6872 0f0b 04       		.byte	0x4
 6873 0f0c 10       		.byte	0x10
 6874 0f0d 38       		.byte	0x38
 6875 0f0e 1F0F0000 		.4byte	0xf1f
 6876 0f12 0E       		.uleb128 0xe
 6877 0f13 E80C0000 		.4byte	.LASF213
 6878 0f17 10       		.byte	0x10
 6879 0f18 3C       		.byte	0x3c
 6880 0f19 E9090000 		.4byte	0x9e9
ARM GAS  C:\cygwin64\tmp\ccxdpAIh.s 			page 124


 6881 0f1d 00       		.byte	0
 6882 0f1e 00       		.byte	0
 6883 0f1f 03       		.uleb128 0x3
 6884 0f20 CE100000 		.4byte	.LASF214
 6885 0f24 10       		.byte	0x10
 6886 0f25 3D       		.byte	0x3d
 6887 0f26 0A0F0000 		.4byte	0xf0a
 6888 0f2a 0D       		.uleb128 0xd
 6889 0f2b 18       		.byte	0x18
 6890 0f2c 10       		.byte	0x10
 6891 0f2d 48       		.byte	0x48
 6892 0f2e 6D0F0000 		.4byte	0xf6d
 6893 0f32 0E       		.uleb128 0xe
 6894 0f33 20100000 		.4byte	.LASF215
 6895 0f37 10       		.byte	0x10
 6896 0f38 49       		.byte	0x49
 6897 0f39 E9090000 		.4byte	0x9e9
 6898 0f3d 00       		.byte	0
 6899 0f3e 0E       		.uleb128 0xe
 6900 0f3f A8070000 		.4byte	.LASF216
 6901 0f43 10       		.byte	0x10
 6902 0f44 4A       		.byte	0x4a
 6903 0f45 E9090000 		.4byte	0x9e9
 6904 0f49 04       		.byte	0x4
 6905 0f4a 0E       		.uleb128 0xe
 6906 0f4b 5A140000 		.4byte	.LASF217
 6907 0f4f 10       		.byte	0x10
 6908 0f50 4B       		.byte	0x4b
 6909 0f51 E9090000 		.4byte	0x9e9
 6910 0f55 08       		.byte	0x8
 6911 0f56 11       		.uleb128 0x11
 6912 0f57 6E00     		.ascii	"n\000"
 6913 0f59 10       		.byte	0x10
 6914 0f5a 4C       		.byte	0x4c
 6915 0f5b 4C0A0000 		.4byte	0xa4c
 6916 0f5f 0C       		.byte	0xc
 6917 0f60 0E       		.uleb128 0xe
 6918 0f61 A6080000 		.4byte	.LASF218
 6919 0f65 10       		.byte	0x10
 6920 0f66 4D       		.byte	0x4d
 6921 0f67 F4090000 		.4byte	0x9f4
 6922 0f6b 10       		.byte	0x10
 6923 0f6c 00       		.byte	0
 6924 0f6d 03       		.uleb128 0x3
 6925 0f6e ED010000 		.4byte	.LASF219
 6926 0f72 10       		.byte	0x10
 6927 0f73 4E       		.byte	0x4e
 6928 0f74 2A0F0000 		.4byte	0xf2a
 6929 0f78 0D       		.uleb128 0xd
 6930 0f79 38       		.byte	0x38
 6931 0f7a 11       		.byte	0x11
 6932 0f7b 38       		.byte	0x38
 6933 0f7c B10F0000 		.4byte	0xfb1
 6934 0f80 0E       		.uleb128 0xe
 6935 0f81 480A0000 		.4byte	.LASF220
 6936 0f85 11       		.byte	0x11
 6937 0f86 39       		.byte	0x39
ARM GAS  C:\cygwin64\tmp\ccxdpAIh.s 			page 125


 6938 0f87 4C0A0000 		.4byte	0xa4c
 6939 0f8b 00       		.byte	0
 6940 0f8c 0E       		.uleb128 0xe
 6941 0f8d CA050000 		.4byte	.LASF221
 6942 0f91 11       		.byte	0x11
 6943 0f92 3A       		.byte	0x3a
 6944 0f93 4C0A0000 		.4byte	0xa4c
 6945 0f97 04       		.byte	0x4
 6946 0f98 0E       		.uleb128 0xe
 6947 0f99 E4080000 		.4byte	.LASF222
 6948 0f9d 11       		.byte	0x11
 6949 0f9e 3B       		.byte	0x3b
 6950 0f9f 6D0F0000 		.4byte	0xf6d
 6951 0fa3 08       		.byte	0x8
 6952 0fa4 0E       		.uleb128 0xe
 6953 0fa5 B30B0000 		.4byte	.LASF223
 6954 0fa9 11       		.byte	0x11
 6955 0faa 3D       		.byte	0x3d
 6956 0fab 6D0F0000 		.4byte	0xf6d
 6957 0faf 20       		.byte	0x20
 6958 0fb0 00       		.byte	0
 6959 0fb1 03       		.uleb128 0x3
 6960 0fb2 610C0000 		.4byte	.LASF224
 6961 0fb6 11       		.byte	0x11
 6962 0fb7 3F       		.byte	0x3f
 6963 0fb8 780F0000 		.4byte	0xf78
 6964 0fbc 09       		.uleb128 0x9
 6965 0fbd 04       		.byte	0x4
 6966 0fbe 0B       		.byte	0xb
 6967 0fbf D2       		.byte	0xd2
 6968 0fc0 1F100000 		.4byte	0x101f
 6969 0fc4 0A       		.uleb128 0xa
 6970 0fc5 FF120000 		.4byte	.LASF225
 6971 0fc9 0B       		.byte	0xb
 6972 0fca D9       		.byte	0xd9
 6973 0fcb 2B0A0000 		.4byte	0xa2b
 6974 0fcf 0A       		.uleb128 0xa
 6975 0fd0 72020000 		.4byte	.LASF226
 6976 0fd4 0B       		.byte	0xb
 6977 0fd5 E0       		.byte	0xe0
 6978 0fd6 2B0A0000 		.4byte	0xa2b
 6979 0fda 0A       		.uleb128 0xa
 6980 0fdb AE050000 		.4byte	.LASF227
 6981 0fdf 0B       		.byte	0xb
 6982 0fe0 E7       		.byte	0xe7
 6983 0fe1 C1010000 		.4byte	0x1c1
 6984 0fe5 0A       		.uleb128 0xa
 6985 0fe6 36040000 		.4byte	.LASF228
 6986 0fea 0B       		.byte	0xb
 6987 0feb EE       		.byte	0xee
 6988 0fec 1F100000 		.4byte	0x101f
 6989 0ff0 0A       		.uleb128 0xa
 6990 0ff1 F30D0000 		.4byte	.LASF229
 6991 0ff5 0B       		.byte	0xb
 6992 0ff6 F3       		.byte	0xf3
 6993 0ff7 2B0A0000 		.4byte	0xa2b
 6994 0ffb 0A       		.uleb128 0xa
ARM GAS  C:\cygwin64\tmp\ccxdpAIh.s 			page 126


 6995 0ffc 53140000 		.4byte	.LASF230
 6996 1000 0B       		.byte	0xb
 6997 1001 FC       		.byte	0xfc
 6998 1002 4A100000 		.4byte	0x104a
 6999 1006 1E       		.uleb128 0x1e
 7000 1007 0B080000 		.4byte	.LASF231
 7001 100b 0B       		.byte	0xb
 7002 100c 0501     		.2byte	0x105
 7003 100e 81100000 		.4byte	0x1081
 7004 1012 1E       		.uleb128 0x1e
 7005 1013 EA030000 		.4byte	.LASF232
 7006 1017 0B       		.byte	0xb
 7007 1018 0D01     		.2byte	0x10d
 7008 101a 360A0000 		.4byte	0xa36
 7009 101e 00       		.byte	0
 7010 101f 06       		.uleb128 0x6
 7011 1020 04       		.byte	0x4
 7012 1021 580B0000 		.4byte	0xb58
 7013 1025 10       		.uleb128 0x10
 7014 1026 76090000 		.4byte	.LASF233
 7015 102a 0C       		.byte	0xc
 7016 102b 12       		.byte	0x12
 7017 102c 34       		.byte	0x34
 7018 102d 4A100000 		.4byte	0x104a
 7019 1031 0E       		.uleb128 0xe
 7020 1032 8E0F0000 		.4byte	.LASF164
 7021 1036 12       		.byte	0x12
 7022 1037 35       		.byte	0x35
 7023 1038 8D0B0000 		.4byte	0xb8d
 7024 103c 00       		.byte	0
 7025 103d 11       		.uleb128 0x11
 7026 103e 636E7400 		.ascii	"cnt\000"
 7027 1042 12       		.byte	0x12
 7028 1043 37       		.byte	0x37
 7029 1044 410A0000 		.4byte	0xa41
 7030 1048 08       		.byte	0x8
 7031 1049 00       		.byte	0
 7032 104a 06       		.uleb128 0x6
 7033 104b 04       		.byte	0x4
 7034 104c 25100000 		.4byte	0x1025
 7035 1050 10       		.uleb128 0x10
 7036 1051 48110000 		.4byte	.LASF234
 7037 1055 10       		.byte	0x10
 7038 1056 13       		.byte	0x13
 7039 1057 39       		.byte	0x39
 7040 1058 81100000 		.4byte	0x1081
 7041 105c 0E       		.uleb128 0xe
 7042 105d 8E0F0000 		.4byte	.LASF164
 7043 1061 13       		.byte	0x13
 7044 1062 3A       		.byte	0x3a
 7045 1063 8D0B0000 		.4byte	0xb8d
 7046 1067 00       		.byte	0
 7047 1068 0E       		.uleb128 0xe
 7048 1069 75000000 		.4byte	.LASF235
 7049 106d 13       		.byte	0x13
 7050 106e 3C       		.byte	0x3c
 7051 106f 630B0000 		.4byte	0xb63
ARM GAS  C:\cygwin64\tmp\ccxdpAIh.s 			page 127


 7052 1073 08       		.byte	0x8
 7053 1074 0E       		.uleb128 0xe
 7054 1075 06140000 		.4byte	.LASF183
 7055 1079 13       		.byte	0x13
 7056 107a 3E       		.byte	0x3e
 7057 107b D7110000 		.4byte	0x11d7
 7058 107f 0C       		.byte	0xc
 7059 1080 00       		.byte	0
 7060 1081 06       		.uleb128 0x6
 7061 1082 04       		.byte	0x4
 7062 1083 50100000 		.4byte	0x1050
 7063 1087 06       		.uleb128 0x6
 7064 1088 04       		.byte	0x4
 7065 1089 950D0000 		.4byte	0xd95
 7066 108d 06       		.uleb128 0x6
 7067 108e 04       		.byte	0x4
 7068 108f 400C0000 		.4byte	0xc40
 7069 1093 23       		.uleb128 0x23
 7070 1094 636800   		.ascii	"ch\000"
 7071 1097 0B       		.byte	0xb
 7072 1098 D201     		.2byte	0x1d2
 7073 109a 0D0D0000 		.4byte	0xd0d
 7074 109e 0B       		.uleb128 0xb
 7075 109f 950D0000 		.4byte	0xd95
 7076 10a3 A9100000 		.4byte	0x10a9
 7077 10a7 24       		.uleb128 0x24
 7078 10a8 00       		.byte	0
 7079 10a9 20       		.uleb128 0x20
 7080 10aa AD090000 		.4byte	.LASF236
 7081 10ae 14       		.byte	0x14
 7082 10af 2B01     		.2byte	0x12b
 7083 10b1 9E100000 		.4byte	0x109e
 7084 10b5 0D       		.uleb128 0xd
 7085 10b6 16       		.byte	0x16
 7086 10b7 15       		.byte	0x15
 7087 10b8 34       		.byte	0x34
 7088 10b9 96110000 		.4byte	0x1196
 7089 10bd 0E       		.uleb128 0xe
 7090 10be 26140000 		.4byte	.LASF237
 7091 10c2 15       		.byte	0x15
 7092 10c3 35       		.byte	0x35
 7093 10c4 96110000 		.4byte	0x1196
 7094 10c8 00       		.byte	0
 7095 10c9 0E       		.uleb128 0xe
 7096 10ca 13030000 		.4byte	.LASF238
 7097 10ce 15       		.byte	0x15
 7098 10cf 36       		.byte	0x36
 7099 10d0 55090000 		.4byte	0x955
 7100 10d4 04       		.byte	0x4
 7101 10d5 0E       		.uleb128 0xe
 7102 10d6 BD0E0000 		.4byte	.LASF239
 7103 10da 15       		.byte	0x15
 7104 10db 37       		.byte	0x37
 7105 10dc 55090000 		.4byte	0x955
 7106 10e0 05       		.byte	0x5
 7107 10e1 0E       		.uleb128 0xe
 7108 10e2 F60F0000 		.4byte	.LASF240
ARM GAS  C:\cygwin64\tmp\ccxdpAIh.s 			page 128


 7109 10e6 15       		.byte	0x15
 7110 10e7 38       		.byte	0x38
 7111 10e8 6B090000 		.4byte	0x96b
 7112 10ec 06       		.byte	0x6
 7113 10ed 0E       		.uleb128 0xe
 7114 10ee B6070000 		.4byte	.LASF241
 7115 10f2 15       		.byte	0x15
 7116 10f3 39       		.byte	0x39
 7117 10f4 55090000 		.4byte	0x955
 7118 10f8 08       		.byte	0x8
 7119 10f9 0E       		.uleb128 0xe
 7120 10fa 89130000 		.4byte	.LASF242
 7121 10fe 15       		.byte	0x15
 7122 10ff 3A       		.byte	0x3a
 7123 1100 55090000 		.4byte	0x955
 7124 1104 09       		.byte	0x9
 7125 1105 0E       		.uleb128 0xe
 7126 1106 21090000 		.4byte	.LASF243
 7127 110a 15       		.byte	0x15
 7128 110b 3B       		.byte	0x3b
 7129 110c 55090000 		.4byte	0x955
 7130 1110 0A       		.byte	0xa
 7131 1111 0E       		.uleb128 0xe
 7132 1112 29000000 		.4byte	.LASF244
 7133 1116 15       		.byte	0x15
 7134 1117 3C       		.byte	0x3c
 7135 1118 55090000 		.4byte	0x955
 7136 111c 0B       		.byte	0xb
 7137 111d 0E       		.uleb128 0xe
 7138 111e 00000000 		.4byte	.LASF245
 7139 1122 15       		.byte	0x15
 7140 1123 3D       		.byte	0x3d
 7141 1124 55090000 		.4byte	0x955
 7142 1128 0C       		.byte	0xc
 7143 1129 0E       		.uleb128 0xe
 7144 112a A90B0000 		.4byte	.LASF246
 7145 112e 15       		.byte	0x15
 7146 112f 3E       		.byte	0x3e
 7147 1130 55090000 		.4byte	0x955
 7148 1134 0D       		.byte	0xd
 7149 1135 0E       		.uleb128 0xe
 7150 1136 0F020000 		.4byte	.LASF247
 7151 113a 15       		.byte	0x15
 7152 113b 3F       		.byte	0x3f
 7153 113c 55090000 		.4byte	0x955
 7154 1140 0E       		.byte	0xe
 7155 1141 0E       		.uleb128 0xe
 7156 1142 FF0E0000 		.4byte	.LASF248
 7157 1146 15       		.byte	0x15
 7158 1147 40       		.byte	0x40
 7159 1148 55090000 		.4byte	0x955
 7160 114c 0F       		.byte	0xf
 7161 114d 0E       		.uleb128 0xe
 7162 114e 130A0000 		.4byte	.LASF249
 7163 1152 15       		.byte	0x15
 7164 1153 41       		.byte	0x41
 7165 1154 55090000 		.4byte	0x955
ARM GAS  C:\cygwin64\tmp\ccxdpAIh.s 			page 129


 7166 1158 10       		.byte	0x10
 7167 1159 0E       		.uleb128 0xe
 7168 115a 00090000 		.4byte	.LASF250
 7169 115e 15       		.byte	0x15
 7170 115f 42       		.byte	0x42
 7171 1160 55090000 		.4byte	0x955
 7172 1164 11       		.byte	0x11
 7173 1165 0E       		.uleb128 0xe
 7174 1166 C2130000 		.4byte	.LASF251
 7175 116a 15       		.byte	0x15
 7176 116b 43       		.byte	0x43
 7177 116c 55090000 		.4byte	0x955
 7178 1170 12       		.byte	0x12
 7179 1171 0E       		.uleb128 0xe
 7180 1172 DB120000 		.4byte	.LASF252
 7181 1176 15       		.byte	0x15
 7182 1177 44       		.byte	0x44
 7183 1178 55090000 		.4byte	0x955
 7184 117c 13       		.byte	0x13
 7185 117d 0E       		.uleb128 0xe
 7186 117e 5F000000 		.4byte	.LASF253
 7187 1182 15       		.byte	0x15
 7188 1183 45       		.byte	0x45
 7189 1184 55090000 		.4byte	0x955
 7190 1188 14       		.byte	0x14
 7191 1189 0E       		.uleb128 0xe
 7192 118a D2070000 		.4byte	.LASF254
 7193 118e 15       		.byte	0x15
 7194 118f 46       		.byte	0x46
 7195 1190 55090000 		.4byte	0x955
 7196 1194 15       		.byte	0x15
 7197 1195 00       		.byte	0
 7198 1196 0B       		.uleb128 0xb
 7199 1197 D4010000 		.4byte	0x1d4
 7200 119b A6110000 		.4byte	0x11a6
 7201 119f 0C       		.uleb128 0xc
 7202 11a0 83010000 		.4byte	0x183
 7203 11a4 03       		.byte	0x3
 7204 11a5 00       		.byte	0
 7205 11a6 03       		.uleb128 0x3
 7206 11a7 51130000 		.4byte	.LASF255
 7207 11ab 15       		.byte	0x15
 7208 11ac 47       		.byte	0x47
 7209 11ad B5100000 		.4byte	0x10b5
 7210 11b1 05       		.uleb128 0x5
 7211 11b2 A6110000 		.4byte	0x11a6
 7212 11b6 22       		.uleb128 0x22
 7213 11b7 A1000000 		.4byte	.LASF256
 7214 11bb 15       		.byte	0x15
 7215 11bc 6C       		.byte	0x6c
 7216 11bd B1110000 		.4byte	0x11b1
 7217 11c1 03       		.uleb128 0x3
 7218 11c2 11140000 		.4byte	.LASF257
 7219 11c6 12       		.byte	0x12
 7220 11c7 38       		.byte	0x38
 7221 11c8 25100000 		.4byte	0x1025
 7222 11cc 03       		.uleb128 0x3
ARM GAS  C:\cygwin64\tmp\ccxdpAIh.s 			page 130


 7223 11cd 19120000 		.4byte	.LASF258
 7224 11d1 13       		.byte	0x13
 7225 11d2 34       		.byte	0x34
 7226 11d3 50100000 		.4byte	0x1050
 7227 11d7 06       		.uleb128 0x6
 7228 11d8 04       		.byte	0x4
 7229 11d9 CC110000 		.4byte	0x11cc
 7230 11dd 04       		.uleb128 0x4
 7231 11de 01       		.byte	0x1
 7232 11df 02       		.byte	0x2
 7233 11e0 2B050000 		.4byte	.LASF259
 7234 11e4 03       		.uleb128 0x3
 7235 11e5 AC010000 		.4byte	.LASF260
 7236 11e9 16       		.byte	0x16
 7237 11ea 45       		.byte	0x45
 7238 11eb D4010000 		.4byte	0x1d4
 7239 11ef 03       		.uleb128 0x3
 7240 11f0 F3050000 		.4byte	.LASF261
 7241 11f4 16       		.byte	0x16
 7242 11f5 53       		.byte	0x53
 7243 11f6 DE090000 		.4byte	0x9de
 7244 11fa 25       		.uleb128 0x25
 7245 11fb 4C02     		.2byte	0x24c
 7246 11fd 16       		.byte	0x16
 7247 11fe 5C       		.byte	0x5c
 7248 11ff 2F130000 		.4byte	0x132f
 7249 1203 0E       		.uleb128 0xe
 7250 1204 A4040000 		.4byte	.LASF262
 7251 1208 16       		.byte	0x16
 7252 1209 5D       		.byte	0x5d
 7253 120a B2090000 		.4byte	0x9b2
 7254 120e 00       		.byte	0
 7255 120f 11       		.uleb128 0x11
 7256 1210 64727600 		.ascii	"drv\000"
 7257 1214 16       		.byte	0x16
 7258 1215 5E       		.byte	0x5e
 7259 1216 B2090000 		.4byte	0x9b2
 7260 121a 01       		.byte	0x1
 7261 121b 0E       		.uleb128 0xe
 7262 121c 200D0000 		.4byte	.LASF263
 7263 1220 16       		.byte	0x16
 7264 1221 5F       		.byte	0x5f
 7265 1222 B2090000 		.4byte	0x9b2
 7266 1226 02       		.byte	0x2
 7267 1227 0E       		.uleb128 0xe
 7268 1228 00140000 		.4byte	.LASF264
 7269 122c 16       		.byte	0x16
 7270 122d 60       		.byte	0x60
 7271 122e B2090000 		.4byte	0x9b2
 7272 1232 03       		.byte	0x3
 7273 1233 0E       		.uleb128 0xe
 7274 1234 2E0C0000 		.4byte	.LASF265
 7275 1238 16       		.byte	0x16
 7276 1239 61       		.byte	0x61
 7277 123a B2090000 		.4byte	0x9b2
 7278 123e 04       		.byte	0x4
 7279 123f 11       		.uleb128 0x11
ARM GAS  C:\cygwin64\tmp\ccxdpAIh.s 			page 131


 7280 1240 696400   		.ascii	"id\000"
 7281 1243 16       		.byte	0x16
 7282 1244 62       		.byte	0x62
 7283 1245 BD090000 		.4byte	0x9bd
 7284 1249 06       		.byte	0x6
 7285 124a 0E       		.uleb128 0xe
 7286 124b 7E0E0000 		.4byte	.LASF266
 7287 124f 16       		.byte	0x16
 7288 1250 63       		.byte	0x63
 7289 1251 BD090000 		.4byte	0x9bd
 7290 1255 08       		.byte	0x8
 7291 1256 0E       		.uleb128 0xe
 7292 1257 D30D0000 		.4byte	.LASF267
 7293 125b 16       		.byte	0x16
 7294 125c 64       		.byte	0x64
 7295 125d BD090000 		.4byte	0x9bd
 7296 1261 0A       		.byte	0xa
 7297 1262 0E       		.uleb128 0xe
 7298 1263 FE0B0000 		.4byte	.LASF268
 7299 1267 16       		.byte	0x16
 7300 1268 69       		.byte	0x69
 7301 1269 2F130000 		.4byte	0x132f
 7302 126d 0C       		.byte	0xc
 7303 126e 0E       		.uleb128 0xe
 7304 126f 9F010000 		.4byte	.LASF269
 7305 1273 16       		.byte	0x16
 7306 1274 6C       		.byte	0x6c
 7307 1275 35130000 		.4byte	0x1335
 7308 1279 10       		.byte	0x10
 7309 127a 0E       		.uleb128 0xe
 7310 127b 29020000 		.4byte	.LASF270
 7311 127f 16       		.byte	0x16
 7312 1280 6F       		.byte	0x6f
 7313 1281 3B130000 		.4byte	0x133b
 7314 1285 14       		.byte	0x14
 7315 1286 0E       		.uleb128 0xe
 7316 1287 3C020000 		.4byte	.LASF271
 7317 128b 16       		.byte	0x16
 7318 128c 72       		.byte	0x72
 7319 128d D3090000 		.4byte	0x9d3
 7320 1291 18       		.byte	0x18
 7321 1292 0E       		.uleb128 0xe
 7322 1293 4D080000 		.4byte	.LASF272
 7323 1297 16       		.byte	0x16
 7324 1298 73       		.byte	0x73
 7325 1299 D3090000 		.4byte	0x9d3
 7326 129d 1C       		.byte	0x1c
 7327 129e 0E       		.uleb128 0xe
 7328 129f 710F0000 		.4byte	.LASF273
 7329 12a3 16       		.byte	0x16
 7330 12a4 76       		.byte	0x76
 7331 12a5 D3090000 		.4byte	0x9d3
 7332 12a9 20       		.byte	0x20
 7333 12aa 0E       		.uleb128 0xe
 7334 12ab B1080000 		.4byte	.LASF274
 7335 12af 16       		.byte	0x16
 7336 12b0 78       		.byte	0x78
ARM GAS  C:\cygwin64\tmp\ccxdpAIh.s 			page 132


 7337 12b1 D3090000 		.4byte	0x9d3
 7338 12b5 24       		.byte	0x24
 7339 12b6 0E       		.uleb128 0xe
 7340 12b7 B9000000 		.4byte	.LASF275
 7341 12bb 16       		.byte	0x16
 7342 12bc 79       		.byte	0x79
 7343 12bd D3090000 		.4byte	0x9d3
 7344 12c1 28       		.byte	0x28
 7345 12c2 0E       		.uleb128 0xe
 7346 12c3 86050000 		.4byte	.LASF276
 7347 12c7 16       		.byte	0x16
 7348 12c8 7A       		.byte	0x7a
 7349 12c9 D3090000 		.4byte	0x9d3
 7350 12cd 2C       		.byte	0x2c
 7351 12ce 0E       		.uleb128 0xe
 7352 12cf 8E050000 		.4byte	.LASF277
 7353 12d3 16       		.byte	0x16
 7354 12d4 7D       		.byte	0x7d
 7355 12d5 D3090000 		.4byte	0x9d3
 7356 12d9 30       		.byte	0x30
 7357 12da 0E       		.uleb128 0xe
 7358 12db 86010000 		.4byte	.LASF278
 7359 12df 16       		.byte	0x16
 7360 12e0 7E       		.byte	0x7e
 7361 12e1 D3090000 		.4byte	0x9d3
 7362 12e5 34       		.byte	0x34
 7363 12e6 0E       		.uleb128 0xe
 7364 12e7 940F0000 		.4byte	.LASF279
 7365 12eb 16       		.byte	0x16
 7366 12ec 7F       		.byte	0x7f
 7367 12ed D3090000 		.4byte	0x9d3
 7368 12f1 38       		.byte	0x38
 7369 12f2 0E       		.uleb128 0xe
 7370 12f3 E9090000 		.4byte	.LASF280
 7371 12f7 16       		.byte	0x16
 7372 12f8 80       		.byte	0x80
 7373 12f9 D3090000 		.4byte	0x9d3
 7374 12fd 3C       		.byte	0x3c
 7375 12fe 0E       		.uleb128 0xe
 7376 12ff 79040000 		.4byte	.LASF281
 7377 1303 16       		.byte	0x16
 7378 1304 81       		.byte	0x81
 7379 1305 D3090000 		.4byte	0x9d3
 7380 1309 40       		.byte	0x40
 7381 130a 0E       		.uleb128 0xe
 7382 130b B40E0000 		.4byte	.LASF282
 7383 130f 16       		.byte	0x16
 7384 1310 82       		.byte	0x82
 7385 1311 D3090000 		.4byte	0x9d3
 7386 1315 44       		.byte	0x44
 7387 1316 0E       		.uleb128 0xe
 7388 1317 08000000 		.4byte	.LASF283
 7389 131b 16       		.byte	0x16
 7390 131c 83       		.byte	0x83
 7391 131d D3090000 		.4byte	0x9d3
 7392 1321 48       		.byte	0x48
 7393 1322 11       		.uleb128 0x11
ARM GAS  C:\cygwin64\tmp\ccxdpAIh.s 			page 133


 7394 1323 77696E00 		.ascii	"win\000"
 7395 1327 16       		.byte	0x16
 7396 1328 84       		.byte	0x84
 7397 1329 41130000 		.4byte	0x1341
 7398 132d 4C       		.byte	0x4c
 7399 132e 00       		.byte	0
 7400 132f 06       		.uleb128 0x6
 7401 1330 04       		.byte	0x4
 7402 1331 C8090000 		.4byte	0x9c8
 7403 1335 06       		.uleb128 0x6
 7404 1336 04       		.byte	0x4
 7405 1337 B2090000 		.4byte	0x9b2
 7406 133b 06       		.uleb128 0x6
 7407 133c 04       		.byte	0x4
 7408 133d C1110000 		.4byte	0x11c1
 7409 1341 0B       		.uleb128 0xb
 7410 1342 B2090000 		.4byte	0x9b2
 7411 1346 52130000 		.4byte	0x1352
 7412 134a 26       		.uleb128 0x26
 7413 134b 83010000 		.4byte	0x183
 7414 134f FF01     		.2byte	0x1ff
 7415 1351 00       		.byte	0
 7416 1352 03       		.uleb128 0x3
 7417 1353 3D110000 		.4byte	.LASF284
 7418 1357 16       		.byte	0x16
 7419 1358 85       		.byte	0x85
 7420 1359 FA110000 		.4byte	0x11fa
 7421 135d 0D       		.uleb128 0xd
 7422 135e 28       		.byte	0x28
 7423 135f 16       		.byte	0x16
 7424 1360 8B       		.byte	0x8b
 7425 1361 DC130000 		.4byte	0x13dc
 7426 1365 11       		.uleb128 0x11
 7427 1366 667300   		.ascii	"fs\000"
 7428 1369 16       		.byte	0x16
 7429 136a 8C       		.byte	0x8c
 7430 136b DC130000 		.4byte	0x13dc
 7431 136f 00       		.byte	0
 7432 1370 11       		.uleb128 0x11
 7433 1371 696400   		.ascii	"id\000"
 7434 1374 16       		.byte	0x16
 7435 1375 8D       		.byte	0x8d
 7436 1376 BD090000 		.4byte	0x9bd
 7437 137a 04       		.byte	0x4
 7438 137b 0E       		.uleb128 0xe
 7439 137c A8090000 		.4byte	.LASF285
 7440 1380 16       		.byte	0x16
 7441 1381 8E       		.byte	0x8e
 7442 1382 B2090000 		.4byte	0x9b2
 7443 1386 06       		.byte	0x6
 7444 1387 0E       		.uleb128 0xe
 7445 1388 680A0000 		.4byte	.LASF286
 7446 138c 16       		.byte	0x16
 7447 138d 8F       		.byte	0x8f
 7448 138e B2090000 		.4byte	0x9b2
 7449 1392 07       		.byte	0x7
 7450 1393 0E       		.uleb128 0xe
ARM GAS  C:\cygwin64\tmp\ccxdpAIh.s 			page 134


 7451 1394 25100000 		.4byte	.LASF287
 7452 1398 16       		.byte	0x16
 7453 1399 90       		.byte	0x90
 7454 139a D3090000 		.4byte	0x9d3
 7455 139e 08       		.byte	0x8
 7456 139f 0E       		.uleb128 0xe
 7457 13a0 1F110000 		.4byte	.LASF288
 7458 13a4 16       		.byte	0x16
 7459 13a5 91       		.byte	0x91
 7460 13a6 EF110000 		.4byte	0x11ef
 7461 13aa 10       		.byte	0x10
 7462 13ab 0E       		.uleb128 0xe
 7463 13ac 810F0000 		.4byte	.LASF289
 7464 13b0 16       		.byte	0x16
 7465 13b1 93       		.byte	0x93
 7466 13b2 D3090000 		.4byte	0x9d3
 7467 13b6 18       		.byte	0x18
 7468 13b7 0E       		.uleb128 0xe
 7469 13b8 E10E0000 		.4byte	.LASF290
 7470 13bc 16       		.byte	0x16
 7471 13bd 94       		.byte	0x94
 7472 13be D3090000 		.4byte	0x9d3
 7473 13c2 1C       		.byte	0x1c
 7474 13c3 0E       		.uleb128 0xe
 7475 13c4 08020000 		.4byte	.LASF291
 7476 13c8 16       		.byte	0x16
 7477 13c9 95       		.byte	0x95
 7478 13ca D3090000 		.4byte	0x9d3
 7479 13ce 20       		.byte	0x20
 7480 13cf 0E       		.uleb128 0xe
 7481 13d0 4D140000 		.4byte	.LASF292
 7482 13d4 16       		.byte	0x16
 7483 13d5 96       		.byte	0x96
 7484 13d6 D3090000 		.4byte	0x9d3
 7485 13da 24       		.byte	0x24
 7486 13db 00       		.byte	0
 7487 13dc 06       		.uleb128 0x6
 7488 13dd 04       		.byte	0x4
 7489 13de 52130000 		.4byte	0x1352
 7490 13e2 03       		.uleb128 0x3
 7491 13e3 CC070000 		.4byte	.LASF293
 7492 13e7 16       		.byte	0x16
 7493 13e8 9B       		.byte	0x9b
 7494 13e9 5D130000 		.4byte	0x135d
 7495 13ed 25       		.uleb128 0x25
 7496 13ee 4802     		.2byte	0x248
 7497 13f0 16       		.byte	0x16
 7498 13f1 A1       		.byte	0xa1
 7499 13f2 63140000 		.4byte	0x1463
 7500 13f6 11       		.uleb128 0x11
 7501 13f7 6F626A00 		.ascii	"obj\000"
 7502 13fb 16       		.byte	0x16
 7503 13fc A2       		.byte	0xa2
 7504 13fd E2130000 		.4byte	0x13e2
 7505 1401 00       		.byte	0
 7506 1402 0E       		.uleb128 0xe
 7507 1403 520C0000 		.4byte	.LASF294
ARM GAS  C:\cygwin64\tmp\ccxdpAIh.s 			page 135


 7508 1407 16       		.byte	0x16
 7509 1408 A3       		.byte	0xa3
 7510 1409 B2090000 		.4byte	0x9b2
 7511 140d 28       		.byte	0x28
 7512 140e 11       		.uleb128 0x11
 7513 140f 65727200 		.ascii	"err\000"
 7514 1413 16       		.byte	0x16
 7515 1414 A4       		.byte	0xa4
 7516 1415 B2090000 		.4byte	0x9b2
 7517 1419 29       		.byte	0x29
 7518 141a 0E       		.uleb128 0xe
 7519 141b 70000000 		.4byte	.LASF295
 7520 141f 16       		.byte	0x16
 7521 1420 A5       		.byte	0xa5
 7522 1421 EF110000 		.4byte	0x11ef
 7523 1425 30       		.byte	0x30
 7524 1426 0E       		.uleb128 0xe
 7525 1427 CB030000 		.4byte	.LASF296
 7526 142b 16       		.byte	0x16
 7527 142c A6       		.byte	0xa6
 7528 142d D3090000 		.4byte	0x9d3
 7529 1431 38       		.byte	0x38
 7530 1432 0E       		.uleb128 0xe
 7531 1433 C3020000 		.4byte	.LASF297
 7532 1437 16       		.byte	0x16
 7533 1438 A7       		.byte	0xa7
 7534 1439 D3090000 		.4byte	0x9d3
 7535 143d 3C       		.byte	0x3c
 7536 143e 0E       		.uleb128 0xe
 7537 143f 2D040000 		.4byte	.LASF298
 7538 1443 16       		.byte	0x16
 7539 1444 A9       		.byte	0xa9
 7540 1445 D3090000 		.4byte	0x9d3
 7541 1449 40       		.byte	0x40
 7542 144a 0E       		.uleb128 0xe
 7543 144b A7100000 		.4byte	.LASF299
 7544 144f 16       		.byte	0x16
 7545 1450 AA       		.byte	0xaa
 7546 1451 35130000 		.4byte	0x1335
 7547 1455 44       		.byte	0x44
 7548 1456 11       		.uleb128 0x11
 7549 1457 62756600 		.ascii	"buf\000"
 7550 145b 16       		.byte	0x16
 7551 145c B0       		.byte	0xb0
 7552 145d 41130000 		.4byte	0x1341
 7553 1461 48       		.byte	0x48
 7554 1462 00       		.byte	0
 7555 1463 27       		.uleb128 0x27
 7556 1464 46494C00 		.ascii	"FIL\000"
 7557 1468 16       		.byte	0x16
 7558 1469 B2       		.byte	0xb2
 7559 146a ED130000 		.4byte	0x13ed
 7560 146e 0D       		.uleb128 0xd
 7561 146f 48       		.byte	0x48
 7562 1470 16       		.byte	0x16
 7563 1471 B8       		.byte	0xb8
 7564 1472 CA140000 		.4byte	0x14ca
ARM GAS  C:\cygwin64\tmp\ccxdpAIh.s 			page 136


 7565 1476 11       		.uleb128 0x11
 7566 1477 6F626A00 		.ascii	"obj\000"
 7567 147b 16       		.byte	0x16
 7568 147c B9       		.byte	0xb9
 7569 147d E2130000 		.4byte	0x13e2
 7570 1481 00       		.byte	0
 7571 1482 0E       		.uleb128 0xe
 7572 1483 97050000 		.4byte	.LASF300
 7573 1487 16       		.byte	0x16
 7574 1488 BA       		.byte	0xba
 7575 1489 D3090000 		.4byte	0x9d3
 7576 148d 28       		.byte	0x28
 7577 148e 0E       		.uleb128 0xe
 7578 148f CB030000 		.4byte	.LASF296
 7579 1493 16       		.byte	0x16
 7580 1494 BB       		.byte	0xbb
 7581 1495 D3090000 		.4byte	0x9d3
 7582 1499 2C       		.byte	0x2c
 7583 149a 0E       		.uleb128 0xe
 7584 149b C3020000 		.4byte	.LASF297
 7585 149f 16       		.byte	0x16
 7586 14a0 BC       		.byte	0xbc
 7587 14a1 D3090000 		.4byte	0x9d3
 7588 14a5 30       		.byte	0x30
 7589 14a6 11       		.uleb128 0x11
 7590 14a7 64697200 		.ascii	"dir\000"
 7591 14ab 16       		.byte	0x16
 7592 14ac BD       		.byte	0xbd
 7593 14ad 35130000 		.4byte	0x1335
 7594 14b1 34       		.byte	0x34
 7595 14b2 11       		.uleb128 0x11
 7596 14b3 666E00   		.ascii	"fn\000"
 7597 14b6 16       		.byte	0x16
 7598 14b7 BE       		.byte	0xbe
 7599 14b8 CA140000 		.4byte	0x14ca
 7600 14bc 38       		.byte	0x38
 7601 14bd 0E       		.uleb128 0xe
 7602 14be 77050000 		.4byte	.LASF301
 7603 14c2 16       		.byte	0x16
 7604 14c3 C0       		.byte	0xc0
 7605 14c4 D3090000 		.4byte	0x9d3
 7606 14c8 44       		.byte	0x44
 7607 14c9 00       		.byte	0
 7608 14ca 0B       		.uleb128 0xb
 7609 14cb B2090000 		.4byte	0x9b2
 7610 14cf DA140000 		.4byte	0x14da
 7611 14d3 0C       		.uleb128 0xc
 7612 14d4 83010000 		.4byte	0x183
 7613 14d8 0B       		.byte	0xb
 7614 14d9 00       		.byte	0
 7615 14da 27       		.uleb128 0x27
 7616 14db 44495200 		.ascii	"DIR\000"
 7617 14df 16       		.byte	0x16
 7618 14e0 C5       		.byte	0xc5
 7619 14e1 6E140000 		.4byte	0x146e
 7620 14e5 25       		.uleb128 0x25
 7621 14e6 2001     		.2byte	0x120
ARM GAS  C:\cygwin64\tmp\ccxdpAIh.s 			page 137


 7622 14e8 16       		.byte	0x16
 7623 14e9 CB       		.byte	0xcb
 7624 14ea 37150000 		.4byte	0x1537
 7625 14ee 0E       		.uleb128 0xe
 7626 14ef 86010000 		.4byte	.LASF278
 7627 14f3 16       		.byte	0x16
 7628 14f4 CC       		.byte	0xcc
 7629 14f5 EF110000 		.4byte	0x11ef
 7630 14f9 00       		.byte	0
 7631 14fa 0E       		.uleb128 0xe
 7632 14fb B0110000 		.4byte	.LASF302
 7633 14ff 16       		.byte	0x16
 7634 1500 CD       		.byte	0xcd
 7635 1501 BD090000 		.4byte	0x9bd
 7636 1505 08       		.byte	0x8
 7637 1506 0E       		.uleb128 0xe
 7638 1507 F1020000 		.4byte	.LASF303
 7639 150b 16       		.byte	0x16
 7640 150c CE       		.byte	0xce
 7641 150d BD090000 		.4byte	0x9bd
 7642 1511 0A       		.byte	0xa
 7643 1512 0E       		.uleb128 0xe
 7644 1513 A40D0000 		.4byte	.LASF304
 7645 1517 16       		.byte	0x16
 7646 1518 CF       		.byte	0xcf
 7647 1519 B2090000 		.4byte	0x9b2
 7648 151d 0C       		.byte	0xc
 7649 151e 0E       		.uleb128 0xe
 7650 151f F2100000 		.4byte	.LASF305
 7651 1523 16       		.byte	0x16
 7652 1524 D1       		.byte	0xd1
 7653 1525 37150000 		.4byte	0x1537
 7654 1529 0D       		.byte	0xd
 7655 152a 0E       		.uleb128 0xe
 7656 152b DB0A0000 		.4byte	.LASF306
 7657 152f 16       		.byte	0x16
 7658 1530 D2       		.byte	0xd2
 7659 1531 47150000 		.4byte	0x1547
 7660 1535 1A       		.byte	0x1a
 7661 1536 00       		.byte	0
 7662 1537 0B       		.uleb128 0xb
 7663 1538 E4110000 		.4byte	0x11e4
 7664 153c 47150000 		.4byte	0x1547
 7665 1540 0C       		.uleb128 0xc
 7666 1541 83010000 		.4byte	0x183
 7667 1545 0C       		.byte	0xc
 7668 1546 00       		.byte	0
 7669 1547 0B       		.uleb128 0xb
 7670 1548 E4110000 		.4byte	0x11e4
 7671 154c 57150000 		.4byte	0x1557
 7672 1550 0C       		.uleb128 0xc
 7673 1551 83010000 		.4byte	0x183
 7674 1555 FF       		.byte	0xff
 7675 1556 00       		.byte	0
 7676 1557 03       		.uleb128 0x3
 7677 1558 45140000 		.4byte	.LASF307
 7678 155c 16       		.byte	0x16
ARM GAS  C:\cygwin64\tmp\ccxdpAIh.s 			page 138


 7679 155d D6       		.byte	0xd6
 7680 155e E5140000 		.4byte	0x14e5
 7681 1562 28       		.uleb128 0x28
 7682 1563 01       		.byte	0x1
 7683 1564 63000000 		.4byte	0x63
 7684 1568 16       		.byte	0x16
 7685 1569 DC       		.byte	0xdc
 7686 156a E7150000 		.4byte	0x15e7
 7687 156e 29       		.uleb128 0x29
 7688 156f D5120000 		.4byte	.LASF308
 7689 1573 00       		.byte	0
 7690 1574 29       		.uleb128 0x29
 7691 1575 63120000 		.4byte	.LASF309
 7692 1579 01       		.byte	0x1
 7693 157a 29       		.uleb128 0x29
 7694 157b B9030000 		.4byte	.LASF310
 7695 157f 02       		.byte	0x2
 7696 1580 29       		.uleb128 0x29
 7697 1581 C0040000 		.4byte	.LASF311
 7698 1585 03       		.byte	0x3
 7699 1586 29       		.uleb128 0x29
 7700 1587 D90D0000 		.4byte	.LASF312
 7701 158b 04       		.byte	0x4
 7702 158c 29       		.uleb128 0x29
 7703 158d E1070000 		.4byte	.LASF313
 7704 1591 05       		.byte	0x5
 7705 1592 29       		.uleb128 0x29
 7706 1593 92020000 		.4byte	.LASF314
 7707 1597 06       		.byte	0x6
 7708 1598 29       		.uleb128 0x29
 7709 1599 78100000 		.4byte	.LASF315
 7710 159d 07       		.byte	0x7
 7711 159e 29       		.uleb128 0x29
 7712 159f 26130000 		.4byte	.LASF316
 7713 15a3 08       		.byte	0x8
 7714 15a4 29       		.uleb128 0x29
 7715 15a5 1E0E0000 		.4byte	.LASF317
 7716 15a9 09       		.byte	0x9
 7717 15aa 29       		.uleb128 0x29
 7718 15ab 5D030000 		.4byte	.LASF318
 7719 15af 0A       		.byte	0xa
 7720 15b0 29       		.uleb128 0x29
 7721 15b1 17080000 		.4byte	.LASF319
 7722 15b5 0B       		.byte	0xb
 7723 15b6 29       		.uleb128 0x29
 7724 15b7 5F0D0000 		.4byte	.LASF320
 7725 15bb 0C       		.byte	0xc
 7726 15bc 29       		.uleb128 0x29
 7727 15bd 92130000 		.4byte	.LASF321
 7728 15c1 0D       		.byte	0xd
 7729 15c2 29       		.uleb128 0x29
 7730 15c3 6E0D0000 		.4byte	.LASF322
 7731 15c7 0E       		.byte	0xe
 7732 15c8 29       		.uleb128 0x29
 7733 15c9 760F0000 		.4byte	.LASF323
 7734 15cd 0F       		.byte	0xf
 7735 15ce 29       		.uleb128 0x29
ARM GAS  C:\cygwin64\tmp\ccxdpAIh.s 			page 139


 7736 15cf 8F0A0000 		.4byte	.LASF324
 7737 15d3 10       		.byte	0x10
 7738 15d4 29       		.uleb128 0x29
 7739 15d5 D80B0000 		.4byte	.LASF325
 7740 15d9 11       		.byte	0x11
 7741 15da 29       		.uleb128 0x29
 7742 15db 3C040000 		.4byte	.LASF326
 7743 15df 12       		.byte	0x12
 7744 15e0 29       		.uleb128 0x29
 7745 15e1 D1010000 		.4byte	.LASF327
 7746 15e5 13       		.byte	0x13
 7747 15e6 00       		.byte	0
 7748 15e7 03       		.uleb128 0x3
 7749 15e8 EC070000 		.4byte	.LASF328
 7750 15ec 16       		.byte	0x16
 7751 15ed F1       		.byte	0xf1
 7752 15ee 62150000 		.4byte	0x1562
 7753 15f2 03       		.uleb128 0x3
 7754 15f3 1C050000 		.4byte	.LASF329
 7755 15f7 17       		.byte	0x17
 7756 15f8 28       		.byte	0x28
 7757 15f9 FD150000 		.4byte	0x15fd
 7758 15fd 10       		.uleb128 0x10
 7759 15fe 2C090000 		.4byte	.LASF330
 7760 1602 04       		.byte	0x4
 7761 1603 18       		.byte	0x18
 7762 1604 00       		.byte	0
 7763 1605 14160000 		.4byte	0x1614
 7764 1609 2A       		.uleb128 0x2a
 7765 160a 8D090000 		.4byte	.LASF331
 7766 160e C1010000 		.4byte	0x1c1
 7767 1612 00       		.byte	0
 7768 1613 00       		.byte	0
 7769 1614 03       		.uleb128 0x3
 7770 1615 C50A0000 		.4byte	.LASF332
 7771 1619 17       		.byte	0x17
 7772 161a 63       		.byte	0x63
 7773 161b F2150000 		.4byte	0x15f2
 7774 161f 03       		.uleb128 0x3
 7775 1620 5E010000 		.4byte	.LASF333
 7776 1624 19       		.byte	0x19
 7777 1625 28       		.byte	0x28
 7778 1626 99000000 		.4byte	0x99
 7779 162a 03       		.uleb128 0x3
 7780 162b FA080000 		.4byte	.LASF334
 7781 162f 1A       		.byte	0x1a
 7782 1630 9B       		.byte	0x9b
 7783 1631 11010000 		.4byte	0x111
 7784 1635 03       		.uleb128 0x3
 7785 1636 36080000 		.4byte	.LASF335
 7786 163a 1A       		.byte	0x1a
 7787 163b AD       		.byte	0xad
 7788 163c 27010000 		.4byte	0x127
 7789 1640 03       		.uleb128 0x3
 7790 1641 11010000 		.4byte	.LASF336
 7791 1645 1A       		.byte	0x1a
 7792 1646 B1       		.byte	0xb1
ARM GAS  C:\cygwin64\tmp\ccxdpAIh.s 			page 140


 7793 1647 F0000000 		.4byte	0xf0
 7794 164b 03       		.uleb128 0x3
 7795 164c A2020000 		.4byte	.LASF337
 7796 1650 1A       		.byte	0x1a
 7797 1651 B5       		.byte	0xb5
 7798 1652 FB000000 		.4byte	0xfb
 7799 1656 03       		.uleb128 0x3
 7800 1657 0B140000 		.4byte	.LASF338
 7801 165b 1A       		.byte	0x1a
 7802 165c B9       		.byte	0xb9
 7803 165d 06010000 		.4byte	0x106
 7804 1661 03       		.uleb128 0x3
 7805 1662 21020000 		.4byte	.LASF339
 7806 1666 1A       		.byte	0x1a
 7807 1667 C8       		.byte	0xc8
 7808 1668 3D010000 		.4byte	0x13d
 7809 166c 03       		.uleb128 0x3
 7810 166d 4D0D0000 		.4byte	.LASF340
 7811 1671 1A       		.byte	0x1a
 7812 1672 CD       		.byte	0xcd
 7813 1673 1C010000 		.4byte	0x11c
 7814 1677 03       		.uleb128 0x3
 7815 1678 17010000 		.4byte	.LASF341
 7816 167c 1A       		.byte	0x1a
 7817 167d D2       		.byte	0xd2
 7818 167e C3010000 		.4byte	0x1c3
 7819 1682 2B       		.uleb128 0x2b
 7820 1683 746D00   		.ascii	"tm\000"
 7821 1686 24       		.byte	0x24
 7822 1687 1B       		.byte	0x1b
 7823 1688 25       		.byte	0x25
 7824 1689 FA160000 		.4byte	0x16fa
 7825 168d 0E       		.uleb128 0xe
 7826 168e 57080000 		.4byte	.LASF342
 7827 1692 1B       		.byte	0x1b
 7828 1693 27       		.byte	0x27
 7829 1694 25000000 		.4byte	0x25
 7830 1698 00       		.byte	0
 7831 1699 0E       		.uleb128 0xe
 7832 169a 20070000 		.4byte	.LASF343
 7833 169e 1B       		.byte	0x1b
 7834 169f 28       		.byte	0x28
 7835 16a0 25000000 		.4byte	0x25
 7836 16a4 04       		.byte	0x4
 7837 16a5 0E       		.uleb128 0xe
 7838 16a6 BE070000 		.4byte	.LASF344
 7839 16aa 1B       		.byte	0x1b
 7840 16ab 29       		.byte	0x29
 7841 16ac 25000000 		.4byte	0x25
 7842 16b0 08       		.byte	0x8
 7843 16b1 0E       		.uleb128 0xe
 7844 16b2 5B0E0000 		.4byte	.LASF345
 7845 16b6 1B       		.byte	0x1b
 7846 16b7 2A       		.byte	0x2a
 7847 16b8 25000000 		.4byte	0x25
 7848 16bc 0C       		.byte	0xc
 7849 16bd 0E       		.uleb128 0xe
ARM GAS  C:\cygwin64\tmp\ccxdpAIh.s 			page 141


 7850 16be CD0A0000 		.4byte	.LASF346
 7851 16c2 1B       		.byte	0x1b
 7852 16c3 2B       		.byte	0x2b
 7853 16c4 25000000 		.4byte	0x25
 7854 16c8 10       		.byte	0x10
 7855 16c9 0E       		.uleb128 0xe
 7856 16ca 0B130000 		.4byte	.LASF347
 7857 16ce 1B       		.byte	0x1b
 7858 16cf 2C       		.byte	0x2c
 7859 16d0 25000000 		.4byte	0x25
 7860 16d4 14       		.byte	0x14
 7861 16d5 0E       		.uleb128 0xe
 7862 16d6 74010000 		.4byte	.LASF348
 7863 16da 1B       		.byte	0x1b
 7864 16db 2D       		.byte	0x2d
 7865 16dc 25000000 		.4byte	0x25
 7866 16e0 18       		.byte	0x18
 7867 16e1 0E       		.uleb128 0xe
 7868 16e2 A50F0000 		.4byte	.LASF349
 7869 16e6 1B       		.byte	0x1b
 7870 16e7 2E       		.byte	0x2e
 7871 16e8 25000000 		.4byte	0x25
 7872 16ec 1C       		.byte	0x1c
 7873 16ed 0E       		.uleb128 0xe
 7874 16ee EB120000 		.4byte	.LASF350
 7875 16f2 1B       		.byte	0x1b
 7876 16f3 2F       		.byte	0x2f
 7877 16f4 25000000 		.4byte	0x25
 7878 16f8 20       		.byte	0x20
 7879 16f9 00       		.byte	0
 7880 16fa 05       		.uleb128 0x5
 7881 16fb 82160000 		.4byte	0x1682
 7882 16ff 22       		.uleb128 0x22
 7883 1700 5B130000 		.4byte	.LASF351
 7884 1704 1B       		.byte	0x1b
 7885 1705 9A       		.byte	0x9a
 7886 1706 99000000 		.4byte	0x99
 7887 170a 22       		.uleb128 0x22
 7888 170b 47070000 		.4byte	.LASF352
 7889 170f 1B       		.byte	0x1b
 7890 1710 9B       		.byte	0x9b
 7891 1711 25000000 		.4byte	0x25
 7892 1715 0B       		.uleb128 0xb
 7893 1716 CE010000 		.4byte	0x1ce
 7894 171a 25170000 		.4byte	0x1725
 7895 171e 0C       		.uleb128 0xc
 7896 171f 83010000 		.4byte	0x183
 7897 1723 01       		.byte	0x1
 7898 1724 00       		.byte	0
 7899 1725 22       		.uleb128 0x22
 7900 1726 FB070000 		.4byte	.LASF353
 7901 172a 1B       		.byte	0x1b
 7902 172b 9E       		.byte	0x9e
 7903 172c 15170000 		.4byte	0x1715
 7904 1730 22       		.uleb128 0x22
 7905 1731 CF020000 		.4byte	.LASF354
 7906 1735 1C       		.byte	0x1c
ARM GAS  C:\cygwin64\tmp\ccxdpAIh.s 			page 142


 7907 1736 37       		.byte	0x37
 7908 1737 25000000 		.4byte	0x25
 7909 173b 2C       		.uleb128 0x2c
 7910 173c 5E080000 		.4byte	.LASF546
 7911 1740 01       		.byte	0x1
 7912 1741 63000000 		.4byte	0x63
 7913 1745 1C       		.byte	0x1c
 7914 1746 3B       		.byte	0x3b
 7915 1747 24180000 		.4byte	0x1824
 7916 174b 2D       		.uleb128 0x2d
 7917 174c 454F4B00 		.ascii	"EOK\000"
 7918 1750 00       		.byte	0
 7919 1751 29       		.uleb128 0x29
 7920 1752 57030000 		.4byte	.LASF355
 7921 1756 01       		.byte	0x1
 7922 1757 29       		.uleb128 0x29
 7923 1758 8B0C0000 		.4byte	.LASF356
 7924 175c 02       		.byte	0x2
 7925 175d 29       		.uleb128 0x29
 7926 175e CB0B0000 		.4byte	.LASF357
 7927 1762 03       		.byte	0x3
 7928 1763 29       		.uleb128 0x29
 7929 1764 60050000 		.4byte	.LASF358
 7930 1768 04       		.byte	0x4
 7931 1769 2D       		.uleb128 0x2d
 7932 176a 45494F00 		.ascii	"EIO\000"
 7933 176e 05       		.byte	0x5
 7934 176f 29       		.uleb128 0x29
 7935 1770 E9130000 		.4byte	.LASF359
 7936 1774 06       		.byte	0x6
 7937 1775 29       		.uleb128 0x29
 7938 1776 C0110000 		.4byte	.LASF360
 7939 177a 07       		.byte	0x7
 7940 177b 29       		.uleb128 0x29
 7941 177c 37050000 		.4byte	.LASF361
 7942 1780 08       		.byte	0x8
 7943 1781 29       		.uleb128 0x29
 7944 1782 3D0C0000 		.4byte	.LASF362
 7945 1786 09       		.byte	0x9
 7946 1787 29       		.uleb128 0x29
 7947 1788 70030000 		.4byte	.LASF363
 7948 178c 0A       		.byte	0xa
 7949 178d 29       		.uleb128 0x29
 7950 178e 91080000 		.4byte	.LASF364
 7951 1792 0B       		.byte	0xb
 7952 1793 29       		.uleb128 0x29
 7953 1794 B8120000 		.4byte	.LASF365
 7954 1798 0C       		.byte	0xc
 7955 1799 29       		.uleb128 0x29
 7956 179a 0C0B0000 		.4byte	.LASF366
 7957 179e 0D       		.byte	0xd
 7958 179f 29       		.uleb128 0x29
 7959 17a0 BF0C0000 		.4byte	.LASF367
 7960 17a4 0E       		.byte	0xe
 7961 17a5 29       		.uleb128 0x29
 7962 17a6 830D0000 		.4byte	.LASF368
 7963 17aa 0F       		.byte	0xf
ARM GAS  C:\cygwin64\tmp\ccxdpAIh.s 			page 143


 7964 17ab 29       		.uleb128 0x29
 7965 17ac 46020000 		.4byte	.LASF369
 7966 17b0 10       		.byte	0x10
 7967 17b1 29       		.uleb128 0x29
 7968 17b2 8E030000 		.4byte	.LASF370
 7969 17b6 11       		.byte	0x11
 7970 17b7 29       		.uleb128 0x29
 7971 17b8 C6070000 		.4byte	.LASF371
 7972 17bc 12       		.byte	0x12
 7973 17bd 29       		.uleb128 0x29
 7974 17be E6010000 		.4byte	.LASF372
 7975 17c2 13       		.byte	0x13
 7976 17c3 29       		.uleb128 0x29
 7977 17c4 7C130000 		.4byte	.LASF373
 7978 17c8 14       		.byte	0x14
 7979 17c9 29       		.uleb128 0x29
 7980 17ca 270D0000 		.4byte	.LASF374
 7981 17ce 15       		.byte	0x15
 7982 17cf 29       		.uleb128 0x29
 7983 17d0 470B0000 		.4byte	.LASF375
 7984 17d4 16       		.byte	0x16
 7985 17d5 29       		.uleb128 0x29
 7986 17d6 A0100000 		.4byte	.LASF376
 7987 17da 17       		.byte	0x17
 7988 17db 29       		.uleb128 0x29
 7989 17dc 130D0000 		.4byte	.LASF377
 7990 17e0 18       		.byte	0x18
 7991 17e1 29       		.uleb128 0x29
 7992 17e2 770E0000 		.4byte	.LASF378
 7993 17e6 19       		.byte	0x19
 7994 17e7 29       		.uleb128 0x29
 7995 17e8 27110000 		.4byte	.LASF379
 7996 17ec 1A       		.byte	0x1a
 7997 17ed 29       		.uleb128 0x29
 7998 17ee EC100000 		.4byte	.LASF380
 7999 17f2 1B       		.byte	0x1b
 8000 17f3 29       		.uleb128 0x29
 8001 17f4 4E0A0000 		.4byte	.LASF381
 8002 17f8 1C       		.byte	0x1c
 8003 17f9 29       		.uleb128 0x29
 8004 17fa 9E030000 		.4byte	.LASF382
 8005 17fe 1D       		.byte	0x1d
 8006 17ff 29       		.uleb128 0x29
 8007 1800 37100000 		.4byte	.LASF383
 8008 1804 1E       		.byte	0x1e
 8009 1805 29       		.uleb128 0x29
 8010 1806 460F0000 		.4byte	.LASF384
 8011 180a 1F       		.byte	0x1f
 8012 180b 29       		.uleb128 0x29
 8013 180c 950D0000 		.4byte	.LASF385
 8014 1810 20       		.byte	0x20
 8015 1811 29       		.uleb128 0x29
 8016 1812 E0040000 		.4byte	.LASF386
 8017 1816 21       		.byte	0x21
 8018 1817 29       		.uleb128 0x29
 8019 1818 6D0A0000 		.4byte	.LASF387
 8020 181c 22       		.byte	0x22
ARM GAS  C:\cygwin64\tmp\ccxdpAIh.s 			page 144


 8021 181d 29       		.uleb128 0x29
 8022 181e 870A0000 		.4byte	.LASF388
 8023 1822 23       		.byte	0x23
 8024 1823 00       		.byte	0
 8025 1824 10       		.uleb128 0x10
 8026 1825 680A0000 		.4byte	.LASF286
 8027 1829 28       		.byte	0x28
 8028 182a 1C       		.byte	0x1c
 8029 182b 67       		.byte	0x67
 8030 182c CD180000 		.4byte	0x18cd
 8031 1830 0E       		.uleb128 0xe
 8032 1831 360E0000 		.4byte	.LASF389
 8033 1835 1C       		.byte	0x1c
 8034 1836 69       		.byte	0x69
 8035 1837 40160000 		.4byte	0x1640
 8036 183b 00       		.byte	0
 8037 183c 0E       		.uleb128 0xe
 8038 183d BB130000 		.4byte	.LASF390
 8039 1841 1C       		.byte	0x1c
 8040 1842 6A       		.byte	0x6a
 8041 1843 2A160000 		.4byte	0x162a
 8042 1847 02       		.byte	0x2
 8043 1848 0E       		.uleb128 0xe
 8044 1849 21120000 		.4byte	.LASF391
 8045 184d 1C       		.byte	0x1c
 8046 184e 6B       		.byte	0x6b
 8047 184f 6C160000 		.4byte	0x166c
 8048 1853 04       		.byte	0x4
 8049 1854 0E       		.uleb128 0xe
 8050 1855 3E0D0000 		.4byte	.LASF392
 8051 1859 1C       		.byte	0x1c
 8052 185a 6C       		.byte	0x6c
 8053 185b 77160000 		.4byte	0x1677
 8054 185f 08       		.byte	0x8
 8055 1860 0E       		.uleb128 0xe
 8056 1861 09040000 		.4byte	.LASF393
 8057 1865 1C       		.byte	0x1c
 8058 1866 6D       		.byte	0x6d
 8059 1867 4B160000 		.4byte	0x164b
 8060 186b 0A       		.byte	0xa
 8061 186c 0E       		.uleb128 0xe
 8062 186d 98080000 		.4byte	.LASF394
 8063 1871 1C       		.byte	0x1c
 8064 1872 6E       		.byte	0x6e
 8065 1873 56160000 		.4byte	0x1656
 8066 1877 0C       		.byte	0xc
 8067 1878 0E       		.uleb128 0xe
 8068 1879 71040000 		.4byte	.LASF395
 8069 187d 1C       		.byte	0x1c
 8070 187e 6F       		.byte	0x6f
 8071 187f 40160000 		.4byte	0x1640
 8072 1883 0E       		.byte	0xe
 8073 1884 0E       		.uleb128 0xe
 8074 1885 5E090000 		.4byte	.LASF396
 8075 1889 1C       		.byte	0x1c
 8076 188a 70       		.byte	0x70
 8077 188b 35160000 		.4byte	0x1635
ARM GAS  C:\cygwin64\tmp\ccxdpAIh.s 			page 145


 8078 188f 10       		.byte	0x10
 8079 1890 0E       		.uleb128 0xe
 8080 1891 740A0000 		.4byte	.LASF397
 8081 1895 1C       		.byte	0x1c
 8082 1896 71       		.byte	0x71
 8083 1897 86090000 		.4byte	0x986
 8084 189b 14       		.byte	0x14
 8085 189c 0E       		.uleb128 0xe
 8086 189d 8F000000 		.4byte	.LASF398
 8087 18a1 1C       		.byte	0x1c
 8088 18a2 72       		.byte	0x72
 8089 18a3 86090000 		.4byte	0x986
 8090 18a7 18       		.byte	0x18
 8091 18a8 0E       		.uleb128 0xe
 8092 18a9 B50D0000 		.4byte	.LASF399
 8093 18ad 1C       		.byte	0x1c
 8094 18ae 73       		.byte	0x73
 8095 18af 1F160000 		.4byte	0x161f
 8096 18b3 1C       		.byte	0x1c
 8097 18b4 0E       		.uleb128 0xe
 8098 18b5 B5100000 		.4byte	.LASF400
 8099 18b9 1C       		.byte	0x1c
 8100 18ba 74       		.byte	0x74
 8101 18bb 1F160000 		.4byte	0x161f
 8102 18bf 20       		.byte	0x20
 8103 18c0 0E       		.uleb128 0xe
 8104 18c1 95030000 		.4byte	.LASF401
 8105 18c5 1C       		.byte	0x1c
 8106 18c6 75       		.byte	0x75
 8107 18c7 1F160000 		.4byte	0x161f
 8108 18cb 24       		.byte	0x24
 8109 18cc 00       		.byte	0
 8110 18cd 10       		.uleb128 0x10
 8111 18ce D90E0000 		.4byte	.LASF402
 8112 18d2 08       		.byte	0x8
 8113 18d3 1C       		.byte	0x1c
 8114 18d4 7A       		.byte	0x7a
 8115 18d5 F2180000 		.4byte	0x18f2
 8116 18d9 0E       		.uleb128 0xe
 8117 18da C8020000 		.4byte	.LASF403
 8118 18de 1C       		.byte	0x1c
 8119 18df 7C       		.byte	0x7c
 8120 18e0 1F160000 		.4byte	0x161f
 8121 18e4 00       		.byte	0
 8122 18e5 0E       		.uleb128 0xe
 8123 18e6 99000000 		.4byte	.LASF404
 8124 18ea 1C       		.byte	0x1c
 8125 18eb 7D       		.byte	0x7d
 8126 18ec 1F160000 		.4byte	0x161f
 8127 18f0 04       		.byte	0x4
 8128 18f1 00       		.byte	0
 8129 18f2 05       		.uleb128 0x5
 8130 18f3 CD180000 		.4byte	0x18cd
 8131 18f7 10       		.uleb128 0x10
 8132 18f8 BE010000 		.4byte	.LASF405
 8133 18fc FF       		.byte	0xff
 8134 18fd 1C       		.byte	0x1c
ARM GAS  C:\cygwin64\tmp\ccxdpAIh.s 			page 146


 8135 18fe 86       		.byte	0x86
 8136 18ff 10190000 		.4byte	0x1910
 8137 1903 0E       		.uleb128 0xe
 8138 1904 B5050000 		.4byte	.LASF406
 8139 1908 1C       		.byte	0x1c
 8140 1909 8E       		.byte	0x8e
 8141 190a 10190000 		.4byte	0x1910
 8142 190e 00       		.byte	0
 8143 190f 00       		.byte	0
 8144 1910 0B       		.uleb128 0xb
 8145 1911 D4010000 		.4byte	0x1d4
 8146 1915 20190000 		.4byte	0x1920
 8147 1919 0C       		.uleb128 0xc
 8148 191a 83010000 		.4byte	0x183
 8149 191e FE       		.byte	0xfe
 8150 191f 00       		.byte	0
 8151 1920 03       		.uleb128 0x3
 8152 1921 0F0E0000 		.4byte	.LASF407
 8153 1925 1C       		.byte	0x1c
 8154 1926 91       		.byte	0x91
 8155 1927 F7180000 		.4byte	0x18f7
 8156 192b 10       		.uleb128 0x10
 8157 192c 57090000 		.4byte	.LASF408
 8158 1930 1C       		.byte	0x1c
 8159 1931 1C       		.byte	0x1c
 8160 1932 99       		.byte	0x99
 8161 1933 98190000 		.4byte	0x1998
 8162 1937 11       		.uleb128 0x11
 8163 1938 62756600 		.ascii	"buf\000"
 8164 193c 1C       		.byte	0x1c
 8165 193d 9A       		.byte	0x9a
 8166 193e CE010000 		.4byte	0x1ce
 8167 1942 00       		.byte	0
 8168 1943 0E       		.uleb128 0xe
 8169 1944 B8010000 		.4byte	.LASF409
 8170 1948 1C       		.byte	0x1c
 8171 1949 9B       		.byte	0x9b
 8172 194a 63000000 		.4byte	0x63
 8173 194e 04       		.byte	0x4
 8174 194f 0E       		.uleb128 0xe
 8175 1950 1A070000 		.4byte	.LASF171
 8176 1954 1C       		.byte	0x1c
 8177 1955 9C       		.byte	0x9c
 8178 1956 55090000 		.4byte	0x955
 8179 195a 05       		.byte	0x5
 8180 195b 0E       		.uleb128 0xe
 8181 195c BD0E0000 		.4byte	.LASF239
 8182 1960 1C       		.byte	0x1c
 8183 1961 AC       		.byte	0xac
 8184 1962 25000000 		.4byte	0x25
 8185 1966 08       		.byte	0x8
 8186 1967 11       		.uleb128 0x11
 8187 1968 6C656E00 		.ascii	"len\000"
 8188 196c 1C       		.byte	0x1c
 8189 196d AD       		.byte	0xad
 8190 196e 25000000 		.4byte	0x25
 8191 1972 0C       		.byte	0xc
ARM GAS  C:\cygwin64\tmp\ccxdpAIh.s 			page 147


 8192 1973 11       		.uleb128 0x11
 8193 1974 70757400 		.ascii	"put\000"
 8194 1978 1C       		.byte	0x1c
 8195 1979 AE       		.byte	0xae
 8196 197a B2190000 		.4byte	0x19b2
 8197 197e 10       		.byte	0x10
 8198 197f 11       		.uleb128 0x11
 8199 1980 67657400 		.ascii	"get\000"
 8200 1984 1C       		.byte	0x1c
 8201 1985 AF       		.byte	0xaf
 8202 1986 C7190000 		.4byte	0x19c7
 8203 198a 14       		.byte	0x14
 8204 198b 0E       		.uleb128 0xe
 8205 198c FC040000 		.4byte	.LASF410
 8206 1990 1C       		.byte	0x1c
 8207 1991 B1       		.byte	0xb1
 8208 1992 C1010000 		.4byte	0x1c1
 8209 1996 18       		.byte	0x18
 8210 1997 00       		.byte	0
 8211 1998 15       		.uleb128 0x15
 8212 1999 25000000 		.4byte	0x25
 8213 199d AC190000 		.4byte	0x19ac
 8214 19a1 16       		.uleb128 0x16
 8215 19a2 D4010000 		.4byte	0x1d4
 8216 19a6 16       		.uleb128 0x16
 8217 19a7 AC190000 		.4byte	0x19ac
 8218 19ab 00       		.byte	0
 8219 19ac 06       		.uleb128 0x6
 8220 19ad 04       		.byte	0x4
 8221 19ae 2B190000 		.4byte	0x192b
 8222 19b2 06       		.uleb128 0x6
 8223 19b3 04       		.byte	0x4
 8224 19b4 98190000 		.4byte	0x1998
 8225 19b8 15       		.uleb128 0x15
 8226 19b9 25000000 		.4byte	0x25
 8227 19bd C7190000 		.4byte	0x19c7
 8228 19c1 16       		.uleb128 0x16
 8229 19c2 AC190000 		.4byte	0x19ac
 8230 19c6 00       		.byte	0
 8231 19c7 06       		.uleb128 0x6
 8232 19c8 04       		.byte	0x4
 8233 19c9 B8190000 		.4byte	0x19b8
 8234 19cd 03       		.uleb128 0x3
 8235 19ce D5020000 		.4byte	.LASF411
 8236 19d2 1C       		.byte	0x1c
 8237 19d3 FE       		.byte	0xfe
 8238 19d4 2B190000 		.4byte	0x192b
 8239 19d8 0B       		.uleb128 0xb
 8240 19d9 E8190000 		.4byte	0x19e8
 8241 19dd E8190000 		.4byte	0x19e8
 8242 19e1 0C       		.uleb128 0xc
 8243 19e2 83010000 		.4byte	0x183
 8244 19e6 0F       		.byte	0xf
 8245 19e7 00       		.byte	0
 8246 19e8 06       		.uleb128 0x6
 8247 19e9 04       		.byte	0x4
 8248 19ea CD190000 		.4byte	0x19cd
ARM GAS  C:\cygwin64\tmp\ccxdpAIh.s 			page 148


 8249 19ee 20       		.uleb128 0x20
 8250 19ef BA040000 		.4byte	.LASF412
 8251 19f3 1C       		.byte	0x1c
 8252 19f4 0201     		.2byte	0x102
 8253 19f6 D8190000 		.4byte	0x19d8
 8254 19fa 15       		.uleb128 0x15
 8255 19fb 25000000 		.4byte	0x25
 8256 19ff 0E1A0000 		.4byte	0x1a0e
 8257 1a03 16       		.uleb128 0x16
 8258 1a04 4C060000 		.4byte	0x64c
 8259 1a08 16       		.uleb128 0x16
 8260 1a09 14160000 		.4byte	0x1614
 8261 1a0d 00       		.byte	0
 8262 1a0e 22       		.uleb128 0x22
 8263 1a0f 530F0000 		.4byte	.LASF413
 8264 1a13 1D       		.byte	0x1d
 8265 1a14 2C       		.byte	0x2c
 8266 1a15 191A0000 		.4byte	0x1a19
 8267 1a19 06       		.uleb128 0x6
 8268 1a1a 04       		.byte	0x4
 8269 1a1b FA190000 		.4byte	0x19fa
 8270 1a1f 2E       		.uleb128 0x2e
 8271 1a20 30170000 		.4byte	0x1730
 8272 1a24 01       		.byte	0x1
 8273 1a25 76       		.byte	0x76
 8274 1a26 05       		.uleb128 0x5
 8275 1a27 03       		.byte	0x3
 8276 1a28 00000000 		.4byte	errno
 8277 1a2c 2E       		.uleb128 0x2e
 8278 1a2d EE190000 		.4byte	0x19ee
 8279 1a31 01       		.byte	0x1
 8280 1a32 80       		.byte	0x80
 8281 1a33 05       		.uleb128 0x5
 8282 1a34 03       		.byte	0x3
 8283 1a35 00000000 		.4byte	__iob
 8284 1a39 0B       		.uleb128 0xb
 8285 1a3a 4C060000 		.4byte	0x64c
 8286 1a3e 491A0000 		.4byte	0x1a49
 8287 1a42 0C       		.uleb128 0xc
 8288 1a43 83010000 		.4byte	0x183
 8289 1a47 24       		.byte	0x24
 8290 1a48 00       		.byte	0
 8291 1a49 2F       		.uleb128 0x2f
 8292 1a4a 9C070000 		.4byte	.LASF414
 8293 1a4e 01       		.byte	0x1
 8294 1a4f 85       		.byte	0x85
 8295 1a50 391A0000 		.4byte	0x1a39
 8296 1a54 05       		.uleb128 0x5
 8297 1a55 03       		.byte	0x3
 8298 1a56 00000000 		.4byte	sys_errlist
 8299 1a5a 30       		.uleb128 0x30
 8300 1a5b 5F647000 		.ascii	"_dp\000"
 8301 1a5f 01       		.byte	0x1
 8302 1a60 D406     		.2byte	0x6d4
 8303 1a62 DA140000 		.4byte	0x14da
 8304 1a66 05       		.uleb128 0x5
 8305 1a67 03       		.byte	0x3
ARM GAS  C:\cygwin64\tmp\ccxdpAIh.s 			page 149


 8306 1a68 00000000 		.4byte	_dp
 8307 1a6c 30       		.uleb128 0x30
 8308 1a6d 5F646500 		.ascii	"_de\000"
 8309 1a71 01       		.byte	0x1
 8310 1a72 E706     		.2byte	0x6e7
 8311 1a74 20190000 		.4byte	0x1920
 8312 1a78 05       		.uleb128 0x5
 8313 1a79 03       		.byte	0x3
 8314 1a7a 00000000 		.4byte	_de
 8315 1a7e 31       		.uleb128 0x31
 8316 1a7f 97120000 		.4byte	.LASF416
 8317 1a83 01       		.byte	0x1
 8318 1a84 030A     		.2byte	0xa03
 8319 1a86 25000000 		.4byte	0x25
 8320 1a8a 00000000 		.4byte	.LFB316
 8321 1a8e 40000000 		.4byte	.LFE316-.LFB316
 8322 1a92 01       		.uleb128 0x1
 8323 1a93 9C       		.byte	0x9c
 8324 1a94 0C1B0000 		.4byte	0x1b0c
 8325 1a98 32       		.uleb128 0x32
 8326 1a99 AE020000 		.4byte	.LASF418
 8327 1a9d 01       		.byte	0x1
 8328 1a9e 030A     		.2byte	0xa03
 8329 1aa0 25000000 		.4byte	0x25
 8330 1aa4 00000000 		.4byte	.LLST203
 8331 1aa8 33       		.uleb128 0x33
 8332 1aa9 95070000 		.4byte	.LASF415
 8333 1aad 01       		.byte	0x1
 8334 1aae 050A     		.2byte	0xa05
 8335 1ab0 E8190000 		.4byte	0x19e8
 8336 1ab4 1E000000 		.4byte	.LLST204
 8337 1ab8 34       		.uleb128 0x34
 8338 1ab9 666800   		.ascii	"fh\000"
 8339 1abc 01       		.byte	0x1
 8340 1abd 060A     		.2byte	0xa06
 8341 1abf 0C1B0000 		.4byte	0x1b0c
 8342 1ac3 3C000000 		.4byte	.LLST205
 8343 1ac7 30       		.uleb128 0x30
 8344 1ac8 72657300 		.ascii	"res\000"
 8345 1acc 01       		.byte	0x1
 8346 1acd 070A     		.2byte	0xa07
 8347 1acf 25000000 		.4byte	0x25
 8348 1ad3 06       		.uleb128 0x6
 8349 1ad4 70       		.byte	0x70
 8350 1ad5 00       		.sleb128 0
 8351 1ad6 08       		.byte	0x8
 8352 1ad7 FF       		.byte	0xff
 8353 1ad8 1A       		.byte	0x1a
 8354 1ad9 9F       		.byte	0x9f
 8355 1ada 35       		.uleb128 0x35
 8356 1adb 0E000000 		.4byte	.LVL527
 8357 1adf 7B320000 		.4byte	0x327b
 8358 1ae3 EE1A0000 		.4byte	0x1aee
 8359 1ae7 36       		.uleb128 0x36
 8360 1ae8 01       		.uleb128 0x1
 8361 1ae9 50       		.byte	0x50
 8362 1aea 02       		.uleb128 0x2
ARM GAS  C:\cygwin64\tmp\ccxdpAIh.s 			page 150


 8363 1aeb 75       		.byte	0x75
 8364 1aec 00       		.sleb128 0
 8365 1aed 00       		.byte	0
 8366 1aee 35       		.uleb128 0x35
 8367 1aef 1C000000 		.4byte	.LVL531
 8368 1af3 281D0000 		.4byte	0x1d28
 8369 1af7 021B0000 		.4byte	0x1b02
 8370 1afb 36       		.uleb128 0x36
 8371 1afc 01       		.uleb128 0x1
 8372 1afd 50       		.byte	0x50
 8373 1afe 02       		.uleb128 0x2
 8374 1aff 75       		.byte	0x75
 8375 1b00 00       		.sleb128 0
 8376 1b01 00       		.byte	0
 8377 1b02 37       		.uleb128 0x37
 8378 1b03 24000000 		.4byte	.LVL532
 8379 1b07 663C0000 		.4byte	0x3c66
 8380 1b0b 00       		.byte	0
 8381 1b0c 06       		.uleb128 0x6
 8382 1b0d 04       		.byte	0x4
 8383 1b0e 63140000 		.4byte	0x1463
 8384 1b12 31       		.uleb128 0x31
 8385 1b13 E4100000 		.4byte	.LASF417
 8386 1b17 01       		.byte	0x1
 8387 1b18 EB09     		.2byte	0x9eb
 8388 1b1a 25000000 		.4byte	0x25
 8389 1b1e 00000000 		.4byte	.LFB315
 8390 1b22 40000000 		.4byte	.LFE315-.LFB315
 8391 1b26 01       		.uleb128 0x1
 8392 1b27 9C       		.byte	0x9c
 8393 1b28 B81B0000 		.4byte	0x1bb8
 8394 1b2c 38       		.uleb128 0x38
 8395 1b2d 667000   		.ascii	"fp\000"
 8396 1b30 01       		.byte	0x1
 8397 1b31 EB09     		.2byte	0x9eb
 8398 1b33 E8190000 		.4byte	0x19e8
 8399 1b37 4F000000 		.4byte	.LLST200
 8400 1b3b 39       		.uleb128 0x39
 8401 1b3c 666D7400 		.ascii	"fmt\000"
 8402 1b40 01       		.byte	0x1
 8403 1b41 EB09     		.2byte	0x9eb
 8404 1b43 4C060000 		.4byte	0x64c
 8405 1b47 02       		.uleb128 0x2
 8406 1b48 91       		.byte	0x91
 8407 1b49 74       		.sleb128 -12
 8408 1b4a 3A       		.uleb128 0x3a
 8409 1b4b 30       		.uleb128 0x30
 8410 1b4c 766100   		.ascii	"va\000"
 8411 1b4f 01       		.byte	0x1
 8412 1b50 ED09     		.2byte	0x9ed
 8413 1b52 14160000 		.4byte	0x1614
 8414 1b56 02       		.uleb128 0x2
 8415 1b57 91       		.byte	0x91
 8416 1b58 58       		.sleb128 -40
 8417 1b59 30       		.uleb128 0x30
 8418 1b5a 62756600 		.ascii	"buf\000"
 8419 1b5e 01       		.byte	0x1
ARM GAS  C:\cygwin64\tmp\ccxdpAIh.s 			page 151


 8420 1b5f EE09     		.2byte	0x9ee
 8421 1b61 CE010000 		.4byte	0x1ce
 8422 1b65 02       		.uleb128 0x2
 8423 1b66 91       		.byte	0x91
 8424 1b67 5C       		.sleb128 -36
 8425 1b68 34       		.uleb128 0x34
 8426 1b69 6C656E00 		.ascii	"len\000"
 8427 1b6d 01       		.byte	0x1
 8428 1b6e EF09     		.2byte	0x9ef
 8429 1b70 60090000 		.4byte	0x960
 8430 1b74 86000000 		.4byte	.LLST201
 8431 1b78 34       		.uleb128 0x34
 8432 1b79 6900     		.ascii	"i\000"
 8433 1b7b 01       		.byte	0x1
 8434 1b7c EF09     		.2byte	0x9ef
 8435 1b7e 60090000 		.4byte	0x960
 8436 1b82 A4000000 		.4byte	.LLST202
 8437 1b86 35       		.uleb128 0x35
 8438 1b87 14000000 		.4byte	.LVL519
 8439 1b8b 713C0000 		.4byte	0x3c71
 8440 1b8f A71B0000 		.4byte	0x1ba7
 8441 1b93 36       		.uleb128 0x36
 8442 1b94 01       		.uleb128 0x1
 8443 1b95 50       		.byte	0x50
 8444 1b96 02       		.uleb128 0x2
 8445 1b97 91       		.byte	0x91
 8446 1b98 44       		.sleb128 -60
 8447 1b99 36       		.uleb128 0x36
 8448 1b9a 01       		.uleb128 0x1
 8449 1b9b 51       		.byte	0x51
 8450 1b9c 03       		.uleb128 0x3
 8451 1b9d 91       		.byte	0x91
 8452 1b9e 5C       		.sleb128 -36
 8453 1b9f 06       		.byte	0x6
 8454 1ba0 36       		.uleb128 0x36
 8455 1ba1 01       		.uleb128 0x1
 8456 1ba2 52       		.byte	0x52
 8457 1ba3 02       		.uleb128 0x2
 8458 1ba4 91       		.byte	0x91
 8459 1ba5 60       		.sleb128 -32
 8460 1ba6 00       		.byte	0
 8461 1ba7 3B       		.uleb128 0x3b
 8462 1ba8 28000000 		.4byte	.LVL523
 8463 1bac E0380000 		.4byte	0x38e0
 8464 1bb0 36       		.uleb128 0x36
 8465 1bb1 01       		.uleb128 0x1
 8466 1bb2 51       		.byte	0x51
 8467 1bb3 02       		.uleb128 0x2
 8468 1bb4 76       		.byte	0x76
 8469 1bb5 00       		.sleb128 0
 8470 1bb6 00       		.byte	0
 8471 1bb7 00       		.byte	0
 8472 1bb8 3C       		.uleb128 0x3c
 8473 1bb9 02050000 		.4byte	.LASF432
 8474 1bbd 01       		.byte	0x1
 8475 1bbe A909     		.2byte	0x9a9
 8476 1bc0 25000000 		.4byte	0x25
ARM GAS  C:\cygwin64\tmp\ccxdpAIh.s 			page 152


 8477 1bc4 01       		.byte	0x1
 8478 1bc5 E21B0000 		.4byte	0x1be2
 8479 1bc9 3D       		.uleb128 0x3d
 8480 1bca 38110000 		.4byte	.LASF427
 8481 1bce 01       		.byte	0x1
 8482 1bcf A909     		.2byte	0x9a9
 8483 1bd1 4C060000 		.4byte	0x64c
 8484 1bd5 3E       		.uleb128 0x3e
 8485 1bd6 520C0000 		.4byte	.LASF294
 8486 1bda 01       		.byte	0x1
 8487 1bdb AB09     		.2byte	0x9ab
 8488 1bdd 25000000 		.4byte	0x25
 8489 1be1 00       		.byte	0
 8490 1be2 31       		.uleb128 0x31
 8491 1be3 A5030000 		.4byte	.LASF419
 8492 1be7 01       		.byte	0x1
 8493 1be8 6A09     		.2byte	0x96a
 8494 1bea 25000000 		.4byte	0x25
 8495 1bee 00000000 		.4byte	.LFB313
 8496 1bf2 5C000000 		.4byte	.LFE313-.LFB313
 8497 1bf6 01       		.uleb128 0x1
 8498 1bf7 9C       		.byte	0x9c
 8499 1bf8 8A1C0000 		.4byte	0x1c8a
 8500 1bfc 34       		.uleb128 0x34
 8501 1bfd 6900     		.ascii	"i\000"
 8502 1bff 01       		.byte	0x1
 8503 1c00 6C09     		.2byte	0x96c
 8504 1c02 25000000 		.4byte	0x25
 8505 1c06 B7000000 		.4byte	.LLST178
 8506 1c0a 33       		.uleb128 0x33
 8507 1c0b 95070000 		.4byte	.LASF415
 8508 1c0f 01       		.byte	0x1
 8509 1c10 6D09     		.2byte	0x96d
 8510 1c12 E8190000 		.4byte	0x19e8
 8511 1c16 E1000000 		.4byte	.LLST179
 8512 1c1a 34       		.uleb128 0x34
 8513 1c1b 666800   		.ascii	"fh\000"
 8514 1c1e 01       		.byte	0x1
 8515 1c1f 6E09     		.2byte	0x96e
 8516 1c21 0C1B0000 		.4byte	0x1b0c
 8517 1c25 15010000 		.4byte	.LLST180
 8518 1c29 3F       		.uleb128 0x3f
 8519 1c2a 8F390000 		.4byte	0x398f
 8520 1c2e 10000000 		.4byte	.LBB127
 8521 1c32 04000000 		.4byte	.LBE127-.LBB127
 8522 1c36 01       		.byte	0x1
 8523 1c37 7209     		.2byte	0x972
 8524 1c39 471C0000 		.4byte	0x1c47
 8525 1c3d 40       		.uleb128 0x40
 8526 1c3e 9F390000 		.4byte	0x399f
 8527 1c42 33010000 		.4byte	.LLST181
 8528 1c46 00       		.byte	0
 8529 1c47 35       		.uleb128 0x35
 8530 1c48 24000000 		.4byte	.LVL443
 8531 1c4c 7C3C0000 		.4byte	0x3c7c
 8532 1c50 5F1C0000 		.4byte	0x1c5f
 8533 1c54 36       		.uleb128 0x36
ARM GAS  C:\cygwin64\tmp\ccxdpAIh.s 			page 153


 8534 1c55 01       		.uleb128 0x1
 8535 1c56 50       		.byte	0x50
 8536 1c57 01       		.uleb128 0x1
 8537 1c58 4C       		.byte	0x4c
 8538 1c59 36       		.uleb128 0x36
 8539 1c5a 01       		.uleb128 0x1
 8540 1c5b 51       		.byte	0x51
 8541 1c5c 01       		.uleb128 0x1
 8542 1c5d 31       		.byte	0x31
 8543 1c5e 00       		.byte	0
 8544 1c5f 35       		.uleb128 0x35
 8545 1c60 3E000000 		.4byte	.LVL449
 8546 1c64 7C3C0000 		.4byte	0x3c7c
 8547 1c68 791C0000 		.4byte	0x1c79
 8548 1c6c 36       		.uleb128 0x36
 8549 1c6d 01       		.uleb128 0x1
 8550 1c6e 50       		.byte	0x50
 8551 1c6f 03       		.uleb128 0x3
 8552 1c70 0A       		.byte	0xa
 8553 1c71 4802     		.2byte	0x248
 8554 1c73 36       		.uleb128 0x36
 8555 1c74 01       		.uleb128 0x1
 8556 1c75 51       		.byte	0x51
 8557 1c76 01       		.uleb128 0x1
 8558 1c77 31       		.byte	0x31
 8559 1c78 00       		.byte	0
 8560 1c79 3B       		.uleb128 0x3b
 8561 1c7a 46000000 		.4byte	.LVL451
 8562 1c7e 873C0000 		.4byte	0x3c87
 8563 1c82 36       		.uleb128 0x36
 8564 1c83 01       		.uleb128 0x1
 8565 1c84 50       		.byte	0x50
 8566 1c85 02       		.uleb128 0x2
 8567 1c86 75       		.byte	0x75
 8568 1c87 00       		.sleb128 0
 8569 1c88 00       		.byte	0
 8570 1c89 00       		.byte	0
 8571 1c8a 31       		.uleb128 0x31
 8572 1c8b FC000000 		.4byte	.LASF420
 8573 1c8f 01       		.byte	0x1
 8574 1c90 3E09     		.2byte	0x93e
 8575 1c92 25000000 		.4byte	0x25
 8576 1c96 00000000 		.4byte	.LFB312
 8577 1c9a 50000000 		.4byte	.LFE312-.LFB312
 8578 1c9e 01       		.uleb128 0x1
 8579 1c9f 9C       		.byte	0x9c
 8580 1ca0 281D0000 		.4byte	0x1d28
 8581 1ca4 32       		.uleb128 0x32
 8582 1ca5 AE020000 		.4byte	.LASF418
 8583 1ca9 01       		.byte	0x1
 8584 1caa 3E09     		.2byte	0x93e
 8585 1cac 25000000 		.4byte	0x25
 8586 1cb0 52010000 		.4byte	.LLST168
 8587 1cb4 33       		.uleb128 0x33
 8588 1cb5 95070000 		.4byte	.LASF415
 8589 1cb9 01       		.byte	0x1
 8590 1cba 4009     		.2byte	0x940
ARM GAS  C:\cygwin64\tmp\ccxdpAIh.s 			page 154


 8591 1cbc E8190000 		.4byte	0x19e8
 8592 1cc0 A2010000 		.4byte	.LLST169
 8593 1cc4 34       		.uleb128 0x34
 8594 1cc5 666800   		.ascii	"fh\000"
 8595 1cc8 01       		.byte	0x1
 8596 1cc9 4109     		.2byte	0x941
 8597 1ccb 0C1B0000 		.4byte	0x1b0c
 8598 1ccf C0010000 		.4byte	.LLST170
 8599 1cd3 41       		.uleb128 0x41
 8600 1cd4 8F390000 		.4byte	0x398f
 8601 1cd8 00000000 		.4byte	.LBB123
 8602 1cdc C0000000 		.4byte	.Ldebug_ranges0+0xc0
 8603 1ce0 01       		.byte	0x1
 8604 1ce1 4309     		.2byte	0x943
 8605 1ce3 F11C0000 		.4byte	0x1cf1
 8606 1ce7 40       		.uleb128 0x40
 8607 1ce8 9F390000 		.4byte	0x399f
 8608 1cec D3010000 		.4byte	.LLST171
 8609 1cf0 00       		.byte	0
 8610 1cf1 35       		.uleb128 0x35
 8611 1cf2 0C000000 		.4byte	.LVL414
 8612 1cf6 7B320000 		.4byte	0x327b
 8613 1cfa 051D0000 		.4byte	0x1d05
 8614 1cfe 36       		.uleb128 0x36
 8615 1cff 01       		.uleb128 0x1
 8616 1d00 50       		.byte	0x50
 8617 1d01 02       		.uleb128 0x2
 8618 1d02 74       		.byte	0x74
 8619 1d03 00       		.sleb128 0
 8620 1d04 00       		.byte	0
 8621 1d05 37       		.uleb128 0x37
 8622 1d06 18000000 		.4byte	.LVL416
 8623 1d0a 873C0000 		.4byte	0x3c87
 8624 1d0e 37       		.uleb128 0x37
 8625 1d0f 28000000 		.4byte	.LVL417
 8626 1d13 873C0000 		.4byte	0x3c87
 8627 1d17 3B       		.uleb128 0x3b
 8628 1d18 36000000 		.4byte	.LVL418
 8629 1d1c 873C0000 		.4byte	0x3c87
 8630 1d20 36       		.uleb128 0x36
 8631 1d21 01       		.uleb128 0x1
 8632 1d22 50       		.byte	0x50
 8633 1d23 02       		.uleb128 0x2
 8634 1d24 75       		.byte	0x75
 8635 1d25 00       		.sleb128 0
 8636 1d26 00       		.byte	0
 8637 1d27 00       		.byte	0
 8638 1d28 31       		.uleb128 0x31
 8639 1d29 700C0000 		.4byte	.LASF421
 8640 1d2d 01       		.byte	0x1
 8641 1d2e 1B09     		.2byte	0x91b
 8642 1d30 0C1B0000 		.4byte	0x1b0c
 8643 1d34 00000000 		.4byte	.LFB311
 8644 1d38 2C000000 		.4byte	.LFE311-.LFB311
 8645 1d3c 01       		.uleb128 0x1
 8646 1d3d 9C       		.byte	0x9c
 8647 1d3e A11D0000 		.4byte	0x1da1
ARM GAS  C:\cygwin64\tmp\ccxdpAIh.s 			page 155


 8648 1d42 32       		.uleb128 0x32
 8649 1d43 AE020000 		.4byte	.LASF418
 8650 1d47 01       		.byte	0x1
 8651 1d48 1B09     		.2byte	0x91b
 8652 1d4a 25000000 		.4byte	0x25
 8653 1d4e E6010000 		.4byte	.LLST101
 8654 1d52 33       		.uleb128 0x33
 8655 1d53 95070000 		.4byte	.LASF415
 8656 1d57 01       		.byte	0x1
 8657 1d58 1D09     		.2byte	0x91d
 8658 1d5a E8190000 		.4byte	0x19e8
 8659 1d5e 20020000 		.4byte	.LLST102
 8660 1d62 34       		.uleb128 0x34
 8661 1d63 666800   		.ascii	"fh\000"
 8662 1d66 01       		.byte	0x1
 8663 1d67 1E09     		.2byte	0x91e
 8664 1d69 0C1B0000 		.4byte	0x1b0c
 8665 1d6d 3E020000 		.4byte	.LLST103
 8666 1d71 41       		.uleb128 0x41
 8667 1d72 8F390000 		.4byte	0x398f
 8668 1d76 00000000 		.4byte	.LBB99
 8669 1d7a 30000000 		.4byte	.Ldebug_ranges0+0x30
 8670 1d7e 01       		.byte	0x1
 8671 1d7f 2009     		.2byte	0x920
 8672 1d81 8F1D0000 		.4byte	0x1d8f
 8673 1d85 40       		.uleb128 0x40
 8674 1d86 9F390000 		.4byte	0x399f
 8675 1d8a 51020000 		.4byte	.LLST104
 8676 1d8e 00       		.byte	0
 8677 1d8f 3B       		.uleb128 0x3b
 8678 1d90 0A000000 		.4byte	.LVL288
 8679 1d94 7B320000 		.4byte	0x327b
 8680 1d98 36       		.uleb128 0x36
 8681 1d99 01       		.uleb128 0x1
 8682 1d9a 50       		.byte	0x50
 8683 1d9b 03       		.uleb128 0x3
 8684 1d9c F3       		.byte	0xf3
 8685 1d9d 01       		.uleb128 0x1
 8686 1d9e 50       		.byte	0x50
 8687 1d9f 00       		.byte	0
 8688 1da0 00       		.byte	0
 8689 1da1 42       		.uleb128 0x42
 8690 1da2 C1080000 		.4byte	.LASF442
 8691 1da6 01       		.byte	0x1
 8692 1da7 0309     		.2byte	0x903
 8693 1da9 00000000 		.4byte	.LFB310
 8694 1dad 50000000 		.4byte	.LFE310-.LFB310
 8695 1db1 01       		.uleb128 0x1
 8696 1db2 9C       		.byte	0x9c
 8697 1db3 041E0000 		.4byte	0x1e04
 8698 1db7 32       		.uleb128 0x32
 8699 1db8 2F030000 		.4byte	.LASF422
 8700 1dbc 01       		.byte	0x1
 8701 1dbd 0309     		.2byte	0x903
 8702 1dbf 1F160000 		.4byte	0x161f
 8703 1dc3 64020000 		.4byte	.LLST94
 8704 1dc7 32       		.uleb128 0x32
ARM GAS  C:\cygwin64\tmp\ccxdpAIh.s 			page 156


 8705 1dc8 D2080000 		.4byte	.LASF423
 8706 1dcc 01       		.byte	0x1
 8707 1dcd 0309     		.2byte	0x903
 8708 1dcf 041E0000 		.4byte	0x1e04
 8709 1dd3 83020000 		.4byte	.LLST95
 8710 1dd7 32       		.uleb128 0x32
 8711 1dd8 42070000 		.4byte	.LASF424
 8712 1ddc 01       		.byte	0x1
 8713 1ddd 0309     		.2byte	0x903
 8714 1ddf 041E0000 		.4byte	0x1e04
 8715 1de3 AF020000 		.4byte	.LLST96
 8716 1de7 30       		.uleb128 0x30
 8717 1de8 7400     		.ascii	"t\000"
 8718 1dea 01       		.byte	0x1
 8719 1deb 0509     		.2byte	0x905
 8720 1ded 0A1E0000 		.4byte	0x1e0a
 8721 1df1 01       		.uleb128 0x1
 8722 1df2 50       		.byte	0x50
 8723 1df3 3B       		.uleb128 0x3b
 8724 1df4 12000000 		.4byte	.LVL276
 8725 1df8 923C0000 		.4byte	0x3c92
 8726 1dfc 36       		.uleb128 0x36
 8727 1dfd 01       		.uleb128 0x1
 8728 1dfe 50       		.byte	0x50
 8729 1dff 02       		.uleb128 0x2
 8730 1e00 91       		.byte	0x91
 8731 1e01 6C       		.sleb128 -20
 8732 1e02 00       		.byte	0
 8733 1e03 00       		.byte	0
 8734 1e04 06       		.uleb128 0x6
 8735 1e05 04       		.byte	0x4
 8736 1e06 6B090000 		.4byte	0x96b
 8737 1e0a 06       		.uleb128 0x6
 8738 1e0b 04       		.byte	0x4
 8739 1e0c 82160000 		.4byte	0x1682
 8740 1e10 31       		.uleb128 0x31
 8741 1e11 EF130000 		.4byte	.LASF425
 8742 1e15 01       		.byte	0x1
 8743 1e16 EA08     		.2byte	0x8ea
 8744 1e18 1F160000 		.4byte	0x161f
 8745 1e1c 00000000 		.4byte	.LFB309
 8746 1e20 E0000000 		.4byte	.LFE309-.LFB309
 8747 1e24 01       		.uleb128 0x1
 8748 1e25 9C       		.byte	0x9c
 8749 1e26 D71E0000 		.4byte	0x1ed7
 8750 1e2a 32       		.uleb128 0x32
 8751 1e2b D2080000 		.4byte	.LASF423
 8752 1e2f 01       		.byte	0x1
 8753 1e30 EA08     		.2byte	0x8ea
 8754 1e32 6B090000 		.4byte	0x96b
 8755 1e36 DB020000 		.4byte	.LLST82
 8756 1e3a 32       		.uleb128 0x32
 8757 1e3b 42070000 		.4byte	.LASF424
 8758 1e3f 01       		.byte	0x1
 8759 1e40 EA08     		.2byte	0x8ea
 8760 1e42 6B090000 		.4byte	0x96b
 8761 1e46 FC020000 		.4byte	.LLST83
ARM GAS  C:\cygwin64\tmp\ccxdpAIh.s 			page 157


 8762 1e4a 43       		.uleb128 0x43
 8763 1e4b 747000   		.ascii	"tp\000"
 8764 1e4e 01       		.byte	0x1
 8765 1e4f EC08     		.2byte	0x8ec
 8766 1e51 82160000 		.4byte	0x1682
 8767 1e55 3E       		.uleb128 0x3e
 8768 1e56 38120000 		.4byte	.LASF426
 8769 1e5a 01       		.byte	0x1
 8770 1e5b ED08     		.2byte	0x8ed
 8771 1e5d 1F160000 		.4byte	0x161f
 8772 1e61 44       		.uleb128 0x44
 8773 1e62 D71E0000 		.4byte	0x1ed7
 8774 1e66 04000000 		.4byte	.LBB89
 8775 1e6a 00000000 		.4byte	.Ldebug_ranges0+0
 8776 1e6e 01       		.byte	0x1
 8777 1e6f F708     		.2byte	0x8f7
 8778 1e71 40       		.uleb128 0x40
 8779 1e72 E81E0000 		.4byte	0x1ee8
 8780 1e76 1D030000 		.4byte	.LLST84
 8781 1e7a 45       		.uleb128 0x45
 8782 1e7b 00000000 		.4byte	.Ldebug_ranges0+0
 8783 1e7f 46       		.uleb128 0x46
 8784 1e80 F21E0000 		.4byte	0x1ef2
 8785 1e84 45030000 		.4byte	.LLST85
 8786 1e88 46       		.uleb128 0x46
 8787 1e89 FE1E0000 		.4byte	0x1efe
 8788 1e8d 89030000 		.4byte	.LLST86
 8789 1e91 47       		.uleb128 0x47
 8790 1e92 081F0000 		.4byte	0x1f08
 8791 1e96 03       		.uleb128 0x3
 8792 1e97 91       		.byte	0x91
 8793 1e98 B07F     		.sleb128 -80
 8794 1e9a 46       		.uleb128 0x46
 8795 1e9b 141F0000 		.4byte	0x1f14
 8796 1e9f B7030000 		.4byte	.LLST87
 8797 1ea3 46       		.uleb128 0x46
 8798 1ea4 1E1F0000 		.4byte	0x1f1e
 8799 1ea8 D5030000 		.4byte	.LLST88
 8800 1eac 46       		.uleb128 0x46
 8801 1ead 281F0000 		.4byte	0x1f28
 8802 1eb1 16040000 		.4byte	.LLST89
 8803 1eb5 48       		.uleb128 0x48
 8804 1eb6 321F0000 		.4byte	0x1f32
 8805 1eba 3C       		.byte	0x3c
 8806 1ebb 49       		.uleb128 0x49
 8807 1ebc 3E1F0000 		.4byte	0x1f3e
 8808 1ec0 100E     		.2byte	0xe10
 8809 1ec2 4A       		.uleb128 0x4a
 8810 1ec3 4A1F0000 		.4byte	0x1f4a
 8811 1ec7 80510100 		.4byte	0x15180
 8812 1ecb 4A       		.uleb128 0x4a
 8813 1ecc 561F0000 		.4byte	0x1f56
 8814 1ed0 8033E101 		.4byte	0x1e13380
 8815 1ed4 00       		.byte	0
 8816 1ed5 00       		.byte	0
 8817 1ed6 00       		.byte	0
 8818 1ed7 4B       		.uleb128 0x4b
ARM GAS  C:\cygwin64\tmp\ccxdpAIh.s 			page 158


 8819 1ed8 44050000 		.4byte	.LASF547
 8820 1edc 01       		.byte	0x1
 8821 1edd B808     		.2byte	0x8b8
 8822 1edf 1F160000 		.4byte	0x161f
 8823 1ee3 01       		.byte	0x1
 8824 1ee4 631F0000 		.4byte	0x1f63
 8825 1ee8 4C       		.uleb128 0x4c
 8826 1ee9 7400     		.ascii	"t\000"
 8827 1eeb 01       		.byte	0x1
 8828 1eec B808     		.2byte	0x8b8
 8829 1eee 631F0000 		.4byte	0x1f63
 8830 1ef2 3E       		.uleb128 0x3e
 8831 1ef3 2F030000 		.4byte	.LASF422
 8832 1ef7 01       		.byte	0x1
 8833 1ef8 BA08     		.2byte	0x8ba
 8834 1efa 1F160000 		.4byte	0x161f
 8835 1efe 43       		.uleb128 0x43
 8836 1eff 6E00     		.ascii	"n\000"
 8837 1f01 01       		.byte	0x1
 8838 1f02 BB08     		.2byte	0x8bb
 8839 1f04 25000000 		.4byte	0x25
 8840 1f08 43       		.uleb128 0x43
 8841 1f09 6D6F6E00 		.ascii	"mon\000"
 8842 1f0d 01       		.byte	0x1
 8843 1f0e BC08     		.2byte	0x8bc
 8844 1f10 691F0000 		.4byte	0x1f69
 8845 1f14 43       		.uleb128 0x43
 8846 1f15 7900     		.ascii	"y\000"
 8847 1f17 01       		.byte	0x1
 8848 1f18 BC08     		.2byte	0x8bc
 8849 1f1a 25000000 		.4byte	0x25
 8850 1f1e 43       		.uleb128 0x43
 8851 1f1f 6D00     		.ascii	"m\000"
 8852 1f21 01       		.byte	0x1
 8853 1f22 BC08     		.2byte	0x8bc
 8854 1f24 25000000 		.4byte	0x25
 8855 1f28 43       		.uleb128 0x43
 8856 1f29 6900     		.ascii	"i\000"
 8857 1f2b 01       		.byte	0x1
 8858 1f2c BC08     		.2byte	0x8bc
 8859 1f2e 25000000 		.4byte	0x25
 8860 1f32 3E       		.uleb128 0x3e
 8861 1f33 A1110000 		.4byte	.LASF428
 8862 1f37 01       		.byte	0x1
 8863 1f38 BD08     		.2byte	0x8bd
 8864 1f3a 3E000000 		.4byte	0x3e
 8865 1f3e 3E       		.uleb128 0x3e
 8866 1f3f 80030000 		.4byte	.LASF429
 8867 1f43 01       		.byte	0x1
 8868 1f44 BE08     		.2byte	0x8be
 8869 1f46 3E000000 		.4byte	0x3e
 8870 1f4a 43       		.uleb128 0x43
 8871 1f4b 44415900 		.ascii	"DAY\000"
 8872 1f4f 01       		.byte	0x1
 8873 1f50 BF08     		.2byte	0x8bf
 8874 1f52 3E000000 		.4byte	0x3e
 8875 1f56 3E       		.uleb128 0x3e
ARM GAS  C:\cygwin64\tmp\ccxdpAIh.s 			page 159


 8876 1f57 5C100000 		.4byte	.LASF430
 8877 1f5b 01       		.byte	0x1
 8878 1f5c C008     		.2byte	0x8c0
 8879 1f5e 3E000000 		.4byte	0x3e
 8880 1f62 00       		.byte	0
 8881 1f63 06       		.uleb128 0x6
 8882 1f64 04       		.byte	0x4
 8883 1f65 FA160000 		.4byte	0x16fa
 8884 1f69 0B       		.uleb128 0xb
 8885 1f6a 25000000 		.4byte	0x25
 8886 1f6e 791F0000 		.4byte	0x1f79
 8887 1f72 0C       		.uleb128 0xc
 8888 1f73 83010000 		.4byte	0x183
 8889 1f77 0B       		.byte	0xb
 8890 1f78 00       		.byte	0
 8891 1f79 31       		.uleb128 0x31
 8892 1f7a C6110000 		.4byte	.LASF431
 8893 1f7e 01       		.byte	0x1
 8894 1f7f 9C08     		.2byte	0x89c
 8895 1f81 25000000 		.4byte	0x25
 8896 1f85 00000000 		.4byte	.LFB307
 8897 1f89 30000000 		.4byte	.LFE307-.LFB307
 8898 1f8d 01       		.uleb128 0x1
 8899 1f8e 9C       		.byte	0x9c
 8900 1f8f BF1F0000 		.4byte	0x1fbf
 8901 1f93 38       		.uleb128 0x38
 8902 1f94 666800   		.ascii	"fh\000"
 8903 1f97 01       		.byte	0x1
 8904 1f98 9C08     		.2byte	0x89c
 8905 1f9a 0C1B0000 		.4byte	0x1b0c
 8906 1f9e 40040000 		.4byte	.LLST80
 8907 1fa2 30       		.uleb128 0x30
 8908 1fa3 6900     		.ascii	"i\000"
 8909 1fa5 01       		.byte	0x1
 8910 1fa6 9E08     		.2byte	0x89e
 8911 1fa8 25000000 		.4byte	0x25
 8912 1fac 01       		.uleb128 0x1
 8913 1fad 53       		.byte	0x53
 8914 1fae 33       		.uleb128 0x33
 8915 1faf 95070000 		.4byte	.LASF415
 8916 1fb3 01       		.byte	0x1
 8917 1fb4 A008     		.2byte	0x8a0
 8918 1fb6 E8190000 		.4byte	0x19e8
 8919 1fba 6C040000 		.4byte	.LLST81
 8920 1fbe 00       		.byte	0
 8921 1fbf 3C       		.uleb128 0x3c
 8922 1fc0 3D0E0000 		.4byte	.LASF433
 8923 1fc4 01       		.byte	0x1
 8924 1fc5 4F08     		.2byte	0x84f
 8925 1fc7 25000000 		.4byte	0x25
 8926 1fcb 01       		.byte	0x1
 8927 1fcc DD1F0000 		.4byte	0x1fdd
 8928 1fd0 3D       		.uleb128 0x3d
 8929 1fd1 B80C0000 		.4byte	.LASF434
 8930 1fd5 01       		.byte	0x1
 8931 1fd6 4F08     		.2byte	0x84f
 8932 1fd8 E7150000 		.4byte	0x15e7
ARM GAS  C:\cygwin64\tmp\ccxdpAIh.s 			page 160


 8933 1fdc 00       		.byte	0
 8934 1fdd 31       		.uleb128 0x31
 8935 1fde 570B0000 		.4byte	.LASF435
 8936 1fe2 01       		.byte	0x1
 8937 1fe3 2708     		.2byte	0x827
 8938 1fe5 25000000 		.4byte	0x25
 8939 1fe9 00000000 		.4byte	.LFB305
 8940 1fed 60000000 		.4byte	.LFE305-.LFB305
 8941 1ff1 01       		.uleb128 0x1
 8942 1ff2 9C       		.byte	0x9c
 8943 1ff3 5F200000 		.4byte	0x205f
 8944 1ff7 38       		.uleb128 0x38
 8945 1ff8 6300     		.ascii	"c\000"
 8946 1ffa 01       		.byte	0x1
 8947 1ffb 2708     		.2byte	0x827
 8948 1ffd D4010000 		.4byte	0x1d4
 8949 2001 A1040000 		.4byte	.LLST3
 8950 2005 32       		.uleb128 0x32
 8951 2006 95070000 		.4byte	.LASF415
 8952 200a 01       		.byte	0x1
 8953 200b 2708     		.2byte	0x827
 8954 200d E8190000 		.4byte	0x19e8
 8955 2011 E3040000 		.4byte	.LLST4
 8956 2015 34       		.uleb128 0x34
 8957 2016 72657300 		.ascii	"res\000"
 8958 201a 01       		.byte	0x1
 8959 201b 2908     		.2byte	0x829
 8960 201d 25000000 		.4byte	0x25
 8961 2021 17050000 		.4byte	.LLST5
 8962 2025 34       		.uleb128 0x34
 8963 2026 666800   		.ascii	"fh\000"
 8964 2029 01       		.byte	0x1
 8965 202a 2A08     		.2byte	0x82a
 8966 202c 0C1B0000 		.4byte	0x1b0c
 8967 2030 2F050000 		.4byte	.LLST6
 8968 2034 4D       		.uleb128 0x4d
 8969 2035 BD0E0000 		.4byte	.LASF239
 8970 2039 01       		.byte	0x1
 8971 203a 2B08     		.2byte	0x82b
 8972 203c A7090000 		.4byte	0x9a7
 8973 2040 02       		.uleb128 0x2
 8974 2041 91       		.byte	0x91
 8975 2042 6C       		.sleb128 -20
 8976 2043 3B       		.uleb128 0x3b
 8977 2044 30000000 		.4byte	.LVL22
 8978 2048 9D3C0000 		.4byte	0x3c9d
 8979 204c 36       		.uleb128 0x36
 8980 204d 01       		.uleb128 0x1
 8981 204e 51       		.byte	0x51
 8982 204f 02       		.uleb128 0x2
 8983 2050 91       		.byte	0x91
 8984 2051 67       		.sleb128 -25
 8985 2052 36       		.uleb128 0x36
 8986 2053 01       		.uleb128 0x1
 8987 2054 52       		.byte	0x52
 8988 2055 01       		.uleb128 0x1
 8989 2056 31       		.byte	0x31
ARM GAS  C:\cygwin64\tmp\ccxdpAIh.s 			page 161


 8990 2057 36       		.uleb128 0x36
 8991 2058 01       		.uleb128 0x1
 8992 2059 53       		.byte	0x53
 8993 205a 02       		.uleb128 0x2
 8994 205b 91       		.byte	0x91
 8995 205c 6C       		.sleb128 -20
 8996 205d 00       		.byte	0
 8997 205e 00       		.byte	0
 8998 205f 31       		.uleb128 0x31
 8999 2060 6D100000 		.4byte	.LASF436
 9000 2064 01       		.byte	0x1
 9001 2065 CD07     		.2byte	0x7cd
 9002 2067 25000000 		.4byte	0x25
 9003 206b 00000000 		.4byte	.LFB304
 9004 206f 90000000 		.4byte	.LFE304-.LFB304
 9005 2073 01       		.uleb128 0x1
 9006 2074 9C       		.byte	0x9c
 9007 2075 28210000 		.4byte	0x2128
 9008 2079 32       		.uleb128 0x32
 9009 207a 95070000 		.4byte	.LASF415
 9010 207e 01       		.byte	0x1
 9011 207f CD07     		.2byte	0x7cd
 9012 2081 E8190000 		.4byte	0x19e8
 9013 2085 42050000 		.4byte	.LLST0
 9014 2089 30       		.uleb128 0x30
 9015 208a 666800   		.ascii	"fh\000"
 9016 208d 01       		.byte	0x1
 9017 208e CF07     		.2byte	0x7cf
 9018 2090 0C1B0000 		.4byte	0x1b0c
 9019 2094 01       		.uleb128 0x1
 9020 2095 54       		.byte	0x54
 9021 2096 4D       		.uleb128 0x4d
 9022 2097 BD0E0000 		.4byte	.LASF239
 9023 209b 01       		.byte	0x1
 9024 209c D007     		.2byte	0x7d0
 9025 209e A7090000 		.4byte	0x9a7
 9026 20a2 02       		.uleb128 0x2
 9027 20a3 91       		.byte	0x91
 9028 20a4 6C       		.sleb128 -20
 9029 20a5 34       		.uleb128 0x34
 9030 20a6 72657300 		.ascii	"res\000"
 9031 20aa 01       		.byte	0x1
 9032 20ab D107     		.2byte	0x7d1
 9033 20ad 25000000 		.4byte	0x25
 9034 20b1 76050000 		.4byte	.LLST1
 9035 20b5 30       		.uleb128 0x30
 9036 20b6 6300     		.ascii	"c\000"
 9037 20b8 01       		.byte	0x1
 9038 20b9 D207     		.2byte	0x7d2
 9039 20bb 55090000 		.4byte	0x955
 9040 20bf 02       		.uleb128 0x2
 9041 20c0 91       		.byte	0x91
 9042 20c1 6B       		.sleb128 -21
 9043 20c2 34       		.uleb128 0x34
 9044 20c3 706F7300 		.ascii	"pos\000"
 9045 20c7 01       		.byte	0x1
 9046 20c8 D307     		.2byte	0x7d3
ARM GAS  C:\cygwin64\tmp\ccxdpAIh.s 			page 162


 9047 20ca 99000000 		.4byte	0x99
 9048 20ce 9E050000 		.4byte	.LLST2
 9049 20d2 35       		.uleb128 0x35
 9050 20d3 2C000000 		.4byte	.LVL5
 9051 20d7 A83C0000 		.4byte	0x3ca8
 9052 20db F7200000 		.4byte	0x20f7
 9053 20df 36       		.uleb128 0x36
 9054 20e0 01       		.uleb128 0x1
 9055 20e1 50       		.byte	0x50
 9056 20e2 02       		.uleb128 0x2
 9057 20e3 74       		.byte	0x74
 9058 20e4 00       		.sleb128 0
 9059 20e5 36       		.uleb128 0x36
 9060 20e6 01       		.uleb128 0x1
 9061 20e7 51       		.byte	0x51
 9062 20e8 02       		.uleb128 0x2
 9063 20e9 91       		.byte	0x91
 9064 20ea 6B       		.sleb128 -21
 9065 20eb 36       		.uleb128 0x36
 9066 20ec 01       		.uleb128 0x1
 9067 20ed 52       		.byte	0x52
 9068 20ee 01       		.uleb128 0x1
 9069 20ef 31       		.byte	0x31
 9070 20f0 36       		.uleb128 0x36
 9071 20f1 01       		.uleb128 0x1
 9072 20f2 53       		.byte	0x53
 9073 20f3 02       		.uleb128 0x2
 9074 20f4 91       		.byte	0x91
 9075 20f5 6C       		.sleb128 -20
 9076 20f6 00       		.byte	0
 9077 20f7 35       		.uleb128 0x35
 9078 20f8 62000000 		.4byte	.LVL12
 9079 20fc A83C0000 		.4byte	0x3ca8
 9080 2100 17210000 		.4byte	0x2117
 9081 2104 36       		.uleb128 0x36
 9082 2105 01       		.uleb128 0x1
 9083 2106 50       		.byte	0x50
 9084 2107 02       		.uleb128 0x2
 9085 2108 74       		.byte	0x74
 9086 2109 00       		.sleb128 0
 9087 210a 36       		.uleb128 0x36
 9088 210b 01       		.uleb128 0x1
 9089 210c 51       		.byte	0x51
 9090 210d 02       		.uleb128 0x2
 9091 210e 91       		.byte	0x91
 9092 210f 6B       		.sleb128 -21
 9093 2110 36       		.uleb128 0x36
 9094 2111 01       		.uleb128 0x1
 9095 2112 53       		.byte	0x53
 9096 2113 02       		.uleb128 0x2
 9097 2114 91       		.byte	0x91
 9098 2115 6C       		.sleb128 -20
 9099 2116 00       		.byte	0
 9100 2117 3B       		.uleb128 0x3b
 9101 2118 7C000000 		.4byte	.LVL14
 9102 211c B33C0000 		.4byte	0x3cb3
 9103 2120 36       		.uleb128 0x36
ARM GAS  C:\cygwin64\tmp\ccxdpAIh.s 			page 163


 9104 2121 01       		.uleb128 0x1
 9105 2122 50       		.byte	0x50
 9106 2123 02       		.uleb128 0x2
 9107 2124 74       		.byte	0x74
 9108 2125 00       		.sleb128 0
 9109 2126 00       		.byte	0
 9110 2127 00       		.byte	0
 9111 2128 31       		.uleb128 0x31
 9112 2129 9B0D0000 		.4byte	.LASF437
 9113 212d 01       		.byte	0x1
 9114 212e 6007     		.2byte	0x760
 9115 2130 E8190000 		.4byte	0x19e8
 9116 2134 00000000 		.4byte	.LFB303
 9117 2138 50000000 		.4byte	.LFE303-.LFB303
 9118 213c 01       		.uleb128 0x1
 9119 213d 9C       		.byte	0x9c
 9120 213e 83210000 		.4byte	0x2183
 9121 2142 38       		.uleb128 0x38
 9122 2143 70757400 		.ascii	"put\000"
 9123 2147 01       		.byte	0x1
 9124 2148 6007     		.2byte	0x760
 9125 214a 97210000 		.4byte	0x2197
 9126 214e B1050000 		.4byte	.LLST77
 9127 2152 38       		.uleb128 0x38
 9128 2153 67657400 		.ascii	"get\000"
 9129 2157 01       		.byte	0x1
 9130 2158 6007     		.2byte	0x760
 9131 215a AC210000 		.4byte	0x21ac
 9132 215e F3050000 		.4byte	.LLST78
 9133 2162 30       		.uleb128 0x30
 9134 2163 7300     		.ascii	"s\000"
 9135 2165 01       		.byte	0x1
 9136 2166 6207     		.2byte	0x762
 9137 2168 E8190000 		.4byte	0x19e8
 9138 216c 01       		.uleb128 0x1
 9139 216d 50       		.byte	0x50
 9140 216e 3B       		.uleb128 0x3b
 9141 216f 16000000 		.4byte	.LVL230
 9142 2173 7C3C0000 		.4byte	0x3c7c
 9143 2177 36       		.uleb128 0x36
 9144 2178 01       		.uleb128 0x1
 9145 2179 50       		.byte	0x50
 9146 217a 01       		.uleb128 0x1
 9147 217b 31       		.byte	0x31
 9148 217c 36       		.uleb128 0x36
 9149 217d 01       		.uleb128 0x1
 9150 217e 51       		.byte	0x51
 9151 217f 01       		.uleb128 0x1
 9152 2180 4C       		.byte	0x4c
 9153 2181 00       		.byte	0
 9154 2182 00       		.byte	0
 9155 2183 15       		.uleb128 0x15
 9156 2184 25000000 		.4byte	0x25
 9157 2188 97210000 		.4byte	0x2197
 9158 218c 16       		.uleb128 0x16
 9159 218d D4010000 		.4byte	0x1d4
 9160 2191 16       		.uleb128 0x16
ARM GAS  C:\cygwin64\tmp\ccxdpAIh.s 			page 164


 9161 2192 E8190000 		.4byte	0x19e8
 9162 2196 00       		.byte	0
 9163 2197 06       		.uleb128 0x6
 9164 2198 04       		.byte	0x4
 9165 2199 83210000 		.4byte	0x2183
 9166 219d 15       		.uleb128 0x15
 9167 219e 25000000 		.4byte	0x25
 9168 21a2 AC210000 		.4byte	0x21ac
 9169 21a6 16       		.uleb128 0x16
 9170 21a7 E8190000 		.4byte	0x19e8
 9171 21ab 00       		.byte	0
 9172 21ac 06       		.uleb128 0x6
 9173 21ad 04       		.byte	0x4
 9174 21ae 9D210000 		.4byte	0x219d
 9175 21b2 31       		.uleb128 0x31
 9176 21b3 DA050000 		.4byte	.LASF438
 9177 21b7 01       		.byte	0x1
 9178 21b8 4D07     		.2byte	0x74d
 9179 21ba CE010000 		.4byte	0x1ce
 9180 21be 00000000 		.4byte	.LFB302
 9181 21c2 18000000 		.4byte	.LFE302-.LFB302
 9182 21c6 01       		.uleb128 0x1
 9183 21c7 9C       		.byte	0x9c
 9184 21c8 14220000 		.4byte	0x2214
 9185 21cc 32       		.uleb128 0x32
 9186 21cd C4030000 		.4byte	.LASF439
 9187 21d1 01       		.byte	0x1
 9188 21d2 4D07     		.2byte	0x74d
 9189 21d4 25000000 		.4byte	0x25
 9190 21d8 35060000 		.4byte	.LLST74
 9191 21dc 38       		.uleb128 0x38
 9192 21dd 62756600 		.ascii	"buf\000"
 9193 21e1 01       		.byte	0x1
 9194 21e2 4D07     		.2byte	0x74d
 9195 21e4 CE010000 		.4byte	0x1ce
 9196 21e8 56060000 		.4byte	.LLST75
 9197 21ec 32       		.uleb128 0x32
 9198 21ed F70B0000 		.4byte	.LASF440
 9199 21f1 01       		.byte	0x1
 9200 21f2 4D07     		.2byte	0x74d
 9201 21f4 2C000000 		.4byte	0x2c
 9202 21f8 7F060000 		.4byte	.LLST76
 9203 21fc 3B       		.uleb128 0x3b
 9204 21fd 10000000 		.4byte	.LVL223
 9205 2201 BE3C0000 		.4byte	0x3cbe
 9206 2205 36       		.uleb128 0x36
 9207 2206 01       		.uleb128 0x1
 9208 2207 50       		.byte	0x50
 9209 2208 02       		.uleb128 0x2
 9210 2209 74       		.byte	0x74
 9211 220a 00       		.sleb128 0
 9212 220b 36       		.uleb128 0x36
 9213 220c 01       		.uleb128 0x1
 9214 220d 52       		.byte	0x52
 9215 220e 03       		.uleb128 0x3
 9216 220f F3       		.byte	0xf3
 9217 2210 01       		.uleb128 0x1
ARM GAS  C:\cygwin64\tmp\ccxdpAIh.s 			page 165


 9218 2211 52       		.byte	0x52
 9219 2212 00       		.byte	0
 9220 2213 00       		.byte	0
 9221 2214 4E       		.uleb128 0x4e
 9222 2215 4E0B0000 		.4byte	.LASF441
 9223 2219 1E       		.byte	0x1e
 9224 221a 24       		.byte	0x24
 9225 221b CE010000 		.4byte	0x1ce
 9226 221f 00000000 		.4byte	.LFB301
 9227 2223 0C000000 		.4byte	.LFE301-.LFB301
 9228 2227 01       		.uleb128 0x1
 9229 2228 9C       		.byte	0x9c
 9230 2229 3E220000 		.4byte	0x223e
 9231 222d 32       		.uleb128 0x32
 9232 222e C4030000 		.4byte	.LASF439
 9233 2232 01       		.byte	0x1
 9234 2233 3C07     		.2byte	0x73c
 9235 2235 25000000 		.4byte	0x25
 9236 2239 A0060000 		.4byte	.LLST73
 9237 223d 00       		.byte	0
 9238 223e 42       		.uleb128 0x42
 9239 223f D10B0000 		.4byte	.LASF443
 9240 2243 01       		.byte	0x1
 9241 2244 2307     		.2byte	0x723
 9242 2246 00000000 		.4byte	.LFB300
 9243 224a 34000000 		.4byte	.LFE300-.LFB300
 9244 224e 01       		.uleb128 0x1
 9245 224f 9C       		.byte	0x9c
 9246 2250 9A220000 		.4byte	0x229a
 9247 2254 38       		.uleb128 0x38
 9248 2255 7300     		.ascii	"s\000"
 9249 2257 01       		.byte	0x1
 9250 2258 2307     		.2byte	0x723
 9251 225a 4C060000 		.4byte	0x64c
 9252 225e C1060000 		.4byte	.LLST71
 9253 2262 34       		.uleb128 0x34
 9254 2263 70747200 		.ascii	"ptr\000"
 9255 2267 01       		.byte	0x1
 9256 2268 2507     		.2byte	0x725
 9257 226a 4C060000 		.4byte	0x64c
 9258 226e 11070000 		.4byte	.LLST72
 9259 2272 4F       		.uleb128 0x4f
 9260 2273 20000000 		.4byte	.LVL215
 9261 2277 C93C0000 		.4byte	0x3cc9
 9262 227b 90220000 		.4byte	0x2290
 9263 227f 36       		.uleb128 0x36
 9264 2280 01       		.uleb128 0x1
 9265 2281 50       		.byte	0x50
 9266 2282 05       		.uleb128 0x5
 9267 2283 03       		.byte	0x3
 9268 2284 00000000 		.4byte	.LC3
 9269 2288 36       		.uleb128 0x36
 9270 2289 01       		.uleb128 0x1
 9271 228a 51       		.byte	0x51
 9272 228b 03       		.uleb128 0x3
 9273 228c F3       		.byte	0xf3
 9274 228d 01       		.uleb128 0x1
ARM GAS  C:\cygwin64\tmp\ccxdpAIh.s 			page 166


 9275 228e 50       		.byte	0x50
 9276 228f 00       		.byte	0
 9277 2290 50       		.uleb128 0x50
 9278 2291 26000000 		.4byte	.LVL217
 9279 2295 D43C0000 		.4byte	0x3cd4
 9280 2299 00       		.byte	0
 9281 229a 31       		.uleb128 0x31
 9282 229b FA100000 		.4byte	.LASF444
 9283 229f 01       		.byte	0x1
 9284 22a0 1307     		.2byte	0x713
 9285 22a2 25000000 		.4byte	0x25
 9286 22a6 00000000 		.4byte	.LFB299
 9287 22aa 08000000 		.4byte	.LFE299-.LFB299
 9288 22ae 01       		.uleb128 0x1
 9289 22af 9C       		.byte	0x9c
 9290 22b0 C5220000 		.4byte	0x22c5
 9291 22b4 32       		.uleb128 0x32
 9292 22b5 95070000 		.4byte	.LASF415
 9293 22b9 01       		.byte	0x1
 9294 22ba 1307     		.2byte	0x713
 9295 22bc E8190000 		.4byte	0x19e8
 9296 22c0 3B070000 		.4byte	.LLST70
 9297 22c4 00       		.byte	0
 9298 22c5 42       		.uleb128 0x42
 9299 22c6 51070000 		.4byte	.LASF445
 9300 22ca 01       		.byte	0x1
 9301 22cb 0707     		.2byte	0x707
 9302 22cd 00000000 		.4byte	.LFB298
 9303 22d1 0A000000 		.4byte	.LFE298-.LFB298
 9304 22d5 01       		.uleb128 0x1
 9305 22d6 9C       		.byte	0x9c
 9306 22d7 EA220000 		.4byte	0x22ea
 9307 22db 51       		.uleb128 0x51
 9308 22dc 95070000 		.4byte	.LASF415
 9309 22e0 01       		.byte	0x1
 9310 22e1 0707     		.2byte	0x707
 9311 22e3 E8190000 		.4byte	0x19e8
 9312 22e7 01       		.uleb128 0x1
 9313 22e8 50       		.byte	0x50
 9314 22e9 00       		.byte	0
 9315 22ea 31       		.uleb128 0x31
 9316 22eb B9080000 		.4byte	.LASF446
 9317 22ef 01       		.byte	0x1
 9318 22f0 E806     		.2byte	0x6e8
 9319 22f2 92230000 		.4byte	0x2392
 9320 22f6 00000000 		.4byte	.LFB297
 9321 22fa 58000000 		.4byte	.LFE297-.LFB297
 9322 22fe 01       		.uleb128 0x1
 9323 22ff 9C       		.byte	0x9c
 9324 2300 92230000 		.4byte	0x2392
 9325 2304 32       		.uleb128 0x32
 9326 2305 230B0000 		.4byte	.LASF447
 9327 2309 01       		.byte	0x1
 9328 230a E806     		.2byte	0x6e8
 9329 230c 98230000 		.4byte	0x2398
 9330 2310 5C070000 		.4byte	.LLST67
 9331 2314 30       		.uleb128 0x30
ARM GAS  C:\cygwin64\tmp\ccxdpAIh.s 			page 167


 9332 2315 666E6F00 		.ascii	"fno\000"
 9333 2319 01       		.byte	0x1
 9334 231a EA06     		.2byte	0x6ea
 9335 231c 57150000 		.4byte	0x1557
 9336 2320 03       		.uleb128 0x3
 9337 2321 91       		.byte	0x91
 9338 2322 D07D     		.sleb128 -304
 9339 2324 34       		.uleb128 0x34
 9340 2325 6C656E00 		.ascii	"len\000"
 9341 2329 01       		.byte	0x1
 9342 232a EB06     		.2byte	0x6eb
 9343 232c 25000000 		.4byte	0x25
 9344 2330 7D070000 		.4byte	.LLST68
 9345 2334 34       		.uleb128 0x34
 9346 2335 72657300 		.ascii	"res\000"
 9347 2339 01       		.byte	0x1
 9348 233a EC06     		.2byte	0x6ec
 9349 233c 25000000 		.4byte	0x25
 9350 2340 A6070000 		.4byte	.LLST69
 9351 2344 35       		.uleb128 0x35
 9352 2345 10000000 		.4byte	.LVL197
 9353 2349 E33C0000 		.4byte	0x3ce3
 9354 234d 5F230000 		.4byte	0x235f
 9355 2351 36       		.uleb128 0x36
 9356 2352 01       		.uleb128 0x1
 9357 2353 50       		.byte	0x50
 9358 2354 03       		.uleb128 0x3
 9359 2355 F3       		.byte	0xf3
 9360 2356 01       		.uleb128 0x1
 9361 2357 50       		.byte	0x50
 9362 2358 36       		.uleb128 0x36
 9363 2359 01       		.uleb128 0x1
 9364 235a 51       		.byte	0x51
 9365 235b 02       		.uleb128 0x2
 9366 235c 7D       		.byte	0x7d
 9367 235d 00       		.sleb128 0
 9368 235e 00       		.byte	0
 9369 235f 35       		.uleb128 0x35
 9370 2360 38000000 		.4byte	.LVL204
 9371 2364 EF3C0000 		.4byte	0x3cef
 9372 2368 74230000 		.4byte	0x2374
 9373 236c 36       		.uleb128 0x36
 9374 236d 01       		.uleb128 0x1
 9375 236e 50       		.byte	0x50
 9376 236f 03       		.uleb128 0x3
 9377 2370 91       		.byte	0x91
 9378 2371 EA7D     		.sleb128 -278
 9379 2373 00       		.byte	0
 9380 2374 3B       		.uleb128 0x3b
 9381 2375 46000000 		.4byte	.LVL207
 9382 2379 BE3C0000 		.4byte	0x3cbe
 9383 237d 36       		.uleb128 0x36
 9384 237e 01       		.uleb128 0x1
 9385 237f 50       		.byte	0x50
 9386 2380 02       		.uleb128 0x2
 9387 2381 74       		.byte	0x74
 9388 2382 00       		.sleb128 0
ARM GAS  C:\cygwin64\tmp\ccxdpAIh.s 			page 168


 9389 2383 36       		.uleb128 0x36
 9390 2384 01       		.uleb128 0x1
 9391 2385 51       		.byte	0x51
 9392 2386 03       		.uleb128 0x3
 9393 2387 91       		.byte	0x91
 9394 2388 EA7D     		.sleb128 -278
 9395 238a 36       		.uleb128 0x36
 9396 238b 01       		.uleb128 0x1
 9397 238c 52       		.byte	0x52
 9398 238d 02       		.uleb128 0x2
 9399 238e 76       		.byte	0x76
 9400 238f 00       		.sleb128 0
 9401 2390 00       		.byte	0
 9402 2391 00       		.byte	0
 9403 2392 06       		.uleb128 0x6
 9404 2393 04       		.byte	0x4
 9405 2394 20190000 		.4byte	0x1920
 9406 2398 06       		.uleb128 0x6
 9407 2399 04       		.byte	0x4
 9408 239a DA140000 		.4byte	0x14da
 9409 239e 31       		.uleb128 0x31
 9410 239f 070E0000 		.4byte	.LASF448
 9411 23a3 01       		.byte	0x1
 9412 23a4 D506     		.2byte	0x6d5
 9413 23a6 98230000 		.4byte	0x2398
 9414 23aa 00000000 		.4byte	.LFB296
 9415 23ae 30000000 		.4byte	.LFE296-.LFB296
 9416 23b2 01       		.uleb128 0x1
 9417 23b3 9C       		.byte	0x9c
 9418 23b4 F3230000 		.4byte	0x23f3
 9419 23b8 32       		.uleb128 0x32
 9420 23b9 53050000 		.4byte	.LASF449
 9421 23bd 01       		.byte	0x1
 9422 23be D506     		.2byte	0x6d5
 9423 23c0 4C060000 		.4byte	0x64c
 9424 23c4 CE070000 		.4byte	.LLST65
 9425 23c8 34       		.uleb128 0x34
 9426 23c9 72657300 		.ascii	"res\000"
 9427 23cd 01       		.byte	0x1
 9428 23ce D706     		.2byte	0x6d7
 9429 23d0 25000000 		.4byte	0x25
 9430 23d4 FA070000 		.4byte	.LLST66
 9431 23d8 3B       		.uleb128 0x3b
 9432 23d9 0A000000 		.4byte	.LVL190
 9433 23dd FA3C0000 		.4byte	0x3cfa
 9434 23e1 36       		.uleb128 0x36
 9435 23e2 01       		.uleb128 0x1
 9436 23e3 50       		.byte	0x50
 9437 23e4 05       		.uleb128 0x5
 9438 23e5 03       		.byte	0x3
 9439 23e6 00000000 		.4byte	.LANCHOR3
 9440 23ea 36       		.uleb128 0x36
 9441 23eb 01       		.uleb128 0x1
 9442 23ec 51       		.byte	0x51
 9443 23ed 03       		.uleb128 0x3
 9444 23ee F3       		.byte	0xf3
 9445 23ef 01       		.uleb128 0x1
ARM GAS  C:\cygwin64\tmp\ccxdpAIh.s 			page 169


 9446 23f0 50       		.byte	0x50
 9447 23f1 00       		.byte	0
 9448 23f2 00       		.byte	0
 9449 23f3 31       		.uleb128 0x31
 9450 23f4 80080000 		.4byte	.LASF450
 9451 23f8 01       		.byte	0x1
 9452 23f9 C206     		.2byte	0x6c2
 9453 23fb 25000000 		.4byte	0x25
 9454 23ff 00000000 		.4byte	.LFB295
 9455 2403 28000000 		.4byte	.LFE295-.LFB295
 9456 2407 01       		.uleb128 0x1
 9457 2408 9C       		.byte	0x9c
 9458 2409 3F240000 		.4byte	0x243f
 9459 240d 32       		.uleb128 0x32
 9460 240e 230B0000 		.4byte	.LASF447
 9461 2412 01       		.byte	0x1
 9462 2413 C206     		.2byte	0x6c2
 9463 2415 98230000 		.4byte	0x2398
 9464 2419 22080000 		.4byte	.LLST63
 9465 241d 34       		.uleb128 0x34
 9466 241e 72657300 		.ascii	"res\000"
 9467 2422 01       		.byte	0x1
 9468 2423 C406     		.2byte	0x6c4
 9469 2425 25000000 		.4byte	0x25
 9470 2429 43080000 		.4byte	.LLST64
 9471 242d 3B       		.uleb128 0x3b
 9472 242e 06000000 		.4byte	.LVL184
 9473 2432 053D0000 		.4byte	0x3d05
 9474 2436 36       		.uleb128 0x36
 9475 2437 01       		.uleb128 0x1
 9476 2438 50       		.byte	0x50
 9477 2439 03       		.uleb128 0x3
 9478 243a F3       		.byte	0xf3
 9479 243b 01       		.uleb128 0x1
 9480 243c 50       		.byte	0x50
 9481 243d 00       		.byte	0
 9482 243e 00       		.byte	0
 9483 243f 31       		.uleb128 0x31
 9484 2440 F9030000 		.4byte	.LASF451
 9485 2444 01       		.byte	0x1
 9486 2445 AA06     		.2byte	0x6aa
 9487 2447 25000000 		.4byte	0x25
 9488 244b 00000000 		.4byte	.LFB294
 9489 244f 28000000 		.4byte	.LFE294-.LFB294
 9490 2453 01       		.uleb128 0x1
 9491 2454 9C       		.byte	0x9c
 9492 2455 8B240000 		.4byte	0x248b
 9493 2459 32       		.uleb128 0x32
 9494 245a EF0C0000 		.4byte	.LASF452
 9495 245e 01       		.byte	0x1
 9496 245f AA06     		.2byte	0x6aa
 9497 2461 4C060000 		.4byte	0x64c
 9498 2465 5B080000 		.4byte	.LLST61
 9499 2469 34       		.uleb128 0x34
 9500 246a 72657300 		.ascii	"res\000"
 9501 246e 01       		.byte	0x1
 9502 246f AD06     		.2byte	0x6ad
ARM GAS  C:\cygwin64\tmp\ccxdpAIh.s 			page 170


 9503 2471 25000000 		.4byte	0x25
 9504 2475 7C080000 		.4byte	.LLST62
 9505 2479 3B       		.uleb128 0x3b
 9506 247a 0C000000 		.4byte	.LVL179
 9507 247e 113D0000 		.4byte	0x3d11
 9508 2482 36       		.uleb128 0x36
 9509 2483 01       		.uleb128 0x1
 9510 2484 50       		.byte	0x50
 9511 2485 03       		.uleb128 0x3
 9512 2486 F3       		.byte	0xf3
 9513 2487 01       		.uleb128 0x1
 9514 2488 50       		.byte	0x50
 9515 2489 00       		.byte	0
 9516 248a 00       		.byte	0
 9517 248b 52       		.uleb128 0x52
 9518 248c 32000000 		.4byte	.LASF453
 9519 2490 01       		.byte	0x1
 9520 2491 9D06     		.2byte	0x69d
 9521 2493 25000000 		.4byte	0x25
 9522 2497 B4240000 		.4byte	0x24b4
 9523 249b 3D       		.uleb128 0x3d
 9524 249c EF0C0000 		.4byte	.LASF452
 9525 24a0 01       		.byte	0x1
 9526 24a1 9D06     		.2byte	0x69d
 9527 24a3 4C060000 		.4byte	0x64c
 9528 24a7 43       		.uleb128 0x43
 9529 24a8 72657300 		.ascii	"res\000"
 9530 24ac 01       		.byte	0x1
 9531 24ad A006     		.2byte	0x6a0
 9532 24af 25000000 		.4byte	0x25
 9533 24b3 00       		.byte	0
 9534 24b4 52       		.uleb128 0x52
 9535 24b5 65130000 		.4byte	.LASF454
 9536 24b9 01       		.byte	0x1
 9537 24ba 8706     		.2byte	0x687
 9538 24bc 25000000 		.4byte	0x25
 9539 24c0 DD240000 		.4byte	0x24dd
 9540 24c4 3D       		.uleb128 0x3d
 9541 24c5 EF0C0000 		.4byte	.LASF452
 9542 24c9 01       		.byte	0x1
 9543 24ca 8706     		.2byte	0x687
 9544 24cc 4C060000 		.4byte	0x64c
 9545 24d0 43       		.uleb128 0x43
 9546 24d1 72657300 		.ascii	"res\000"
 9547 24d5 01       		.byte	0x1
 9548 24d6 8A06     		.2byte	0x68a
 9549 24d8 25000000 		.4byte	0x25
 9550 24dc 00       		.byte	0
 9551 24dd 31       		.uleb128 0x31
 9552 24de B10C0000 		.4byte	.LASF455
 9553 24e2 01       		.byte	0x1
 9554 24e3 7006     		.2byte	0x670
 9555 24e5 25000000 		.4byte	0x25
 9556 24e9 00000000 		.4byte	.LFB291
 9557 24ed 28000000 		.4byte	.LFE291-.LFB291
 9558 24f1 01       		.uleb128 0x1
 9559 24f2 9C       		.byte	0x9c
ARM GAS  C:\cygwin64\tmp\ccxdpAIh.s 			page 171


 9560 24f3 3F250000 		.4byte	0x253f
 9561 24f7 32       		.uleb128 0x32
 9562 24f8 680B0000 		.4byte	.LASF456
 9563 24fc 01       		.byte	0x1
 9564 24fd 7006     		.2byte	0x670
 9565 24ff 4C060000 		.4byte	0x64c
 9566 2503 94080000 		.4byte	.LLST58
 9567 2507 32       		.uleb128 0x32
 9568 2508 D90C0000 		.4byte	.LASF457
 9569 250c 01       		.byte	0x1
 9570 250d 7006     		.2byte	0x670
 9571 250f 4C060000 		.4byte	0x64c
 9572 2513 B5080000 		.4byte	.LLST59
 9573 2517 34       		.uleb128 0x34
 9574 2518 726300   		.ascii	"rc\000"
 9575 251b 01       		.byte	0x1
 9576 251c 7306     		.2byte	0x673
 9577 251e 25000000 		.4byte	0x25
 9578 2522 D6080000 		.4byte	.LLST60
 9579 2526 3B       		.uleb128 0x3b
 9580 2527 0C000000 		.4byte	.LVL174
 9581 252b 1D3D0000 		.4byte	0x3d1d
 9582 252f 36       		.uleb128 0x36
 9583 2530 01       		.uleb128 0x1
 9584 2531 50       		.byte	0x50
 9585 2532 03       		.uleb128 0x3
 9586 2533 F3       		.byte	0xf3
 9587 2534 01       		.uleb128 0x1
 9588 2535 50       		.byte	0x50
 9589 2536 36       		.uleb128 0x36
 9590 2537 01       		.uleb128 0x1
 9591 2538 51       		.byte	0x51
 9592 2539 03       		.uleb128 0x3
 9593 253a F3       		.byte	0xf3
 9594 253b 01       		.uleb128 0x1
 9595 253c 51       		.byte	0x51
 9596 253d 00       		.byte	0
 9597 253e 00       		.byte	0
 9598 253f 31       		.uleb128 0x31
 9599 2540 7A080000 		.4byte	.LASF458
 9600 2544 01       		.byte	0x1
 9601 2545 5406     		.2byte	0x654
 9602 2547 25000000 		.4byte	0x25
 9603 254b 00000000 		.4byte	.LFB290
 9604 254f 40000000 		.4byte	.LFE290-.LFB290
 9605 2553 01       		.uleb128 0x1
 9606 2554 9C       		.byte	0x9c
 9607 2555 B4250000 		.4byte	0x25b4
 9608 2559 32       		.uleb128 0x32
 9609 255a EF0C0000 		.4byte	.LASF452
 9610 255e 01       		.byte	0x1
 9611 255f 5406     		.2byte	0x654
 9612 2561 4C060000 		.4byte	0x64c
 9613 2565 EE080000 		.4byte	.LLST55
 9614 2569 32       		.uleb128 0x32
 9615 256a 38110000 		.4byte	.LASF427
 9616 256e 01       		.byte	0x1
ARM GAS  C:\cygwin64\tmp\ccxdpAIh.s 			page 172


 9617 256f 5406     		.2byte	0x654
 9618 2571 6C160000 		.4byte	0x166c
 9619 2575 1A090000 		.4byte	.LLST56
 9620 2579 34       		.uleb128 0x34
 9621 257a 72657300 		.ascii	"res\000"
 9622 257e 01       		.byte	0x1
 9623 257f 5806     		.2byte	0x658
 9624 2581 25000000 		.4byte	0x25
 9625 2585 43090000 		.4byte	.LLST57
 9626 2589 35       		.uleb128 0x35
 9627 258a 10000000 		.4byte	.LVL163
 9628 258e 293D0000 		.4byte	0x3d29
 9629 2592 9D250000 		.4byte	0x259d
 9630 2596 36       		.uleb128 0x36
 9631 2597 01       		.uleb128 0x1
 9632 2598 50       		.byte	0x50
 9633 2599 02       		.uleb128 0x2
 9634 259a 77       		.byte	0x77
 9635 259b 00       		.sleb128 0
 9636 259c 00       		.byte	0
 9637 259d 3B       		.uleb128 0x3b
 9638 259e 30000000 		.4byte	.LVL169
 9639 25a2 61260000 		.4byte	0x2661
 9640 25a6 36       		.uleb128 0x36
 9641 25a7 01       		.uleb128 0x1
 9642 25a8 50       		.byte	0x50
 9643 25a9 02       		.uleb128 0x2
 9644 25aa 77       		.byte	0x77
 9645 25ab 00       		.sleb128 0
 9646 25ac 36       		.uleb128 0x36
 9647 25ad 01       		.uleb128 0x1
 9648 25ae 51       		.byte	0x51
 9649 25af 02       		.uleb128 0x2
 9650 25b0 74       		.byte	0x74
 9651 25b1 00       		.sleb128 0
 9652 25b2 00       		.byte	0
 9653 25b3 00       		.byte	0
 9654 25b4 31       		.uleb128 0x31
 9655 25b5 BC050000 		.4byte	.LASF459
 9656 25b9 01       		.byte	0x1
 9657 25ba 3D06     		.2byte	0x63d
 9658 25bc CE010000 		.4byte	0x1ce
 9659 25c0 00000000 		.4byte	.LFB289
 9660 25c4 2C000000 		.4byte	.LFE289-.LFB289
 9661 25c8 01       		.uleb128 0x1
 9662 25c9 9C       		.byte	0x9c
 9663 25ca 16260000 		.4byte	0x2616
 9664 25ce 32       		.uleb128 0x32
 9665 25cf EF0C0000 		.4byte	.LASF452
 9666 25d3 01       		.byte	0x1
 9667 25d4 3D06     		.2byte	0x63d
 9668 25d6 CE010000 		.4byte	0x1ce
 9669 25da 7B090000 		.4byte	.LLST52
 9670 25de 38       		.uleb128 0x38
 9671 25df 6C656E00 		.ascii	"len\000"
 9672 25e3 01       		.byte	0x1
 9673 25e4 3D06     		.2byte	0x63d
ARM GAS  C:\cygwin64\tmp\ccxdpAIh.s 			page 173


 9674 25e6 25000000 		.4byte	0x25
 9675 25ea A7090000 		.4byte	.LLST53
 9676 25ee 34       		.uleb128 0x34
 9677 25ef 72657300 		.ascii	"res\000"
 9678 25f3 01       		.byte	0x1
 9679 25f4 3F06     		.2byte	0x63f
 9680 25f6 25000000 		.4byte	0x25
 9681 25fa C8090000 		.4byte	.LLST54
 9682 25fe 3B       		.uleb128 0x3b
 9683 25ff 0E000000 		.4byte	.LVL157
 9684 2603 353D0000 		.4byte	0x3d35
 9685 2607 36       		.uleb128 0x36
 9686 2608 01       		.uleb128 0x1
 9687 2609 50       		.byte	0x50
 9688 260a 02       		.uleb128 0x2
 9689 260b 75       		.byte	0x75
 9690 260c 00       		.sleb128 0
 9691 260d 36       		.uleb128 0x36
 9692 260e 01       		.uleb128 0x1
 9693 260f 51       		.byte	0x51
 9694 2610 03       		.uleb128 0x3
 9695 2611 F3       		.byte	0xf3
 9696 2612 01       		.uleb128 0x1
 9697 2613 51       		.byte	0x51
 9698 2614 00       		.byte	0
 9699 2615 00       		.byte	0
 9700 2616 31       		.uleb128 0x31
 9701 2617 00020000 		.4byte	.LASF460
 9702 261b 01       		.byte	0x1
 9703 261c 1006     		.2byte	0x610
 9704 261e 25000000 		.4byte	0x25
 9705 2622 00000000 		.4byte	.LFB288
 9706 2626 20000000 		.4byte	.LFE288-.LFB288
 9707 262a 01       		.uleb128 0x1
 9708 262b 9C       		.byte	0x9c
 9709 262c 61260000 		.4byte	0x2661
 9710 2630 38       		.uleb128 0x38
 9711 2631 73747200 		.ascii	"str\000"
 9712 2635 01       		.byte	0x1
 9713 2636 1006     		.2byte	0x610
 9714 2638 CE010000 		.4byte	0x1ce
 9715 263c E0090000 		.4byte	.LLST49
 9716 2640 34       		.uleb128 0x34
 9717 2641 656E6400 		.ascii	"end\000"
 9718 2645 01       		.byte	0x1
 9719 2646 1206     		.2byte	0x612
 9720 2648 25000000 		.4byte	0x25
 9721 264c 2E0A0000 		.4byte	.LLST50
 9722 2650 34       		.uleb128 0x34
 9723 2651 696E6400 		.ascii	"ind\000"
 9724 2655 01       		.byte	0x1
 9725 2656 1306     		.2byte	0x613
 9726 2658 25000000 		.4byte	0x25
 9727 265c 640A0000 		.4byte	.LLST51
 9728 2660 00       		.byte	0
 9729 2661 3C       		.uleb128 0x3c
 9730 2662 68110000 		.4byte	.LASF461
ARM GAS  C:\cygwin64\tmp\ccxdpAIh.s 			page 174


 9731 2666 01       		.byte	0x1
 9732 2667 EA05     		.2byte	0x5ea
 9733 2669 25000000 		.4byte	0x25
 9734 266d 01       		.byte	0x1
 9735 266e 96260000 		.4byte	0x2696
 9736 2672 3D       		.uleb128 0x3d
 9737 2673 EF0C0000 		.4byte	.LASF452
 9738 2677 01       		.byte	0x1
 9739 2678 EA05     		.2byte	0x5ea
 9740 267a 4C060000 		.4byte	0x64c
 9741 267e 3D       		.uleb128 0x3d
 9742 267f 38110000 		.4byte	.LASF427
 9743 2683 01       		.byte	0x1
 9744 2684 EA05     		.2byte	0x5ea
 9745 2686 6C160000 		.4byte	0x166c
 9746 268a 43       		.uleb128 0x43
 9747 268b 726300   		.ascii	"rc\000"
 9748 268e 01       		.byte	0x1
 9749 268f EC05     		.2byte	0x5ec
 9750 2691 25000000 		.4byte	0x25
 9751 2695 00       		.byte	0
 9752 2696 31       		.uleb128 0x31
 9753 2697 36090000 		.4byte	.LASF462
 9754 269b 01       		.byte	0x1
 9755 269c D105     		.2byte	0x5d1
 9756 269e 25000000 		.4byte	0x25
 9757 26a2 00000000 		.4byte	.LFB286
 9758 26a6 28000000 		.4byte	.LFE286-.LFB286
 9759 26aa 01       		.uleb128 0x1
 9760 26ab 9C       		.byte	0x9c
 9761 26ac E2260000 		.4byte	0x26e2
 9762 26b0 32       		.uleb128 0x32
 9763 26b1 EF0C0000 		.4byte	.LASF452
 9764 26b5 01       		.byte	0x1
 9765 26b6 D105     		.2byte	0x5d1
 9766 26b8 4C060000 		.4byte	0x64c
 9767 26bc AA0A0000 		.4byte	.LLST43
 9768 26c0 34       		.uleb128 0x34
 9769 26c1 72657300 		.ascii	"res\000"
 9770 26c5 01       		.byte	0x1
 9771 26c6 D505     		.2byte	0x5d5
 9772 26c8 25000000 		.4byte	0x25
 9773 26cc CB0A0000 		.4byte	.LLST44
 9774 26d0 3B       		.uleb128 0x3b
 9775 26d1 0C000000 		.4byte	.LVL136
 9776 26d5 413D0000 		.4byte	0x3d41
 9777 26d9 36       		.uleb128 0x36
 9778 26da 01       		.uleb128 0x1
 9779 26db 50       		.byte	0x50
 9780 26dc 03       		.uleb128 0x3
 9781 26dd F3       		.byte	0xf3
 9782 26de 01       		.uleb128 0x1
 9783 26df 50       		.byte	0x50
 9784 26e0 00       		.byte	0
 9785 26e1 00       		.byte	0
 9786 26e2 31       		.uleb128 0x31
 9787 26e3 8F120000 		.4byte	.LASF463
ARM GAS  C:\cygwin64\tmp\ccxdpAIh.s 			page 175


 9788 26e7 01       		.byte	0x1
 9789 26e8 BB05     		.2byte	0x5bb
 9790 26ea CE010000 		.4byte	0x1ce
 9791 26ee 00000000 		.4byte	.LFB285
 9792 26f2 18000000 		.4byte	.LFE285-.LFB285
 9793 26f6 01       		.uleb128 0x1
 9794 26f7 9C       		.byte	0x9c
 9795 26f8 1D270000 		.4byte	0x271d
 9796 26fc 38       		.uleb128 0x38
 9797 26fd 73747200 		.ascii	"str\000"
 9798 2701 01       		.byte	0x1
 9799 2702 BB05     		.2byte	0x5bb
 9800 2704 CE010000 		.4byte	0x1ce
 9801 2708 E30A0000 		.4byte	.LLST41
 9802 270c 34       		.uleb128 0x34
 9803 270d 65787400 		.ascii	"ext\000"
 9804 2711 01       		.byte	0x1
 9805 2712 BD05     		.2byte	0x5bd
 9806 2714 CE010000 		.4byte	0x1ce
 9807 2718 0E0B0000 		.4byte	.LLST42
 9808 271c 00       		.byte	0
 9809 271d 31       		.uleb128 0x31
 9810 271e 9D120000 		.4byte	.LASF464
 9811 2722 01       		.byte	0x1
 9812 2723 A605     		.2byte	0x5a6
 9813 2725 CE010000 		.4byte	0x1ce
 9814 2729 00000000 		.4byte	.LFB284
 9815 272d 1C000000 		.4byte	.LFE284-.LFB284
 9816 2731 01       		.uleb128 0x1
 9817 2732 9C       		.byte	0x9c
 9818 2733 58270000 		.4byte	0x2758
 9819 2737 38       		.uleb128 0x38
 9820 2738 73747200 		.ascii	"str\000"
 9821 273c 01       		.byte	0x1
 9822 273d A605     		.2byte	0x5a6
 9823 273f 4C060000 		.4byte	0x64c
 9824 2743 310B0000 		.4byte	.LLST39
 9825 2747 33       		.uleb128 0x33
 9826 2748 40130000 		.4byte	.LASF465
 9827 274c 01       		.byte	0x1
 9828 274d A805     		.2byte	0x5a8
 9829 274f 4C060000 		.4byte	0x64c
 9830 2753 800B0000 		.4byte	.LLST40
 9831 2757 00       		.byte	0
 9832 2758 31       		.uleb128 0x31
 9833 2759 3D100000 		.4byte	.LASF466
 9834 275d 01       		.byte	0x1
 9835 275e 8C05     		.2byte	0x58c
 9836 2760 91090000 		.4byte	0x991
 9837 2764 00000000 		.4byte	.LFB283
 9838 2768 30000000 		.4byte	.LFE283-.LFB283
 9839 276c 01       		.uleb128 0x1
 9840 276d 9C       		.byte	0x9c
 9841 276e CF270000 		.4byte	0x27cf
 9842 2772 30       		.uleb128 0x30
 9843 2773 667300   		.ascii	"fs\000"
 9844 2776 01       		.byte	0x1
ARM GAS  C:\cygwin64\tmp\ccxdpAIh.s 			page 176


 9845 2777 8D05     		.2byte	0x58d
 9846 2779 DC130000 		.4byte	0x13dc
 9847 277d 02       		.uleb128 0x2
 9848 277e 91       		.byte	0x91
 9849 277f 70       		.sleb128 -16
 9850 2780 4D       		.uleb128 0x4d
 9851 2781 88100000 		.4byte	.LASF467
 9852 2785 01       		.byte	0x1
 9853 2786 8E05     		.2byte	0x58e
 9854 2788 D3090000 		.4byte	0x9d3
 9855 278c 02       		.uleb128 0x2
 9856 278d 91       		.byte	0x91
 9857 278e 74       		.sleb128 -12
 9858 278f 33       		.uleb128 0x33
 9859 2790 AF120000 		.4byte	.LASF468
 9860 2794 01       		.byte	0x1
 9861 2795 8E05     		.2byte	0x58e
 9862 2797 D3090000 		.4byte	0x9d3
 9863 279b AC0B0000 		.4byte	.LLST37
 9864 279f 34       		.uleb128 0x34
 9865 27a0 72657300 		.ascii	"res\000"
 9866 27a4 01       		.byte	0x1
 9867 27a5 9205     		.2byte	0x592
 9868 27a7 E7150000 		.4byte	0x15e7
 9869 27ab D80B0000 		.4byte	.LLST38
 9870 27af 3B       		.uleb128 0x3b
 9871 27b0 0C000000 		.4byte	.LVL117
 9872 27b4 4D3D0000 		.4byte	0x3d4d
 9873 27b8 36       		.uleb128 0x36
 9874 27b9 01       		.uleb128 0x1
 9875 27ba 50       		.byte	0x50
 9876 27bb 05       		.uleb128 0x5
 9877 27bc 03       		.byte	0x3
 9878 27bd 00000000 		.4byte	.LC1
 9879 27c1 36       		.uleb128 0x36
 9880 27c2 01       		.uleb128 0x1
 9881 27c3 51       		.byte	0x51
 9882 27c4 02       		.uleb128 0x2
 9883 27c5 91       		.byte	0x91
 9884 27c6 74       		.sleb128 -12
 9885 27c7 36       		.uleb128 0x36
 9886 27c8 01       		.uleb128 0x1
 9887 27c9 52       		.byte	0x52
 9888 27ca 02       		.uleb128 0x2
 9889 27cb 7D       		.byte	0x7d
 9890 27cc 00       		.sleb128 0
 9891 27cd 00       		.byte	0
 9892 27ce 00       		.byte	0
 9893 27cf 31       		.uleb128 0x31
 9894 27d0 F4120000 		.4byte	.LASF469
 9895 27d4 01       		.byte	0x1
 9896 27d5 7D05     		.2byte	0x57d
 9897 27d7 91090000 		.4byte	0x991
 9898 27db 00000000 		.4byte	.LFB282
 9899 27df 30000000 		.4byte	.LFE282-.LFB282
 9900 27e3 01       		.uleb128 0x1
 9901 27e4 9C       		.byte	0x9c
ARM GAS  C:\cygwin64\tmp\ccxdpAIh.s 			page 177


 9902 27e5 53280000 		.4byte	0x2853
 9903 27e9 30       		.uleb128 0x30
 9904 27ea 667300   		.ascii	"fs\000"
 9905 27ed 01       		.byte	0x1
 9906 27ee 7E05     		.2byte	0x57e
 9907 27f0 DC130000 		.4byte	0x13dc
 9908 27f4 02       		.uleb128 0x2
 9909 27f5 91       		.byte	0x91
 9910 27f6 70       		.sleb128 -16
 9911 27f7 4D       		.uleb128 0x4d
 9912 27f8 88100000 		.4byte	.LASF467
 9913 27fc 01       		.byte	0x1
 9914 27fd 7F05     		.2byte	0x57f
 9915 27ff D3090000 		.4byte	0x9d3
 9916 2803 02       		.uleb128 0x2
 9917 2804 91       		.byte	0x91
 9918 2805 74       		.sleb128 -12
 9919 2806 4D       		.uleb128 0x4d
 9920 2807 BE0D0000 		.4byte	.LASF470
 9921 280b 01       		.byte	0x1
 9922 280c 7F05     		.2byte	0x57f
 9923 280e D3090000 		.4byte	0x9d3
 9924 2812 10       		.uleb128 0x10
 9925 2813 7D       		.byte	0x7d
 9926 2814 00       		.sleb128 0
 9927 2815 06       		.byte	0x6
 9928 2816 23       		.byte	0x23
 9929 2817 0A       		.uleb128 0xa
 9930 2818 94       		.byte	0x94
 9931 2819 02       		.byte	0x2
 9932 281a 0A       		.byte	0xa
 9933 281b FFFF     		.2byte	0xffff
 9934 281d 1A       		.byte	0x1a
 9935 281e 91       		.byte	0x91
 9936 281f 74       		.sleb128 -12
 9937 2820 06       		.byte	0x6
 9938 2821 1E       		.byte	0x1e
 9939 2822 9F       		.byte	0x9f
 9940 2823 34       		.uleb128 0x34
 9941 2824 72657300 		.ascii	"res\000"
 9942 2828 01       		.byte	0x1
 9943 2829 8305     		.2byte	0x583
 9944 282b E7150000 		.4byte	0x15e7
 9945 282f F60B0000 		.4byte	.LLST36
 9946 2833 3B       		.uleb128 0x3b
 9947 2834 0C000000 		.4byte	.LVL114
 9948 2838 4D3D0000 		.4byte	0x3d4d
 9949 283c 36       		.uleb128 0x36
 9950 283d 01       		.uleb128 0x1
 9951 283e 50       		.byte	0x50
 9952 283f 05       		.uleb128 0x5
 9953 2840 03       		.byte	0x3
 9954 2841 00000000 		.4byte	.LC1
 9955 2845 36       		.uleb128 0x36
 9956 2846 01       		.uleb128 0x1
 9957 2847 51       		.byte	0x51
 9958 2848 02       		.uleb128 0x2
ARM GAS  C:\cygwin64\tmp\ccxdpAIh.s 			page 178


 9959 2849 91       		.byte	0x91
 9960 284a 74       		.sleb128 -12
 9961 284b 36       		.uleb128 0x36
 9962 284c 01       		.uleb128 0x1
 9963 284d 52       		.byte	0x52
 9964 284e 02       		.uleb128 0x2
 9965 284f 7D       		.byte	0x7d
 9966 2850 00       		.sleb128 0
 9967 2851 00       		.byte	0
 9968 2852 00       		.byte	0
 9969 2853 31       		.uleb128 0x31
 9970 2854 060B0000 		.4byte	.LASF471
 9971 2858 01       		.byte	0x1
 9972 2859 6605     		.2byte	0x566
 9973 285b 25000000 		.4byte	0x25
 9974 285f 00000000 		.4byte	.LFB281
 9975 2863 44000000 		.4byte	.LFE281-.LFB281
 9976 2867 01       		.uleb128 0x1
 9977 2868 9C       		.byte	0x9c
 9978 2869 10290000 		.4byte	0x2910
 9979 286d 32       		.uleb128 0x32
 9980 286e 00040000 		.4byte	.LASF472
 9981 2872 01       		.byte	0x1
 9982 2873 6605     		.2byte	0x566
 9983 2875 4C060000 		.4byte	0x64c
 9984 2879 140C0000 		.4byte	.LLST97
 9985 287d 32       		.uleb128 0x32
 9986 287e 1D0B0000 		.4byte	.LASF473
 9987 2882 01       		.byte	0x1
 9988 2883 6605     		.2byte	0x566
 9989 2885 10290000 		.4byte	0x2910
 9990 2889 480C0000 		.4byte	.LLST98
 9991 288d 30       		.uleb128 0x30
 9992 288e 666E6F00 		.ascii	"fno\000"
 9993 2892 01       		.byte	0x1
 9994 2893 6905     		.2byte	0x569
 9995 2895 57150000 		.4byte	0x1557
 9996 2899 03       		.uleb128 0x3
 9997 289a 91       		.byte	0x91
 9998 289b D87D     		.sleb128 -296
 9999 289d 4D       		.uleb128 0x4d
 10000 289e B0110000 		.4byte	.LASF302
 10001 28a2 01       		.byte	0x1
 10002 28a3 6A05     		.2byte	0x56a
 10003 28a5 6B090000 		.4byte	0x96b
 10004 28a9 03       		.uleb128 0x3
 10005 28aa 91       		.byte	0x91
 10006 28ab D47D     		.sleb128 -300
 10007 28ad 4D       		.uleb128 0x4d
 10008 28ae F1020000 		.4byte	.LASF303
 10009 28b2 01       		.byte	0x1
 10010 28b3 6A05     		.2byte	0x56a
 10011 28b5 6B090000 		.4byte	0x96b
 10012 28b9 03       		.uleb128 0x3
 10013 28ba 91       		.byte	0x91
 10014 28bb D67D     		.sleb128 -298
 10015 28bd 34       		.uleb128 0x34
ARM GAS  C:\cygwin64\tmp\ccxdpAIh.s 			page 179


 10016 28be 757400   		.ascii	"ut\000"
 10017 28c1 01       		.byte	0x1
 10018 28c2 6B05     		.2byte	0x56b
 10019 28c4 1F160000 		.4byte	0x161f
 10020 28c8 740C0000 		.4byte	.LLST99
 10021 28cc 34       		.uleb128 0x34
 10022 28cd 72657300 		.ascii	"res\000"
 10023 28d1 01       		.byte	0x1
 10024 28d2 6C05     		.2byte	0x56c
 10025 28d4 25000000 		.4byte	0x25
 10026 28d8 9F0C0000 		.4byte	.LLST100
 10027 28dc 35       		.uleb128 0x35
 10028 28dd 14000000 		.4byte	.LVL281
 10029 28e1 A11D0000 		.4byte	0x1da1
 10030 28e5 F8280000 		.4byte	0x28f8
 10031 28e9 36       		.uleb128 0x36
 10032 28ea 01       		.uleb128 0x1
 10033 28eb 51       		.byte	0x51
 10034 28ec 03       		.uleb128 0x3
 10035 28ed 91       		.byte	0x91
 10036 28ee D47D     		.sleb128 -300
 10037 28f0 36       		.uleb128 0x36
 10038 28f1 01       		.uleb128 0x1
 10039 28f2 52       		.byte	0x52
 10040 28f3 03       		.uleb128 0x3
 10041 28f4 91       		.byte	0x91
 10042 28f5 D67D     		.sleb128 -298
 10043 28f7 00       		.byte	0
 10044 28f8 3B       		.uleb128 0x3b
 10045 28f9 2C000000 		.4byte	.LVL282
 10046 28fd 593D0000 		.4byte	0x3d59
 10047 2901 36       		.uleb128 0x36
 10048 2902 01       		.uleb128 0x1
 10049 2903 50       		.byte	0x50
 10050 2904 02       		.uleb128 0x2
 10051 2905 74       		.byte	0x74
 10052 2906 00       		.sleb128 0
 10053 2907 36       		.uleb128 0x36
 10054 2908 01       		.uleb128 0x1
 10055 2909 51       		.byte	0x51
 10056 290a 03       		.uleb128 0x3
 10057 290b 91       		.byte	0x91
 10058 290c D87D     		.sleb128 -296
 10059 290e 00       		.byte	0
 10060 290f 00       		.byte	0
 10061 2910 06       		.uleb128 0x6
 10062 2911 04       		.byte	0x4
 10063 2912 F2180000 		.4byte	0x18f2
 10064 2916 31       		.uleb128 0x31
 10065 2917 680A0000 		.4byte	.LASF286
 10066 291b 01       		.byte	0x1
 10067 291c 2705     		.2byte	0x527
 10068 291e 25000000 		.4byte	0x25
 10069 2922 00000000 		.4byte	.LFB280
 10070 2926 A8000000 		.4byte	.LFE280-.LFB280
 10071 292a 01       		.uleb128 0x1
 10072 292b 9C       		.byte	0x9c
ARM GAS  C:\cygwin64\tmp\ccxdpAIh.s 			page 180


 10073 292c EC290000 		.4byte	0x29ec
 10074 2930 32       		.uleb128 0x32
 10075 2931 DF100000 		.4byte	.LASF168
 10076 2935 01       		.byte	0x1
 10077 2936 2705     		.2byte	0x527
 10078 2938 4C060000 		.4byte	0x64c
 10079 293c B70C0000 		.4byte	.LLST90
 10080 2940 38       		.uleb128 0x38
 10081 2941 62756600 		.ascii	"buf\000"
 10082 2945 01       		.byte	0x1
 10083 2946 2705     		.2byte	0x527
 10084 2948 EC290000 		.4byte	0x29ec
 10085 294c D50C0000 		.4byte	.LLST91
 10086 2950 4D       		.uleb128 0x4d
 10087 2951 6B0E0000 		.4byte	.LASF474
 10088 2955 01       		.byte	0x1
 10089 2956 2905     		.2byte	0x529
 10090 2958 57150000 		.4byte	0x1557
 10091 295c 03       		.uleb128 0x3
 10092 295d 91       		.byte	0x91
 10093 295e D07D     		.sleb128 -304
 10094 2960 34       		.uleb128 0x34
 10095 2961 72657300 		.ascii	"res\000"
 10096 2965 01       		.byte	0x1
 10097 2966 2A05     		.2byte	0x52a
 10098 2968 25000000 		.4byte	0x25
 10099 296c F30C0000 		.4byte	.LLST92
 10100 2970 33       		.uleb128 0x33
 10101 2971 2F030000 		.4byte	.LASF422
 10102 2975 01       		.byte	0x1
 10103 2976 2B05     		.2byte	0x52b
 10104 2978 1F160000 		.4byte	0x161f
 10105 297c 1B0D0000 		.4byte	.LLST93
 10106 2980 4D       		.uleb128 0x4d
 10107 2981 38110000 		.4byte	.LASF427
 10108 2985 01       		.byte	0x1
 10109 2986 2C05     		.2byte	0x52c
 10110 2988 6B090000 		.4byte	0x96b
 10111 298c 01       		.uleb128 0x1
 10112 298d 53       		.byte	0x53
 10113 298e 35       		.uleb128 0x35
 10114 298f 14000000 		.4byte	.LVL262
 10115 2993 653D0000 		.4byte	0x3d65
 10116 2997 AB290000 		.4byte	0x29ab
 10117 299b 36       		.uleb128 0x36
 10118 299c 01       		.uleb128 0x1
 10119 299d 50       		.byte	0x50
 10120 299e 02       		.uleb128 0x2
 10121 299f 76       		.byte	0x76
 10122 29a0 00       		.sleb128 0
 10123 29a1 36       		.uleb128 0x36
 10124 29a2 01       		.uleb128 0x1
 10125 29a3 51       		.byte	0x51
 10126 29a4 05       		.uleb128 0x5
 10127 29a5 03       		.byte	0x3
 10128 29a6 00000000 		.4byte	.LC1
 10129 29aa 00       		.byte	0
ARM GAS  C:\cygwin64\tmp\ccxdpAIh.s 			page 181


 10130 29ab 35       		.uleb128 0x35
 10131 29ac 1E000000 		.4byte	.LVL263
 10132 29b0 653D0000 		.4byte	0x3d65
 10133 29b4 C8290000 		.4byte	0x29c8
 10134 29b8 36       		.uleb128 0x36
 10135 29b9 01       		.uleb128 0x1
 10136 29ba 50       		.byte	0x50
 10137 29bb 02       		.uleb128 0x2
 10138 29bc 76       		.byte	0x76
 10139 29bd 00       		.sleb128 0
 10140 29be 36       		.uleb128 0x36
 10141 29bf 01       		.uleb128 0x1
 10142 29c0 51       		.byte	0x51
 10143 29c1 05       		.uleb128 0x5
 10144 29c2 03       		.byte	0x3
 10145 29c3 00000000 		.4byte	.LC4
 10146 29c7 00       		.byte	0
 10147 29c8 35       		.uleb128 0x35
 10148 29c9 40000000 		.4byte	.LVL265
 10149 29cd 703D0000 		.4byte	0x3d70
 10150 29d1 E2290000 		.4byte	0x29e2
 10151 29d5 36       		.uleb128 0x36
 10152 29d6 01       		.uleb128 0x1
 10153 29d7 50       		.byte	0x50
 10154 29d8 02       		.uleb128 0x2
 10155 29d9 76       		.byte	0x76
 10156 29da 00       		.sleb128 0
 10157 29db 36       		.uleb128 0x36
 10158 29dc 01       		.uleb128 0x1
 10159 29dd 51       		.byte	0x51
 10160 29de 02       		.uleb128 0x2
 10161 29df 7D       		.byte	0x7d
 10162 29e0 00       		.sleb128 0
 10163 29e1 00       		.byte	0
 10164 29e2 37       		.uleb128 0x37
 10165 29e3 64000000 		.4byte	.LVL271
 10166 29e7 101E0000 		.4byte	0x1e10
 10167 29eb 00       		.byte	0
 10168 29ec 06       		.uleb128 0x6
 10169 29ed 04       		.byte	0x4
 10170 29ee 24180000 		.4byte	0x1824
 10171 29f2 31       		.uleb128 0x31
 10172 29f3 C7120000 		.4byte	.LASF475
 10173 29f7 01       		.byte	0x1
 10174 29f8 D404     		.2byte	0x4d4
 10175 29fa 25000000 		.4byte	0x25
 10176 29fe 00000000 		.4byte	.LFB279
 10177 2a02 18000000 		.4byte	.LFE279-.LFB279
 10178 2a06 01       		.uleb128 0x1
 10179 2a07 9C       		.byte	0x9c
 10180 2a08 4A2A0000 		.4byte	0x2a4a
 10181 2a0c 32       		.uleb128 0x32
 10182 2a0d 95070000 		.4byte	.LASF415
 10183 2a11 01       		.byte	0x1
 10184 2a12 D404     		.2byte	0x4d4
 10185 2a14 E8190000 		.4byte	0x19e8
 10186 2a18 3A0D0000 		.4byte	.LLST176
ARM GAS  C:\cygwin64\tmp\ccxdpAIh.s 			page 182


 10187 2a1c 34       		.uleb128 0x34
 10188 2a1d 666E00   		.ascii	"fn\000"
 10189 2a20 01       		.byte	0x1
 10190 2a21 D604     		.2byte	0x4d6
 10191 2a23 25000000 		.4byte	0x25
 10192 2a27 5B0D0000 		.4byte	.LLST177
 10193 2a2b 35       		.uleb128 0x35
 10194 2a2c 06000000 		.4byte	.LVL435
 10195 2a30 B4320000 		.4byte	0x32b4
 10196 2a34 402A0000 		.4byte	0x2a40
 10197 2a38 36       		.uleb128 0x36
 10198 2a39 01       		.uleb128 0x1
 10199 2a3a 50       		.byte	0x50
 10200 2a3b 03       		.uleb128 0x3
 10201 2a3c F3       		.byte	0xf3
 10202 2a3d 01       		.uleb128 0x1
 10203 2a3e 50       		.byte	0x50
 10204 2a3f 00       		.byte	0
 10205 2a40 50       		.uleb128 0x50
 10206 2a41 12000000 		.4byte	.LVL436
 10207 2a45 ED320000 		.4byte	0x32ed
 10208 2a49 00       		.byte	0
 10209 2a4a 31       		.uleb128 0x31
 10210 2a4b 65010000 		.4byte	.LASF476
 10211 2a4f 01       		.byte	0x1
 10212 2a50 C204     		.2byte	0x4c2
 10213 2a52 E8190000 		.4byte	0x19e8
 10214 2a56 00000000 		.4byte	.LFB278
 10215 2a5a 24000000 		.4byte	.LFE278-.LFB278
 10216 2a5e 01       		.uleb128 0x1
 10217 2a5f 9C       		.byte	0x9c
 10218 2a60 EA2A0000 		.4byte	0x2aea
 10219 2a64 32       		.uleb128 0x32
 10220 2a65 00040000 		.4byte	.LASF472
 10221 2a69 01       		.byte	0x1
 10222 2a6a C204     		.2byte	0x4c2
 10223 2a6c 4C060000 		.4byte	0x64c
 10224 2a70 790D0000 		.4byte	.LLST195
 10225 2a74 32       		.uleb128 0x32
 10226 2a75 38110000 		.4byte	.LASF427
 10227 2a79 01       		.byte	0x1
 10228 2a7a C204     		.2byte	0x4c2
 10229 2a7c 4C060000 		.4byte	0x64c
 10230 2a80 BB0D0000 		.4byte	.LLST196
 10231 2a84 32       		.uleb128 0x32
 10232 2a85 95070000 		.4byte	.LASF415
 10233 2a89 01       		.byte	0x1
 10234 2a8a C204     		.2byte	0x4c2
 10235 2a8c E8190000 		.4byte	0x19e8
 10236 2a90 FD0D0000 		.4byte	.LLST197
 10237 2a94 34       		.uleb128 0x34
 10238 2a95 666E00   		.ascii	"fn\000"
 10239 2a98 01       		.byte	0x1
 10240 2a99 C404     		.2byte	0x4c4
 10241 2a9b 25000000 		.4byte	0x25
 10242 2a9f 1E0E0000 		.4byte	.LLST198
 10243 2aa3 34       		.uleb128 0x34
ARM GAS  C:\cygwin64\tmp\ccxdpAIh.s 			page 183


 10244 2aa4 72657400 		.ascii	"ret\000"
 10245 2aa8 01       		.byte	0x1
 10246 2aa9 C504     		.2byte	0x4c5
 10247 2aab 25000000 		.4byte	0x25
 10248 2aaf 310E0000 		.4byte	.LLST199
 10249 2ab3 35       		.uleb128 0x35
 10250 2ab4 0C000000 		.4byte	.LVL511
 10251 2ab8 B4320000 		.4byte	0x32b4
 10252 2abc C82A0000 		.4byte	0x2ac8
 10253 2ac0 36       		.uleb128 0x36
 10254 2ac1 01       		.uleb128 0x1
 10255 2ac2 50       		.byte	0x50
 10256 2ac3 03       		.uleb128 0x3
 10257 2ac4 F3       		.byte	0xf3
 10258 2ac5 01       		.uleb128 0x1
 10259 2ac6 52       		.byte	0x52
 10260 2ac7 00       		.byte	0
 10261 2ac8 37       		.uleb128 0x37
 10262 2ac9 10000000 		.4byte	.LVL512
 10263 2acd ED320000 		.4byte	0x32ed
 10264 2ad1 53       		.uleb128 0x53
 10265 2ad2 20000000 		.4byte	.LVL515
 10266 2ad6 EE310000 		.4byte	0x31ee
 10267 2ada 36       		.uleb128 0x36
 10268 2adb 01       		.uleb128 0x1
 10269 2adc 50       		.byte	0x50
 10270 2add 03       		.uleb128 0x3
 10271 2ade F3       		.byte	0xf3
 10272 2adf 01       		.uleb128 0x1
 10273 2ae0 50       		.byte	0x50
 10274 2ae1 36       		.uleb128 0x36
 10275 2ae2 01       		.uleb128 0x1
 10276 2ae3 51       		.byte	0x51
 10277 2ae4 03       		.uleb128 0x3
 10278 2ae5 F3       		.byte	0xf3
 10279 2ae6 01       		.uleb128 0x1
 10280 2ae7 51       		.byte	0x51
 10281 2ae8 00       		.byte	0
 10282 2ae9 00       		.byte	0
 10283 2aea 31       		.uleb128 0x31
 10284 2aeb 0D0A0000 		.4byte	.LASF477
 10285 2aef 01       		.byte	0x1
 10286 2af0 9104     		.2byte	0x491
 10287 2af2 61160000 		.4byte	0x1661
 10288 2af6 00000000 		.4byte	.LFB277
 10289 2afa 8C000000 		.4byte	.LFE277-.LFB277
 10290 2afe 01       		.uleb128 0x1
 10291 2aff 9C       		.byte	0x9c
 10292 2b00 122C0000 		.4byte	0x2c12
 10293 2b04 38       		.uleb128 0x38
 10294 2b05 666400   		.ascii	"fd\000"
 10295 2b08 01       		.byte	0x1
 10296 2b09 9104     		.2byte	0x491
 10297 2b0b 25000000 		.4byte	0x25
 10298 2b0f 4F0E0000 		.4byte	.LLST153
 10299 2b13 38       		.uleb128 0x38
 10300 2b14 62756600 		.ascii	"buf\000"
ARM GAS  C:\cygwin64\tmp\ccxdpAIh.s 			page 184


 10301 2b18 01       		.byte	0x1
 10302 2b19 9104     		.2byte	0x491
 10303 2b1b 122C0000 		.4byte	0x2c12
 10304 2b1f 6D0E0000 		.4byte	.LLST154
 10305 2b23 32       		.uleb128 0x32
 10306 2b24 620B0000 		.4byte	.LASF478
 10307 2b28 01       		.byte	0x1
 10308 2b29 9104     		.2byte	0x491
 10309 2b2b 2C000000 		.4byte	0x2c
 10310 2b2f C00E0000 		.4byte	.LLST155
 10311 2b33 4D       		.uleb128 0x4d
 10312 2b34 BD0E0000 		.4byte	.LASF239
 10313 2b38 01       		.byte	0x1
 10314 2b39 9304     		.2byte	0x493
 10315 2b3b A7090000 		.4byte	0x9a7
 10316 2b3f 02       		.uleb128 0x2
 10317 2b40 91       		.byte	0x91
 10318 2b41 5C       		.sleb128 -36
 10319 2b42 33       		.uleb128 0x33
 10320 2b43 31050000 		.4byte	.LASF479
 10321 2b47 01       		.byte	0x1
 10322 2b48 9404     		.2byte	0x494
 10323 2b4a A7090000 		.4byte	0x9a7
 10324 2b4e 370F0000 		.4byte	.LLST156
 10325 2b52 30       		.uleb128 0x30
 10326 2b53 72657300 		.ascii	"res\000"
 10327 2b57 01       		.byte	0x1
 10328 2b58 9504     		.2byte	0x495
 10329 2b5a E7150000 		.4byte	0x15e7
 10330 2b5e 01       		.uleb128 0x1
 10331 2b5f 50       		.byte	0x50
 10332 2b60 34       		.uleb128 0x34
 10333 2b61 666800   		.ascii	"fh\000"
 10334 2b64 01       		.byte	0x1
 10335 2b65 9604     		.2byte	0x496
 10336 2b67 0C1B0000 		.4byte	0x1b0c
 10337 2b6b 6E0F0000 		.4byte	.LLST157
 10338 2b6f 33       		.uleb128 0x33
 10339 2b70 95070000 		.4byte	.LASF415
 10340 2b74 01       		.byte	0x1
 10341 2b75 9704     		.2byte	0x497
 10342 2b77 E8190000 		.4byte	0x19e8
 10343 2b7b 8C0F0000 		.4byte	.LLST158
 10344 2b7f 54       		.uleb128 0x54
 10345 2b80 90000000 		.4byte	.Ldebug_ranges0+0x90
 10346 2b84 D32B0000 		.4byte	0x2bd3
 10347 2b88 34       		.uleb128 0x34
 10348 2b89 70747200 		.ascii	"ptr\000"
 10349 2b8d 01       		.byte	0x1
 10350 2b8e 9E04     		.2byte	0x49e
 10351 2b90 CE010000 		.4byte	0x1ce
 10352 2b94 C00F0000 		.4byte	.LLST159
 10353 2b98 45       		.uleb128 0x45
 10354 2b99 A8000000 		.4byte	.Ldebug_ranges0+0xa8
 10355 2b9d 34       		.uleb128 0x34
 10356 2b9e 6300     		.ascii	"c\000"
 10357 2ba0 01       		.byte	0x1
ARM GAS  C:\cygwin64\tmp\ccxdpAIh.s 			page 185


 10358 2ba1 A204     		.2byte	0x4a2
 10359 2ba3 25000000 		.4byte	0x25
 10360 2ba7 F80F0000 		.4byte	.LLST160
 10361 2bab 34       		.uleb128 0x34
 10362 2bac 72657400 		.ascii	"ret\000"
 10363 2bb0 01       		.byte	0x1
 10364 2bb1 A204     		.2byte	0x4a2
 10365 2bb3 25000000 		.4byte	0x25
 10366 2bb7 16100000 		.4byte	.LLST161
 10367 2bbb 3B       		.uleb128 0x3b
 10368 2bbc 38000000 		.4byte	.LVL395
 10369 2bc0 E0380000 		.4byte	0x38e0
 10370 2bc4 36       		.uleb128 0x36
 10371 2bc5 01       		.uleb128 0x1
 10372 2bc6 50       		.byte	0x50
 10373 2bc7 02       		.uleb128 0x2
 10374 2bc8 77       		.byte	0x77
 10375 2bc9 00       		.sleb128 0
 10376 2bca 36       		.uleb128 0x36
 10377 2bcb 01       		.uleb128 0x1
 10378 2bcc 51       		.byte	0x51
 10379 2bcd 02       		.uleb128 0x2
 10380 2bce 75       		.byte	0x75
 10381 2bcf 00       		.sleb128 0
 10382 2bd0 00       		.byte	0
 10383 2bd1 00       		.byte	0
 10384 2bd2 00       		.byte	0
 10385 2bd3 35       		.uleb128 0x35
 10386 2bd4 12000000 		.4byte	.LVL389
 10387 2bd8 7B320000 		.4byte	0x327b
 10388 2bdc E72B0000 		.4byte	0x2be7
 10389 2be0 36       		.uleb128 0x36
 10390 2be1 01       		.uleb128 0x1
 10391 2be2 50       		.byte	0x50
 10392 2be3 02       		.uleb128 0x2
 10393 2be4 79       		.byte	0x79
 10394 2be5 00       		.sleb128 0
 10395 2be6 00       		.byte	0
 10396 2be7 35       		.uleb128 0x35
 10397 2be8 58000000 		.4byte	.LVL400
 10398 2bec 281D0000 		.4byte	0x1d28
 10399 2bf0 FB2B0000 		.4byte	0x2bfb
 10400 2bf4 36       		.uleb128 0x36
 10401 2bf5 01       		.uleb128 0x1
 10402 2bf6 50       		.byte	0x50
 10403 2bf7 02       		.uleb128 0x2
 10404 2bf8 79       		.byte	0x79
 10405 2bf9 00       		.sleb128 0
 10406 2bfa 00       		.byte	0
 10407 2bfb 3B       		.uleb128 0x3b
 10408 2bfc 6C000000 		.4byte	.LVL403
 10409 2c00 9D3C0000 		.4byte	0x3c9d
 10410 2c04 36       		.uleb128 0x36
 10411 2c05 01       		.uleb128 0x1
 10412 2c06 52       		.byte	0x52
 10413 2c07 02       		.uleb128 0x2
 10414 2c08 74       		.byte	0x74
ARM GAS  C:\cygwin64\tmp\ccxdpAIh.s 			page 186


 10415 2c09 00       		.sleb128 0
 10416 2c0a 36       		.uleb128 0x36
 10417 2c0b 01       		.uleb128 0x1
 10418 2c0c 53       		.byte	0x53
 10419 2c0d 02       		.uleb128 0x2
 10420 2c0e 91       		.byte	0x91
 10421 2c0f 5C       		.sleb128 -36
 10422 2c10 00       		.byte	0
 10423 2c11 00       		.byte	0
 10424 2c12 06       		.uleb128 0x6
 10425 2c13 04       		.byte	0x4
 10426 2c14 182C0000 		.4byte	0x2c18
 10427 2c18 55       		.uleb128 0x55
 10428 2c19 31       		.uleb128 0x31
 10429 2c1a 10000000 		.4byte	.LASF480
 10430 2c1e 01       		.byte	0x1
 10431 2c1f 6B04     		.2byte	0x46b
 10432 2c21 25000000 		.4byte	0x25
 10433 2c25 00000000 		.4byte	.LFB276
 10434 2c29 54000000 		.4byte	.LFE276-.LFB276
 10435 2c2d 01       		.uleb128 0x1
 10436 2c2e 9C       		.byte	0x9c
 10437 2c2f B62C0000 		.4byte	0x2cb6
 10438 2c33 32       		.uleb128 0x32
 10439 2c34 E0000000 		.4byte	.LASF481
 10440 2c38 01       		.byte	0x1
 10441 2c39 6B04     		.2byte	0x46b
 10442 2c3b 4C060000 		.4byte	0x64c
 10443 2c3f 34100000 		.4byte	.LLST33
 10444 2c43 32       		.uleb128 0x32
 10445 2c44 E70E0000 		.4byte	.LASF482
 10446 2c48 01       		.byte	0x1
 10447 2c49 6B04     		.2byte	0x46b
 10448 2c4b 35160000 		.4byte	0x1635
 10449 2c4f 60100000 		.4byte	.LLST34
 10450 2c53 30       		.uleb128 0x30
 10451 2c54 666800   		.ascii	"fh\000"
 10452 2c57 01       		.byte	0x1
 10453 2c58 6E04     		.2byte	0x46e
 10454 2c5a 63140000 		.4byte	0x1463
 10455 2c5e 03       		.uleb128 0x3
 10456 2c5f 91       		.byte	0x91
 10457 2c60 A87B     		.sleb128 -600
 10458 2c62 34       		.uleb128 0x34
 10459 2c63 726300   		.ascii	"rc\000"
 10460 2c66 01       		.byte	0x1
 10461 2c67 6F04     		.2byte	0x46f
 10462 2c69 E7150000 		.4byte	0x15e7
 10463 2c6d 8C100000 		.4byte	.LLST35
 10464 2c71 35       		.uleb128 0x35
 10465 2c72 18000000 		.4byte	.LVL103
 10466 2c76 7C3D0000 		.4byte	0x3d7c
 10467 2c7a 912C0000 		.4byte	0x2c91
 10468 2c7e 36       		.uleb128 0x36
 10469 2c7f 01       		.uleb128 0x1
 10470 2c80 50       		.byte	0x50
 10471 2c81 02       		.uleb128 0x2
ARM GAS  C:\cygwin64\tmp\ccxdpAIh.s 			page 187


 10472 2c82 7D       		.byte	0x7d
 10473 2c83 00       		.sleb128 0
 10474 2c84 36       		.uleb128 0x36
 10475 2c85 01       		.uleb128 0x1
 10476 2c86 51       		.byte	0x51
 10477 2c87 03       		.uleb128 0x3
 10478 2c88 F3       		.byte	0xf3
 10479 2c89 01       		.uleb128 0x1
 10480 2c8a 50       		.byte	0x50
 10481 2c8b 36       		.uleb128 0x36
 10482 2c8c 01       		.uleb128 0x1
 10483 2c8d 52       		.byte	0x52
 10484 2c8e 01       		.uleb128 0x1
 10485 2c8f 33       		.byte	0x33
 10486 2c90 00       		.byte	0
 10487 2c91 35       		.uleb128 0x35
 10488 2c92 36000000 		.4byte	.LVL109
 10489 2c96 B33C0000 		.4byte	0x3cb3
 10490 2c9a A52C0000 		.4byte	0x2ca5
 10491 2c9e 36       		.uleb128 0x36
 10492 2c9f 01       		.uleb128 0x1
 10493 2ca0 50       		.byte	0x50
 10494 2ca1 02       		.uleb128 0x2
 10495 2ca2 7D       		.byte	0x7d
 10496 2ca3 00       		.sleb128 0
 10497 2ca4 00       		.byte	0
 10498 2ca5 3B       		.uleb128 0x3b
 10499 2ca6 40000000 		.4byte	.LVL111
 10500 2caa 873D0000 		.4byte	0x3d87
 10501 2cae 36       		.uleb128 0x36
 10502 2caf 01       		.uleb128 0x1
 10503 2cb0 50       		.byte	0x50
 10504 2cb1 02       		.uleb128 0x2
 10505 2cb2 7D       		.byte	0x7d
 10506 2cb3 00       		.sleb128 0
 10507 2cb4 00       		.byte	0
 10508 2cb5 00       		.byte	0
 10509 2cb6 31       		.uleb128 0x31
 10510 2cb7 C3050000 		.4byte	.LASF483
 10511 2cbb 01       		.byte	0x1
 10512 2cbc 3D04     		.2byte	0x43d
 10513 2cbe 25000000 		.4byte	0x25
 10514 2cc2 00000000 		.4byte	.LFB275
 10515 2cc6 4C000000 		.4byte	.LFE275-.LFB275
 10516 2cca 01       		.uleb128 0x1
 10517 2ccb 9C       		.byte	0x9c
 10518 2ccc 512D0000 		.4byte	0x2d51
 10519 2cd0 38       		.uleb128 0x38
 10520 2cd1 666400   		.ascii	"fd\000"
 10521 2cd4 01       		.byte	0x1
 10522 2cd5 3D04     		.2byte	0x43d
 10523 2cd7 25000000 		.4byte	0x25
 10524 2cdb C0100000 		.4byte	.LLST146
 10525 2cdf 34       		.uleb128 0x34
 10526 2ce0 666800   		.ascii	"fh\000"
 10527 2ce3 01       		.byte	0x1
 10528 2ce4 3F04     		.2byte	0x43f
ARM GAS  C:\cygwin64\tmp\ccxdpAIh.s 			page 188


 10529 2ce6 0C1B0000 		.4byte	0x1b0c
 10530 2cea 10110000 		.4byte	.LLST147
 10531 2cee 30       		.uleb128 0x30
 10532 2cef 72657300 		.ascii	"res\000"
 10533 2cf3 01       		.byte	0x1
 10534 2cf4 4004     		.2byte	0x440
 10535 2cf6 E7150000 		.4byte	0x15e7
 10536 2cfa 01       		.uleb128 0x1
 10537 2cfb 50       		.byte	0x50
 10538 2cfc 33       		.uleb128 0x33
 10539 2cfd 95070000 		.4byte	.LASF415
 10540 2d01 01       		.byte	0x1
 10541 2d02 4104     		.2byte	0x441
 10542 2d04 E8190000 		.4byte	0x19e8
 10543 2d08 23110000 		.4byte	.LLST148
 10544 2d0c 41       		.uleb128 0x41
 10545 2d0d 8F390000 		.4byte	0x398f
 10546 2d11 06000000 		.4byte	.LBB113
 10547 2d15 78000000 		.4byte	.Ldebug_ranges0+0x78
 10548 2d19 01       		.byte	0x1
 10549 2d1a 4504     		.2byte	0x445
 10550 2d1c 2A2D0000 		.4byte	0x2d2a
 10551 2d20 40       		.uleb128 0x40
 10552 2d21 9F390000 		.4byte	0x399f
 10553 2d25 36110000 		.4byte	.LLST149
 10554 2d29 00       		.byte	0
 10555 2d2a 37       		.uleb128 0x37
 10556 2d2b 1C000000 		.4byte	.LVL373
 10557 2d2f 7B320000 		.4byte	0x327b
 10558 2d33 35       		.uleb128 0x35
 10559 2d34 2A000000 		.4byte	.LVL375
 10560 2d38 281D0000 		.4byte	0x1d28
 10561 2d3c 472D0000 		.4byte	0x2d47
 10562 2d40 36       		.uleb128 0x36
 10563 2d41 01       		.uleb128 0x1
 10564 2d42 50       		.byte	0x50
 10565 2d43 02       		.uleb128 0x2
 10566 2d44 71       		.byte	0x71
 10567 2d45 00       		.sleb128 0
 10568 2d46 00       		.byte	0
 10569 2d47 37       		.uleb128 0x37
 10570 2d48 32000000 		.4byte	.LVL376
 10571 2d4c 663C0000 		.4byte	0x3c66
 10572 2d50 00       		.byte	0
 10573 2d51 42       		.uleb128 0x42
 10574 2d52 F20A0000 		.4byte	.LASF484
 10575 2d56 01       		.byte	0x1
 10576 2d57 2204     		.2byte	0x422
 10577 2d59 00000000 		.4byte	.LFB274
 10578 2d5d 22000000 		.4byte	.LFE274-.LFB274
 10579 2d61 01       		.uleb128 0x1
 10580 2d62 9C       		.byte	0x9c
 10581 2d63 C72D0000 		.4byte	0x2dc7
 10582 2d67 34       		.uleb128 0x34
 10583 2d68 666800   		.ascii	"fh\000"
 10584 2d6b 01       		.byte	0x1
 10585 2d6c 2404     		.2byte	0x424
ARM GAS  C:\cygwin64\tmp\ccxdpAIh.s 			page 189


 10586 2d6e 0C1B0000 		.4byte	0x1b0c
 10587 2d72 49110000 		.4byte	.LLST150
 10588 2d76 34       		.uleb128 0x34
 10589 2d77 6900     		.ascii	"i\000"
 10590 2d79 01       		.byte	0x1
 10591 2d7a 2504     		.2byte	0x425
 10592 2d7c 25000000 		.4byte	0x25
 10593 2d80 5C110000 		.4byte	.LLST151
 10594 2d84 3F       		.uleb128 0x3f
 10595 2d85 8F390000 		.4byte	0x398f
 10596 2d89 0C000000 		.4byte	.LBB117
 10597 2d8d 04000000 		.4byte	.LBE117-.LBB117
 10598 2d91 01       		.byte	0x1
 10599 2d92 2904     		.2byte	0x429
 10600 2d94 A22D0000 		.4byte	0x2da2
 10601 2d98 40       		.uleb128 0x40
 10602 2d99 9F390000 		.4byte	0x399f
 10603 2d9d 7B110000 		.4byte	.LLST152
 10604 2da1 00       		.byte	0
 10605 2da2 35       		.uleb128 0x35
 10606 2da3 16000000 		.4byte	.LVL384
 10607 2da7 281D0000 		.4byte	0x1d28
 10608 2dab B62D0000 		.4byte	0x2db6
 10609 2daf 36       		.uleb128 0x36
 10610 2db0 01       		.uleb128 0x1
 10611 2db1 50       		.byte	0x50
 10612 2db2 02       		.uleb128 0x2
 10613 2db3 74       		.byte	0x74
 10614 2db4 00       		.sleb128 0
 10615 2db5 00       		.byte	0
 10616 2db6 3B       		.uleb128 0x3b
 10617 2db7 20000000 		.4byte	.LVL386
 10618 2dbb B62C0000 		.4byte	0x2cb6
 10619 2dbf 36       		.uleb128 0x36
 10620 2dc0 01       		.uleb128 0x1
 10621 2dc1 50       		.byte	0x50
 10622 2dc2 02       		.uleb128 0x2
 10623 2dc3 74       		.byte	0x74
 10624 2dc4 00       		.sleb128 0
 10625 2dc5 00       		.byte	0
 10626 2dc6 00       		.byte	0
 10627 2dc7 31       		.uleb128 0x31
 10628 2dc8 700B0000 		.4byte	.LASF485
 10629 2dcc 01       		.byte	0x1
 10630 2dcd E303     		.2byte	0x3e3
 10631 2dcf 61160000 		.4byte	0x1661
 10632 2dd3 00000000 		.4byte	.LFB273
 10633 2dd7 94000000 		.4byte	.LFE273-.LFB273
 10634 2ddb 01       		.uleb128 0x1
 10635 2ddc 9C       		.byte	0x9c
 10636 2ddd DA2E0000 		.4byte	0x2eda
 10637 2de1 38       		.uleb128 0x38
 10638 2de2 666400   		.ascii	"fd\000"
 10639 2de5 01       		.byte	0x1
 10640 2de6 E303     		.2byte	0x3e3
 10641 2de8 25000000 		.4byte	0x25
 10642 2dec 9A110000 		.4byte	.LLST132
ARM GAS  C:\cygwin64\tmp\ccxdpAIh.s 			page 190


 10643 2df0 38       		.uleb128 0x38
 10644 2df1 62756600 		.ascii	"buf\000"
 10645 2df5 01       		.byte	0x1
 10646 2df6 E303     		.2byte	0x3e3
 10647 2df8 C1010000 		.4byte	0x1c1
 10648 2dfc B8110000 		.4byte	.LLST133
 10649 2e00 32       		.uleb128 0x32
 10650 2e01 620B0000 		.4byte	.LASF478
 10651 2e05 01       		.byte	0x1
 10652 2e06 E303     		.2byte	0x3e3
 10653 2e08 2C000000 		.4byte	0x2c
 10654 2e0c 0B120000 		.4byte	.LLST134
 10655 2e10 4D       		.uleb128 0x4d
 10656 2e11 BD0E0000 		.4byte	.LASF239
 10657 2e15 01       		.byte	0x1
 10658 2e16 E503     		.2byte	0x3e5
 10659 2e18 A7090000 		.4byte	0x9a7
 10660 2e1c 02       		.uleb128 0x2
 10661 2e1d 91       		.byte	0x91
 10662 2e1e 5C       		.sleb128 -36
 10663 2e1f 33       		.uleb128 0x33
 10664 2e20 31050000 		.4byte	.LASF479
 10665 2e24 01       		.byte	0x1
 10666 2e25 E603     		.2byte	0x3e6
 10667 2e27 A7090000 		.4byte	0x9a7
 10668 2e2b 83120000 		.4byte	.LLST135
 10669 2e2f 30       		.uleb128 0x30
 10670 2e30 72657300 		.ascii	"res\000"
 10671 2e34 01       		.byte	0x1
 10672 2e35 E703     		.2byte	0x3e7
 10673 2e37 25000000 		.4byte	0x25
 10674 2e3b 06       		.uleb128 0x6
 10675 2e3c 70       		.byte	0x70
 10676 2e3d 00       		.sleb128 0
 10677 2e3e 08       		.byte	0x8
 10678 2e3f FF       		.byte	0xff
 10679 2e40 1A       		.byte	0x1a
 10680 2e41 9F       		.byte	0x9f
 10681 2e42 34       		.uleb128 0x34
 10682 2e43 72657400 		.ascii	"ret\000"
 10683 2e47 01       		.byte	0x1
 10684 2e48 E803     		.2byte	0x3e8
 10685 2e4a 25000000 		.4byte	0x25
 10686 2e4e BA120000 		.4byte	.LLST136
 10687 2e52 34       		.uleb128 0x34
 10688 2e53 666800   		.ascii	"fh\000"
 10689 2e56 01       		.byte	0x1
 10690 2e57 E903     		.2byte	0x3e9
 10691 2e59 0C1B0000 		.4byte	0x1b0c
 10692 2e5d D8120000 		.4byte	.LLST137
 10693 2e61 33       		.uleb128 0x33
 10694 2e62 95070000 		.4byte	.LASF415
 10695 2e66 01       		.byte	0x1
 10696 2e67 EA03     		.2byte	0x3ea
 10697 2e69 E8190000 		.4byte	0x19e8
 10698 2e6d F6120000 		.4byte	.LLST138
 10699 2e71 54       		.uleb128 0x54
ARM GAS  C:\cygwin64\tmp\ccxdpAIh.s 			page 191


 10700 2e72 60000000 		.4byte	.Ldebug_ranges0+0x60
 10701 2e76 9B2E0000 		.4byte	0x2e9b
 10702 2e7a 34       		.uleb128 0x34
 10703 2e7b 70747200 		.ascii	"ptr\000"
 10704 2e7f 01       		.byte	0x1
 10705 2e80 F603     		.2byte	0x3f6
 10706 2e82 CE010000 		.4byte	0x1ce
 10707 2e86 2A130000 		.4byte	.LLST139
 10708 2e8a 3B       		.uleb128 0x3b
 10709 2e8b 36000000 		.4byte	.LVL350
 10710 2e8f 4D390000 		.4byte	0x394d
 10711 2e93 36       		.uleb128 0x36
 10712 2e94 01       		.uleb128 0x1
 10713 2e95 50       		.byte	0x50
 10714 2e96 02       		.uleb128 0x2
 10715 2e97 75       		.byte	0x75
 10716 2e98 00       		.sleb128 0
 10717 2e99 00       		.byte	0
 10718 2e9a 00       		.byte	0
 10719 2e9b 35       		.uleb128 0x35
 10720 2e9c 14000000 		.4byte	.LVL345
 10721 2ea0 7B320000 		.4byte	0x327b
 10722 2ea4 AF2E0000 		.4byte	0x2eaf
 10723 2ea8 36       		.uleb128 0x36
 10724 2ea9 01       		.uleb128 0x1
 10725 2eaa 50       		.byte	0x50
 10726 2eab 02       		.uleb128 0x2
 10727 2eac 79       		.byte	0x79
 10728 2ead 00       		.sleb128 0
 10729 2eae 00       		.byte	0
 10730 2eaf 35       		.uleb128 0x35
 10731 2eb0 60000000 		.4byte	.LVL356
 10732 2eb4 281D0000 		.4byte	0x1d28
 10733 2eb8 C32E0000 		.4byte	0x2ec3
 10734 2ebc 36       		.uleb128 0x36
 10735 2ebd 01       		.uleb128 0x1
 10736 2ebe 50       		.byte	0x50
 10737 2ebf 02       		.uleb128 0x2
 10738 2ec0 79       		.byte	0x79
 10739 2ec1 00       		.sleb128 0
 10740 2ec2 00       		.byte	0
 10741 2ec3 3B       		.uleb128 0x3b
 10742 2ec4 74000000 		.4byte	.LVL359
 10743 2ec8 A83C0000 		.4byte	0x3ca8
 10744 2ecc 36       		.uleb128 0x36
 10745 2ecd 01       		.uleb128 0x1
 10746 2ece 52       		.byte	0x52
 10747 2ecf 02       		.uleb128 0x2
 10748 2ed0 76       		.byte	0x76
 10749 2ed1 00       		.sleb128 0
 10750 2ed2 36       		.uleb128 0x36
 10751 2ed3 01       		.uleb128 0x1
 10752 2ed4 53       		.byte	0x53
 10753 2ed5 02       		.uleb128 0x2
 10754 2ed6 91       		.byte	0x91
 10755 2ed7 5C       		.sleb128 -36
 10756 2ed8 00       		.byte	0
ARM GAS  C:\cygwin64\tmp\ccxdpAIh.s 			page 192


 10757 2ed9 00       		.byte	0
 10758 2eda 31       		.uleb128 0x31
 10759 2edb 5F140000 		.4byte	.LASF486
 10760 2edf 01       		.byte	0x1
 10761 2ee0 7503     		.2byte	0x375
 10762 2ee2 25000000 		.4byte	0x25
 10763 2ee6 00000000 		.4byte	.LFB272
 10764 2eea EC000000 		.4byte	.LFE272-.LFB272
 10765 2eee 01       		.uleb128 0x1
 10766 2eef 9C       		.byte	0x9c
 10767 2ef0 E52F0000 		.4byte	0x2fe5
 10768 2ef4 32       		.uleb128 0x32
 10769 2ef5 EF0C0000 		.4byte	.LASF452
 10770 2ef9 01       		.byte	0x1
 10771 2efa 7503     		.2byte	0x375
 10772 2efc 4C060000 		.4byte	0x64c
 10773 2f00 60130000 		.4byte	.LLST182
 10774 2f04 32       		.uleb128 0x32
 10775 2f05 1A070000 		.4byte	.LASF171
 10776 2f09 01       		.byte	0x1
 10777 2f0a 7503     		.2byte	0x375
 10778 2f0c 25000000 		.4byte	0x25
 10779 2f10 94130000 		.4byte	.LLST183
 10780 2f14 33       		.uleb128 0x33
 10781 2f15 AE020000 		.4byte	.LASF418
 10782 2f19 01       		.byte	0x1
 10783 2f1a 7703     		.2byte	0x377
 10784 2f1c 25000000 		.4byte	0x25
 10785 2f20 C8130000 		.4byte	.LLST184
 10786 2f24 33       		.uleb128 0x33
 10787 2f25 60020000 		.4byte	.LASF487
 10788 2f29 01       		.byte	0x1
 10789 2f2a 7803     		.2byte	0x378
 10790 2f2c 25000000 		.4byte	0x25
 10791 2f30 07140000 		.4byte	.LLST185
 10792 2f34 33       		.uleb128 0x33
 10793 2f35 95070000 		.4byte	.LASF415
 10794 2f39 01       		.byte	0x1
 10795 2f3a 7903     		.2byte	0x379
 10796 2f3c E8190000 		.4byte	0x19e8
 10797 2f40 25140000 		.4byte	.LLST186
 10798 2f44 34       		.uleb128 0x34
 10799 2f45 666800   		.ascii	"fh\000"
 10800 2f48 01       		.byte	0x1
 10801 2f49 7A03     		.2byte	0x37a
 10802 2f4b 0C1B0000 		.4byte	0x1b0c
 10803 2f4f 4E140000 		.4byte	.LLST187
 10804 2f53 34       		.uleb128 0x34
 10805 2f54 72657300 		.ascii	"res\000"
 10806 2f58 01       		.byte	0x1
 10807 2f59 7B03     		.2byte	0x37b
 10808 2f5b 25000000 		.4byte	0x25
 10809 2f5f 82140000 		.4byte	.LLST188
 10810 2f63 37       		.uleb128 0x37
 10811 2f64 38000000 		.4byte	.LVL458
 10812 2f68 E21B0000 		.4byte	0x1be2
 10813 2f6c 35       		.uleb128 0x35
ARM GAS  C:\cygwin64\tmp\ccxdpAIh.s 			page 193


 10814 2f6d 3E000000 		.4byte	.LVL460
 10815 2f71 7B320000 		.4byte	0x327b
 10816 2f75 802F0000 		.4byte	0x2f80
 10817 2f79 36       		.uleb128 0x36
 10818 2f7a 01       		.uleb128 0x1
 10819 2f7b 50       		.byte	0x50
 10820 2f7c 02       		.uleb128 0x2
 10821 2f7d 74       		.byte	0x74
 10822 2f7e 00       		.sleb128 0
 10823 2f7f 00       		.byte	0
 10824 2f80 37       		.uleb128 0x37
 10825 2f81 48000000 		.4byte	.LVL462
 10826 2f85 8A1C0000 		.4byte	0x1c8a
 10827 2f89 37       		.uleb128 0x37
 10828 2f8a 52000000 		.4byte	.LVL465
 10829 2f8e 281D0000 		.4byte	0x1d28
 10830 2f92 35       		.uleb128 0x35
 10831 2f93 5C000000 		.4byte	.LVL467
 10832 2f97 8A1C0000 		.4byte	0x1c8a
 10833 2f9b A62F0000 		.4byte	0x2fa6
 10834 2f9f 36       		.uleb128 0x36
 10835 2fa0 01       		.uleb128 0x1
 10836 2fa1 50       		.byte	0x50
 10837 2fa2 02       		.uleb128 0x2
 10838 2fa3 74       		.byte	0x74
 10839 2fa4 00       		.sleb128 0
 10840 2fa5 00       		.byte	0
 10841 2fa6 35       		.uleb128 0x35
 10842 2fa7 72000000 		.4byte	.LVL471
 10843 2fab 7C3D0000 		.4byte	0x3d7c
 10844 2faf C02F0000 		.4byte	0x2fc0
 10845 2fb3 36       		.uleb128 0x36
 10846 2fb4 01       		.uleb128 0x1
 10847 2fb5 51       		.byte	0x51
 10848 2fb6 02       		.uleb128 0x2
 10849 2fb7 7B       		.byte	0x7b
 10850 2fb8 00       		.sleb128 0
 10851 2fb9 36       		.uleb128 0x36
 10852 2fba 01       		.uleb128 0x1
 10853 2fbb 52       		.byte	0x52
 10854 2fbc 02       		.uleb128 0x2
 10855 2fbd 77       		.byte	0x77
 10856 2fbe 00       		.sleb128 0
 10857 2fbf 00       		.byte	0
 10858 2fc0 35       		.uleb128 0x35
 10859 2fc1 94000000 		.4byte	.LVL477
 10860 2fc5 B33C0000 		.4byte	0x3cb3
 10861 2fc9 D42F0000 		.4byte	0x2fd4
 10862 2fcd 36       		.uleb128 0x36
 10863 2fce 01       		.uleb128 0x1
 10864 2fcf 50       		.byte	0x50
 10865 2fd0 02       		.uleb128 0x2
 10866 2fd1 7A       		.byte	0x7a
 10867 2fd2 00       		.sleb128 0
 10868 2fd3 00       		.byte	0
 10869 2fd4 3B       		.uleb128 0x3b
 10870 2fd5 A8000000 		.4byte	.LVL481
ARM GAS  C:\cygwin64\tmp\ccxdpAIh.s 			page 194


 10871 2fd9 923D0000 		.4byte	0x3d92
 10872 2fdd 36       		.uleb128 0x36
 10873 2fde 01       		.uleb128 0x1
 10874 2fdf 50       		.byte	0x50
 10875 2fe0 02       		.uleb128 0x2
 10876 2fe1 7A       		.byte	0x7a
 10877 2fe2 00       		.sleb128 0
 10878 2fe3 00       		.byte	0
 10879 2fe4 00       		.byte	0
 10880 2fe5 31       		.uleb128 0x31
 10881 2fe6 3E140000 		.4byte	.LASF488
 10882 2fea 01       		.byte	0x1
 10883 2feb 5A03     		.2byte	0x35a
 10884 2fed 2C000000 		.4byte	0x2c
 10885 2ff1 00000000 		.4byte	.LFB271
 10886 2ff5 1C000000 		.4byte	.LFE271-.LFB271
 10887 2ff9 01       		.uleb128 0x1
 10888 2ffa 9C       		.byte	0x9c
 10889 2ffb 98300000 		.4byte	0x3098
 10890 2fff 38       		.uleb128 0x38
 10891 3000 70747200 		.ascii	"ptr\000"
 10892 3004 01       		.byte	0x1
 10893 3005 5A03     		.2byte	0x35a
 10894 3007 122C0000 		.4byte	0x2c12
 10895 300b BA140000 		.4byte	.LLST162
 10896 300f 32       		.uleb128 0x32
 10897 3010 BD0E0000 		.4byte	.LASF239
 10898 3014 01       		.byte	0x1
 10899 3015 5A03     		.2byte	0x35a
 10900 3017 2C000000 		.4byte	0x2c
 10901 301b D8140000 		.4byte	.LLST163
 10902 301f 32       		.uleb128 0x32
 10903 3020 F10B0000 		.4byte	.LASF489
 10904 3024 01       		.byte	0x1
 10905 3025 5A03     		.2byte	0x35a
 10906 3027 2C000000 		.4byte	0x2c
 10907 302b F9140000 		.4byte	.LLST164
 10908 302f 32       		.uleb128 0x32
 10909 3030 95070000 		.4byte	.LASF415
 10910 3034 01       		.byte	0x1
 10911 3035 5A03     		.2byte	0x35a
 10912 3037 E8190000 		.4byte	0x19e8
 10913 303b 1A150000 		.4byte	.LLST165
 10914 303f 4D       		.uleb128 0x4d
 10915 3040 620B0000 		.4byte	.LASF478
 10916 3044 01       		.byte	0x1
 10917 3045 5C03     		.2byte	0x35c
 10918 3047 2C000000 		.4byte	0x2c
 10919 304b 01       		.uleb128 0x1
 10920 304c 55       		.byte	0x55
 10921 304d 34       		.uleb128 0x34
 10922 304e 666E00   		.ascii	"fn\000"
 10923 3051 01       		.byte	0x1
 10924 3052 5D03     		.2byte	0x35d
 10925 3054 25000000 		.4byte	0x25
 10926 3058 3B150000 		.4byte	.LLST166
 10927 305c 34       		.uleb128 0x34
ARM GAS  C:\cygwin64\tmp\ccxdpAIh.s 			page 195


 10928 305d 72657400 		.ascii	"ret\000"
 10929 3061 01       		.byte	0x1
 10930 3062 5E03     		.2byte	0x35e
 10931 3064 61160000 		.4byte	0x1661
 10932 3068 4E150000 		.4byte	.LLST167
 10933 306c 35       		.uleb128 0x35
 10934 306d 0E000000 		.4byte	.LVL409
 10935 3071 B4320000 		.4byte	0x32b4
 10936 3075 81300000 		.4byte	0x3081
 10937 3079 36       		.uleb128 0x36
 10938 307a 01       		.uleb128 0x1
 10939 307b 50       		.byte	0x50
 10940 307c 03       		.uleb128 0x3
 10941 307d F3       		.byte	0xf3
 10942 307e 01       		.uleb128 0x1
 10943 307f 53       		.byte	0x53
 10944 3080 00       		.byte	0
 10945 3081 3B       		.uleb128 0x3b
 10946 3082 16000000 		.4byte	.LVL410
 10947 3086 EA2A0000 		.4byte	0x2aea
 10948 308a 36       		.uleb128 0x36
 10949 308b 01       		.uleb128 0x1
 10950 308c 51       		.byte	0x51
 10951 308d 02       		.uleb128 0x2
 10952 308e 74       		.byte	0x74
 10953 308f 00       		.sleb128 0
 10954 3090 36       		.uleb128 0x36
 10955 3091 01       		.uleb128 0x1
 10956 3092 52       		.byte	0x52
 10957 3093 02       		.uleb128 0x2
 10958 3094 75       		.byte	0x75
 10959 3095 00       		.sleb128 0
 10960 3096 00       		.byte	0
 10961 3097 00       		.byte	0
 10962 3098 31       		.uleb128 0x31
 10963 3099 240C0000 		.4byte	.LASF490
 10964 309d 01       		.byte	0x1
 10965 309e 3103     		.2byte	0x331
 10966 30a0 25000000 		.4byte	0x25
 10967 30a4 00000000 		.4byte	.LFB270
 10968 30a8 48000000 		.4byte	.LFE270-.LFB270
 10969 30ac 01       		.uleb128 0x1
 10970 30ad 9C       		.byte	0x9c
 10971 30ae 3B310000 		.4byte	0x313b
 10972 30b2 38       		.uleb128 0x38
 10973 30b3 666400   		.ascii	"fd\000"
 10974 30b6 01       		.byte	0x1
 10975 30b7 3103     		.2byte	0x331
 10976 30b9 25000000 		.4byte	0x25
 10977 30bd 61150000 		.4byte	.LLST127
 10978 30c1 32       		.uleb128 0x32
 10979 30c2 E70E0000 		.4byte	.LASF482
 10980 30c6 01       		.byte	0x1
 10981 30c7 3103     		.2byte	0x331
 10982 30c9 35160000 		.4byte	0x1635
 10983 30cd 9B150000 		.4byte	.LLST128
 10984 30d1 34       		.uleb128 0x34
ARM GAS  C:\cygwin64\tmp\ccxdpAIh.s 			page 196


 10985 30d2 666800   		.ascii	"fh\000"
 10986 30d5 01       		.byte	0x1
 10987 30d6 3403     		.2byte	0x334
 10988 30d8 0C1B0000 		.4byte	0x1b0c
 10989 30dc D5150000 		.4byte	.LLST129
 10990 30e0 34       		.uleb128 0x34
 10991 30e1 726300   		.ascii	"rc\000"
 10992 30e4 01       		.byte	0x1
 10993 30e5 3503     		.2byte	0x335
 10994 30e7 E7150000 		.4byte	0x15e7
 10995 30eb FE150000 		.4byte	.LLST130
 10996 30ef 41       		.uleb128 0x41
 10997 30f0 8F390000 		.4byte	0x398f
 10998 30f4 06000000 		.4byte	.LBB107
 10999 30f8 48000000 		.4byte	.Ldebug_ranges0+0x48
 11000 30fc 01       		.byte	0x1
 11001 30fd 3703     		.2byte	0x337
 11002 30ff 0D310000 		.4byte	0x310d
 11003 3103 40       		.uleb128 0x40
 11004 3104 9F390000 		.4byte	0x399f
 11005 3108 27160000 		.4byte	.LLST131
 11006 310c 00       		.byte	0
 11007 310d 35       		.uleb128 0x35
 11008 310e 18000000 		.4byte	.LVL337
 11009 3112 873D0000 		.4byte	0x3d87
 11010 3116 21310000 		.4byte	0x3121
 11011 311a 36       		.uleb128 0x36
 11012 311b 01       		.uleb128 0x1
 11013 311c 50       		.byte	0x50
 11014 311d 02       		.uleb128 0x2
 11015 311e 75       		.byte	0x75
 11016 311f 00       		.sleb128 0
 11017 3120 00       		.byte	0
 11018 3121 37       		.uleb128 0x37
 11019 3122 20000000 		.4byte	.LVL339
 11020 3126 281D0000 		.4byte	0x1d28
 11021 312a 3B       		.uleb128 0x3b
 11022 312b 2E000000 		.4byte	.LVL340
 11023 312f B33C0000 		.4byte	0x3cb3
 11024 3133 36       		.uleb128 0x36
 11025 3134 01       		.uleb128 0x1
 11026 3135 50       		.byte	0x50
 11027 3136 02       		.uleb128 0x2
 11028 3137 75       		.byte	0x75
 11029 3138 00       		.sleb128 0
 11030 3139 00       		.byte	0
 11031 313a 00       		.byte	0
 11032 313b 31       		.uleb128 0x31
 11033 313c 53020000 		.4byte	.LASF491
 11034 3140 01       		.byte	0x1
 11035 3141 1903     		.2byte	0x319
 11036 3143 2C000000 		.4byte	0x2c
 11037 3147 00000000 		.4byte	.LFB269
 11038 314b 1C000000 		.4byte	.LFE269-.LFB269
 11039 314f 01       		.uleb128 0x1
 11040 3150 9C       		.byte	0x9c
 11041 3151 EE310000 		.4byte	0x31ee
ARM GAS  C:\cygwin64\tmp\ccxdpAIh.s 			page 197


 11042 3155 38       		.uleb128 0x38
 11043 3156 70747200 		.ascii	"ptr\000"
 11044 315a 01       		.byte	0x1
 11045 315b 1903     		.2byte	0x319
 11046 315d C1010000 		.4byte	0x1c1
 11047 3161 3A160000 		.4byte	.LLST140
 11048 3165 32       		.uleb128 0x32
 11049 3166 BD0E0000 		.4byte	.LASF239
 11050 316a 01       		.byte	0x1
 11051 316b 1903     		.2byte	0x319
 11052 316d 2C000000 		.4byte	0x2c
 11053 3171 58160000 		.4byte	.LLST141
 11054 3175 32       		.uleb128 0x32
 11055 3176 F10B0000 		.4byte	.LASF489
 11056 317a 01       		.byte	0x1
 11057 317b 1903     		.2byte	0x319
 11058 317d 2C000000 		.4byte	0x2c
 11059 3181 79160000 		.4byte	.LLST142
 11060 3185 32       		.uleb128 0x32
 11061 3186 95070000 		.4byte	.LASF415
 11062 318a 01       		.byte	0x1
 11063 318b 1903     		.2byte	0x319
 11064 318d E8190000 		.4byte	0x19e8
 11065 3191 9A160000 		.4byte	.LLST143
 11066 3195 4D       		.uleb128 0x4d
 11067 3196 620B0000 		.4byte	.LASF478
 11068 319a 01       		.byte	0x1
 11069 319b 1B03     		.2byte	0x31b
 11070 319d 2C000000 		.4byte	0x2c
 11071 31a1 01       		.uleb128 0x1
 11072 31a2 55       		.byte	0x55
 11073 31a3 34       		.uleb128 0x34
 11074 31a4 666E00   		.ascii	"fn\000"
 11075 31a7 01       		.byte	0x1
 11076 31a8 1C03     		.2byte	0x31c
 11077 31aa 25000000 		.4byte	0x25
 11078 31ae BB160000 		.4byte	.LLST144
 11079 31b2 34       		.uleb128 0x34
 11080 31b3 72657400 		.ascii	"ret\000"
 11081 31b7 01       		.byte	0x1
 11082 31b8 1D03     		.2byte	0x31d
 11083 31ba 61160000 		.4byte	0x1661
 11084 31be CE160000 		.4byte	.LLST145
 11085 31c2 35       		.uleb128 0x35
 11086 31c3 0E000000 		.4byte	.LVL365
 11087 31c7 B4320000 		.4byte	0x32b4
 11088 31cb D7310000 		.4byte	0x31d7
 11089 31cf 36       		.uleb128 0x36
 11090 31d0 01       		.uleb128 0x1
 11091 31d1 50       		.byte	0x50
 11092 31d2 03       		.uleb128 0x3
 11093 31d3 F3       		.byte	0xf3
 11094 31d4 01       		.uleb128 0x1
 11095 31d5 53       		.byte	0x53
 11096 31d6 00       		.byte	0
 11097 31d7 3B       		.uleb128 0x3b
 11098 31d8 16000000 		.4byte	.LVL366
ARM GAS  C:\cygwin64\tmp\ccxdpAIh.s 			page 198


 11099 31dc C72D0000 		.4byte	0x2dc7
 11100 31e0 36       		.uleb128 0x36
 11101 31e1 01       		.uleb128 0x1
 11102 31e2 51       		.byte	0x51
 11103 31e3 02       		.uleb128 0x2
 11104 31e4 74       		.byte	0x74
 11105 31e5 00       		.sleb128 0
 11106 31e6 36       		.uleb128 0x36
 11107 31e7 01       		.uleb128 0x1
 11108 31e8 52       		.byte	0x52
 11109 31e9 02       		.uleb128 0x2
 11110 31ea 75       		.byte	0x75
 11111 31eb 00       		.sleb128 0
 11112 31ec 00       		.byte	0
 11113 31ed 00       		.byte	0
 11114 31ee 31       		.uleb128 0x31
 11115 31ef EB0B0000 		.4byte	.LASF492
 11116 31f3 01       		.byte	0x1
 11117 31f4 0403     		.2byte	0x304
 11118 31f6 E8190000 		.4byte	0x19e8
 11119 31fa 00000000 		.4byte	.LFB268
 11120 31fe 1A000000 		.4byte	.LFE268-.LFB268
 11121 3202 01       		.uleb128 0x1
 11122 3203 9C       		.byte	0x9c
 11123 3204 7B320000 		.4byte	0x327b
 11124 3208 32       		.uleb128 0x32
 11125 3209 E0000000 		.4byte	.LASF481
 11126 320d 01       		.byte	0x1
 11127 320e 0403     		.2byte	0x304
 11128 3210 4C060000 		.4byte	0x64c
 11129 3214 E1160000 		.4byte	.LLST191
 11130 3218 32       		.uleb128 0x32
 11131 3219 38110000 		.4byte	.LASF427
 11132 321d 01       		.byte	0x1
 11133 321e 0403     		.2byte	0x304
 11134 3220 4C060000 		.4byte	0x64c
 11135 3224 0D170000 		.4byte	.LLST192
 11136 3228 33       		.uleb128 0x33
 11137 3229 1A070000 		.4byte	.LASF171
 11138 322d 01       		.byte	0x1
 11139 322e 0603     		.2byte	0x306
 11140 3230 25000000 		.4byte	0x25
 11141 3234 2E170000 		.4byte	.LLST193
 11142 3238 33       		.uleb128 0x33
 11143 3239 AE020000 		.4byte	.LASF418
 11144 323d 01       		.byte	0x1
 11145 323e 0703     		.2byte	0x307
 11146 3240 25000000 		.4byte	0x25
 11147 3244 4C170000 		.4byte	.LLST194
 11148 3248 35       		.uleb128 0x35
 11149 3249 0A000000 		.4byte	.LVL504
 11150 324d B81B0000 		.4byte	0x1bb8
 11151 3251 5D320000 		.4byte	0x325d
 11152 3255 36       		.uleb128 0x36
 11153 3256 01       		.uleb128 0x1
 11154 3257 50       		.byte	0x50
 11155 3258 03       		.uleb128 0x3
ARM GAS  C:\cygwin64\tmp\ccxdpAIh.s 			page 199


 11156 3259 F3       		.byte	0xf3
 11157 325a 01       		.uleb128 0x1
 11158 325b 51       		.byte	0x51
 11159 325c 00       		.byte	0
 11160 325d 35       		.uleb128 0x35
 11161 325e 12000000 		.4byte	.LVL506
 11162 3262 DA2E0000 		.4byte	0x2eda
 11163 3266 71320000 		.4byte	0x3271
 11164 326a 36       		.uleb128 0x36
 11165 326b 01       		.uleb128 0x1
 11166 326c 50       		.byte	0x50
 11167 326d 02       		.uleb128 0x2
 11168 326e 74       		.byte	0x74
 11169 326f 00       		.sleb128 0
 11170 3270 00       		.byte	0
 11171 3271 50       		.uleb128 0x50
 11172 3272 1A000000 		.4byte	.LVL508
 11173 3276 7B320000 		.4byte	0x327b
 11174 327a 00       		.byte	0
 11175 327b 31       		.uleb128 0x31
 11176 327c 1C040000 		.4byte	.LASF493
 11177 3280 01       		.byte	0x1
 11178 3281 E802     		.2byte	0x2e8
 11179 3283 E8190000 		.4byte	0x19e8
 11180 3287 00000000 		.4byte	.LFB267
 11181 328b 28000000 		.4byte	.LFE267-.LFB267
 11182 328f 01       		.uleb128 0x1
 11183 3290 9C       		.byte	0x9c
 11184 3291 B4320000 		.4byte	0x32b4
 11185 3295 32       		.uleb128 0x32
 11186 3296 AE020000 		.4byte	.LASF418
 11187 329a 01       		.byte	0x1
 11188 329b E802     		.2byte	0x2e8
 11189 329d 25000000 		.4byte	0x25
 11190 32a1 5F170000 		.4byte	.LLST32
 11191 32a5 4D       		.uleb128 0x4d
 11192 32a6 95070000 		.4byte	.LASF415
 11193 32aa 01       		.byte	0x1
 11194 32ab EA02     		.2byte	0x2ea
 11195 32ad E8190000 		.4byte	0x19e8
 11196 32b1 01       		.uleb128 0x1
 11197 32b2 50       		.byte	0x50
 11198 32b3 00       		.byte	0
 11199 32b4 31       		.uleb128 0x31
 11200 32b5 AE020000 		.4byte	.LASF418
 11201 32b9 01       		.byte	0x1
 11202 32ba CA02     		.2byte	0x2ca
 11203 32bc 25000000 		.4byte	0x25
 11204 32c0 00000000 		.4byte	.LFB266
 11205 32c4 2C000000 		.4byte	.LFE266-.LFB266
 11206 32c8 01       		.uleb128 0x1
 11207 32c9 9C       		.byte	0x9c
 11208 32ca ED320000 		.4byte	0x32ed
 11209 32ce 32       		.uleb128 0x32
 11210 32cf 95070000 		.4byte	.LASF415
 11211 32d3 01       		.byte	0x1
 11212 32d4 CA02     		.2byte	0x2ca
ARM GAS  C:\cygwin64\tmp\ccxdpAIh.s 			page 200


 11213 32d6 E8190000 		.4byte	0x19e8
 11214 32da 99170000 		.4byte	.LLST31
 11215 32de 4D       		.uleb128 0x4d
 11216 32df AE020000 		.4byte	.LASF418
 11217 32e3 01       		.byte	0x1
 11218 32e4 CC02     		.2byte	0x2cc
 11219 32e6 25000000 		.4byte	0x25
 11220 32ea 01       		.uleb128 0x1
 11221 32eb 53       		.byte	0x53
 11222 32ec 00       		.byte	0
 11223 32ed 31       		.uleb128 0x31
 11224 32ee C5010000 		.4byte	.LASF494
 11225 32f2 01       		.byte	0x1
 11226 32f3 A302     		.2byte	0x2a3
 11227 32f5 25000000 		.4byte	0x25
 11228 32f9 00000000 		.4byte	.LFB265
 11229 32fd 48000000 		.4byte	.LFE265-.LFB265
 11230 3301 01       		.uleb128 0x1
 11231 3302 9C       		.byte	0x9c
 11232 3303 88330000 		.4byte	0x3388
 11233 3307 32       		.uleb128 0x32
 11234 3308 AE020000 		.4byte	.LASF418
 11235 330c 01       		.byte	0x1
 11236 330d A302     		.2byte	0x2a3
 11237 330f 25000000 		.4byte	0x25
 11238 3313 C5170000 		.4byte	.LLST172
 11239 3317 33       		.uleb128 0x33
 11240 3318 95070000 		.4byte	.LASF415
 11241 331c 01       		.byte	0x1
 11242 331d A502     		.2byte	0x2a5
 11243 331f E8190000 		.4byte	0x19e8
 11244 3323 F1170000 		.4byte	.LLST173
 11245 3327 34       		.uleb128 0x34
 11246 3328 666800   		.ascii	"fh\000"
 11247 332b 01       		.byte	0x1
 11248 332c A602     		.2byte	0x2a6
 11249 332e 0C1B0000 		.4byte	0x1b0c
 11250 3332 0F180000 		.4byte	.LLST174
 11251 3336 34       		.uleb128 0x34
 11252 3337 72657300 		.ascii	"res\000"
 11253 333b 01       		.byte	0x1
 11254 333c A702     		.2byte	0x2a7
 11255 333e 25000000 		.4byte	0x25
 11256 3342 22180000 		.4byte	.LLST175
 11257 3346 35       		.uleb128 0x35
 11258 3347 0E000000 		.4byte	.LVL423
 11259 334b 7B320000 		.4byte	0x327b
 11260 334f 5A330000 		.4byte	0x335a
 11261 3353 36       		.uleb128 0x36
 11262 3354 01       		.uleb128 0x1
 11263 3355 50       		.byte	0x50
 11264 3356 02       		.uleb128 0x2
 11265 3357 76       		.byte	0x76
 11266 3358 00       		.sleb128 0
 11267 3359 00       		.byte	0
 11268 335a 35       		.uleb128 0x35
 11269 335b 1C000000 		.4byte	.LVL427
ARM GAS  C:\cygwin64\tmp\ccxdpAIh.s 			page 201


 11270 335f 281D0000 		.4byte	0x1d28
 11271 3363 6E330000 		.4byte	0x336e
 11272 3367 36       		.uleb128 0x36
 11273 3368 01       		.uleb128 0x1
 11274 3369 50       		.byte	0x50
 11275 336a 02       		.uleb128 0x2
 11276 336b 76       		.byte	0x76
 11277 336c 00       		.sleb128 0
 11278 336d 00       		.byte	0
 11279 336e 37       		.uleb128 0x37
 11280 336f 24000000 		.4byte	.LVL428
 11281 3373 923D0000 		.4byte	0x3d92
 11282 3377 3B       		.uleb128 0x3b
 11283 3378 2C000000 		.4byte	.LVL430
 11284 337c 8A1C0000 		.4byte	0x1c8a
 11285 3380 36       		.uleb128 0x36
 11286 3381 01       		.uleb128 0x1
 11287 3382 50       		.byte	0x50
 11288 3383 02       		.uleb128 0x2
 11289 3384 76       		.byte	0x76
 11290 3385 00       		.sleb128 0
 11291 3386 00       		.byte	0
 11292 3387 00       		.byte	0
 11293 3388 42       		.uleb128 0x42
 11294 3389 C7100000 		.4byte	.LASF495
 11295 338d 01       		.byte	0x1
 11296 338e 9002     		.2byte	0x290
 11297 3390 00000000 		.4byte	.LFB264
 11298 3394 08000000 		.4byte	.LFE264-.LFB264
 11299 3398 01       		.uleb128 0x1
 11300 3399 9C       		.byte	0x9c
 11301 339a CA330000 		.4byte	0x33ca
 11302 339e 32       		.uleb128 0x32
 11303 339f 95070000 		.4byte	.LASF415
 11304 33a3 01       		.byte	0x1
 11305 33a4 9002     		.2byte	0x290
 11306 33a6 E8190000 		.4byte	0x19e8
 11307 33aa 3A180000 		.4byte	.LLST126
 11308 33ae 53       		.uleb128 0x53
 11309 33af 08000000 		.4byte	.LVL331
 11310 33b3 76350000 		.4byte	0x3576
 11311 33b7 36       		.uleb128 0x36
 11312 33b8 01       		.uleb128 0x1
 11313 33b9 50       		.byte	0x50
 11314 33ba 03       		.uleb128 0x3
 11315 33bb F3       		.byte	0xf3
 11316 33bc 01       		.uleb128 0x1
 11317 33bd 50       		.byte	0x50
 11318 33be 36       		.uleb128 0x36
 11319 33bf 01       		.uleb128 0x1
 11320 33c0 51       		.byte	0x51
 11321 33c1 01       		.uleb128 0x1
 11322 33c2 30       		.byte	0x30
 11323 33c3 36       		.uleb128 0x36
 11324 33c4 01       		.uleb128 0x1
 11325 33c5 52       		.byte	0x52
 11326 33c6 01       		.uleb128 0x1
ARM GAS  C:\cygwin64\tmp\ccxdpAIh.s 			page 202


 11327 33c7 30       		.byte	0x30
 11328 33c8 00       		.byte	0
 11329 33c9 00       		.byte	0
 11330 33ca 31       		.uleb128 0x31
 11331 33cb C30F0000 		.4byte	.LASF496
 11332 33cf 01       		.byte	0x1
 11333 33d0 6402     		.2byte	0x264
 11334 33d2 35160000 		.4byte	0x1635
 11335 33d6 00000000 		.4byte	.LFB263
 11336 33da 70000000 		.4byte	.LFE263-.LFB263
 11337 33de 01       		.uleb128 0x1
 11338 33df 9C       		.byte	0x9c
 11339 33e0 9A340000 		.4byte	0x349a
 11340 33e4 32       		.uleb128 0x32
 11341 33e5 AE020000 		.4byte	.LASF418
 11342 33e9 01       		.byte	0x1
 11343 33ea 6402     		.2byte	0x264
 11344 33ec 25000000 		.4byte	0x25
 11345 33f0 5B180000 		.4byte	.LLST112
 11346 33f4 32       		.uleb128 0x32
 11347 33f5 1B0C0000 		.4byte	.LASF497
 11348 33f9 01       		.byte	0x1
 11349 33fa 6402     		.2byte	0x264
 11350 33fc 35160000 		.4byte	0x1635
 11351 3400 87180000 		.4byte	.LLST113
 11352 3404 32       		.uleb128 0x32
 11353 3405 9C050000 		.4byte	.LASF498
 11354 3409 01       		.byte	0x1
 11355 340a 6402     		.2byte	0x264
 11356 340c 25000000 		.4byte	0x25
 11357 3410 B0180000 		.4byte	.LLST114
 11358 3414 34       		.uleb128 0x34
 11359 3415 72657300 		.ascii	"res\000"
 11360 3419 01       		.byte	0x1
 11361 341a 6602     		.2byte	0x266
 11362 341c E7150000 		.4byte	0x15e7
 11363 3420 DC180000 		.4byte	.LLST115
 11364 3424 34       		.uleb128 0x34
 11365 3425 666800   		.ascii	"fh\000"
 11366 3428 01       		.byte	0x1
 11367 3429 6702     		.2byte	0x267
 11368 342b 0C1B0000 		.4byte	0x1b0c
 11369 342f FA180000 		.4byte	.LLST116
 11370 3433 33       		.uleb128 0x33
 11371 3434 95070000 		.4byte	.LASF415
 11372 3438 01       		.byte	0x1
 11373 3439 6902     		.2byte	0x269
 11374 343b E8190000 		.4byte	0x19e8
 11375 343f 2E190000 		.4byte	.LLST117
 11376 3443 3F       		.uleb128 0x3f
 11377 3444 8F390000 		.4byte	0x398f
 11378 3448 24000000 		.4byte	.LBB105
 11379 344c 06000000 		.4byte	.LBE105-.LBB105
 11380 3450 01       		.byte	0x1
 11381 3451 7302     		.2byte	0x273
 11382 3453 61340000 		.4byte	0x3461
 11383 3457 40       		.uleb128 0x40
ARM GAS  C:\cygwin64\tmp\ccxdpAIh.s 			page 203


 11384 3458 9F390000 		.4byte	0x399f
 11385 345c 4C190000 		.4byte	.LLST118
 11386 3460 00       		.byte	0
 11387 3461 35       		.uleb128 0x35
 11388 3462 12000000 		.4byte	.LVL305
 11389 3466 281D0000 		.4byte	0x1d28
 11390 346a 75340000 		.4byte	0x3475
 11391 346e 36       		.uleb128 0x36
 11392 346f 01       		.uleb128 0x1
 11393 3470 50       		.byte	0x50
 11394 3471 02       		.uleb128 0x2
 11395 3472 78       		.byte	0x78
 11396 3473 00       		.sleb128 0
 11397 3474 00       		.byte	0
 11398 3475 35       		.uleb128 0x35
 11399 3476 30000000 		.4byte	.LVL310
 11400 347a 7B320000 		.4byte	0x327b
 11401 347e 89340000 		.4byte	0x3489
 11402 3482 36       		.uleb128 0x36
 11403 3483 01       		.uleb128 0x1
 11404 3484 50       		.byte	0x50
 11405 3485 02       		.uleb128 0x2
 11406 3486 78       		.byte	0x78
 11407 3487 00       		.sleb128 0
 11408 3488 00       		.byte	0
 11409 3489 3B       		.uleb128 0x3b
 11410 348a 4A000000 		.4byte	.LVL313
 11411 348e B33C0000 		.4byte	0x3cb3
 11412 3492 36       		.uleb128 0x36
 11413 3493 01       		.uleb128 0x1
 11414 3494 50       		.byte	0x50
 11415 3495 02       		.uleb128 0x2
 11416 3496 74       		.byte	0x74
 11417 3497 00       		.sleb128 0
 11418 3498 00       		.byte	0
 11419 3499 00       		.byte	0
 11420 349a 31       		.uleb128 0x31
 11421 349b 3C070000 		.4byte	.LASF499
 11422 349f 01       		.byte	0x1
 11423 34a0 4402     		.2byte	0x244
 11424 34a2 99000000 		.4byte	0x99
 11425 34a6 00000000 		.4byte	.LFB262
 11426 34aa 28000000 		.4byte	.LFE262-.LFB262
 11427 34ae 01       		.uleb128 0x1
 11428 34af 9C       		.byte	0x9c
 11429 34b0 1F350000 		.4byte	0x351f
 11430 34b4 32       		.uleb128 0x32
 11431 34b5 95070000 		.4byte	.LASF415
 11432 34b9 01       		.byte	0x1
 11433 34ba 4402     		.2byte	0x244
 11434 34bc E8190000 		.4byte	0x19e8
 11435 34c0 5F190000 		.4byte	.LLST105
 11436 34c4 34       		.uleb128 0x34
 11437 34c5 666E00   		.ascii	"fn\000"
 11438 34c8 01       		.byte	0x1
 11439 34c9 4802     		.2byte	0x248
 11440 34cb 25000000 		.4byte	0x25
ARM GAS  C:\cygwin64\tmp\ccxdpAIh.s 			page 204


 11441 34cf 80190000 		.4byte	.LLST106
 11442 34d3 34       		.uleb128 0x34
 11443 34d4 666800   		.ascii	"fh\000"
 11444 34d7 01       		.byte	0x1
 11445 34d8 4C02     		.2byte	0x24c
 11446 34da 0C1B0000 		.4byte	0x1b0c
 11447 34de 93190000 		.4byte	.LLST107
 11448 34e2 3F       		.uleb128 0x3f
 11449 34e3 8F390000 		.4byte	0x398f
 11450 34e7 0C000000 		.4byte	.LBB103
 11451 34eb 04000000 		.4byte	.LBE103-.LBB103
 11452 34ef 01       		.byte	0x1
 11453 34f0 4902     		.2byte	0x249
 11454 34f2 00350000 		.4byte	0x3500
 11455 34f6 40       		.uleb128 0x40
 11456 34f7 9F390000 		.4byte	0x399f
 11457 34fb B1190000 		.4byte	.LLST108
 11458 34ff 00       		.byte	0
 11459 3500 35       		.uleb128 0x35
 11460 3501 0C000000 		.4byte	.LVL295
 11461 3505 B4320000 		.4byte	0x32b4
 11462 3509 15350000 		.4byte	0x3515
 11463 350d 36       		.uleb128 0x36
 11464 350e 01       		.uleb128 0x1
 11465 350f 50       		.byte	0x50
 11466 3510 03       		.uleb128 0x3
 11467 3511 F3       		.byte	0xf3
 11468 3512 01       		.uleb128 0x1
 11469 3513 50       		.byte	0x50
 11470 3514 00       		.byte	0
 11471 3515 37       		.uleb128 0x37
 11472 3516 14000000 		.4byte	.LVL297
 11473 351a 281D0000 		.4byte	0x1d28
 11474 351e 00       		.byte	0
 11475 351f 31       		.uleb128 0x31
 11476 3520 400A0000 		.4byte	.LASF500
 11477 3524 01       		.byte	0x1
 11478 3525 3602     		.2byte	0x236
 11479 3527 25000000 		.4byte	0x25
 11480 352b 00000000 		.4byte	.LFB261
 11481 352f 08000000 		.4byte	.LFE261-.LFB261
 11482 3533 01       		.uleb128 0x1
 11483 3534 9C       		.byte	0x9c
 11484 3535 70350000 		.4byte	0x3570
 11485 3539 32       		.uleb128 0x32
 11486 353a 95070000 		.4byte	.LASF415
 11487 353e 01       		.byte	0x1
 11488 353f 3602     		.2byte	0x236
 11489 3541 E8190000 		.4byte	0x19e8
 11490 3545 C4190000 		.4byte	.LLST124
 11491 3549 38       		.uleb128 0x38
 11492 354a 706F7300 		.ascii	"pos\000"
 11493 354e 01       		.byte	0x1
 11494 354f 3602     		.2byte	0x236
 11495 3551 70350000 		.4byte	0x3570
 11496 3555 E5190000 		.4byte	.LLST125
 11497 3559 53       		.uleb128 0x53
ARM GAS  C:\cygwin64\tmp\ccxdpAIh.s 			page 205


 11498 355a 08000000 		.4byte	.LVL329
 11499 355e 76350000 		.4byte	0x3576
 11500 3562 36       		.uleb128 0x36
 11501 3563 01       		.uleb128 0x1
 11502 3564 50       		.byte	0x50
 11503 3565 03       		.uleb128 0x3
 11504 3566 F3       		.byte	0xf3
 11505 3567 01       		.uleb128 0x1
 11506 3568 50       		.byte	0x50
 11507 3569 36       		.uleb128 0x36
 11508 356a 01       		.uleb128 0x1
 11509 356b 52       		.byte	0x52
 11510 356c 01       		.uleb128 0x1
 11511 356d 30       		.byte	0x30
 11512 356e 00       		.byte	0
 11513 356f 00       		.byte	0
 11514 3570 06       		.uleb128 0x6
 11515 3571 04       		.byte	0x4
 11516 3572 2C000000 		.4byte	0x2c
 11517 3576 31       		.uleb128 0x31
 11518 3577 370C0000 		.4byte	.LASF501
 11519 357b 01       		.byte	0x1
 11520 357c 1C02     		.2byte	0x21c
 11521 357e 25000000 		.4byte	0x25
 11522 3582 00000000 		.4byte	.LFB260
 11523 3586 28000000 		.4byte	.LFE260-.LFB260
 11524 358a 01       		.uleb128 0x1
 11525 358b 9C       		.byte	0x9c
 11526 358c 0B360000 		.4byte	0x360b
 11527 3590 32       		.uleb128 0x32
 11528 3591 95070000 		.4byte	.LASF415
 11529 3595 01       		.byte	0x1
 11530 3596 1C02     		.2byte	0x21c
 11531 3598 E8190000 		.4byte	0x19e8
 11532 359c 061A0000 		.4byte	.LLST119
 11533 35a0 32       		.uleb128 0x32
 11534 35a1 E80C0000 		.4byte	.LASF213
 11535 35a5 01       		.byte	0x1
 11536 35a6 1C02     		.2byte	0x21c
 11537 35a8 99000000 		.4byte	0x99
 11538 35ac 271A0000 		.4byte	.LLST120
 11539 35b0 32       		.uleb128 0x32
 11540 35b1 9C050000 		.4byte	.LASF498
 11541 35b5 01       		.byte	0x1
 11542 35b6 1C02     		.2byte	0x21c
 11543 35b8 25000000 		.4byte	0x25
 11544 35bc 451A0000 		.4byte	.LLST121
 11545 35c0 34       		.uleb128 0x34
 11546 35c1 72657400 		.ascii	"ret\000"
 11547 35c5 01       		.byte	0x1
 11548 35c6 1E02     		.2byte	0x21e
 11549 35c8 99000000 		.4byte	0x99
 11550 35cc 631A0000 		.4byte	.LLST122
 11551 35d0 34       		.uleb128 0x34
 11552 35d1 666E00   		.ascii	"fn\000"
 11553 35d4 01       		.byte	0x1
 11554 35d5 2002     		.2byte	0x220
ARM GAS  C:\cygwin64\tmp\ccxdpAIh.s 			page 206


 11555 35d7 25000000 		.4byte	0x25
 11556 35db 831A0000 		.4byte	.LLST123
 11557 35df 35       		.uleb128 0x35
 11558 35e0 0A000000 		.4byte	.LVL321
 11559 35e4 B4320000 		.4byte	0x32b4
 11560 35e8 F4350000 		.4byte	0x35f4
 11561 35ec 36       		.uleb128 0x36
 11562 35ed 01       		.uleb128 0x1
 11563 35ee 50       		.byte	0x50
 11564 35ef 03       		.uleb128 0x3
 11565 35f0 F3       		.byte	0xf3
 11566 35f1 01       		.uleb128 0x1
 11567 35f2 50       		.byte	0x50
 11568 35f3 00       		.byte	0
 11569 35f4 3B       		.uleb128 0x3b
 11570 35f5 16000000 		.4byte	.LVL322
 11571 35f9 CA330000 		.4byte	0x33ca
 11572 35fd 36       		.uleb128 0x36
 11573 35fe 01       		.uleb128 0x1
 11574 35ff 51       		.byte	0x51
 11575 3600 02       		.uleb128 0x2
 11576 3601 74       		.byte	0x74
 11577 3602 00       		.sleb128 0
 11578 3603 36       		.uleb128 0x36
 11579 3604 01       		.uleb128 0x1
 11580 3605 52       		.byte	0x52
 11581 3606 02       		.uleb128 0x2
 11582 3607 75       		.byte	0x75
 11583 3608 00       		.sleb128 0
 11584 3609 00       		.byte	0
 11585 360a 00       		.byte	0
 11586 360b 31       		.uleb128 0x31
 11587 360c 19020000 		.4byte	.LASF502
 11588 3610 01       		.byte	0x1
 11589 3611 0502     		.2byte	0x205
 11590 3613 25000000 		.4byte	0x25
 11591 3617 00000000 		.4byte	.LFB259
 11592 361b 16000000 		.4byte	.LFE259-.LFB259
 11593 361f 01       		.uleb128 0x1
 11594 3620 9C       		.byte	0x9c
 11595 3621 67360000 		.4byte	0x3667
 11596 3625 32       		.uleb128 0x32
 11597 3626 95070000 		.4byte	.LASF415
 11598 362a 01       		.byte	0x1
 11599 362b 0502     		.2byte	0x205
 11600 362d E8190000 		.4byte	0x19e8
 11601 3631 A11A0000 		.4byte	.LLST109
 11602 3635 38       		.uleb128 0x38
 11603 3636 706F7300 		.ascii	"pos\000"
 11604 363a 01       		.byte	0x1
 11605 363b 0502     		.2byte	0x205
 11606 363d 70350000 		.4byte	0x3570
 11607 3641 C21A0000 		.4byte	.LLST110
 11608 3645 33       		.uleb128 0x33
 11609 3646 E80C0000 		.4byte	.LASF213
 11610 364a 01       		.byte	0x1
 11611 364b 0702     		.2byte	0x207
ARM GAS  C:\cygwin64\tmp\ccxdpAIh.s 			page 207


 11612 364d 99000000 		.4byte	0x99
 11613 3651 E01A0000 		.4byte	.LLST111
 11614 3655 3B       		.uleb128 0x3b
 11615 3656 08000000 		.4byte	.LVL302
 11616 365a 9A340000 		.4byte	0x349a
 11617 365e 36       		.uleb128 0x36
 11618 365f 01       		.uleb128 0x1
 11619 3660 50       		.byte	0x50
 11620 3661 03       		.uleb128 0x3
 11621 3662 F3       		.byte	0xf3
 11622 3663 01       		.uleb128 0x1
 11623 3664 50       		.byte	0x50
 11624 3665 00       		.byte	0
 11625 3666 00       		.byte	0
 11626 3667 31       		.uleb128 0x31
 11627 3668 7E0D0000 		.4byte	.LASF503
 11628 366c 01       		.byte	0x1
 11629 366d F401     		.2byte	0x1f4
 11630 366f 25000000 		.4byte	0x25
 11631 3673 00000000 		.4byte	.LFB258
 11632 3677 08000000 		.4byte	.LFE258-.LFB258
 11633 367b 01       		.uleb128 0x1
 11634 367c 9C       		.byte	0x9c
 11635 367d 92360000 		.4byte	0x3692
 11636 3681 32       		.uleb128 0x32
 11637 3682 95070000 		.4byte	.LASF415
 11638 3686 01       		.byte	0x1
 11639 3687 F401     		.2byte	0x1f4
 11640 3689 E8190000 		.4byte	0x19e8
 11641 368d FF1A0000 		.4byte	.LLST30
 11642 3691 00       		.byte	0
 11643 3692 31       		.uleb128 0x31
 11644 3693 3F050000 		.4byte	.LASF504
 11645 3697 01       		.byte	0x1
 11646 3698 DB01     		.2byte	0x1db
 11647 369a 25000000 		.4byte	0x25
 11648 369e 00000000 		.4byte	.LFB257
 11649 36a2 28000000 		.4byte	.LFE257-.LFB257
 11650 36a6 01       		.uleb128 0x1
 11651 36a7 9C       		.byte	0x9c
 11652 36a8 D9360000 		.4byte	0x36d9
 11653 36ac 38       		.uleb128 0x38
 11654 36ad 73747200 		.ascii	"str\000"
 11655 36b1 01       		.byte	0x1
 11656 36b2 DB01     		.2byte	0x1db
 11657 36b4 4C060000 		.4byte	0x64c
 11658 36b8 201B0000 		.4byte	.LLST29
 11659 36bc 4F       		.uleb128 0x4f
 11660 36bd 18000000 		.4byte	.LVL86
 11661 36c1 E0380000 		.4byte	0x38e0
 11662 36c5 CF360000 		.4byte	0x36cf
 11663 36c9 36       		.uleb128 0x36
 11664 36ca 01       		.uleb128 0x1
 11665 36cb 50       		.byte	0x50
 11666 36cc 01       		.uleb128 0x1
 11667 36cd 3A       		.byte	0x3a
 11668 36ce 00       		.byte	0
ARM GAS  C:\cygwin64\tmp\ccxdpAIh.s 			page 208


 11669 36cf 37       		.uleb128 0x37
 11670 36d0 1C000000 		.4byte	.LVL87
 11671 36d4 E0380000 		.4byte	0x38e0
 11672 36d8 00       		.byte	0
 11673 36d9 31       		.uleb128 0x31
 11674 36da AF100000 		.4byte	.LASF505
 11675 36de 01       		.byte	0x1
 11676 36df C401     		.2byte	0x1c4
 11677 36e1 25000000 		.4byte	0x25
 11678 36e5 00000000 		.4byte	.LFB256
 11679 36e9 18000000 		.4byte	.LFE256-.LFB256
 11680 36ed 01       		.uleb128 0x1
 11681 36ee 9C       		.byte	0x9c
 11682 36ef 24370000 		.4byte	0x3724
 11683 36f3 38       		.uleb128 0x38
 11684 36f4 73747200 		.ascii	"str\000"
 11685 36f8 01       		.byte	0x1
 11686 36f9 C401     		.2byte	0x1c4
 11687 36fb 4C060000 		.4byte	0x64c
 11688 36ff 561B0000 		.4byte	.LLST27
 11689 3703 32       		.uleb128 0x32
 11690 3704 95070000 		.4byte	.LASF415
 11691 3708 01       		.byte	0x1
 11692 3709 C401     		.2byte	0x1c4
 11693 370b E8190000 		.4byte	0x19e8
 11694 370f 811B0000 		.4byte	.LLST28
 11695 3713 3B       		.uleb128 0x3b
 11696 3714 12000000 		.4byte	.LVL81
 11697 3718 E0380000 		.4byte	0x38e0
 11698 371c 36       		.uleb128 0x36
 11699 371d 01       		.uleb128 0x1
 11700 371e 51       		.byte	0x51
 11701 371f 02       		.uleb128 0x2
 11702 3720 75       		.byte	0x75
 11703 3721 00       		.sleb128 0
 11704 3722 00       		.byte	0
 11705 3723 00       		.byte	0
 11706 3724 31       		.uleb128 0x31
 11707 3725 2C070000 		.4byte	.LASF506
 11708 3729 01       		.byte	0x1
 11709 372a AD01     		.2byte	0x1ad
 11710 372c CE010000 		.4byte	0x1ce
 11711 3730 00000000 		.4byte	.LFB255
 11712 3734 30000000 		.4byte	.LFE255-.LFB255
 11713 3738 01       		.uleb128 0x1
 11714 3739 9C       		.byte	0x9c
 11715 373a 93370000 		.4byte	0x3793
 11716 373e 38       		.uleb128 0x38
 11717 373f 7000     		.ascii	"p\000"
 11718 3741 01       		.byte	0x1
 11719 3742 AD01     		.2byte	0x1ad
 11720 3744 CE010000 		.4byte	0x1ce
 11721 3748 9F1B0000 		.4byte	.LLST24
 11722 374c 34       		.uleb128 0x34
 11723 374d 7300     		.ascii	"s\000"
 11724 374f 01       		.byte	0x1
 11725 3750 AF01     		.2byte	0x1af
ARM GAS  C:\cygwin64\tmp\ccxdpAIh.s 			page 209


 11726 3752 CE010000 		.4byte	0x1ce
 11727 3756 CB1B0000 		.4byte	.LLST25
 11728 375a 34       		.uleb128 0x34
 11729 375b 6E00     		.ascii	"n\000"
 11730 375d 01       		.byte	0x1
 11731 375e B001     		.2byte	0x1b0
 11732 3760 25000000 		.4byte	0x25
 11733 3764 F41B0000 		.4byte	.LLST26
 11734 3768 35       		.uleb128 0x35
 11735 3769 0E000000 		.4byte	.LVL72
 11736 376d 93370000 		.4byte	0x3793
 11737 3771 82370000 		.4byte	0x3782
 11738 3775 36       		.uleb128 0x36
 11739 3776 01       		.uleb128 0x1
 11740 3777 50       		.byte	0x50
 11741 3778 02       		.uleb128 0x2
 11742 3779 74       		.byte	0x74
 11743 377a 00       		.sleb128 0
 11744 377b 36       		.uleb128 0x36
 11745 377c 01       		.uleb128 0x1
 11746 377d 51       		.byte	0x51
 11747 377e 02       		.uleb128 0x2
 11748 377f 08       		.byte	0x8
 11749 3780 80       		.byte	0x80
 11750 3781 00       		.byte	0
 11751 3782 3B       		.uleb128 0x3b
 11752 3783 18000000 		.4byte	.LVL74
 11753 3787 EF3C0000 		.4byte	0x3cef
 11754 378b 36       		.uleb128 0x36
 11755 378c 01       		.uleb128 0x1
 11756 378d 50       		.byte	0x50
 11757 378e 02       		.uleb128 0x2
 11758 378f 74       		.byte	0x74
 11759 3790 00       		.sleb128 0
 11760 3791 00       		.byte	0
 11761 3792 00       		.byte	0
 11762 3793 31       		.uleb128 0x31
 11763 3794 B5130000 		.4byte	.LASF507
 11764 3798 01       		.byte	0x1
 11765 3799 8E01     		.2byte	0x18e
 11766 379b CE010000 		.4byte	0x1ce
 11767 379f 00000000 		.4byte	.LFB254
 11768 37a3 3A000000 		.4byte	.LFE254-.LFB254
 11769 37a7 01       		.uleb128 0x1
 11770 37a8 9C       		.byte	0x9c
 11771 37a9 0C380000 		.4byte	0x380c
 11772 37ad 38       		.uleb128 0x38
 11773 37ae 73747200 		.ascii	"str\000"
 11774 37b2 01       		.byte	0x1
 11775 37b3 8E01     		.2byte	0x18e
 11776 37b5 CE010000 		.4byte	0x1ce
 11777 37b9 141C0000 		.4byte	.LLST19
 11778 37bd 32       		.uleb128 0x32
 11779 37be BD0E0000 		.4byte	.LASF239
 11780 37c2 01       		.byte	0x1
 11781 37c3 8E01     		.2byte	0x18e
 11782 37c5 25000000 		.4byte	0x25
ARM GAS  C:\cygwin64\tmp\ccxdpAIh.s 			page 210


 11783 37c9 591C0000 		.4byte	.LLST20
 11784 37cd 32       		.uleb128 0x32
 11785 37ce 95070000 		.4byte	.LASF415
 11786 37d2 01       		.byte	0x1
 11787 37d3 8E01     		.2byte	0x18e
 11788 37d5 E8190000 		.4byte	0x19e8
 11789 37d9 911C0000 		.4byte	.LLST21
 11790 37dd 34       		.uleb128 0x34
 11791 37de 6300     		.ascii	"c\000"
 11792 37e0 01       		.byte	0x1
 11793 37e1 9001     		.2byte	0x190
 11794 37e3 25000000 		.4byte	0x25
 11795 37e7 AF1C0000 		.4byte	.LLST22
 11796 37eb 34       		.uleb128 0x34
 11797 37ec 696E6400 		.ascii	"ind\000"
 11798 37f0 01       		.byte	0x1
 11799 37f1 9101     		.2byte	0x191
 11800 37f3 25000000 		.4byte	0x25
 11801 37f7 CD1C0000 		.4byte	.LLST23
 11802 37fb 3B       		.uleb128 0x3b
 11803 37fc 12000000 		.4byte	.LVL62
 11804 3800 4D390000 		.4byte	0x394d
 11805 3804 36       		.uleb128 0x36
 11806 3805 01       		.uleb128 0x1
 11807 3806 50       		.byte	0x50
 11808 3807 02       		.uleb128 0x2
 11809 3808 77       		.byte	0x77
 11810 3809 00       		.sleb128 0
 11811 380a 00       		.byte	0
 11812 380b 00       		.byte	0
 11813 380c 31       		.uleb128 0x31
 11814 380d 8C010000 		.4byte	.LASF508
 11815 3811 01       		.byte	0x1
 11816 3812 7B01     		.2byte	0x17b
 11817 3814 25000000 		.4byte	0x25
 11818 3818 00000000 		.4byte	.LFB253
 11819 381c 04000000 		.4byte	.LFE253-.LFB253
 11820 3820 01       		.uleb128 0x1
 11821 3821 9C       		.byte	0x9c
 11822 3822 5D380000 		.4byte	0x385d
 11823 3826 38       		.uleb128 0x38
 11824 3827 6300     		.ascii	"c\000"
 11825 3829 01       		.byte	0x1
 11826 382a 7B01     		.2byte	0x17b
 11827 382c 25000000 		.4byte	0x25
 11828 3830 041D0000 		.4byte	.LLST17
 11829 3834 32       		.uleb128 0x32
 11830 3835 95070000 		.4byte	.LASF415
 11831 3839 01       		.byte	0x1
 11832 383a 7B01     		.2byte	0x17b
 11833 383c E8190000 		.4byte	0x19e8
 11834 3840 251D0000 		.4byte	.LLST18
 11835 3844 53       		.uleb128 0x53
 11836 3845 04000000 		.4byte	.LVL59
 11837 3849 E0380000 		.4byte	0x38e0
 11838 384d 36       		.uleb128 0x36
 11839 384e 01       		.uleb128 0x1
ARM GAS  C:\cygwin64\tmp\ccxdpAIh.s 			page 211


 11840 384f 50       		.byte	0x50
 11841 3850 03       		.uleb128 0x3
 11842 3851 F3       		.byte	0xf3
 11843 3852 01       		.uleb128 0x1
 11844 3853 50       		.byte	0x50
 11845 3854 36       		.uleb128 0x36
 11846 3855 01       		.uleb128 0x1
 11847 3856 51       		.byte	0x51
 11848 3857 03       		.uleb128 0x3
 11849 3858 F3       		.byte	0xf3
 11850 3859 01       		.uleb128 0x1
 11851 385a 51       		.byte	0x51
 11852 385b 00       		.byte	0
 11853 385c 00       		.byte	0
 11854 385d 31       		.uleb128 0x31
 11855 385e A8110000 		.4byte	.LASF509
 11856 3862 01       		.byte	0x1
 11857 3863 4901     		.2byte	0x149
 11858 3865 25000000 		.4byte	0x25
 11859 3869 00000000 		.4byte	.LFB252
 11860 386d 0C000000 		.4byte	.LFE252-.LFB252
 11861 3871 01       		.uleb128 0x1
 11862 3872 9C       		.byte	0x9c
 11863 3873 97380000 		.4byte	0x3897
 11864 3877 38       		.uleb128 0x38
 11865 3878 6300     		.ascii	"c\000"
 11866 387a 01       		.byte	0x1
 11867 387b 4901     		.2byte	0x149
 11868 387d 25000000 		.4byte	0x25
 11869 3881 461D0000 		.4byte	.LLST16
 11870 3885 53       		.uleb128 0x53
 11871 3886 08000000 		.4byte	.LVL57
 11872 388a E0380000 		.4byte	0x38e0
 11873 388e 36       		.uleb128 0x36
 11874 388f 01       		.uleb128 0x1
 11875 3890 50       		.byte	0x50
 11876 3891 03       		.uleb128 0x3
 11877 3892 F3       		.byte	0xf3
 11878 3893 01       		.uleb128 0x1
 11879 3894 50       		.byte	0x50
 11880 3895 00       		.byte	0
 11881 3896 00       		.byte	0
 11882 3897 31       		.uleb128 0x31
 11883 3898 2E0D0000 		.4byte	.LASF510
 11884 389c 01       		.byte	0x1
 11885 389d 3A01     		.2byte	0x13a
 11886 389f 25000000 		.4byte	0x25
 11887 38a3 00000000 		.4byte	.LFB251
 11888 38a7 0C000000 		.4byte	.LFE251-.LFB251
 11889 38ab 01       		.uleb128 0x1
 11890 38ac 9C       		.byte	0x9c
 11891 38ad BB380000 		.4byte	0x38bb
 11892 38b1 50       		.uleb128 0x50
 11893 38b2 08000000 		.4byte	.LVL55
 11894 38b6 4D390000 		.4byte	0x394d
 11895 38ba 00       		.byte	0
 11896 38bb 42       		.uleb128 0x42
ARM GAS  C:\cygwin64\tmp\ccxdpAIh.s 			page 212


 11897 38bc 33020000 		.4byte	.LASF511
 11898 38c0 01       		.byte	0x1
 11899 38c1 2801     		.2byte	0x128
 11900 38c3 00000000 		.4byte	.LFB250
 11901 38c7 06000000 		.4byte	.LFE250-.LFB250
 11902 38cb 01       		.uleb128 0x1
 11903 38cc 9C       		.byte	0x9c
 11904 38cd E0380000 		.4byte	0x38e0
 11905 38d1 51       		.uleb128 0x51
 11906 38d2 95070000 		.4byte	.LASF415
 11907 38d6 01       		.byte	0x1
 11908 38d7 2801     		.2byte	0x128
 11909 38d9 E8190000 		.4byte	0x19e8
 11910 38dd 01       		.uleb128 0x1
 11911 38de 50       		.byte	0x50
 11912 38df 00       		.byte	0
 11913 38e0 3C       		.uleb128 0x3c
 11914 38e1 9A100000 		.4byte	.LASF512
 11915 38e5 01       		.byte	0x1
 11916 38e6 0801     		.2byte	0x108
 11917 38e8 25000000 		.4byte	0x25
 11918 38ec 01       		.byte	0x1
 11919 38ed 14390000 		.4byte	0x3914
 11920 38f1 4C       		.uleb128 0x4c
 11921 38f2 6300     		.ascii	"c\000"
 11922 38f4 01       		.byte	0x1
 11923 38f5 0801     		.2byte	0x108
 11924 38f7 25000000 		.4byte	0x25
 11925 38fb 3D       		.uleb128 0x3d
 11926 38fc 95070000 		.4byte	.LASF415
 11927 3900 01       		.byte	0x1
 11928 3901 0801     		.2byte	0x108
 11929 3903 E8190000 		.4byte	0x19e8
 11930 3907 43       		.uleb128 0x43
 11931 3908 72657400 		.ascii	"ret\000"
 11932 390c 01       		.byte	0x1
 11933 390d 0B01     		.2byte	0x10b
 11934 390f 25000000 		.4byte	0x25
 11935 3913 00       		.byte	0
 11936 3914 4E       		.uleb128 0x4e
 11937 3915 6B050000 		.4byte	.LASF513
 11938 3919 01       		.byte	0x1
 11939 391a FA       		.byte	0xfa
 11940 391b 25000000 		.4byte	0x25
 11941 391f 00000000 		.4byte	.LFB248
 11942 3923 04000000 		.4byte	.LFE248-.LFB248
 11943 3927 01       		.uleb128 0x1
 11944 3928 9C       		.byte	0x9c
 11945 3929 4D390000 		.4byte	0x394d
 11946 392d 56       		.uleb128 0x56
 11947 392e 667000   		.ascii	"fp\000"
 11948 3931 01       		.byte	0x1
 11949 3932 FA       		.byte	0xfa
 11950 3933 E8190000 		.4byte	0x19e8
 11951 3937 671D0000 		.4byte	.LLST10
 11952 393b 53       		.uleb128 0x53
 11953 393c 04000000 		.4byte	.LVL42
ARM GAS  C:\cygwin64\tmp\ccxdpAIh.s 			page 213


 11954 3940 4D390000 		.4byte	0x394d
 11955 3944 36       		.uleb128 0x36
 11956 3945 01       		.uleb128 0x1
 11957 3946 50       		.byte	0x50
 11958 3947 03       		.uleb128 0x3
 11959 3948 F3       		.byte	0xf3
 11960 3949 01       		.uleb128 0x1
 11961 394a 50       		.byte	0x50
 11962 394b 00       		.byte	0
 11963 394c 00       		.byte	0
 11964 394d 4E       		.uleb128 0x4e
 11965 394e 51110000 		.4byte	.LASF514
 11966 3952 01       		.byte	0x1
 11967 3953 CD       		.byte	0xcd
 11968 3954 25000000 		.4byte	0x25
 11969 3958 00000000 		.4byte	.LFB247
 11970 395c 6C000000 		.4byte	.LFE247-.LFB247
 11971 3960 01       		.uleb128 0x1
 11972 3961 9C       		.byte	0x9c
 11973 3962 8F390000 		.4byte	0x398f
 11974 3966 57       		.uleb128 0x57
 11975 3967 95070000 		.4byte	.LASF415
 11976 396b 01       		.byte	0x1
 11977 396c CD       		.byte	0xcd
 11978 396d E8190000 		.4byte	0x19e8
 11979 3971 881D0000 		.4byte	.LLST8
 11980 3975 58       		.uleb128 0x58
 11981 3976 6300     		.ascii	"c\000"
 11982 3978 01       		.byte	0x1
 11983 3979 CF       		.byte	0xcf
 11984 397a 25000000 		.4byte	0x25
 11985 397e E81D0000 		.4byte	.LLST9
 11986 3982 59       		.uleb128 0x59
 11987 3983 52000000 		.4byte	.LVL39
 11988 3987 36       		.uleb128 0x36
 11989 3988 01       		.uleb128 0x1
 11990 3989 50       		.byte	0x50
 11991 398a 02       		.uleb128 0x2
 11992 398b 74       		.byte	0x74
 11993 398c 00       		.sleb128 0
 11994 398d 00       		.byte	0
 11995 398e 00       		.byte	0
 11996 398f 5A       		.uleb128 0x5a
 11997 3990 9F080000 		.4byte	.LASF515
 11998 3994 01       		.byte	0x1
 11999 3995 B9       		.byte	0xb9
 12000 3996 25000000 		.4byte	0x25
 12001 399a 01       		.byte	0x1
 12002 399b AB390000 		.4byte	0x39ab
 12003 399f 5B       		.uleb128 0x5b
 12004 39a0 AE020000 		.4byte	.LASF418
 12005 39a4 01       		.byte	0x1
 12006 39a5 B9       		.byte	0xb9
 12007 39a6 25000000 		.4byte	0x25
 12008 39aa 00       		.byte	0
 12009 39ab 5C       		.uleb128 0x5c
 12010 39ac 8F390000 		.4byte	0x398f
ARM GAS  C:\cygwin64\tmp\ccxdpAIh.s 			page 214


 12011 39b0 00000000 		.4byte	.LFB246
 12012 39b4 0A000000 		.4byte	.LFE246-.LFB246
 12013 39b8 01       		.uleb128 0x1
 12014 39b9 9C       		.byte	0x9c
 12015 39ba C8390000 		.4byte	0x39c8
 12016 39be 40       		.uleb128 0x40
 12017 39bf 9F390000 		.4byte	0x399f
 12018 39c3 1E1E0000 		.4byte	.LLST7
 12019 39c7 00       		.byte	0
 12020 39c8 5C       		.uleb128 0x5c
 12021 39c9 E0380000 		.4byte	0x38e0
 12022 39cd 00000000 		.4byte	.LFB249
 12023 39d1 64000000 		.4byte	.LFE249-.LFB249
 12024 39d5 01       		.uleb128 0x1
 12025 39d6 9C       		.byte	0x9c
 12026 39d7 4A3A0000 		.4byte	0x3a4a
 12027 39db 40       		.uleb128 0x40
 12028 39dc F1380000 		.4byte	0x38f1
 12029 39e0 3F1E0000 		.4byte	.LLST11
 12030 39e4 40       		.uleb128 0x40
 12031 39e5 FB380000 		.4byte	0x38fb
 12032 39e9 AB1E0000 		.4byte	.LLST12
 12033 39ed 5D       		.uleb128 0x5d
 12034 39ee 07390000 		.4byte	0x3907
 12035 39f2 5E       		.uleb128 0x5e
 12036 39f3 3C000000 		.4byte	.LBB80
 12037 39f7 16000000 		.4byte	.LBE80-.LBB80
 12038 39fb 313A0000 		.4byte	0x3a31
 12039 39ff 40       		.uleb128 0x40
 12040 3a00 FB380000 		.4byte	0x38fb
 12041 3a04 E21E0000 		.4byte	.LLST13
 12042 3a08 40       		.uleb128 0x40
 12043 3a09 F1380000 		.4byte	0x38f1
 12044 3a0d F51E0000 		.4byte	.LLST14
 12045 3a11 5F       		.uleb128 0x5f
 12046 3a12 3C000000 		.4byte	.LBB81
 12047 3a16 16000000 		.4byte	.LBE81-.LBB81
 12048 3a1a 46       		.uleb128 0x46
 12049 3a1b ED390000 		.4byte	0x39ed
 12050 3a1f 161F0000 		.4byte	.LLST15
 12051 3a23 59       		.uleb128 0x59
 12052 3a24 4E000000 		.4byte	.LVL50
 12053 3a28 36       		.uleb128 0x36
 12054 3a29 01       		.uleb128 0x1
 12055 3a2a 51       		.byte	0x51
 12056 3a2b 02       		.uleb128 0x2
 12057 3a2c 74       		.byte	0x74
 12058 3a2d 00       		.sleb128 0
 12059 3a2e 00       		.byte	0
 12060 3a2f 00       		.byte	0
 12061 3a30 00       		.byte	0
 12062 3a31 53       		.uleb128 0x53
 12063 3a32 22000000 		.4byte	.LVL45
 12064 3a36 DD1F0000 		.4byte	0x1fdd
 12065 3a3a 36       		.uleb128 0x36
 12066 3a3b 01       		.uleb128 0x1
 12067 3a3c 50       		.byte	0x50
ARM GAS  C:\cygwin64\tmp\ccxdpAIh.s 			page 215


 12068 3a3d 03       		.uleb128 0x3
 12069 3a3e F3       		.byte	0xf3
 12070 3a3f 01       		.uleb128 0x1
 12071 3a40 50       		.byte	0x50
 12072 3a41 36       		.uleb128 0x36
 12073 3a42 01       		.uleb128 0x1
 12074 3a43 51       		.byte	0x51
 12075 3a44 03       		.uleb128 0x3
 12076 3a45 F3       		.byte	0xf3
 12077 3a46 01       		.uleb128 0x1
 12078 3a47 51       		.byte	0x51
 12079 3a48 00       		.byte	0
 12080 3a49 00       		.byte	0
 12081 3a4a 5C       		.uleb128 0x5c
 12082 3a4b 61260000 		.4byte	0x2661
 12083 3a4f 00000000 		.4byte	.LFB287
 12084 3a53 38000000 		.4byte	.LFE287-.LFB287
 12085 3a57 01       		.uleb128 0x1
 12086 3a58 9C       		.byte	0x9c
 12087 3a59 B43A0000 		.4byte	0x3ab4
 12088 3a5d 40       		.uleb128 0x40
 12089 3a5e 72260000 		.4byte	0x2672
 12090 3a62 291F0000 		.4byte	.LLST45
 12091 3a66 40       		.uleb128 0x40
 12092 3a67 7E260000 		.4byte	0x267e
 12093 3a6b 631F0000 		.4byte	.LLST46
 12094 3a6f 5D       		.uleb128 0x5d
 12095 3a70 8A260000 		.4byte	0x268a
 12096 3a74 5F       		.uleb128 0x5f
 12097 3a75 12000000 		.4byte	.LBB85
 12098 3a79 1C000000 		.4byte	.LBE85-.LBB85
 12099 3a7d 40       		.uleb128 0x40
 12100 3a7e 7E260000 		.4byte	0x267e
 12101 3a82 9D1F0000 		.4byte	.LLST47
 12102 3a86 60       		.uleb128 0x60
 12103 3a87 72260000 		.4byte	0x2672
 12104 3a8b 5F       		.uleb128 0x5f
 12105 3a8c 12000000 		.4byte	.LBB86
 12106 3a90 1C000000 		.4byte	.LBE86-.LBB86
 12107 3a94 46       		.uleb128 0x46
 12108 3a95 6F3A0000 		.4byte	0x3a6f
 12109 3a99 BE1F0000 		.4byte	.LLST48
 12110 3a9d 3B       		.uleb128 0x3b
 12111 3a9e 1A000000 		.4byte	.LVL144
 12112 3aa2 9D3D0000 		.4byte	0x3d9d
 12113 3aa6 36       		.uleb128 0x36
 12114 3aa7 01       		.uleb128 0x1
 12115 3aa8 51       		.byte	0x51
 12116 3aa9 01       		.uleb128 0x1
 12117 3aaa 31       		.byte	0x31
 12118 3aab 36       		.uleb128 0x36
 12119 3aac 01       		.uleb128 0x1
 12120 3aad 52       		.byte	0x52
 12121 3aae 01       		.uleb128 0x1
 12122 3aaf 31       		.byte	0x31
 12123 3ab0 00       		.byte	0
 12124 3ab1 00       		.byte	0
ARM GAS  C:\cygwin64\tmp\ccxdpAIh.s 			page 216


 12125 3ab2 00       		.byte	0
 12126 3ab3 00       		.byte	0
 12127 3ab4 5C       		.uleb128 0x5c
 12128 3ab5 BF1F0000 		.4byte	0x1fbf
 12129 3ab9 00000000 		.4byte	.LFB306
 12130 3abd 10000000 		.4byte	.LFE306-.LFB306
 12131 3ac1 01       		.uleb128 0x1
 12132 3ac2 9C       		.byte	0x9c
 12133 3ac3 D13A0000 		.4byte	0x3ad1
 12134 3ac7 40       		.uleb128 0x40
 12135 3ac8 D01F0000 		.4byte	0x1fd0
 12136 3acc D61F0000 		.4byte	.LLST79
 12137 3ad0 00       		.byte	0
 12138 3ad1 5C       		.uleb128 0x5c
 12139 3ad2 B81B0000 		.4byte	0x1bb8
 12140 3ad6 00000000 		.4byte	.LFB314
 12141 3ada D4000000 		.4byte	.LFE314-.LFB314
 12142 3ade 01       		.uleb128 0x1
 12143 3adf 9C       		.byte	0x9c
 12144 3ae0 663C0000 		.4byte	0x3c66
 12145 3ae4 40       		.uleb128 0x40
 12146 3ae5 C91B0000 		.4byte	0x1bc9
 12147 3ae9 F71F0000 		.4byte	.LLST189
 12148 3aed 48       		.uleb128 0x48
 12149 3aee D51B0000 		.4byte	0x1bd5
 12150 3af2 00       		.byte	0
 12151 3af3 54       		.uleb128 0x54
 12152 3af4 D8000000 		.4byte	.Ldebug_ranges0+0xd8
 12153 3af8 D83B0000 		.4byte	0x3bd8
 12154 3afc 40       		.uleb128 0x40
 12155 3afd C91B0000 		.4byte	0x1bc9
 12156 3b01 23200000 		.4byte	.LLST190
 12157 3b05 45       		.uleb128 0x45
 12158 3b06 D8000000 		.4byte	.Ldebug_ranges0+0xd8
 12159 3b0a 5D       		.uleb128 0x5d
 12160 3b0b ED3A0000 		.4byte	0x3aed
 12161 3b0f 35       		.uleb128 0x35
 12162 3b10 40000000 		.4byte	.LVL489
 12163 3b14 653D0000 		.4byte	0x3d65
 12164 3b18 2C3B0000 		.4byte	0x3b2c
 12165 3b1c 36       		.uleb128 0x36
 12166 3b1d 01       		.uleb128 0x1
 12167 3b1e 50       		.byte	0x50
 12168 3b1f 02       		.uleb128 0x2
 12169 3b20 74       		.byte	0x74
 12170 3b21 00       		.sleb128 0
 12171 3b22 36       		.uleb128 0x36
 12172 3b23 01       		.uleb128 0x1
 12173 3b24 51       		.byte	0x51
 12174 3b25 05       		.uleb128 0x5
 12175 3b26 03       		.byte	0x3
 12176 3b27 10000000 		.4byte	.LC10
 12177 3b2b 00       		.byte	0
 12178 3b2c 35       		.uleb128 0x35
 12179 3b2d 4A000000 		.4byte	.LVL490
 12180 3b31 653D0000 		.4byte	0x3d65
 12181 3b35 493B0000 		.4byte	0x3b49
ARM GAS  C:\cygwin64\tmp\ccxdpAIh.s 			page 217


 12182 3b39 36       		.uleb128 0x36
 12183 3b3a 01       		.uleb128 0x1
 12184 3b3b 50       		.byte	0x50
 12185 3b3c 02       		.uleb128 0x2
 12186 3b3d 74       		.byte	0x74
 12187 3b3e 00       		.sleb128 0
 12188 3b3f 36       		.uleb128 0x36
 12189 3b40 01       		.uleb128 0x1
 12190 3b41 51       		.byte	0x51
 12191 3b42 05       		.uleb128 0x5
 12192 3b43 03       		.byte	0x3
 12193 3b44 12000000 		.4byte	.LC11
 12194 3b48 00       		.byte	0
 12195 3b49 35       		.uleb128 0x35
 12196 3b4a 54000000 		.4byte	.LVL491
 12197 3b4e 653D0000 		.4byte	0x3d65
 12198 3b52 663B0000 		.4byte	0x3b66
 12199 3b56 36       		.uleb128 0x36
 12200 3b57 01       		.uleb128 0x1
 12201 3b58 50       		.byte	0x50
 12202 3b59 02       		.uleb128 0x2
 12203 3b5a 74       		.byte	0x74
 12204 3b5b 00       		.sleb128 0
 12205 3b5c 36       		.uleb128 0x36
 12206 3b5d 01       		.uleb128 0x1
 12207 3b5e 51       		.byte	0x51
 12208 3b5f 05       		.uleb128 0x5
 12209 3b60 03       		.byte	0x3
 12210 3b61 15000000 		.4byte	.LC12
 12211 3b65 00       		.byte	0
 12212 3b66 35       		.uleb128 0x35
 12213 3b67 5E000000 		.4byte	.LVL492
 12214 3b6b 653D0000 		.4byte	0x3d65
 12215 3b6f 833B0000 		.4byte	0x3b83
 12216 3b73 36       		.uleb128 0x36
 12217 3b74 01       		.uleb128 0x1
 12218 3b75 50       		.byte	0x50
 12219 3b76 02       		.uleb128 0x2
 12220 3b77 74       		.byte	0x74
 12221 3b78 00       		.sleb128 0
 12222 3b79 36       		.uleb128 0x36
 12223 3b7a 01       		.uleb128 0x1
 12224 3b7b 51       		.byte	0x51
 12225 3b7c 05       		.uleb128 0x5
 12226 3b7d 03       		.byte	0x3
 12227 3b7e 18000000 		.4byte	.LC13
 12228 3b82 00       		.byte	0
 12229 3b83 35       		.uleb128 0x35
 12230 3b84 68000000 		.4byte	.LVL493
 12231 3b88 653D0000 		.4byte	0x3d65
 12232 3b8c A03B0000 		.4byte	0x3ba0
 12233 3b90 36       		.uleb128 0x36
 12234 3b91 01       		.uleb128 0x1
 12235 3b92 50       		.byte	0x50
 12236 3b93 02       		.uleb128 0x2
 12237 3b94 74       		.byte	0x74
 12238 3b95 00       		.sleb128 0
ARM GAS  C:\cygwin64\tmp\ccxdpAIh.s 			page 218


 12239 3b96 36       		.uleb128 0x36
 12240 3b97 01       		.uleb128 0x1
 12241 3b98 51       		.byte	0x51
 12242 3b99 05       		.uleb128 0x5
 12243 3b9a 03       		.byte	0x3
 12244 3b9b 1C000000 		.4byte	.LC14
 12245 3b9f 00       		.byte	0
 12246 3ba0 35       		.uleb128 0x35
 12247 3ba1 72000000 		.4byte	.LVL494
 12248 3ba5 653D0000 		.4byte	0x3d65
 12249 3ba9 BD3B0000 		.4byte	0x3bbd
 12250 3bad 36       		.uleb128 0x36
 12251 3bae 01       		.uleb128 0x1
 12252 3baf 50       		.byte	0x50
 12253 3bb0 02       		.uleb128 0x2
 12254 3bb1 74       		.byte	0x74
 12255 3bb2 00       		.sleb128 0
 12256 3bb3 36       		.uleb128 0x36
 12257 3bb4 01       		.uleb128 0x1
 12258 3bb5 51       		.byte	0x51
 12259 3bb6 05       		.uleb128 0x5
 12260 3bb7 03       		.byte	0x3
 12261 3bb8 20000000 		.4byte	.LC15
 12262 3bbc 00       		.byte	0
 12263 3bbd 3B       		.uleb128 0x3b
 12264 3bbe 7C000000 		.4byte	.LVL495
 12265 3bc2 653D0000 		.4byte	0x3d65
 12266 3bc6 36       		.uleb128 0x36
 12267 3bc7 01       		.uleb128 0x1
 12268 3bc8 50       		.byte	0x50
 12269 3bc9 02       		.uleb128 0x2
 12270 3bca 74       		.byte	0x74
 12271 3bcb 00       		.sleb128 0
 12272 3bcc 36       		.uleb128 0x36
 12273 3bcd 01       		.uleb128 0x1
 12274 3bce 51       		.byte	0x51
 12275 3bcf 05       		.uleb128 0x5
 12276 3bd0 03       		.byte	0x3
 12277 3bd1 22000000 		.4byte	.LC16
 12278 3bd5 00       		.byte	0
 12279 3bd6 00       		.byte	0
 12280 3bd7 00       		.byte	0
 12281 3bd8 35       		.uleb128 0x35
 12282 3bd9 0A000000 		.4byte	.LVL483
 12283 3bdd 653D0000 		.4byte	0x3d65
 12284 3be1 F53B0000 		.4byte	0x3bf5
 12285 3be5 36       		.uleb128 0x36
 12286 3be6 01       		.uleb128 0x1
 12287 3be7 50       		.byte	0x50
 12288 3be8 02       		.uleb128 0x2
 12289 3be9 74       		.byte	0x74
 12290 3bea 00       		.sleb128 0
 12291 3beb 36       		.uleb128 0x36
 12292 3bec 01       		.uleb128 0x1
 12293 3bed 51       		.byte	0x51
 12294 3bee 05       		.uleb128 0x5
 12295 3bef 03       		.byte	0x3
ARM GAS  C:\cygwin64\tmp\ccxdpAIh.s 			page 219


 12296 3bf0 00000000 		.4byte	.LC5
 12297 3bf4 00       		.byte	0
 12298 3bf5 35       		.uleb128 0x35
 12299 3bf6 16000000 		.4byte	.LVL484
 12300 3bfa 653D0000 		.4byte	0x3d65
 12301 3bfe 123C0000 		.4byte	0x3c12
 12302 3c02 36       		.uleb128 0x36
 12303 3c03 01       		.uleb128 0x1
 12304 3c04 50       		.byte	0x50
 12305 3c05 02       		.uleb128 0x2
 12306 3c06 74       		.byte	0x74
 12307 3c07 00       		.sleb128 0
 12308 3c08 36       		.uleb128 0x36
 12309 3c09 01       		.uleb128 0x1
 12310 3c0a 51       		.byte	0x51
 12311 3c0b 05       		.uleb128 0x5
 12312 3c0c 03       		.byte	0x3
 12313 3c0d 02000000 		.4byte	.LC6
 12314 3c11 00       		.byte	0
 12315 3c12 35       		.uleb128 0x35
 12316 3c13 22000000 		.4byte	.LVL485
 12317 3c17 653D0000 		.4byte	0x3d65
 12318 3c1b 2F3C0000 		.4byte	0x3c2f
 12319 3c1f 36       		.uleb128 0x36
 12320 3c20 01       		.uleb128 0x1
 12321 3c21 50       		.byte	0x50
 12322 3c22 02       		.uleb128 0x2
 12323 3c23 74       		.byte	0x74
 12324 3c24 00       		.sleb128 0
 12325 3c25 36       		.uleb128 0x36
 12326 3c26 01       		.uleb128 0x1
 12327 3c27 51       		.byte	0x51
 12328 3c28 05       		.uleb128 0x5
 12329 3c29 03       		.byte	0x3
 12330 3c2a 05000000 		.4byte	.LC7
 12331 3c2e 00       		.byte	0
 12332 3c2f 35       		.uleb128 0x35
 12333 3c30 2C000000 		.4byte	.LVL486
 12334 3c34 653D0000 		.4byte	0x3d65
 12335 3c38 4C3C0000 		.4byte	0x3c4c
 12336 3c3c 36       		.uleb128 0x36
 12337 3c3d 01       		.uleb128 0x1
 12338 3c3e 50       		.byte	0x50
 12339 3c3f 02       		.uleb128 0x2
 12340 3c40 74       		.byte	0x74
 12341 3c41 00       		.sleb128 0
 12342 3c42 36       		.uleb128 0x36
 12343 3c43 01       		.uleb128 0x1
 12344 3c44 51       		.byte	0x51
 12345 3c45 05       		.uleb128 0x5
 12346 3c46 03       		.byte	0x3
 12347 3c47 08000000 		.4byte	.LC8
 12348 3c4b 00       		.byte	0
 12349 3c4c 3B       		.uleb128 0x3b
 12350 3c4d 36000000 		.4byte	.LVL487
 12351 3c51 653D0000 		.4byte	0x3d65
 12352 3c55 36       		.uleb128 0x36
ARM GAS  C:\cygwin64\tmp\ccxdpAIh.s 			page 220


 12353 3c56 01       		.uleb128 0x1
 12354 3c57 50       		.byte	0x50
 12355 3c58 02       		.uleb128 0x2
 12356 3c59 74       		.byte	0x74
 12357 3c5a 00       		.sleb128 0
 12358 3c5b 36       		.uleb128 0x36
 12359 3c5c 01       		.uleb128 0x1
 12360 3c5d 51       		.byte	0x51
 12361 3c5e 05       		.uleb128 0x5
 12362 3c5f 03       		.byte	0x3
 12363 3c60 0C000000 		.4byte	.LC9
 12364 3c64 00       		.byte	0
 12365 3c65 00       		.byte	0
 12366 3c66 61       		.uleb128 0x61
 12367 3c67 AC040000 		.4byte	.LASF516
 12368 3c6b AC040000 		.4byte	.LASF516
 12369 3c6f 16       		.byte	0x16
 12370 3c70 FE       		.byte	0xfe
 12371 3c71 61       		.uleb128 0x61
 12372 3c72 7C010000 		.4byte	.LASF517
 12373 3c76 7C010000 		.4byte	.LASF517
 12374 3c7a 1D       		.byte	0x1d
 12375 3c7b 1D       		.byte	0x1d
 12376 3c7c 61       		.uleb128 0x61
 12377 3c7d EC050000 		.4byte	.LASF518
 12378 3c81 EC050000 		.4byte	.LASF518
 12379 3c85 1D       		.byte	0x1d
 12380 3c86 29       		.byte	0x29
 12381 3c87 61       		.uleb128 0x61
 12382 3c88 D7080000 		.4byte	.LASF519
 12383 3c8c D7080000 		.4byte	.LASF519
 12384 3c90 1D       		.byte	0x1d
 12385 3c91 2A       		.byte	0x2a
 12386 3c92 61       		.uleb128 0x61
 12387 3c93 39130000 		.4byte	.LASF520
 12388 3c97 39130000 		.4byte	.LASF520
 12389 3c9b 1B       		.byte	0x1b
 12390 3c9c 3F       		.byte	0x3f
 12391 3c9d 61       		.uleb128 0x61
 12392 3c9e 18030000 		.4byte	.LASF521
 12393 3ca2 18030000 		.4byte	.LASF521
 12394 3ca6 16       		.byte	0x16
 12395 3ca7 FB       		.byte	0xfb
 12396 3ca8 61       		.uleb128 0x61
 12397 3ca9 7F050000 		.4byte	.LASF522
 12398 3cad 7F050000 		.4byte	.LASF522
 12399 3cb1 16       		.byte	0x16
 12400 3cb2 FA       		.byte	0xfa
 12401 3cb3 61       		.uleb128 0x61
 12402 3cb4 97010000 		.4byte	.LASF523
 12403 3cb8 97010000 		.4byte	.LASF523
 12404 3cbc 16       		.byte	0x16
 12405 3cbd FC       		.byte	0xfc
 12406 3cbe 61       		.uleb128 0x61
 12407 3cbf 18100000 		.4byte	.LASF524
 12408 3cc3 18100000 		.4byte	.LASF524
 12409 3cc7 1E       		.byte	0x1e
ARM GAS  C:\cygwin64\tmp\ccxdpAIh.s 			page 221


 12410 3cc8 28       		.byte	0x28
 12411 3cc9 61       		.uleb128 0x61
 12412 3cca F4070000 		.4byte	.LASF525
 12413 3cce F4070000 		.4byte	.LASF525
 12414 3cd2 1D       		.byte	0x1d
 12415 3cd3 20       		.byte	0x20
 12416 3cd4 62       		.uleb128 0x62
 12417 3cd5 3F050000 		.4byte	.LASF504
 12418 3cd9 4C0E0000 		.4byte	.LASF548
 12419 3cdd 18       		.byte	0x18
 12420 3cde 00       		.byte	0
 12421 3cdf 3F050000 		.4byte	.LASF504
 12422 3ce3 63       		.uleb128 0x63
 12423 3ce4 B6110000 		.4byte	.LASF526
 12424 3ce8 B6110000 		.4byte	.LASF526
 12425 3cec 16       		.byte	0x16
 12426 3ced 0101     		.2byte	0x101
 12427 3cef 61       		.uleb128 0x61
 12428 3cf0 6A040000 		.4byte	.LASF527
 12429 3cf4 6A040000 		.4byte	.LASF527
 12430 3cf8 1E       		.byte	0x1e
 12431 3cf9 25       		.byte	0x25
 12432 3cfa 61       		.uleb128 0x61
 12433 3cfb 59120000 		.4byte	.LASF528
 12434 3cff 59120000 		.4byte	.LASF528
 12435 3d03 16       		.byte	0x16
 12436 3d04 FF       		.byte	0xff
 12437 3d05 63       		.uleb128 0x63
 12438 3d06 3B0F0000 		.4byte	.LASF529
 12439 3d0a 3B0F0000 		.4byte	.LASF529
 12440 3d0e 16       		.byte	0x16
 12441 3d0f 0001     		.2byte	0x100
 12442 3d11 63       		.uleb128 0x63
 12443 3d12 BE100000 		.4byte	.LASF530
 12444 3d16 BE100000 		.4byte	.LASF530
 12445 3d1a 16       		.byte	0x16
 12446 3d1b 0501     		.2byte	0x105
 12447 3d1d 63       		.uleb128 0x63
 12448 3d1e BA0F0000 		.4byte	.LASF531
 12449 3d22 BA0F0000 		.4byte	.LASF531
 12450 3d26 16       		.byte	0x16
 12451 3d27 0601     		.2byte	0x106
 12452 3d29 63       		.uleb128 0x63
 12453 3d2a 89080000 		.4byte	.LASF532
 12454 3d2e 89080000 		.4byte	.LASF532
 12455 3d32 16       		.byte	0x16
 12456 3d33 0401     		.2byte	0x104
 12457 3d35 63       		.uleb128 0x63
 12458 3d36 0F100000 		.4byte	.LASF533
 12459 3d3a 0F100000 		.4byte	.LASF533
 12460 3d3e 16       		.byte	0x16
 12461 3d3f 0C01     		.2byte	0x10c
 12462 3d41 63       		.uleb128 0x63
 12463 3d42 87110000 		.4byte	.LASF534
 12464 3d46 87110000 		.4byte	.LASF534
 12465 3d4a 16       		.byte	0x16
 12466 3d4b 0A01     		.2byte	0x10a
ARM GAS  C:\cygwin64\tmp\ccxdpAIh.s 			page 222


 12467 3d4d 63       		.uleb128 0x63
 12468 3d4e EC0F0000 		.4byte	.LASF535
 12469 3d52 EC0F0000 		.4byte	.LASF535
 12470 3d56 16       		.byte	0x16
 12471 3d57 0D01     		.2byte	0x10d
 12472 3d59 63       		.uleb128 0x63
 12473 3d5a F4040000 		.4byte	.LASF536
 12474 3d5e F4040000 		.4byte	.LASF536
 12475 3d62 16       		.byte	0x16
 12476 3d63 0901     		.2byte	0x109
 12477 3d65 61       		.uleb128 0x61
 12478 3d66 5A070000 		.4byte	.LASF537
 12479 3d6a 5A070000 		.4byte	.LASF537
 12480 3d6e 1E       		.byte	0x1e
 12481 3d6f 20       		.byte	0x20
 12482 3d70 63       		.uleb128 0x63
 12483 3d71 0E110000 		.4byte	.LASF538
 12484 3d75 0E110000 		.4byte	.LASF538
 12485 3d79 16       		.byte	0x16
 12486 3d7a 0701     		.2byte	0x107
 12487 3d7c 61       		.uleb128 0x61
 12488 3d7d 4C020000 		.4byte	.LASF539
 12489 3d81 4C020000 		.4byte	.LASF539
 12490 3d85 16       		.byte	0x16
 12491 3d86 F8       		.byte	0xf8
 12492 3d87 61       		.uleb128 0x61
 12493 3d88 540D0000 		.4byte	.LASF540
 12494 3d8c 540D0000 		.4byte	.LASF540
 12495 3d90 16       		.byte	0x16
 12496 3d91 FD       		.byte	0xfd
 12497 3d92 61       		.uleb128 0x61
 12498 3d93 DC080000 		.4byte	.LASF541
 12499 3d97 DC080000 		.4byte	.LASF541
 12500 3d9b 16       		.byte	0x16
 12501 3d9c F9       		.byte	0xf9
 12502 3d9d 63       		.uleb128 0x63
 12503 3d9e 99110000 		.4byte	.LASF542
 12504 3da2 99110000 		.4byte	.LASF542
 12505 3da6 16       		.byte	0x16
 12506 3da7 0801     		.2byte	0x108
 12507 3da9 00       		.byte	0
 12508              		.section	.debug_abbrev,"",%progbits
 12509              	.Ldebug_abbrev0:
 12510 0000 01       		.uleb128 0x1
 12511 0001 11       		.uleb128 0x11
 12512 0002 01       		.byte	0x1
 12513 0003 25       		.uleb128 0x25
 12514 0004 0E       		.uleb128 0xe
 12515 0005 13       		.uleb128 0x13
 12516 0006 0B       		.uleb128 0xb
 12517 0007 03       		.uleb128 0x3
 12518 0008 0E       		.uleb128 0xe
 12519 0009 1B       		.uleb128 0x1b
 12520 000a 0E       		.uleb128 0xe
 12521 000b 55       		.uleb128 0x55
 12522 000c 17       		.uleb128 0x17
 12523 000d 11       		.uleb128 0x11
ARM GAS  C:\cygwin64\tmp\ccxdpAIh.s 			page 223


 12524 000e 01       		.uleb128 0x1
 12525 000f 10       		.uleb128 0x10
 12526 0010 17       		.uleb128 0x17
 12527 0011 00       		.byte	0
 12528 0012 00       		.byte	0
 12529 0013 02       		.uleb128 0x2
 12530 0014 24       		.uleb128 0x24
 12531 0015 00       		.byte	0
 12532 0016 0B       		.uleb128 0xb
 12533 0017 0B       		.uleb128 0xb
 12534 0018 3E       		.uleb128 0x3e
 12535 0019 0B       		.uleb128 0xb
 12536 001a 03       		.uleb128 0x3
 12537 001b 08       		.uleb128 0x8
 12538 001c 00       		.byte	0
 12539 001d 00       		.byte	0
 12540 001e 03       		.uleb128 0x3
 12541 001f 16       		.uleb128 0x16
 12542 0020 00       		.byte	0
 12543 0021 03       		.uleb128 0x3
 12544 0022 0E       		.uleb128 0xe
 12545 0023 3A       		.uleb128 0x3a
 12546 0024 0B       		.uleb128 0xb
 12547 0025 3B       		.uleb128 0x3b
 12548 0026 0B       		.uleb128 0xb
 12549 0027 49       		.uleb128 0x49
 12550 0028 13       		.uleb128 0x13
 12551 0029 00       		.byte	0
 12552 002a 00       		.byte	0
 12553 002b 04       		.uleb128 0x4
 12554 002c 24       		.uleb128 0x24
 12555 002d 00       		.byte	0
 12556 002e 0B       		.uleb128 0xb
 12557 002f 0B       		.uleb128 0xb
 12558 0030 3E       		.uleb128 0x3e
 12559 0031 0B       		.uleb128 0xb
 12560 0032 03       		.uleb128 0x3
 12561 0033 0E       		.uleb128 0xe
 12562 0034 00       		.byte	0
 12563 0035 00       		.byte	0
 12564 0036 05       		.uleb128 0x5
 12565 0037 26       		.uleb128 0x26
 12566 0038 00       		.byte	0
 12567 0039 49       		.uleb128 0x49
 12568 003a 13       		.uleb128 0x13
 12569 003b 00       		.byte	0
 12570 003c 00       		.byte	0
 12571 003d 06       		.uleb128 0x6
 12572 003e 0F       		.uleb128 0xf
 12573 003f 00       		.byte	0
 12574 0040 0B       		.uleb128 0xb
 12575 0041 0B       		.uleb128 0xb
 12576 0042 49       		.uleb128 0x49
 12577 0043 13       		.uleb128 0x13
 12578 0044 00       		.byte	0
 12579 0045 00       		.byte	0
 12580 0046 07       		.uleb128 0x7
ARM GAS  C:\cygwin64\tmp\ccxdpAIh.s 			page 224


 12581 0047 13       		.uleb128 0x13
 12582 0048 00       		.byte	0
 12583 0049 03       		.uleb128 0x3
 12584 004a 0E       		.uleb128 0xe
 12585 004b 3C       		.uleb128 0x3c
 12586 004c 19       		.uleb128 0x19
 12587 004d 00       		.byte	0
 12588 004e 00       		.byte	0
 12589 004f 08       		.uleb128 0x8
 12590 0050 16       		.uleb128 0x16
 12591 0051 00       		.byte	0
 12592 0052 03       		.uleb128 0x3
 12593 0053 0E       		.uleb128 0xe
 12594 0054 3A       		.uleb128 0x3a
 12595 0055 0B       		.uleb128 0xb
 12596 0056 3B       		.uleb128 0x3b
 12597 0057 05       		.uleb128 0x5
 12598 0058 49       		.uleb128 0x49
 12599 0059 13       		.uleb128 0x13
 12600 005a 00       		.byte	0
 12601 005b 00       		.byte	0
 12602 005c 09       		.uleb128 0x9
 12603 005d 17       		.uleb128 0x17
 12604 005e 01       		.byte	0x1
 12605 005f 0B       		.uleb128 0xb
 12606 0060 0B       		.uleb128 0xb
 12607 0061 3A       		.uleb128 0x3a
 12608 0062 0B       		.uleb128 0xb
 12609 0063 3B       		.uleb128 0x3b
 12610 0064 0B       		.uleb128 0xb
 12611 0065 01       		.uleb128 0x1
 12612 0066 13       		.uleb128 0x13
 12613 0067 00       		.byte	0
 12614 0068 00       		.byte	0
 12615 0069 0A       		.uleb128 0xa
 12616 006a 0D       		.uleb128 0xd
 12617 006b 00       		.byte	0
 12618 006c 03       		.uleb128 0x3
 12619 006d 0E       		.uleb128 0xe
 12620 006e 3A       		.uleb128 0x3a
 12621 006f 0B       		.uleb128 0xb
 12622 0070 3B       		.uleb128 0x3b
 12623 0071 0B       		.uleb128 0xb
 12624 0072 49       		.uleb128 0x49
 12625 0073 13       		.uleb128 0x13
 12626 0074 00       		.byte	0
 12627 0075 00       		.byte	0
 12628 0076 0B       		.uleb128 0xb
 12629 0077 01       		.uleb128 0x1
 12630 0078 01       		.byte	0x1
 12631 0079 49       		.uleb128 0x49
 12632 007a 13       		.uleb128 0x13
 12633 007b 01       		.uleb128 0x1
 12634 007c 13       		.uleb128 0x13
 12635 007d 00       		.byte	0
 12636 007e 00       		.byte	0
 12637 007f 0C       		.uleb128 0xc
ARM GAS  C:\cygwin64\tmp\ccxdpAIh.s 			page 225


 12638 0080 21       		.uleb128 0x21
 12639 0081 00       		.byte	0
 12640 0082 49       		.uleb128 0x49
 12641 0083 13       		.uleb128 0x13
 12642 0084 2F       		.uleb128 0x2f
 12643 0085 0B       		.uleb128 0xb
 12644 0086 00       		.byte	0
 12645 0087 00       		.byte	0
 12646 0088 0D       		.uleb128 0xd
 12647 0089 13       		.uleb128 0x13
 12648 008a 01       		.byte	0x1
 12649 008b 0B       		.uleb128 0xb
 12650 008c 0B       		.uleb128 0xb
 12651 008d 3A       		.uleb128 0x3a
 12652 008e 0B       		.uleb128 0xb
 12653 008f 3B       		.uleb128 0x3b
 12654 0090 0B       		.uleb128 0xb
 12655 0091 01       		.uleb128 0x1
 12656 0092 13       		.uleb128 0x13
 12657 0093 00       		.byte	0
 12658 0094 00       		.byte	0
 12659 0095 0E       		.uleb128 0xe
 12660 0096 0D       		.uleb128 0xd
 12661 0097 00       		.byte	0
 12662 0098 03       		.uleb128 0x3
 12663 0099 0E       		.uleb128 0xe
 12664 009a 3A       		.uleb128 0x3a
 12665 009b 0B       		.uleb128 0xb
 12666 009c 3B       		.uleb128 0x3b
 12667 009d 0B       		.uleb128 0xb
 12668 009e 49       		.uleb128 0x49
 12669 009f 13       		.uleb128 0x13
 12670 00a0 38       		.uleb128 0x38
 12671 00a1 0B       		.uleb128 0xb
 12672 00a2 00       		.byte	0
 12673 00a3 00       		.byte	0
 12674 00a4 0F       		.uleb128 0xf
 12675 00a5 0F       		.uleb128 0xf
 12676 00a6 00       		.byte	0
 12677 00a7 0B       		.uleb128 0xb
 12678 00a8 0B       		.uleb128 0xb
 12679 00a9 00       		.byte	0
 12680 00aa 00       		.byte	0
 12681 00ab 10       		.uleb128 0x10
 12682 00ac 13       		.uleb128 0x13
 12683 00ad 01       		.byte	0x1
 12684 00ae 03       		.uleb128 0x3
 12685 00af 0E       		.uleb128 0xe
 12686 00b0 0B       		.uleb128 0xb
 12687 00b1 0B       		.uleb128 0xb
 12688 00b2 3A       		.uleb128 0x3a
 12689 00b3 0B       		.uleb128 0xb
 12690 00b4 3B       		.uleb128 0x3b
 12691 00b5 0B       		.uleb128 0xb
 12692 00b6 01       		.uleb128 0x1
 12693 00b7 13       		.uleb128 0x13
 12694 00b8 00       		.byte	0
ARM GAS  C:\cygwin64\tmp\ccxdpAIh.s 			page 226


 12695 00b9 00       		.byte	0
 12696 00ba 11       		.uleb128 0x11
 12697 00bb 0D       		.uleb128 0xd
 12698 00bc 00       		.byte	0
 12699 00bd 03       		.uleb128 0x3
 12700 00be 08       		.uleb128 0x8
 12701 00bf 3A       		.uleb128 0x3a
 12702 00c0 0B       		.uleb128 0xb
 12703 00c1 3B       		.uleb128 0x3b
 12704 00c2 0B       		.uleb128 0xb
 12705 00c3 49       		.uleb128 0x49
 12706 00c4 13       		.uleb128 0x13
 12707 00c5 38       		.uleb128 0x38
 12708 00c6 0B       		.uleb128 0xb
 12709 00c7 00       		.byte	0
 12710 00c8 00       		.byte	0
 12711 00c9 12       		.uleb128 0x12
 12712 00ca 13       		.uleb128 0x13
 12713 00cb 01       		.byte	0x1
 12714 00cc 03       		.uleb128 0x3
 12715 00cd 0E       		.uleb128 0xe
 12716 00ce 0B       		.uleb128 0xb
 12717 00cf 05       		.uleb128 0x5
 12718 00d0 3A       		.uleb128 0x3a
 12719 00d1 0B       		.uleb128 0xb
 12720 00d2 3B       		.uleb128 0x3b
 12721 00d3 0B       		.uleb128 0xb
 12722 00d4 01       		.uleb128 0x1
 12723 00d5 13       		.uleb128 0x13
 12724 00d6 00       		.byte	0
 12725 00d7 00       		.byte	0
 12726 00d8 13       		.uleb128 0x13
 12727 00d9 0D       		.uleb128 0xd
 12728 00da 00       		.byte	0
 12729 00db 03       		.uleb128 0x3
 12730 00dc 0E       		.uleb128 0xe
 12731 00dd 3A       		.uleb128 0x3a
 12732 00de 0B       		.uleb128 0xb
 12733 00df 3B       		.uleb128 0x3b
 12734 00e0 0B       		.uleb128 0xb
 12735 00e1 49       		.uleb128 0x49
 12736 00e2 13       		.uleb128 0x13
 12737 00e3 38       		.uleb128 0x38
 12738 00e4 05       		.uleb128 0x5
 12739 00e5 00       		.byte	0
 12740 00e6 00       		.byte	0
 12741 00e7 14       		.uleb128 0x14
 12742 00e8 15       		.uleb128 0x15
 12743 00e9 00       		.byte	0
 12744 00ea 27       		.uleb128 0x27
 12745 00eb 19       		.uleb128 0x19
 12746 00ec 00       		.byte	0
 12747 00ed 00       		.byte	0
 12748 00ee 15       		.uleb128 0x15
 12749 00ef 15       		.uleb128 0x15
 12750 00f0 01       		.byte	0x1
 12751 00f1 27       		.uleb128 0x27
ARM GAS  C:\cygwin64\tmp\ccxdpAIh.s 			page 227


 12752 00f2 19       		.uleb128 0x19
 12753 00f3 49       		.uleb128 0x49
 12754 00f4 13       		.uleb128 0x13
 12755 00f5 01       		.uleb128 0x1
 12756 00f6 13       		.uleb128 0x13
 12757 00f7 00       		.byte	0
 12758 00f8 00       		.byte	0
 12759 00f9 16       		.uleb128 0x16
 12760 00fa 05       		.uleb128 0x5
 12761 00fb 00       		.byte	0
 12762 00fc 49       		.uleb128 0x49
 12763 00fd 13       		.uleb128 0x13
 12764 00fe 00       		.byte	0
 12765 00ff 00       		.byte	0
 12766 0100 17       		.uleb128 0x17
 12767 0101 13       		.uleb128 0x13
 12768 0102 01       		.byte	0x1
 12769 0103 03       		.uleb128 0x3
 12770 0104 0E       		.uleb128 0xe
 12771 0105 0B       		.uleb128 0xb
 12772 0106 05       		.uleb128 0x5
 12773 0107 3A       		.uleb128 0x3a
 12774 0108 0B       		.uleb128 0xb
 12775 0109 3B       		.uleb128 0x3b
 12776 010a 05       		.uleb128 0x5
 12777 010b 01       		.uleb128 0x1
 12778 010c 13       		.uleb128 0x13
 12779 010d 00       		.byte	0
 12780 010e 00       		.byte	0
 12781 010f 18       		.uleb128 0x18
 12782 0110 0D       		.uleb128 0xd
 12783 0111 00       		.byte	0
 12784 0112 03       		.uleb128 0x3
 12785 0113 0E       		.uleb128 0xe
 12786 0114 3A       		.uleb128 0x3a
 12787 0115 0B       		.uleb128 0xb
 12788 0116 3B       		.uleb128 0x3b
 12789 0117 05       		.uleb128 0x5
 12790 0118 49       		.uleb128 0x49
 12791 0119 13       		.uleb128 0x13
 12792 011a 38       		.uleb128 0x38
 12793 011b 0B       		.uleb128 0xb
 12794 011c 00       		.byte	0
 12795 011d 00       		.byte	0
 12796 011e 19       		.uleb128 0x19
 12797 011f 0D       		.uleb128 0xd
 12798 0120 00       		.byte	0
 12799 0121 03       		.uleb128 0x3
 12800 0122 0E       		.uleb128 0xe
 12801 0123 3A       		.uleb128 0x3a
 12802 0124 0B       		.uleb128 0xb
 12803 0125 3B       		.uleb128 0x3b
 12804 0126 05       		.uleb128 0x5
 12805 0127 49       		.uleb128 0x49
 12806 0128 13       		.uleb128 0x13
 12807 0129 38       		.uleb128 0x38
 12808 012a 05       		.uleb128 0x5
ARM GAS  C:\cygwin64\tmp\ccxdpAIh.s 			page 228


 12809 012b 00       		.byte	0
 12810 012c 00       		.byte	0
 12811 012d 1A       		.uleb128 0x1a
 12812 012e 35       		.uleb128 0x35
 12813 012f 00       		.byte	0
 12814 0130 49       		.uleb128 0x49
 12815 0131 13       		.uleb128 0x13
 12816 0132 00       		.byte	0
 12817 0133 00       		.byte	0
 12818 0134 1B       		.uleb128 0x1b
 12819 0135 13       		.uleb128 0x13
 12820 0136 01       		.byte	0x1
 12821 0137 03       		.uleb128 0x3
 12822 0138 0E       		.uleb128 0xe
 12823 0139 0B       		.uleb128 0xb
 12824 013a 0B       		.uleb128 0xb
 12825 013b 3A       		.uleb128 0x3a
 12826 013c 0B       		.uleb128 0xb
 12827 013d 3B       		.uleb128 0x3b
 12828 013e 05       		.uleb128 0x5
 12829 013f 01       		.uleb128 0x1
 12830 0140 13       		.uleb128 0x13
 12831 0141 00       		.byte	0
 12832 0142 00       		.byte	0
 12833 0143 1C       		.uleb128 0x1c
 12834 0144 13       		.uleb128 0x13
 12835 0145 01       		.byte	0x1
 12836 0146 0B       		.uleb128 0xb
 12837 0147 0B       		.uleb128 0xb
 12838 0148 3A       		.uleb128 0x3a
 12839 0149 0B       		.uleb128 0xb
 12840 014a 3B       		.uleb128 0x3b
 12841 014b 05       		.uleb128 0x5
 12842 014c 01       		.uleb128 0x1
 12843 014d 13       		.uleb128 0x13
 12844 014e 00       		.byte	0
 12845 014f 00       		.byte	0
 12846 0150 1D       		.uleb128 0x1d
 12847 0151 17       		.uleb128 0x17
 12848 0152 01       		.byte	0x1
 12849 0153 0B       		.uleb128 0xb
 12850 0154 0B       		.uleb128 0xb
 12851 0155 3A       		.uleb128 0x3a
 12852 0156 0B       		.uleb128 0xb
 12853 0157 3B       		.uleb128 0x3b
 12854 0158 05       		.uleb128 0x5
 12855 0159 01       		.uleb128 0x1
 12856 015a 13       		.uleb128 0x13
 12857 015b 00       		.byte	0
 12858 015c 00       		.byte	0
 12859 015d 1E       		.uleb128 0x1e
 12860 015e 0D       		.uleb128 0xd
 12861 015f 00       		.byte	0
 12862 0160 03       		.uleb128 0x3
 12863 0161 0E       		.uleb128 0xe
 12864 0162 3A       		.uleb128 0x3a
 12865 0163 0B       		.uleb128 0xb
ARM GAS  C:\cygwin64\tmp\ccxdpAIh.s 			page 229


 12866 0164 3B       		.uleb128 0x3b
 12867 0165 05       		.uleb128 0x5
 12868 0166 49       		.uleb128 0x49
 12869 0167 13       		.uleb128 0x13
 12870 0168 00       		.byte	0
 12871 0169 00       		.byte	0
 12872 016a 1F       		.uleb128 0x1f
 12873 016b 15       		.uleb128 0x15
 12874 016c 01       		.byte	0x1
 12875 016d 27       		.uleb128 0x27
 12876 016e 19       		.uleb128 0x19
 12877 016f 01       		.uleb128 0x1
 12878 0170 13       		.uleb128 0x13
 12879 0171 00       		.byte	0
 12880 0172 00       		.byte	0
 12881 0173 20       		.uleb128 0x20
 12882 0174 34       		.uleb128 0x34
 12883 0175 00       		.byte	0
 12884 0176 03       		.uleb128 0x3
 12885 0177 0E       		.uleb128 0xe
 12886 0178 3A       		.uleb128 0x3a
 12887 0179 0B       		.uleb128 0xb
 12888 017a 3B       		.uleb128 0x3b
 12889 017b 05       		.uleb128 0x5
 12890 017c 49       		.uleb128 0x49
 12891 017d 13       		.uleb128 0x13
 12892 017e 3F       		.uleb128 0x3f
 12893 017f 19       		.uleb128 0x19
 12894 0180 3C       		.uleb128 0x3c
 12895 0181 19       		.uleb128 0x19
 12896 0182 00       		.byte	0
 12897 0183 00       		.byte	0
 12898 0184 21       		.uleb128 0x21
 12899 0185 0D       		.uleb128 0xd
 12900 0186 00       		.byte	0
 12901 0187 03       		.uleb128 0x3
 12902 0188 08       		.uleb128 0x8
 12903 0189 3A       		.uleb128 0x3a
 12904 018a 0B       		.uleb128 0xb
 12905 018b 3B       		.uleb128 0x3b
 12906 018c 05       		.uleb128 0x5
 12907 018d 49       		.uleb128 0x49
 12908 018e 13       		.uleb128 0x13
 12909 018f 38       		.uleb128 0x38
 12910 0190 0B       		.uleb128 0xb
 12911 0191 00       		.byte	0
 12912 0192 00       		.byte	0
 12913 0193 22       		.uleb128 0x22
 12914 0194 34       		.uleb128 0x34
 12915 0195 00       		.byte	0
 12916 0196 03       		.uleb128 0x3
 12917 0197 0E       		.uleb128 0xe
 12918 0198 3A       		.uleb128 0x3a
 12919 0199 0B       		.uleb128 0xb
 12920 019a 3B       		.uleb128 0x3b
 12921 019b 0B       		.uleb128 0xb
 12922 019c 49       		.uleb128 0x49
ARM GAS  C:\cygwin64\tmp\ccxdpAIh.s 			page 230


 12923 019d 13       		.uleb128 0x13
 12924 019e 3F       		.uleb128 0x3f
 12925 019f 19       		.uleb128 0x19
 12926 01a0 3C       		.uleb128 0x3c
 12927 01a1 19       		.uleb128 0x19
 12928 01a2 00       		.byte	0
 12929 01a3 00       		.byte	0
 12930 01a4 23       		.uleb128 0x23
 12931 01a5 34       		.uleb128 0x34
 12932 01a6 00       		.byte	0
 12933 01a7 03       		.uleb128 0x3
 12934 01a8 08       		.uleb128 0x8
 12935 01a9 3A       		.uleb128 0x3a
 12936 01aa 0B       		.uleb128 0xb
 12937 01ab 3B       		.uleb128 0x3b
 12938 01ac 05       		.uleb128 0x5
 12939 01ad 49       		.uleb128 0x49
 12940 01ae 13       		.uleb128 0x13
 12941 01af 3F       		.uleb128 0x3f
 12942 01b0 19       		.uleb128 0x19
 12943 01b1 3C       		.uleb128 0x3c
 12944 01b2 19       		.uleb128 0x19
 12945 01b3 00       		.byte	0
 12946 01b4 00       		.byte	0
 12947 01b5 24       		.uleb128 0x24
 12948 01b6 21       		.uleb128 0x21
 12949 01b7 00       		.byte	0
 12950 01b8 00       		.byte	0
 12951 01b9 00       		.byte	0
 12952 01ba 25       		.uleb128 0x25
 12953 01bb 13       		.uleb128 0x13
 12954 01bc 01       		.byte	0x1
 12955 01bd 0B       		.uleb128 0xb
 12956 01be 05       		.uleb128 0x5
 12957 01bf 3A       		.uleb128 0x3a
 12958 01c0 0B       		.uleb128 0xb
 12959 01c1 3B       		.uleb128 0x3b
 12960 01c2 0B       		.uleb128 0xb
 12961 01c3 01       		.uleb128 0x1
 12962 01c4 13       		.uleb128 0x13
 12963 01c5 00       		.byte	0
 12964 01c6 00       		.byte	0
 12965 01c7 26       		.uleb128 0x26
 12966 01c8 21       		.uleb128 0x21
 12967 01c9 00       		.byte	0
 12968 01ca 49       		.uleb128 0x49
 12969 01cb 13       		.uleb128 0x13
 12970 01cc 2F       		.uleb128 0x2f
 12971 01cd 05       		.uleb128 0x5
 12972 01ce 00       		.byte	0
 12973 01cf 00       		.byte	0
 12974 01d0 27       		.uleb128 0x27
 12975 01d1 16       		.uleb128 0x16
 12976 01d2 00       		.byte	0
 12977 01d3 03       		.uleb128 0x3
 12978 01d4 08       		.uleb128 0x8
 12979 01d5 3A       		.uleb128 0x3a
ARM GAS  C:\cygwin64\tmp\ccxdpAIh.s 			page 231


 12980 01d6 0B       		.uleb128 0xb
 12981 01d7 3B       		.uleb128 0x3b
 12982 01d8 0B       		.uleb128 0xb
 12983 01d9 49       		.uleb128 0x49
 12984 01da 13       		.uleb128 0x13
 12985 01db 00       		.byte	0
 12986 01dc 00       		.byte	0
 12987 01dd 28       		.uleb128 0x28
 12988 01de 04       		.uleb128 0x4
 12989 01df 01       		.byte	0x1
 12990 01e0 0B       		.uleb128 0xb
 12991 01e1 0B       		.uleb128 0xb
 12992 01e2 49       		.uleb128 0x49
 12993 01e3 13       		.uleb128 0x13
 12994 01e4 3A       		.uleb128 0x3a
 12995 01e5 0B       		.uleb128 0xb
 12996 01e6 3B       		.uleb128 0x3b
 12997 01e7 0B       		.uleb128 0xb
 12998 01e8 01       		.uleb128 0x1
 12999 01e9 13       		.uleb128 0x13
 13000 01ea 00       		.byte	0
 13001 01eb 00       		.byte	0
 13002 01ec 29       		.uleb128 0x29
 13003 01ed 28       		.uleb128 0x28
 13004 01ee 00       		.byte	0
 13005 01ef 03       		.uleb128 0x3
 13006 01f0 0E       		.uleb128 0xe
 13007 01f1 1C       		.uleb128 0x1c
 13008 01f2 0B       		.uleb128 0xb
 13009 01f3 00       		.byte	0
 13010 01f4 00       		.byte	0
 13011 01f5 2A       		.uleb128 0x2a
 13012 01f6 0D       		.uleb128 0xd
 13013 01f7 00       		.byte	0
 13014 01f8 03       		.uleb128 0x3
 13015 01f9 0E       		.uleb128 0xe
 13016 01fa 49       		.uleb128 0x49
 13017 01fb 13       		.uleb128 0x13
 13018 01fc 38       		.uleb128 0x38
 13019 01fd 0B       		.uleb128 0xb
 13020 01fe 34       		.uleb128 0x34
 13021 01ff 19       		.uleb128 0x19
 13022 0200 00       		.byte	0
 13023 0201 00       		.byte	0
 13024 0202 2B       		.uleb128 0x2b
 13025 0203 13       		.uleb128 0x13
 13026 0204 01       		.byte	0x1
 13027 0205 03       		.uleb128 0x3
 13028 0206 08       		.uleb128 0x8
 13029 0207 0B       		.uleb128 0xb
 13030 0208 0B       		.uleb128 0xb
 13031 0209 3A       		.uleb128 0x3a
 13032 020a 0B       		.uleb128 0xb
 13033 020b 3B       		.uleb128 0x3b
 13034 020c 0B       		.uleb128 0xb
 13035 020d 01       		.uleb128 0x1
 13036 020e 13       		.uleb128 0x13
ARM GAS  C:\cygwin64\tmp\ccxdpAIh.s 			page 232


 13037 020f 00       		.byte	0
 13038 0210 00       		.byte	0
 13039 0211 2C       		.uleb128 0x2c
 13040 0212 04       		.uleb128 0x4
 13041 0213 01       		.byte	0x1
 13042 0214 03       		.uleb128 0x3
 13043 0215 0E       		.uleb128 0xe
 13044 0216 0B       		.uleb128 0xb
 13045 0217 0B       		.uleb128 0xb
 13046 0218 49       		.uleb128 0x49
 13047 0219 13       		.uleb128 0x13
 13048 021a 3A       		.uleb128 0x3a
 13049 021b 0B       		.uleb128 0xb
 13050 021c 3B       		.uleb128 0x3b
 13051 021d 0B       		.uleb128 0xb
 13052 021e 01       		.uleb128 0x1
 13053 021f 13       		.uleb128 0x13
 13054 0220 00       		.byte	0
 13055 0221 00       		.byte	0
 13056 0222 2D       		.uleb128 0x2d
 13057 0223 28       		.uleb128 0x28
 13058 0224 00       		.byte	0
 13059 0225 03       		.uleb128 0x3
 13060 0226 08       		.uleb128 0x8
 13061 0227 1C       		.uleb128 0x1c
 13062 0228 0B       		.uleb128 0xb
 13063 0229 00       		.byte	0
 13064 022a 00       		.byte	0
 13065 022b 2E       		.uleb128 0x2e
 13066 022c 34       		.uleb128 0x34
 13067 022d 00       		.byte	0
 13068 022e 47       		.uleb128 0x47
 13069 022f 13       		.uleb128 0x13
 13070 0230 3A       		.uleb128 0x3a
 13071 0231 0B       		.uleb128 0xb
 13072 0232 3B       		.uleb128 0x3b
 13073 0233 0B       		.uleb128 0xb
 13074 0234 02       		.uleb128 0x2
 13075 0235 18       		.uleb128 0x18
 13076 0236 00       		.byte	0
 13077 0237 00       		.byte	0
 13078 0238 2F       		.uleb128 0x2f
 13079 0239 34       		.uleb128 0x34
 13080 023a 00       		.byte	0
 13081 023b 03       		.uleb128 0x3
 13082 023c 0E       		.uleb128 0xe
 13083 023d 3A       		.uleb128 0x3a
 13084 023e 0B       		.uleb128 0xb
 13085 023f 3B       		.uleb128 0x3b
 13086 0240 0B       		.uleb128 0xb
 13087 0241 49       		.uleb128 0x49
 13088 0242 13       		.uleb128 0x13
 13089 0243 3F       		.uleb128 0x3f
 13090 0244 19       		.uleb128 0x19
 13091 0245 02       		.uleb128 0x2
 13092 0246 18       		.uleb128 0x18
 13093 0247 00       		.byte	0
ARM GAS  C:\cygwin64\tmp\ccxdpAIh.s 			page 233


 13094 0248 00       		.byte	0
 13095 0249 30       		.uleb128 0x30
 13096 024a 34       		.uleb128 0x34
 13097 024b 00       		.byte	0
 13098 024c 03       		.uleb128 0x3
 13099 024d 08       		.uleb128 0x8
 13100 024e 3A       		.uleb128 0x3a
 13101 024f 0B       		.uleb128 0xb
 13102 0250 3B       		.uleb128 0x3b
 13103 0251 05       		.uleb128 0x5
 13104 0252 49       		.uleb128 0x49
 13105 0253 13       		.uleb128 0x13
 13106 0254 02       		.uleb128 0x2
 13107 0255 18       		.uleb128 0x18
 13108 0256 00       		.byte	0
 13109 0257 00       		.byte	0
 13110 0258 31       		.uleb128 0x31
 13111 0259 2E       		.uleb128 0x2e
 13112 025a 01       		.byte	0x1
 13113 025b 3F       		.uleb128 0x3f
 13114 025c 19       		.uleb128 0x19
 13115 025d 03       		.uleb128 0x3
 13116 025e 0E       		.uleb128 0xe
 13117 025f 3A       		.uleb128 0x3a
 13118 0260 0B       		.uleb128 0xb
 13119 0261 3B       		.uleb128 0x3b
 13120 0262 05       		.uleb128 0x5
 13121 0263 27       		.uleb128 0x27
 13122 0264 19       		.uleb128 0x19
 13123 0265 49       		.uleb128 0x49
 13124 0266 13       		.uleb128 0x13
 13125 0267 11       		.uleb128 0x11
 13126 0268 01       		.uleb128 0x1
 13127 0269 12       		.uleb128 0x12
 13128 026a 06       		.uleb128 0x6
 13129 026b 40       		.uleb128 0x40
 13130 026c 18       		.uleb128 0x18
 13131 026d 9742     		.uleb128 0x2117
 13132 026f 19       		.uleb128 0x19
 13133 0270 01       		.uleb128 0x1
 13134 0271 13       		.uleb128 0x13
 13135 0272 00       		.byte	0
 13136 0273 00       		.byte	0
 13137 0274 32       		.uleb128 0x32
 13138 0275 05       		.uleb128 0x5
 13139 0276 00       		.byte	0
 13140 0277 03       		.uleb128 0x3
 13141 0278 0E       		.uleb128 0xe
 13142 0279 3A       		.uleb128 0x3a
 13143 027a 0B       		.uleb128 0xb
 13144 027b 3B       		.uleb128 0x3b
 13145 027c 05       		.uleb128 0x5
 13146 027d 49       		.uleb128 0x49
 13147 027e 13       		.uleb128 0x13
 13148 027f 02       		.uleb128 0x2
 13149 0280 17       		.uleb128 0x17
 13150 0281 00       		.byte	0
ARM GAS  C:\cygwin64\tmp\ccxdpAIh.s 			page 234


 13151 0282 00       		.byte	0
 13152 0283 33       		.uleb128 0x33
 13153 0284 34       		.uleb128 0x34
 13154 0285 00       		.byte	0
 13155 0286 03       		.uleb128 0x3
 13156 0287 0E       		.uleb128 0xe
 13157 0288 3A       		.uleb128 0x3a
 13158 0289 0B       		.uleb128 0xb
 13159 028a 3B       		.uleb128 0x3b
 13160 028b 05       		.uleb128 0x5
 13161 028c 49       		.uleb128 0x49
 13162 028d 13       		.uleb128 0x13
 13163 028e 02       		.uleb128 0x2
 13164 028f 17       		.uleb128 0x17
 13165 0290 00       		.byte	0
 13166 0291 00       		.byte	0
 13167 0292 34       		.uleb128 0x34
 13168 0293 34       		.uleb128 0x34
 13169 0294 00       		.byte	0
 13170 0295 03       		.uleb128 0x3
 13171 0296 08       		.uleb128 0x8
 13172 0297 3A       		.uleb128 0x3a
 13173 0298 0B       		.uleb128 0xb
 13174 0299 3B       		.uleb128 0x3b
 13175 029a 05       		.uleb128 0x5
 13176 029b 49       		.uleb128 0x49
 13177 029c 13       		.uleb128 0x13
 13178 029d 02       		.uleb128 0x2
 13179 029e 17       		.uleb128 0x17
 13180 029f 00       		.byte	0
 13181 02a0 00       		.byte	0
 13182 02a1 35       		.uleb128 0x35
 13183 02a2 898201   		.uleb128 0x4109
 13184 02a5 01       		.byte	0x1
 13185 02a6 11       		.uleb128 0x11
 13186 02a7 01       		.uleb128 0x1
 13187 02a8 31       		.uleb128 0x31
 13188 02a9 13       		.uleb128 0x13
 13189 02aa 01       		.uleb128 0x1
 13190 02ab 13       		.uleb128 0x13
 13191 02ac 00       		.byte	0
 13192 02ad 00       		.byte	0
 13193 02ae 36       		.uleb128 0x36
 13194 02af 8A8201   		.uleb128 0x410a
 13195 02b2 00       		.byte	0
 13196 02b3 02       		.uleb128 0x2
 13197 02b4 18       		.uleb128 0x18
 13198 02b5 9142     		.uleb128 0x2111
 13199 02b7 18       		.uleb128 0x18
 13200 02b8 00       		.byte	0
 13201 02b9 00       		.byte	0
 13202 02ba 37       		.uleb128 0x37
 13203 02bb 898201   		.uleb128 0x4109
 13204 02be 00       		.byte	0
 13205 02bf 11       		.uleb128 0x11
 13206 02c0 01       		.uleb128 0x1
 13207 02c1 31       		.uleb128 0x31
ARM GAS  C:\cygwin64\tmp\ccxdpAIh.s 			page 235


 13208 02c2 13       		.uleb128 0x13
 13209 02c3 00       		.byte	0
 13210 02c4 00       		.byte	0
 13211 02c5 38       		.uleb128 0x38
 13212 02c6 05       		.uleb128 0x5
 13213 02c7 00       		.byte	0
 13214 02c8 03       		.uleb128 0x3
 13215 02c9 08       		.uleb128 0x8
 13216 02ca 3A       		.uleb128 0x3a
 13217 02cb 0B       		.uleb128 0xb
 13218 02cc 3B       		.uleb128 0x3b
 13219 02cd 05       		.uleb128 0x5
 13220 02ce 49       		.uleb128 0x49
 13221 02cf 13       		.uleb128 0x13
 13222 02d0 02       		.uleb128 0x2
 13223 02d1 17       		.uleb128 0x17
 13224 02d2 00       		.byte	0
 13225 02d3 00       		.byte	0
 13226 02d4 39       		.uleb128 0x39
 13227 02d5 05       		.uleb128 0x5
 13228 02d6 00       		.byte	0
 13229 02d7 03       		.uleb128 0x3
 13230 02d8 08       		.uleb128 0x8
 13231 02d9 3A       		.uleb128 0x3a
 13232 02da 0B       		.uleb128 0xb
 13233 02db 3B       		.uleb128 0x3b
 13234 02dc 05       		.uleb128 0x5
 13235 02dd 49       		.uleb128 0x49
 13236 02de 13       		.uleb128 0x13
 13237 02df 02       		.uleb128 0x2
 13238 02e0 18       		.uleb128 0x18
 13239 02e1 00       		.byte	0
 13240 02e2 00       		.byte	0
 13241 02e3 3A       		.uleb128 0x3a
 13242 02e4 18       		.uleb128 0x18
 13243 02e5 00       		.byte	0
 13244 02e6 00       		.byte	0
 13245 02e7 00       		.byte	0
 13246 02e8 3B       		.uleb128 0x3b
 13247 02e9 898201   		.uleb128 0x4109
 13248 02ec 01       		.byte	0x1
 13249 02ed 11       		.uleb128 0x11
 13250 02ee 01       		.uleb128 0x1
 13251 02ef 31       		.uleb128 0x31
 13252 02f0 13       		.uleb128 0x13
 13253 02f1 00       		.byte	0
 13254 02f2 00       		.byte	0
 13255 02f3 3C       		.uleb128 0x3c
 13256 02f4 2E       		.uleb128 0x2e
 13257 02f5 01       		.byte	0x1
 13258 02f6 3F       		.uleb128 0x3f
 13259 02f7 19       		.uleb128 0x19
 13260 02f8 03       		.uleb128 0x3
 13261 02f9 0E       		.uleb128 0xe
 13262 02fa 3A       		.uleb128 0x3a
 13263 02fb 0B       		.uleb128 0xb
 13264 02fc 3B       		.uleb128 0x3b
ARM GAS  C:\cygwin64\tmp\ccxdpAIh.s 			page 236


 13265 02fd 05       		.uleb128 0x5
 13266 02fe 27       		.uleb128 0x27
 13267 02ff 19       		.uleb128 0x19
 13268 0300 49       		.uleb128 0x49
 13269 0301 13       		.uleb128 0x13
 13270 0302 20       		.uleb128 0x20
 13271 0303 0B       		.uleb128 0xb
 13272 0304 01       		.uleb128 0x1
 13273 0305 13       		.uleb128 0x13
 13274 0306 00       		.byte	0
 13275 0307 00       		.byte	0
 13276 0308 3D       		.uleb128 0x3d
 13277 0309 05       		.uleb128 0x5
 13278 030a 00       		.byte	0
 13279 030b 03       		.uleb128 0x3
 13280 030c 0E       		.uleb128 0xe
 13281 030d 3A       		.uleb128 0x3a
 13282 030e 0B       		.uleb128 0xb
 13283 030f 3B       		.uleb128 0x3b
 13284 0310 05       		.uleb128 0x5
 13285 0311 49       		.uleb128 0x49
 13286 0312 13       		.uleb128 0x13
 13287 0313 00       		.byte	0
 13288 0314 00       		.byte	0
 13289 0315 3E       		.uleb128 0x3e
 13290 0316 34       		.uleb128 0x34
 13291 0317 00       		.byte	0
 13292 0318 03       		.uleb128 0x3
 13293 0319 0E       		.uleb128 0xe
 13294 031a 3A       		.uleb128 0x3a
 13295 031b 0B       		.uleb128 0xb
 13296 031c 3B       		.uleb128 0x3b
 13297 031d 05       		.uleb128 0x5
 13298 031e 49       		.uleb128 0x49
 13299 031f 13       		.uleb128 0x13
 13300 0320 00       		.byte	0
 13301 0321 00       		.byte	0
 13302 0322 3F       		.uleb128 0x3f
 13303 0323 1D       		.uleb128 0x1d
 13304 0324 01       		.byte	0x1
 13305 0325 31       		.uleb128 0x31
 13306 0326 13       		.uleb128 0x13
 13307 0327 11       		.uleb128 0x11
 13308 0328 01       		.uleb128 0x1
 13309 0329 12       		.uleb128 0x12
 13310 032a 06       		.uleb128 0x6
 13311 032b 58       		.uleb128 0x58
 13312 032c 0B       		.uleb128 0xb
 13313 032d 59       		.uleb128 0x59
 13314 032e 05       		.uleb128 0x5
 13315 032f 01       		.uleb128 0x1
 13316 0330 13       		.uleb128 0x13
 13317 0331 00       		.byte	0
 13318 0332 00       		.byte	0
 13319 0333 40       		.uleb128 0x40
 13320 0334 05       		.uleb128 0x5
 13321 0335 00       		.byte	0
ARM GAS  C:\cygwin64\tmp\ccxdpAIh.s 			page 237


 13322 0336 31       		.uleb128 0x31
 13323 0337 13       		.uleb128 0x13
 13324 0338 02       		.uleb128 0x2
 13325 0339 17       		.uleb128 0x17
 13326 033a 00       		.byte	0
 13327 033b 00       		.byte	0
 13328 033c 41       		.uleb128 0x41
 13329 033d 1D       		.uleb128 0x1d
 13330 033e 01       		.byte	0x1
 13331 033f 31       		.uleb128 0x31
 13332 0340 13       		.uleb128 0x13
 13333 0341 52       		.uleb128 0x52
 13334 0342 01       		.uleb128 0x1
 13335 0343 55       		.uleb128 0x55
 13336 0344 17       		.uleb128 0x17
 13337 0345 58       		.uleb128 0x58
 13338 0346 0B       		.uleb128 0xb
 13339 0347 59       		.uleb128 0x59
 13340 0348 05       		.uleb128 0x5
 13341 0349 01       		.uleb128 0x1
 13342 034a 13       		.uleb128 0x13
 13343 034b 00       		.byte	0
 13344 034c 00       		.byte	0
 13345 034d 42       		.uleb128 0x42
 13346 034e 2E       		.uleb128 0x2e
 13347 034f 01       		.byte	0x1
 13348 0350 3F       		.uleb128 0x3f
 13349 0351 19       		.uleb128 0x19
 13350 0352 03       		.uleb128 0x3
 13351 0353 0E       		.uleb128 0xe
 13352 0354 3A       		.uleb128 0x3a
 13353 0355 0B       		.uleb128 0xb
 13354 0356 3B       		.uleb128 0x3b
 13355 0357 05       		.uleb128 0x5
 13356 0358 27       		.uleb128 0x27
 13357 0359 19       		.uleb128 0x19
 13358 035a 11       		.uleb128 0x11
 13359 035b 01       		.uleb128 0x1
 13360 035c 12       		.uleb128 0x12
 13361 035d 06       		.uleb128 0x6
 13362 035e 40       		.uleb128 0x40
 13363 035f 18       		.uleb128 0x18
 13364 0360 9742     		.uleb128 0x2117
 13365 0362 19       		.uleb128 0x19
 13366 0363 01       		.uleb128 0x1
 13367 0364 13       		.uleb128 0x13
 13368 0365 00       		.byte	0
 13369 0366 00       		.byte	0
 13370 0367 43       		.uleb128 0x43
 13371 0368 34       		.uleb128 0x34
 13372 0369 00       		.byte	0
 13373 036a 03       		.uleb128 0x3
 13374 036b 08       		.uleb128 0x8
 13375 036c 3A       		.uleb128 0x3a
 13376 036d 0B       		.uleb128 0xb
 13377 036e 3B       		.uleb128 0x3b
 13378 036f 05       		.uleb128 0x5
ARM GAS  C:\cygwin64\tmp\ccxdpAIh.s 			page 238


 13379 0370 49       		.uleb128 0x49
 13380 0371 13       		.uleb128 0x13
 13381 0372 00       		.byte	0
 13382 0373 00       		.byte	0
 13383 0374 44       		.uleb128 0x44
 13384 0375 1D       		.uleb128 0x1d
 13385 0376 01       		.byte	0x1
 13386 0377 31       		.uleb128 0x31
 13387 0378 13       		.uleb128 0x13
 13388 0379 52       		.uleb128 0x52
 13389 037a 01       		.uleb128 0x1
 13390 037b 55       		.uleb128 0x55
 13391 037c 17       		.uleb128 0x17
 13392 037d 58       		.uleb128 0x58
 13393 037e 0B       		.uleb128 0xb
 13394 037f 59       		.uleb128 0x59
 13395 0380 05       		.uleb128 0x5
 13396 0381 00       		.byte	0
 13397 0382 00       		.byte	0
 13398 0383 45       		.uleb128 0x45
 13399 0384 0B       		.uleb128 0xb
 13400 0385 01       		.byte	0x1
 13401 0386 55       		.uleb128 0x55
 13402 0387 17       		.uleb128 0x17
 13403 0388 00       		.byte	0
 13404 0389 00       		.byte	0
 13405 038a 46       		.uleb128 0x46
 13406 038b 34       		.uleb128 0x34
 13407 038c 00       		.byte	0
 13408 038d 31       		.uleb128 0x31
 13409 038e 13       		.uleb128 0x13
 13410 038f 02       		.uleb128 0x2
 13411 0390 17       		.uleb128 0x17
 13412 0391 00       		.byte	0
 13413 0392 00       		.byte	0
 13414 0393 47       		.uleb128 0x47
 13415 0394 34       		.uleb128 0x34
 13416 0395 00       		.byte	0
 13417 0396 31       		.uleb128 0x31
 13418 0397 13       		.uleb128 0x13
 13419 0398 02       		.uleb128 0x2
 13420 0399 18       		.uleb128 0x18
 13421 039a 00       		.byte	0
 13422 039b 00       		.byte	0
 13423 039c 48       		.uleb128 0x48
 13424 039d 34       		.uleb128 0x34
 13425 039e 00       		.byte	0
 13426 039f 31       		.uleb128 0x31
 13427 03a0 13       		.uleb128 0x13
 13428 03a1 1C       		.uleb128 0x1c
 13429 03a2 0B       		.uleb128 0xb
 13430 03a3 00       		.byte	0
 13431 03a4 00       		.byte	0
 13432 03a5 49       		.uleb128 0x49
 13433 03a6 34       		.uleb128 0x34
 13434 03a7 00       		.byte	0
 13435 03a8 31       		.uleb128 0x31
ARM GAS  C:\cygwin64\tmp\ccxdpAIh.s 			page 239


 13436 03a9 13       		.uleb128 0x13
 13437 03aa 1C       		.uleb128 0x1c
 13438 03ab 05       		.uleb128 0x5
 13439 03ac 00       		.byte	0
 13440 03ad 00       		.byte	0
 13441 03ae 4A       		.uleb128 0x4a
 13442 03af 34       		.uleb128 0x34
 13443 03b0 00       		.byte	0
 13444 03b1 31       		.uleb128 0x31
 13445 03b2 13       		.uleb128 0x13
 13446 03b3 1C       		.uleb128 0x1c
 13447 03b4 06       		.uleb128 0x6
 13448 03b5 00       		.byte	0
 13449 03b6 00       		.byte	0
 13450 03b7 4B       		.uleb128 0x4b
 13451 03b8 2E       		.uleb128 0x2e
 13452 03b9 01       		.byte	0x1
 13453 03ba 03       		.uleb128 0x3
 13454 03bb 0E       		.uleb128 0xe
 13455 03bc 3A       		.uleb128 0x3a
 13456 03bd 0B       		.uleb128 0xb
 13457 03be 3B       		.uleb128 0x3b
 13458 03bf 05       		.uleb128 0x5
 13459 03c0 27       		.uleb128 0x27
 13460 03c1 19       		.uleb128 0x19
 13461 03c2 49       		.uleb128 0x49
 13462 03c3 13       		.uleb128 0x13
 13463 03c4 20       		.uleb128 0x20
 13464 03c5 0B       		.uleb128 0xb
 13465 03c6 01       		.uleb128 0x1
 13466 03c7 13       		.uleb128 0x13
 13467 03c8 00       		.byte	0
 13468 03c9 00       		.byte	0
 13469 03ca 4C       		.uleb128 0x4c
 13470 03cb 05       		.uleb128 0x5
 13471 03cc 00       		.byte	0
 13472 03cd 03       		.uleb128 0x3
 13473 03ce 08       		.uleb128 0x8
 13474 03cf 3A       		.uleb128 0x3a
 13475 03d0 0B       		.uleb128 0xb
 13476 03d1 3B       		.uleb128 0x3b
 13477 03d2 05       		.uleb128 0x5
 13478 03d3 49       		.uleb128 0x49
 13479 03d4 13       		.uleb128 0x13
 13480 03d5 00       		.byte	0
 13481 03d6 00       		.byte	0
 13482 03d7 4D       		.uleb128 0x4d
 13483 03d8 34       		.uleb128 0x34
 13484 03d9 00       		.byte	0
 13485 03da 03       		.uleb128 0x3
 13486 03db 0E       		.uleb128 0xe
 13487 03dc 3A       		.uleb128 0x3a
 13488 03dd 0B       		.uleb128 0xb
 13489 03de 3B       		.uleb128 0x3b
 13490 03df 05       		.uleb128 0x5
 13491 03e0 49       		.uleb128 0x49
 13492 03e1 13       		.uleb128 0x13
ARM GAS  C:\cygwin64\tmp\ccxdpAIh.s 			page 240


 13493 03e2 02       		.uleb128 0x2
 13494 03e3 18       		.uleb128 0x18
 13495 03e4 00       		.byte	0
 13496 03e5 00       		.byte	0
 13497 03e6 4E       		.uleb128 0x4e
 13498 03e7 2E       		.uleb128 0x2e
 13499 03e8 01       		.byte	0x1
 13500 03e9 3F       		.uleb128 0x3f
 13501 03ea 19       		.uleb128 0x19
 13502 03eb 03       		.uleb128 0x3
 13503 03ec 0E       		.uleb128 0xe
 13504 03ed 3A       		.uleb128 0x3a
 13505 03ee 0B       		.uleb128 0xb
 13506 03ef 3B       		.uleb128 0x3b
 13507 03f0 0B       		.uleb128 0xb
 13508 03f1 27       		.uleb128 0x27
 13509 03f2 19       		.uleb128 0x19
 13510 03f3 49       		.uleb128 0x49
 13511 03f4 13       		.uleb128 0x13
 13512 03f5 11       		.uleb128 0x11
 13513 03f6 01       		.uleb128 0x1
 13514 03f7 12       		.uleb128 0x12
 13515 03f8 06       		.uleb128 0x6
 13516 03f9 40       		.uleb128 0x40
 13517 03fa 18       		.uleb128 0x18
 13518 03fb 9742     		.uleb128 0x2117
 13519 03fd 19       		.uleb128 0x19
 13520 03fe 01       		.uleb128 0x1
 13521 03ff 13       		.uleb128 0x13
 13522 0400 00       		.byte	0
 13523 0401 00       		.byte	0
 13524 0402 4F       		.uleb128 0x4f
 13525 0403 898201   		.uleb128 0x4109
 13526 0406 01       		.byte	0x1
 13527 0407 11       		.uleb128 0x11
 13528 0408 01       		.uleb128 0x1
 13529 0409 9542     		.uleb128 0x2115
 13530 040b 19       		.uleb128 0x19
 13531 040c 31       		.uleb128 0x31
 13532 040d 13       		.uleb128 0x13
 13533 040e 01       		.uleb128 0x1
 13534 040f 13       		.uleb128 0x13
 13535 0410 00       		.byte	0
 13536 0411 00       		.byte	0
 13537 0412 50       		.uleb128 0x50
 13538 0413 898201   		.uleb128 0x4109
 13539 0416 00       		.byte	0
 13540 0417 11       		.uleb128 0x11
 13541 0418 01       		.uleb128 0x1
 13542 0419 9542     		.uleb128 0x2115
 13543 041b 19       		.uleb128 0x19
 13544 041c 31       		.uleb128 0x31
 13545 041d 13       		.uleb128 0x13
 13546 041e 00       		.byte	0
 13547 041f 00       		.byte	0
 13548 0420 51       		.uleb128 0x51
 13549 0421 05       		.uleb128 0x5
ARM GAS  C:\cygwin64\tmp\ccxdpAIh.s 			page 241


 13550 0422 00       		.byte	0
 13551 0423 03       		.uleb128 0x3
 13552 0424 0E       		.uleb128 0xe
 13553 0425 3A       		.uleb128 0x3a
 13554 0426 0B       		.uleb128 0xb
 13555 0427 3B       		.uleb128 0x3b
 13556 0428 05       		.uleb128 0x5
 13557 0429 49       		.uleb128 0x49
 13558 042a 13       		.uleb128 0x13
 13559 042b 02       		.uleb128 0x2
 13560 042c 18       		.uleb128 0x18
 13561 042d 00       		.byte	0
 13562 042e 00       		.byte	0
 13563 042f 52       		.uleb128 0x52
 13564 0430 2E       		.uleb128 0x2e
 13565 0431 01       		.byte	0x1
 13566 0432 3F       		.uleb128 0x3f
 13567 0433 19       		.uleb128 0x19
 13568 0434 03       		.uleb128 0x3
 13569 0435 0E       		.uleb128 0xe
 13570 0436 3A       		.uleb128 0x3a
 13571 0437 0B       		.uleb128 0xb
 13572 0438 3B       		.uleb128 0x3b
 13573 0439 05       		.uleb128 0x5
 13574 043a 27       		.uleb128 0x27
 13575 043b 19       		.uleb128 0x19
 13576 043c 49       		.uleb128 0x49
 13577 043d 13       		.uleb128 0x13
 13578 043e 01       		.uleb128 0x1
 13579 043f 13       		.uleb128 0x13
 13580 0440 00       		.byte	0
 13581 0441 00       		.byte	0
 13582 0442 53       		.uleb128 0x53
 13583 0443 898201   		.uleb128 0x4109
 13584 0446 01       		.byte	0x1
 13585 0447 11       		.uleb128 0x11
 13586 0448 01       		.uleb128 0x1
 13587 0449 9542     		.uleb128 0x2115
 13588 044b 19       		.uleb128 0x19
 13589 044c 31       		.uleb128 0x31
 13590 044d 13       		.uleb128 0x13
 13591 044e 00       		.byte	0
 13592 044f 00       		.byte	0
 13593 0450 54       		.uleb128 0x54
 13594 0451 0B       		.uleb128 0xb
 13595 0452 01       		.byte	0x1
 13596 0453 55       		.uleb128 0x55
 13597 0454 17       		.uleb128 0x17
 13598 0455 01       		.uleb128 0x1
 13599 0456 13       		.uleb128 0x13
 13600 0457 00       		.byte	0
 13601 0458 00       		.byte	0
 13602 0459 55       		.uleb128 0x55
 13603 045a 26       		.uleb128 0x26
 13604 045b 00       		.byte	0
 13605 045c 00       		.byte	0
 13606 045d 00       		.byte	0
ARM GAS  C:\cygwin64\tmp\ccxdpAIh.s 			page 242


 13607 045e 56       		.uleb128 0x56
 13608 045f 05       		.uleb128 0x5
 13609 0460 00       		.byte	0
 13610 0461 03       		.uleb128 0x3
 13611 0462 08       		.uleb128 0x8
 13612 0463 3A       		.uleb128 0x3a
 13613 0464 0B       		.uleb128 0xb
 13614 0465 3B       		.uleb128 0x3b
 13615 0466 0B       		.uleb128 0xb
 13616 0467 49       		.uleb128 0x49
 13617 0468 13       		.uleb128 0x13
 13618 0469 02       		.uleb128 0x2
 13619 046a 17       		.uleb128 0x17
 13620 046b 00       		.byte	0
 13621 046c 00       		.byte	0
 13622 046d 57       		.uleb128 0x57
 13623 046e 05       		.uleb128 0x5
 13624 046f 00       		.byte	0
 13625 0470 03       		.uleb128 0x3
 13626 0471 0E       		.uleb128 0xe
 13627 0472 3A       		.uleb128 0x3a
 13628 0473 0B       		.uleb128 0xb
 13629 0474 3B       		.uleb128 0x3b
 13630 0475 0B       		.uleb128 0xb
 13631 0476 49       		.uleb128 0x49
 13632 0477 13       		.uleb128 0x13
 13633 0478 02       		.uleb128 0x2
 13634 0479 17       		.uleb128 0x17
 13635 047a 00       		.byte	0
 13636 047b 00       		.byte	0
 13637 047c 58       		.uleb128 0x58
 13638 047d 34       		.uleb128 0x34
 13639 047e 00       		.byte	0
 13640 047f 03       		.uleb128 0x3
 13641 0480 08       		.uleb128 0x8
 13642 0481 3A       		.uleb128 0x3a
 13643 0482 0B       		.uleb128 0xb
 13644 0483 3B       		.uleb128 0x3b
 13645 0484 0B       		.uleb128 0xb
 13646 0485 49       		.uleb128 0x49
 13647 0486 13       		.uleb128 0x13
 13648 0487 02       		.uleb128 0x2
 13649 0488 17       		.uleb128 0x17
 13650 0489 00       		.byte	0
 13651 048a 00       		.byte	0
 13652 048b 59       		.uleb128 0x59
 13653 048c 898201   		.uleb128 0x4109
 13654 048f 01       		.byte	0x1
 13655 0490 11       		.uleb128 0x11
 13656 0491 01       		.uleb128 0x1
 13657 0492 00       		.byte	0
 13658 0493 00       		.byte	0
 13659 0494 5A       		.uleb128 0x5a
 13660 0495 2E       		.uleb128 0x2e
 13661 0496 01       		.byte	0x1
 13662 0497 3F       		.uleb128 0x3f
 13663 0498 19       		.uleb128 0x19
ARM GAS  C:\cygwin64\tmp\ccxdpAIh.s 			page 243


 13664 0499 03       		.uleb128 0x3
 13665 049a 0E       		.uleb128 0xe
 13666 049b 3A       		.uleb128 0x3a
 13667 049c 0B       		.uleb128 0xb
 13668 049d 3B       		.uleb128 0x3b
 13669 049e 0B       		.uleb128 0xb
 13670 049f 27       		.uleb128 0x27
 13671 04a0 19       		.uleb128 0x19
 13672 04a1 49       		.uleb128 0x49
 13673 04a2 13       		.uleb128 0x13
 13674 04a3 20       		.uleb128 0x20
 13675 04a4 0B       		.uleb128 0xb
 13676 04a5 01       		.uleb128 0x1
 13677 04a6 13       		.uleb128 0x13
 13678 04a7 00       		.byte	0
 13679 04a8 00       		.byte	0
 13680 04a9 5B       		.uleb128 0x5b
 13681 04aa 05       		.uleb128 0x5
 13682 04ab 00       		.byte	0
 13683 04ac 03       		.uleb128 0x3
 13684 04ad 0E       		.uleb128 0xe
 13685 04ae 3A       		.uleb128 0x3a
 13686 04af 0B       		.uleb128 0xb
 13687 04b0 3B       		.uleb128 0x3b
 13688 04b1 0B       		.uleb128 0xb
 13689 04b2 49       		.uleb128 0x49
 13690 04b3 13       		.uleb128 0x13
 13691 04b4 00       		.byte	0
 13692 04b5 00       		.byte	0
 13693 04b6 5C       		.uleb128 0x5c
 13694 04b7 2E       		.uleb128 0x2e
 13695 04b8 01       		.byte	0x1
 13696 04b9 31       		.uleb128 0x31
 13697 04ba 13       		.uleb128 0x13
 13698 04bb 11       		.uleb128 0x11
 13699 04bc 01       		.uleb128 0x1
 13700 04bd 12       		.uleb128 0x12
 13701 04be 06       		.uleb128 0x6
 13702 04bf 40       		.uleb128 0x40
 13703 04c0 18       		.uleb128 0x18
 13704 04c1 9742     		.uleb128 0x2117
 13705 04c3 19       		.uleb128 0x19
 13706 04c4 01       		.uleb128 0x1
 13707 04c5 13       		.uleb128 0x13
 13708 04c6 00       		.byte	0
 13709 04c7 00       		.byte	0
 13710 04c8 5D       		.uleb128 0x5d
 13711 04c9 34       		.uleb128 0x34
 13712 04ca 00       		.byte	0
 13713 04cb 31       		.uleb128 0x31
 13714 04cc 13       		.uleb128 0x13
 13715 04cd 00       		.byte	0
 13716 04ce 00       		.byte	0
 13717 04cf 5E       		.uleb128 0x5e
 13718 04d0 0B       		.uleb128 0xb
 13719 04d1 01       		.byte	0x1
 13720 04d2 11       		.uleb128 0x11
ARM GAS  C:\cygwin64\tmp\ccxdpAIh.s 			page 244


 13721 04d3 01       		.uleb128 0x1
 13722 04d4 12       		.uleb128 0x12
 13723 04d5 06       		.uleb128 0x6
 13724 04d6 01       		.uleb128 0x1
 13725 04d7 13       		.uleb128 0x13
 13726 04d8 00       		.byte	0
 13727 04d9 00       		.byte	0
 13728 04da 5F       		.uleb128 0x5f
 13729 04db 0B       		.uleb128 0xb
 13730 04dc 01       		.byte	0x1
 13731 04dd 11       		.uleb128 0x11
 13732 04de 01       		.uleb128 0x1
 13733 04df 12       		.uleb128 0x12
 13734 04e0 06       		.uleb128 0x6
 13735 04e1 00       		.byte	0
 13736 04e2 00       		.byte	0
 13737 04e3 60       		.uleb128 0x60
 13738 04e4 05       		.uleb128 0x5
 13739 04e5 00       		.byte	0
 13740 04e6 31       		.uleb128 0x31
 13741 04e7 13       		.uleb128 0x13
 13742 04e8 00       		.byte	0
 13743 04e9 00       		.byte	0
 13744 04ea 61       		.uleb128 0x61
 13745 04eb 2E       		.uleb128 0x2e
 13746 04ec 00       		.byte	0
 13747 04ed 3F       		.uleb128 0x3f
 13748 04ee 19       		.uleb128 0x19
 13749 04ef 3C       		.uleb128 0x3c
 13750 04f0 19       		.uleb128 0x19
 13751 04f1 6E       		.uleb128 0x6e
 13752 04f2 0E       		.uleb128 0xe
 13753 04f3 03       		.uleb128 0x3
 13754 04f4 0E       		.uleb128 0xe
 13755 04f5 3A       		.uleb128 0x3a
 13756 04f6 0B       		.uleb128 0xb
 13757 04f7 3B       		.uleb128 0x3b
 13758 04f8 0B       		.uleb128 0xb
 13759 04f9 00       		.byte	0
 13760 04fa 00       		.byte	0
 13761 04fb 62       		.uleb128 0x62
 13762 04fc 2E       		.uleb128 0x2e
 13763 04fd 00       		.byte	0
 13764 04fe 3F       		.uleb128 0x3f
 13765 04ff 19       		.uleb128 0x19
 13766 0500 3C       		.uleb128 0x3c
 13767 0501 19       		.uleb128 0x19
 13768 0502 6E       		.uleb128 0x6e
 13769 0503 0E       		.uleb128 0xe
 13770 0504 03       		.uleb128 0x3
 13771 0505 0E       		.uleb128 0xe
 13772 0506 3A       		.uleb128 0x3a
 13773 0507 0B       		.uleb128 0xb
 13774 0508 3B       		.uleb128 0x3b
 13775 0509 0B       		.uleb128 0xb
 13776 050a 6E       		.uleb128 0x6e
 13777 050b 0E       		.uleb128 0xe
ARM GAS  C:\cygwin64\tmp\ccxdpAIh.s 			page 245


 13778 050c 00       		.byte	0
 13779 050d 00       		.byte	0
 13780 050e 63       		.uleb128 0x63
 13781 050f 2E       		.uleb128 0x2e
 13782 0510 00       		.byte	0
 13783 0511 3F       		.uleb128 0x3f
 13784 0512 19       		.uleb128 0x19
 13785 0513 3C       		.uleb128 0x3c
 13786 0514 19       		.uleb128 0x19
 13787 0515 6E       		.uleb128 0x6e
 13788 0516 0E       		.uleb128 0xe
 13789 0517 03       		.uleb128 0x3
 13790 0518 0E       		.uleb128 0xe
 13791 0519 3A       		.uleb128 0x3a
 13792 051a 0B       		.uleb128 0xb
 13793 051b 3B       		.uleb128 0x3b
 13794 051c 05       		.uleb128 0x5
 13795 051d 00       		.byte	0
 13796 051e 00       		.byte	0
 13797 051f 00       		.byte	0
 13798              		.section	.debug_loc,"",%progbits
 13799              	.Ldebug_loc0:
 13800              	.LLST203:
 13801 0000 00000000 		.4byte	.LVL526
 13802 0004 0D000000 		.4byte	.LVL527-1
 13803 0008 0100     		.2byte	0x1
 13804 000a 50       		.byte	0x50
 13805 000b 0D000000 		.4byte	.LVL527-1
 13806 000f 40000000 		.4byte	.LFE316
 13807 0013 0100     		.2byte	0x1
 13808 0015 55       		.byte	0x55
 13809 0016 00000000 		.4byte	0
 13810 001a 00000000 		.4byte	0
 13811              	.LLST204:
 13812 001e 0E000000 		.4byte	.LVL527
 13813 0022 10000000 		.4byte	.LVL528
 13814 0026 0100     		.2byte	0x1
 13815 0028 50       		.byte	0x50
 13816 0029 16000000 		.4byte	.LVL529
 13817 002d 18000000 		.4byte	.LVL530
 13818 0031 0100     		.2byte	0x1
 13819 0033 50       		.byte	0x50
 13820 0034 00000000 		.4byte	0
 13821 0038 00000000 		.4byte	0
 13822              	.LLST205:
 13823 003c 1C000000 		.4byte	.LVL531
 13824 0040 23000000 		.4byte	.LVL532-1
 13825 0044 0100     		.2byte	0x1
 13826 0046 50       		.byte	0x50
 13827 0047 00000000 		.4byte	0
 13828 004b 00000000 		.4byte	0
 13829              	.LLST200:
 13830 004f 00000000 		.4byte	.LVL517
 13831 0053 10000000 		.4byte	.LVL518
 13832 0057 0100     		.2byte	0x1
 13833 0059 50       		.byte	0x50
 13834 005a 10000000 		.4byte	.LVL518
ARM GAS  C:\cygwin64\tmp\ccxdpAIh.s 			page 246


 13835 005e 36000000 		.4byte	.LVL524
 13836 0062 0100     		.2byte	0x1
 13837 0064 56       		.byte	0x56
 13838 0065 36000000 		.4byte	.LVL524
 13839 0069 3A000000 		.4byte	.LVL525
 13840 006d 0400     		.2byte	0x4
 13841 006f F3       		.byte	0xf3
 13842 0070 01       		.uleb128 0x1
 13843 0071 50       		.byte	0x50
 13844 0072 9F       		.byte	0x9f
 13845 0073 3A000000 		.4byte	.LVL525
 13846 0077 40000000 		.4byte	.LFE315
 13847 007b 0100     		.2byte	0x1
 13848 007d 56       		.byte	0x56
 13849 007e 00000000 		.4byte	0
 13850 0082 00000000 		.4byte	0
 13851              	.LLST201:
 13852 0086 16000000 		.4byte	.LVL520
 13853 008a 36000000 		.4byte	.LVL524
 13854 008e 0100     		.2byte	0x1
 13855 0090 54       		.byte	0x54
 13856 0091 3A000000 		.4byte	.LVL525
 13857 0095 40000000 		.4byte	.LFE315
 13858 0099 0100     		.2byte	0x1
 13859 009b 54       		.byte	0x54
 13860 009c 00000000 		.4byte	0
 13861 00a0 00000000 		.4byte	0
 13862              	.LLST202:
 13863 00a4 1C000000 		.4byte	.LVL521
 13864 00a8 24000000 		.4byte	.LVL522
 13865 00ac 0100     		.2byte	0x1
 13866 00ae 55       		.byte	0x55
 13867 00af 00000000 		.4byte	0
 13868 00b3 00000000 		.4byte	0
 13869              	.LLST178:
 13870 00b7 00000000 		.4byte	.LVL438
 13871 00bb 06000000 		.4byte	.LVL439
 13872 00bf 0200     		.2byte	0x2
 13873 00c1 30       		.byte	0x30
 13874 00c2 9F       		.byte	0x9f
 13875 00c3 08000000 		.4byte	.LVL440
 13876 00c7 30000000 		.4byte	.LVL446
 13877 00cb 0100     		.2byte	0x1
 13878 00cd 54       		.byte	0x54
 13879 00ce 34000000 		.4byte	.LVL447
 13880 00d2 4E000000 		.4byte	.LVL453
 13881 00d6 0100     		.2byte	0x1
 13882 00d8 54       		.byte	0x54
 13883 00d9 00000000 		.4byte	0
 13884 00dd 00000000 		.4byte	0
 13885              	.LLST179:
 13886 00e1 24000000 		.4byte	.LVL443
 13887 00e5 28000000 		.4byte	.LVL444
 13888 00e9 0100     		.2byte	0x1
 13889 00eb 50       		.byte	0x50
 13890 00ec 28000000 		.4byte	.LVL444
 13891 00f0 2A000000 		.4byte	.LVL445
ARM GAS  C:\cygwin64\tmp\ccxdpAIh.s 			page 247


 13892 00f4 0100     		.2byte	0x1
 13893 00f6 55       		.byte	0x55
 13894 00f7 34000000 		.4byte	.LVL447
 13895 00fb 3A000000 		.4byte	.LVL448
 13896 00ff 0100     		.2byte	0x1
 13897 0101 50       		.byte	0x50
 13898 0102 3A000000 		.4byte	.LVL448
 13899 0106 4E000000 		.4byte	.LVL453
 13900 010a 0100     		.2byte	0x1
 13901 010c 55       		.byte	0x55
 13902 010d 00000000 		.4byte	0
 13903 0111 00000000 		.4byte	0
 13904              	.LLST180:
 13905 0115 3E000000 		.4byte	.LVL449
 13906 0119 42000000 		.4byte	.LVL450
 13907 011d 0100     		.2byte	0x1
 13908 011f 50       		.byte	0x50
 13909 0120 48000000 		.4byte	.LVL452
 13910 0124 4E000000 		.4byte	.LVL453
 13911 0128 0100     		.2byte	0x1
 13912 012a 50       		.byte	0x50
 13913 012b 00000000 		.4byte	0
 13914 012f 00000000 		.4byte	0
 13915              	.LLST181:
 13916 0133 00000000 		.4byte	.LVL438
 13917 0137 06000000 		.4byte	.LVL439
 13918 013b 0200     		.2byte	0x2
 13919 013d 30       		.byte	0x30
 13920 013e 9F       		.byte	0x9f
 13921 013f 10000000 		.4byte	.LVL441
 13922 0143 14000000 		.4byte	.LVL442
 13923 0147 0100     		.2byte	0x1
 13924 0149 54       		.byte	0x54
 13925 014a 00000000 		.4byte	0
 13926 014e 00000000 		.4byte	0
 13927              	.LLST168:
 13928 0152 00000000 		.4byte	.LVL412
 13929 0156 0B000000 		.4byte	.LVL414-1
 13930 015a 0100     		.2byte	0x1
 13931 015c 50       		.byte	0x50
 13932 015d 0B000000 		.4byte	.LVL414-1
 13933 0161 36000000 		.4byte	.LVL418
 13934 0165 0100     		.2byte	0x1
 13935 0167 54       		.byte	0x54
 13936 0168 36000000 		.4byte	.LVL418
 13937 016c 3A000000 		.4byte	.LVL419
 13938 0170 0400     		.2byte	0x4
 13939 0172 F3       		.byte	0xf3
 13940 0173 01       		.uleb128 0x1
 13941 0174 50       		.byte	0x50
 13942 0175 9F       		.byte	0x9f
 13943 0176 3A000000 		.4byte	.LVL419
 13944 017a 40000000 		.4byte	.LVL420
 13945 017e 0100     		.2byte	0x1
 13946 0180 50       		.byte	0x50
 13947 0181 40000000 		.4byte	.LVL420
 13948 0185 44000000 		.4byte	.LVL421
ARM GAS  C:\cygwin64\tmp\ccxdpAIh.s 			page 248


 13949 0189 0100     		.2byte	0x1
 13950 018b 54       		.byte	0x54
 13951 018c 44000000 		.4byte	.LVL421
 13952 0190 50000000 		.4byte	.LFE312
 13953 0194 0400     		.2byte	0x4
 13954 0196 F3       		.byte	0xf3
 13955 0197 01       		.uleb128 0x1
 13956 0198 50       		.byte	0x50
 13957 0199 9F       		.byte	0x9f
 13958 019a 00000000 		.4byte	0
 13959 019e 00000000 		.4byte	0
 13960              	.LLST169:
 13961 01a2 0C000000 		.4byte	.LVL414
 13962 01a6 12000000 		.4byte	.LVL415
 13963 01aa 0100     		.2byte	0x1
 13964 01ac 50       		.byte	0x50
 13965 01ad 12000000 		.4byte	.LVL415
 13966 01b1 36000000 		.4byte	.LVL418
 13967 01b5 0100     		.2byte	0x1
 13968 01b7 55       		.byte	0x55
 13969 01b8 00000000 		.4byte	0
 13970 01bc 00000000 		.4byte	0
 13971              	.LLST170:
 13972 01c0 12000000 		.4byte	.LVL415
 13973 01c4 17000000 		.4byte	.LVL416-1
 13974 01c8 0100     		.2byte	0x1
 13975 01ca 50       		.byte	0x50
 13976 01cb 00000000 		.4byte	0
 13977 01cf 00000000 		.4byte	0
 13978              	.LLST171:
 13979 01d3 00000000 		.4byte	.LVL412
 13980 01d7 08000000 		.4byte	.LVL413
 13981 01db 0100     		.2byte	0x1
 13982 01dd 50       		.byte	0x50
 13983 01de 00000000 		.4byte	0
 13984 01e2 00000000 		.4byte	0
 13985              	.LLST101:
 13986 01e6 00000000 		.4byte	.LVL286
 13987 01ea 09000000 		.4byte	.LVL288-1
 13988 01ee 0100     		.2byte	0x1
 13989 01f0 50       		.byte	0x50
 13990 01f1 09000000 		.4byte	.LVL288-1
 13991 01f5 1C000000 		.4byte	.LVL292
 13992 01f9 0400     		.2byte	0x4
 13993 01fb F3       		.byte	0xf3
 13994 01fc 01       		.uleb128 0x1
 13995 01fd 50       		.byte	0x50
 13996 01fe 9F       		.byte	0x9f
 13997 01ff 1C000000 		.4byte	.LVL292
 13998 0203 24000000 		.4byte	.LVL293
 13999 0207 0100     		.2byte	0x1
 14000 0209 50       		.byte	0x50
 14001 020a 24000000 		.4byte	.LVL293
 14002 020e 2C000000 		.4byte	.LFE311
 14003 0212 0400     		.2byte	0x4
 14004 0214 F3       		.byte	0xf3
 14005 0215 01       		.uleb128 0x1
ARM GAS  C:\cygwin64\tmp\ccxdpAIh.s 			page 249


 14006 0216 50       		.byte	0x50
 14007 0217 9F       		.byte	0x9f
 14008 0218 00000000 		.4byte	0
 14009 021c 00000000 		.4byte	0
 14010              	.LLST102:
 14011 0220 0A000000 		.4byte	.LVL288
 14012 0224 0C000000 		.4byte	.LVL289
 14013 0228 0100     		.2byte	0x1
 14014 022a 50       		.byte	0x50
 14015 022b 0E000000 		.4byte	.LVL290
 14016 022f 10000000 		.4byte	.LVL291
 14017 0233 0100     		.2byte	0x1
 14018 0235 50       		.byte	0x50
 14019 0236 00000000 		.4byte	0
 14020 023a 00000000 		.4byte	0
 14021              	.LLST103:
 14022 023e 10000000 		.4byte	.LVL291
 14023 0242 1C000000 		.4byte	.LVL292
 14024 0246 0100     		.2byte	0x1
 14025 0248 50       		.byte	0x50
 14026 0249 00000000 		.4byte	0
 14027 024d 00000000 		.4byte	0
 14028              	.LLST104:
 14029 0251 00000000 		.4byte	.LVL286
 14030 0255 06000000 		.4byte	.LVL287
 14031 0259 0100     		.2byte	0x1
 14032 025b 50       		.byte	0x50
 14033 025c 00000000 		.4byte	0
 14034 0260 00000000 		.4byte	0
 14035              	.LLST94:
 14036 0264 00000000 		.4byte	.LVL274
 14037 0268 0C000000 		.4byte	.LVL275
 14038 026c 0100     		.2byte	0x1
 14039 026e 50       		.byte	0x50
 14040 026f 0C000000 		.4byte	.LVL275
 14041 0273 11000000 		.4byte	.LVL276-1
 14042 0277 0200     		.2byte	0x2
 14043 0279 70       		.byte	0x70
 14044 027a 00       		.sleb128 0
 14045 027b 00000000 		.4byte	0
 14046 027f 00000000 		.4byte	0
 14047              	.LLST95:
 14048 0283 00000000 		.4byte	.LVL274
 14049 0287 11000000 		.4byte	.LVL276-1
 14050 028b 0100     		.2byte	0x1
 14051 028d 51       		.byte	0x51
 14052 028e 11000000 		.4byte	.LVL276-1
 14053 0292 46000000 		.4byte	.LVL277
 14054 0296 0100     		.2byte	0x1
 14055 0298 56       		.byte	0x56
 14056 0299 46000000 		.4byte	.LVL277
 14057 029d 50000000 		.4byte	.LFE310
 14058 02a1 0400     		.2byte	0x4
 14059 02a3 F3       		.byte	0xf3
 14060 02a4 01       		.uleb128 0x1
 14061 02a5 51       		.byte	0x51
 14062 02a6 9F       		.byte	0x9f
ARM GAS  C:\cygwin64\tmp\ccxdpAIh.s 			page 250


 14063 02a7 00000000 		.4byte	0
 14064 02ab 00000000 		.4byte	0
 14065              	.LLST96:
 14066 02af 00000000 		.4byte	.LVL274
 14067 02b3 11000000 		.4byte	.LVL276-1
 14068 02b7 0100     		.2byte	0x1
 14069 02b9 52       		.byte	0x52
 14070 02ba 11000000 		.4byte	.LVL276-1
 14071 02be 46000000 		.4byte	.LVL277
 14072 02c2 0100     		.2byte	0x1
 14073 02c4 55       		.byte	0x55
 14074 02c5 46000000 		.4byte	.LVL277
 14075 02c9 50000000 		.4byte	.LFE310
 14076 02cd 0400     		.2byte	0x4
 14077 02cf F3       		.byte	0xf3
 14078 02d0 01       		.uleb128 0x1
 14079 02d1 52       		.byte	0x52
 14080 02d2 9F       		.byte	0x9f
 14081 02d3 00000000 		.4byte	0
 14082 02d7 00000000 		.4byte	0
 14083              	.LLST82:
 14084 02db 00000000 		.4byte	.LVL241
 14085 02df 1C000000 		.4byte	.LVL243
 14086 02e3 0100     		.2byte	0x1
 14087 02e5 50       		.byte	0x50
 14088 02e6 1C000000 		.4byte	.LVL243
 14089 02ea E0000000 		.4byte	.LFE309
 14090 02ee 0400     		.2byte	0x4
 14091 02f0 F3       		.byte	0xf3
 14092 02f1 01       		.uleb128 0x1
 14093 02f2 50       		.byte	0x50
 14094 02f3 9F       		.byte	0x9f
 14095 02f4 00000000 		.4byte	0
 14096 02f8 00000000 		.4byte	0
 14097              	.LLST83:
 14098 02fc 00000000 		.4byte	.LVL241
 14099 0300 1C000000 		.4byte	.LVL243
 14100 0304 0100     		.2byte	0x1
 14101 0306 51       		.byte	0x51
 14102 0307 1C000000 		.4byte	.LVL243
 14103 030b E0000000 		.4byte	.LFE309
 14104 030f 0400     		.2byte	0x4
 14105 0311 F3       		.byte	0xf3
 14106 0312 01       		.uleb128 0x1
 14107 0313 51       		.byte	0x51
 14108 0314 9F       		.byte	0x9f
 14109 0315 00000000 		.4byte	0
 14110 0319 00000000 		.4byte	0
 14111              	.LLST84:
 14112 031d 08000000 		.4byte	.LVL242
 14113 0321 74000000 		.4byte	.LVL250
 14114 0325 0600     		.2byte	0x6
 14115 0327 F2       		.byte	0xf2
 14116 0328 4A1E0000 		.4byte	.Ldebug_info0+7754
 14117 032c 00       		.sleb128 0
 14118 032d 94000000 		.4byte	.LVL251
 14119 0331 E0000000 		.4byte	.LFE309
ARM GAS  C:\cygwin64\tmp\ccxdpAIh.s 			page 251


 14120 0335 0600     		.2byte	0x6
 14121 0337 F2       		.byte	0xf2
 14122 0338 4A1E0000 		.4byte	.Ldebug_info0+7754
 14123 033c 00       		.sleb128 0
 14124 033d 00000000 		.4byte	0
 14125 0341 00000000 		.4byte	0
 14126              	.LLST85:
 14127 0345 08000000 		.4byte	.LVL242
 14128 0349 5E000000 		.4byte	.LVL247
 14129 034d 0200     		.2byte	0x2
 14130 034f 30       		.byte	0x30
 14131 0350 9F       		.byte	0x9f
 14132 0351 5E000000 		.4byte	.LVL247
 14133 0355 74000000 		.4byte	.LVL250
 14134 0359 0100     		.2byte	0x1
 14135 035b 53       		.byte	0x53
 14136 035c 94000000 		.4byte	.LVL251
 14137 0360 C2000000 		.4byte	.LVL253
 14138 0364 0100     		.2byte	0x1
 14139 0366 53       		.byte	0x53
 14140 0367 C2000000 		.4byte	.LVL253
 14141 036b C6000000 		.4byte	.LVL254
 14142 036f 0500     		.2byte	0x5
 14143 0371 73       		.byte	0x73
 14144 0372 80E07A   		.sleb128 -86016
 14145 0375 9F       		.byte	0x9f
 14146 0376 C6000000 		.4byte	.LVL254
 14147 037a E0000000 		.4byte	.LFE309
 14148 037e 0100     		.2byte	0x1
 14149 0380 53       		.byte	0x53
 14150 0381 00000000 		.4byte	0
 14151 0385 00000000 		.4byte	0
 14152              	.LLST86:
 14153 0389 32000000 		.4byte	.LVL245
 14154 038d 4A000000 		.4byte	.LVL246
 14155 0391 0100     		.2byte	0x1
 14156 0393 52       		.byte	0x52
 14157 0394 4A000000 		.4byte	.LVL246
 14158 0398 6A000000 		.4byte	.LVL248
 14159 039c 0400     		.2byte	0x4
 14160 039e 76       		.byte	0x76
 14161 039f BB0F     		.sleb128 1979
 14162 03a1 9F       		.byte	0x9f
 14163 03a2 6A000000 		.4byte	.LVL248
 14164 03a6 70000000 		.4byte	.LVL249
 14165 03aa 0300     		.2byte	0x3
 14166 03ac 76       		.byte	0x76
 14167 03ad 7F       		.sleb128 -1
 14168 03ae 9F       		.byte	0x9f
 14169 03af 00000000 		.4byte	0
 14170 03b3 00000000 		.4byte	0
 14171              	.LLST87:
 14172 03b7 6A000000 		.4byte	.LVL248
 14173 03bb 74000000 		.4byte	.LVL250
 14174 03bf 0100     		.2byte	0x1
 14175 03c1 56       		.byte	0x56
 14176 03c2 94000000 		.4byte	.LVL251
ARM GAS  C:\cygwin64\tmp\ccxdpAIh.s 			page 252


 14177 03c6 E0000000 		.4byte	.LFE309
 14178 03ca 0100     		.2byte	0x1
 14179 03cc 56       		.byte	0x56
 14180 03cd 00000000 		.4byte	0
 14181 03d1 00000000 		.4byte	0
 14182              	.LLST88:
 14183 03d5 6A000000 		.4byte	.LVL248
 14184 03d9 70000000 		.4byte	.LVL249
 14185 03dd 0200     		.2byte	0x2
 14186 03df 30       		.byte	0x30
 14187 03e0 9F       		.byte	0x9f
 14188 03e1 70000000 		.4byte	.LVL249
 14189 03e5 74000000 		.4byte	.LVL250
 14190 03e9 0100     		.2byte	0x1
 14191 03eb 52       		.byte	0x52
 14192 03ec 94000000 		.4byte	.LVL251
 14193 03f0 CA000000 		.4byte	.LVL256
 14194 03f4 0100     		.2byte	0x1
 14195 03f6 52       		.byte	0x52
 14196 03f7 CA000000 		.4byte	.LVL256
 14197 03fb D0000000 		.4byte	.LVL258
 14198 03ff 0200     		.2byte	0x2
 14199 0401 30       		.byte	0x30
 14200 0402 9F       		.byte	0x9f
 14201 0403 D0000000 		.4byte	.LVL258
 14202 0407 E0000000 		.4byte	.LFE309
 14203 040b 0100     		.2byte	0x1
 14204 040d 52       		.byte	0x52
 14205 040e 00000000 		.4byte	0
 14206 0412 00000000 		.4byte	0
 14207              	.LLST89:
 14208 0416 6A000000 		.4byte	.LVL248
 14209 041a 70000000 		.4byte	.LVL249
 14210 041e 0200     		.2byte	0x2
 14211 0420 30       		.byte	0x30
 14212 0421 9F       		.byte	0x9f
 14213 0422 70000000 		.4byte	.LVL249
 14214 0426 74000000 		.4byte	.LVL250
 14215 042a 0100     		.2byte	0x1
 14216 042c 55       		.byte	0x55
 14217 042d 94000000 		.4byte	.LVL251
 14218 0431 E0000000 		.4byte	.LFE309
 14219 0435 0100     		.2byte	0x1
 14220 0437 55       		.byte	0x55
 14221 0438 00000000 		.4byte	0
 14222 043c 00000000 		.4byte	0
 14223              	.LLST80:
 14224 0440 00000000 		.4byte	.LVL234
 14225 0444 0E000000 		.4byte	.LVL235
 14226 0448 0100     		.2byte	0x1
 14227 044a 50       		.byte	0x50
 14228 044b 0E000000 		.4byte	.LVL235
 14229 044f 10000000 		.4byte	.LVL236
 14230 0453 0400     		.2byte	0x4
 14231 0455 F3       		.byte	0xf3
 14232 0456 01       		.uleb128 0x1
 14233 0457 50       		.byte	0x50
ARM GAS  C:\cygwin64\tmp\ccxdpAIh.s 			page 253


 14234 0458 9F       		.byte	0x9f
 14235 0459 10000000 		.4byte	.LVL236
 14236 045d 30000000 		.4byte	.LFE307
 14237 0461 0100     		.2byte	0x1
 14238 0463 50       		.byte	0x50
 14239 0464 00000000 		.4byte	0
 14240 0468 00000000 		.4byte	0
 14241              	.LLST81:
 14242 046c 18000000 		.4byte	.LVL238
 14243 0470 1C000000 		.4byte	.LVL239
 14244 0474 0100     		.2byte	0x1
 14245 0476 52       		.byte	0x52
 14246 0477 1C000000 		.4byte	.LVL239
 14247 047b 22000000 		.4byte	.LVL240
 14248 047f 0700     		.2byte	0x7
 14249 0481 73       		.byte	0x73
 14250 0482 00       		.sleb128 0
 14251 0483 32       		.byte	0x32
 14252 0484 24       		.byte	0x24
 14253 0485 71       		.byte	0x71
 14254 0486 00       		.sleb128 0
 14255 0487 22       		.byte	0x22
 14256 0488 22000000 		.4byte	.LVL240
 14257 048c 30000000 		.4byte	.LFE307
 14258 0490 0700     		.2byte	0x7
 14259 0492 73       		.byte	0x73
 14260 0493 7F       		.sleb128 -1
 14261 0494 32       		.byte	0x32
 14262 0495 24       		.byte	0x24
 14263 0496 71       		.byte	0x71
 14264 0497 00       		.sleb128 0
 14265 0498 22       		.byte	0x22
 14266 0499 00000000 		.4byte	0
 14267 049d 00000000 		.4byte	0
 14268              	.LLST3:
 14269 04a1 00000000 		.4byte	.LVL16
 14270 04a5 12000000 		.4byte	.LVL17
 14271 04a9 0100     		.2byte	0x1
 14272 04ab 50       		.byte	0x50
 14273 04ac 12000000 		.4byte	.LVL17
 14274 04b0 16000000 		.4byte	.LVL18
 14275 04b4 0200     		.2byte	0x2
 14276 04b6 91       		.byte	0x91
 14277 04b7 67       		.sleb128 -25
 14278 04b8 1E000000 		.4byte	.LVL19
 14279 04bc 20000000 		.4byte	.LVL20
 14280 04c0 0100     		.2byte	0x1
 14281 04c2 50       		.byte	0x50
 14282 04c3 20000000 		.4byte	.LVL20
 14283 04c7 2C000000 		.4byte	.LVL21
 14284 04cb 0200     		.2byte	0x2
 14285 04cd 91       		.byte	0x91
 14286 04ce 67       		.sleb128 -25
 14287 04cf 2C000000 		.4byte	.LVL21
 14288 04d3 2F000000 		.4byte	.LVL22-1
 14289 04d7 0200     		.2byte	0x2
 14290 04d9 71       		.byte	0x71
ARM GAS  C:\cygwin64\tmp\ccxdpAIh.s 			page 254


 14291 04da 00       		.sleb128 0
 14292 04db 00000000 		.4byte	0
 14293 04df 00000000 		.4byte	0
 14294              	.LLST4:
 14295 04e3 00000000 		.4byte	.LVL16
 14296 04e7 16000000 		.4byte	.LVL18
 14297 04eb 0100     		.2byte	0x1
 14298 04ed 51       		.byte	0x51
 14299 04ee 16000000 		.4byte	.LVL18
 14300 04f2 1E000000 		.4byte	.LVL19
 14301 04f6 0100     		.2byte	0x1
 14302 04f8 55       		.byte	0x55
 14303 04f9 1E000000 		.4byte	.LVL19
 14304 04fd 2C000000 		.4byte	.LVL21
 14305 0501 0100     		.2byte	0x1
 14306 0503 51       		.byte	0x51
 14307 0504 2C000000 		.4byte	.LVL21
 14308 0508 60000000 		.4byte	.LFE305
 14309 050c 0100     		.2byte	0x1
 14310 050e 55       		.byte	0x55
 14311 050f 00000000 		.4byte	0
 14312 0513 00000000 		.4byte	0
 14313              	.LLST5:
 14314 0517 30000000 		.4byte	.LVL22
 14315 051b 54000000 		.4byte	.LVL27
 14316 051f 0600     		.2byte	0x6
 14317 0521 70       		.byte	0x70
 14318 0522 00       		.sleb128 0
 14319 0523 08       		.byte	0x8
 14320 0524 FF       		.byte	0xff
 14321 0525 1A       		.byte	0x1a
 14322 0526 9F       		.byte	0x9f
 14323 0527 00000000 		.4byte	0
 14324 052b 00000000 		.4byte	0
 14325              	.LLST6:
 14326 052f 20000000 		.4byte	.LVL20
 14327 0533 2F000000 		.4byte	.LVL22-1
 14328 0537 0100     		.2byte	0x1
 14329 0539 50       		.byte	0x50
 14330 053a 00000000 		.4byte	0
 14331 053e 00000000 		.4byte	0
 14332              	.LLST0:
 14333 0542 00000000 		.4byte	.LVL0
 14334 0546 10000000 		.4byte	.LVL1
 14335 054a 0100     		.2byte	0x1
 14336 054c 50       		.byte	0x50
 14337 054d 10000000 		.4byte	.LVL1
 14338 0551 18000000 		.4byte	.LVL2
 14339 0555 0100     		.2byte	0x1
 14340 0557 56       		.byte	0x56
 14341 0558 18000000 		.4byte	.LVL2
 14342 055c 28000000 		.4byte	.LVL4
 14343 0560 0100     		.2byte	0x1
 14344 0562 50       		.byte	0x50
 14345 0563 28000000 		.4byte	.LVL4
 14346 0567 90000000 		.4byte	.LFE304
 14347 056b 0100     		.2byte	0x1
ARM GAS  C:\cygwin64\tmp\ccxdpAIh.s 			page 255


 14348 056d 56       		.byte	0x56
 14349 056e 00000000 		.4byte	0
 14350 0572 00000000 		.4byte	0
 14351              	.LLST1:
 14352 0576 2C000000 		.4byte	.LVL5
 14353 057a 5C000000 		.4byte	.LVL10
 14354 057e 0600     		.2byte	0x6
 14355 0580 70       		.byte	0x70
 14356 0581 00       		.sleb128 0
 14357 0582 08       		.byte	0x8
 14358 0583 FF       		.byte	0xff
 14359 0584 1A       		.byte	0x1a
 14360 0585 9F       		.byte	0x9f
 14361 0586 62000000 		.4byte	.LVL12
 14362 058a 78000000 		.4byte	.LVL13
 14363 058e 0600     		.2byte	0x6
 14364 0590 70       		.byte	0x70
 14365 0591 00       		.sleb128 0
 14366 0592 08       		.byte	0x8
 14367 0593 FF       		.byte	0xff
 14368 0594 1A       		.byte	0x1a
 14369 0595 9F       		.byte	0x9f
 14370 0596 00000000 		.4byte	0
 14371 059a 00000000 		.4byte	0
 14372              	.LLST2:
 14373 059e 5E000000 		.4byte	.LVL11
 14374 05a2 80000000 		.4byte	.LVL15
 14375 05a6 0100     		.2byte	0x1
 14376 05a8 55       		.byte	0x55
 14377 05a9 00000000 		.4byte	0
 14378 05ad 00000000 		.4byte	0
 14379              	.LLST77:
 14380 05b1 00000000 		.4byte	.LVL225
 14381 05b5 0A000000 		.4byte	.LVL226
 14382 05b9 0100     		.2byte	0x1
 14383 05bb 50       		.byte	0x50
 14384 05bc 0A000000 		.4byte	.LVL226
 14385 05c0 0E000000 		.4byte	.LVL227
 14386 05c4 0100     		.2byte	0x1
 14387 05c6 54       		.byte	0x54
 14388 05c7 0E000000 		.4byte	.LVL227
 14389 05cb 12000000 		.4byte	.LVL229
 14390 05cf 0100     		.2byte	0x1
 14391 05d1 50       		.byte	0x50
 14392 05d2 12000000 		.4byte	.LVL229
 14393 05d6 4A000000 		.4byte	.LVL231
 14394 05da 0100     		.2byte	0x1
 14395 05dc 54       		.byte	0x54
 14396 05dd 4A000000 		.4byte	.LVL231
 14397 05e1 50000000 		.4byte	.LFE303
 14398 05e5 0400     		.2byte	0x4
 14399 05e7 F3       		.byte	0xf3
 14400 05e8 01       		.uleb128 0x1
 14401 05e9 50       		.byte	0x50
 14402 05ea 9F       		.byte	0x9f
 14403 05eb 00000000 		.4byte	0
 14404 05ef 00000000 		.4byte	0
ARM GAS  C:\cygwin64\tmp\ccxdpAIh.s 			page 256


 14405              	.LLST78:
 14406 05f3 00000000 		.4byte	.LVL225
 14407 05f7 0A000000 		.4byte	.LVL226
 14408 05fb 0100     		.2byte	0x1
 14409 05fd 51       		.byte	0x51
 14410 05fe 0A000000 		.4byte	.LVL226
 14411 0602 0E000000 		.4byte	.LVL227
 14412 0606 0100     		.2byte	0x1
 14413 0608 55       		.byte	0x55
 14414 0609 0E000000 		.4byte	.LVL227
 14415 060d 10000000 		.4byte	.LVL228
 14416 0611 0100     		.2byte	0x1
 14417 0613 51       		.byte	0x51
 14418 0614 10000000 		.4byte	.LVL228
 14419 0618 4A000000 		.4byte	.LVL231
 14420 061c 0100     		.2byte	0x1
 14421 061e 55       		.byte	0x55
 14422 061f 4A000000 		.4byte	.LVL231
 14423 0623 50000000 		.4byte	.LFE303
 14424 0627 0400     		.2byte	0x4
 14425 0629 F3       		.byte	0xf3
 14426 062a 01       		.uleb128 0x1
 14427 062b 51       		.byte	0x51
 14428 062c 9F       		.byte	0x9f
 14429 062d 00000000 		.4byte	0
 14430 0631 00000000 		.4byte	0
 14431              	.LLST74:
 14432 0635 00000000 		.4byte	.LVL220
 14433 0639 0C000000 		.4byte	.LVL222
 14434 063d 0100     		.2byte	0x1
 14435 063f 50       		.byte	0x50
 14436 0640 0C000000 		.4byte	.LVL222
 14437 0644 18000000 		.4byte	.LFE302
 14438 0648 0400     		.2byte	0x4
 14439 064a F3       		.byte	0xf3
 14440 064b 01       		.uleb128 0x1
 14441 064c 50       		.byte	0x50
 14442 064d 9F       		.byte	0x9f
 14443 064e 00000000 		.4byte	0
 14444 0652 00000000 		.4byte	0
 14445              	.LLST75:
 14446 0656 00000000 		.4byte	.LVL220
 14447 065a 0A000000 		.4byte	.LVL221
 14448 065e 0100     		.2byte	0x1
 14449 0660 51       		.byte	0x51
 14450 0661 0A000000 		.4byte	.LVL221
 14451 0665 14000000 		.4byte	.LVL224
 14452 0669 0100     		.2byte	0x1
 14453 066b 54       		.byte	0x54
 14454 066c 14000000 		.4byte	.LVL224
 14455 0670 18000000 		.4byte	.LFE302
 14456 0674 0100     		.2byte	0x1
 14457 0676 50       		.byte	0x50
 14458 0677 00000000 		.4byte	0
 14459 067b 00000000 		.4byte	0
 14460              	.LLST76:
 14461 067f 00000000 		.4byte	.LVL220
ARM GAS  C:\cygwin64\tmp\ccxdpAIh.s 			page 257


 14462 0683 0F000000 		.4byte	.LVL223-1
 14463 0687 0100     		.2byte	0x1
 14464 0689 52       		.byte	0x52
 14465 068a 0F000000 		.4byte	.LVL223-1
 14466 068e 18000000 		.4byte	.LFE302
 14467 0692 0400     		.2byte	0x4
 14468 0694 F3       		.byte	0xf3
 14469 0695 01       		.uleb128 0x1
 14470 0696 52       		.byte	0x52
 14471 0697 9F       		.byte	0x9f
 14472 0698 00000000 		.4byte	0
 14473 069c 00000000 		.4byte	0
 14474              	.LLST73:
 14475 06a0 00000000 		.4byte	.LVL218
 14476 06a4 06000000 		.4byte	.LVL219
 14477 06a8 0100     		.2byte	0x1
 14478 06aa 50       		.byte	0x50
 14479 06ab 06000000 		.4byte	.LVL219
 14480 06af 0C000000 		.4byte	.LFE301
 14481 06b3 0400     		.2byte	0x4
 14482 06b5 F3       		.byte	0xf3
 14483 06b6 01       		.uleb128 0x1
 14484 06b7 50       		.byte	0x50
 14485 06b8 9F       		.byte	0x9f
 14486 06b9 00000000 		.4byte	0
 14487 06bd 00000000 		.4byte	0
 14488              	.LLST71:
 14489 06c1 00000000 		.4byte	.LVL211
 14490 06c5 1C000000 		.4byte	.LVL214
 14491 06c9 0100     		.2byte	0x1
 14492 06cb 50       		.byte	0x50
 14493 06cc 1C000000 		.4byte	.LVL214
 14494 06d0 1F000000 		.4byte	.LVL215-1
 14495 06d4 0100     		.2byte	0x1
 14496 06d6 51       		.byte	0x51
 14497 06d7 1F000000 		.4byte	.LVL215-1
 14498 06db 20000000 		.4byte	.LVL215
 14499 06df 0400     		.2byte	0x4
 14500 06e1 F3       		.byte	0xf3
 14501 06e2 01       		.uleb128 0x1
 14502 06e3 50       		.byte	0x50
 14503 06e4 9F       		.byte	0x9f
 14504 06e5 20000000 		.4byte	.LVL215
 14505 06e9 22000000 		.4byte	.LVL216
 14506 06ed 0100     		.2byte	0x1
 14507 06ef 50       		.byte	0x50
 14508 06f0 22000000 		.4byte	.LVL216
 14509 06f4 25000000 		.4byte	.LVL217-1
 14510 06f8 0100     		.2byte	0x1
 14511 06fa 51       		.byte	0x51
 14512 06fb 25000000 		.4byte	.LVL217-1
 14513 06ff 34000000 		.4byte	.LFE300
 14514 0703 0400     		.2byte	0x4
 14515 0705 F3       		.byte	0xf3
 14516 0706 01       		.uleb128 0x1
 14517 0707 50       		.byte	0x50
 14518 0708 9F       		.byte	0x9f
ARM GAS  C:\cygwin64\tmp\ccxdpAIh.s 			page 258


 14519 0709 00000000 		.4byte	0
 14520 070d 00000000 		.4byte	0
 14521              	.LLST72:
 14522 0711 00000000 		.4byte	.LVL211
 14523 0715 10000000 		.4byte	.LVL212
 14524 0719 0200     		.2byte	0x2
 14525 071b 30       		.byte	0x30
 14526 071c 9F       		.byte	0x9f
 14527 071d 10000000 		.4byte	.LVL212
 14528 0721 1F000000 		.4byte	.LVL215-1
 14529 0725 0100     		.2byte	0x1
 14530 0727 52       		.byte	0x52
 14531 0728 20000000 		.4byte	.LVL215
 14532 072c 25000000 		.4byte	.LVL217-1
 14533 0730 0100     		.2byte	0x1
 14534 0732 52       		.byte	0x52
 14535 0733 00000000 		.4byte	0
 14536 0737 00000000 		.4byte	0
 14537              	.LLST70:
 14538 073b 00000000 		.4byte	.LVL209
 14539 073f 02000000 		.4byte	.LVL210
 14540 0743 0100     		.2byte	0x1
 14541 0745 50       		.byte	0x50
 14542 0746 02000000 		.4byte	.LVL210
 14543 074a 08000000 		.4byte	.LFE299
 14544 074e 0400     		.2byte	0x4
 14545 0750 F3       		.byte	0xf3
 14546 0751 01       		.uleb128 0x1
 14547 0752 50       		.byte	0x50
 14548 0753 9F       		.byte	0x9f
 14549 0754 00000000 		.4byte	0
 14550 0758 00000000 		.4byte	0
 14551              	.LLST67:
 14552 075c 00000000 		.4byte	.LVL196
 14553 0760 0F000000 		.4byte	.LVL197-1
 14554 0764 0100     		.2byte	0x1
 14555 0766 50       		.byte	0x50
 14556 0767 0F000000 		.4byte	.LVL197-1
 14557 076b 58000000 		.4byte	.LFE297
 14558 076f 0400     		.2byte	0x4
 14559 0771 F3       		.byte	0xf3
 14560 0772 01       		.uleb128 0x1
 14561 0773 50       		.byte	0x50
 14562 0774 9F       		.byte	0x9f
 14563 0775 00000000 		.4byte	0
 14564 0779 00000000 		.4byte	0
 14565              	.LLST68:
 14566 077d 3A000000 		.4byte	.LVL205
 14567 0781 42000000 		.4byte	.LVL206
 14568 0785 0100     		.2byte	0x1
 14569 0787 50       		.byte	0x50
 14570 0788 42000000 		.4byte	.LVL206
 14571 078c 45000000 		.4byte	.LVL207-1
 14572 0790 0100     		.2byte	0x1
 14573 0792 52       		.byte	0x52
 14574 0793 45000000 		.4byte	.LVL207-1
 14575 0797 58000000 		.4byte	.LFE297
ARM GAS  C:\cygwin64\tmp\ccxdpAIh.s 			page 259


 14576 079b 0100     		.2byte	0x1
 14577 079d 56       		.byte	0x56
 14578 079e 00000000 		.4byte	0
 14579 07a2 00000000 		.4byte	0
 14580              	.LLST69:
 14581 07a6 10000000 		.4byte	.LVL197
 14582 07aa 22000000 		.4byte	.LVL200
 14583 07ae 0600     		.2byte	0x6
 14584 07b0 70       		.byte	0x70
 14585 07b1 00       		.sleb128 0
 14586 07b2 08       		.byte	0x8
 14587 07b3 FF       		.byte	0xff
 14588 07b4 1A       		.byte	0x1a
 14589 07b5 9F       		.byte	0x9f
 14590 07b6 28000000 		.4byte	.LVL201
 14591 07ba 34000000 		.4byte	.LVL203
 14592 07be 0600     		.2byte	0x6
 14593 07c0 70       		.byte	0x70
 14594 07c1 00       		.sleb128 0
 14595 07c2 08       		.byte	0x8
 14596 07c3 FF       		.byte	0xff
 14597 07c4 1A       		.byte	0x1a
 14598 07c5 9F       		.byte	0x9f
 14599 07c6 00000000 		.4byte	0
 14600 07ca 00000000 		.4byte	0
 14601              	.LLST65:
 14602 07ce 00000000 		.4byte	.LVL188
 14603 07d2 06000000 		.4byte	.LVL189
 14604 07d6 0100     		.2byte	0x1
 14605 07d8 50       		.byte	0x50
 14606 07d9 06000000 		.4byte	.LVL189
 14607 07dd 09000000 		.4byte	.LVL190-1
 14608 07e1 0100     		.2byte	0x1
 14609 07e3 51       		.byte	0x51
 14610 07e4 09000000 		.4byte	.LVL190-1
 14611 07e8 30000000 		.4byte	.LFE296
 14612 07ec 0400     		.2byte	0x4
 14613 07ee F3       		.byte	0xf3
 14614 07ef 01       		.uleb128 0x1
 14615 07f0 50       		.byte	0x50
 14616 07f1 9F       		.byte	0x9f
 14617 07f2 00000000 		.4byte	0
 14618 07f6 00000000 		.4byte	0
 14619              	.LLST66:
 14620 07fa 0A000000 		.4byte	.LVL190
 14621 07fe 1E000000 		.4byte	.LVL193
 14622 0802 0600     		.2byte	0x6
 14623 0804 70       		.byte	0x70
 14624 0805 00       		.sleb128 0
 14625 0806 08       		.byte	0x8
 14626 0807 FF       		.byte	0xff
 14627 0808 1A       		.byte	0x1a
 14628 0809 9F       		.byte	0x9f
 14629 080a 20000000 		.4byte	.LVL194
 14630 080e 22000000 		.4byte	.LVL195
 14631 0812 0600     		.2byte	0x6
 14632 0814 70       		.byte	0x70
ARM GAS  C:\cygwin64\tmp\ccxdpAIh.s 			page 260


 14633 0815 00       		.sleb128 0
 14634 0816 08       		.byte	0x8
 14635 0817 FF       		.byte	0xff
 14636 0818 1A       		.byte	0x1a
 14637 0819 9F       		.byte	0x9f
 14638 081a 00000000 		.4byte	0
 14639 081e 00000000 		.4byte	0
 14640              	.LLST63:
 14641 0822 00000000 		.4byte	.LVL183
 14642 0826 05000000 		.4byte	.LVL184-1
 14643 082a 0100     		.2byte	0x1
 14644 082c 50       		.byte	0x50
 14645 082d 05000000 		.4byte	.LVL184-1
 14646 0831 28000000 		.4byte	.LFE295
 14647 0835 0400     		.2byte	0x4
 14648 0837 F3       		.byte	0xf3
 14649 0838 01       		.uleb128 0x1
 14650 0839 50       		.byte	0x50
 14651 083a 9F       		.byte	0x9f
 14652 083b 00000000 		.4byte	0
 14653 083f 00000000 		.4byte	0
 14654              	.LLST64:
 14655 0843 06000000 		.4byte	.LVL184
 14656 0847 1C000000 		.4byte	.LVL187
 14657 084b 0600     		.2byte	0x6
 14658 084d 70       		.byte	0x70
 14659 084e 00       		.sleb128 0
 14660 084f 08       		.byte	0x8
 14661 0850 FF       		.byte	0xff
 14662 0851 1A       		.byte	0x1a
 14663 0852 9F       		.byte	0x9f
 14664 0853 00000000 		.4byte	0
 14665 0857 00000000 		.4byte	0
 14666              	.LLST61:
 14667 085b 00000000 		.4byte	.LVL178
 14668 085f 0B000000 		.4byte	.LVL179-1
 14669 0863 0100     		.2byte	0x1
 14670 0865 50       		.byte	0x50
 14671 0866 0B000000 		.4byte	.LVL179-1
 14672 086a 28000000 		.4byte	.LFE294
 14673 086e 0400     		.2byte	0x4
 14674 0870 F3       		.byte	0xf3
 14675 0871 01       		.uleb128 0x1
 14676 0872 50       		.byte	0x50
 14677 0873 9F       		.byte	0x9f
 14678 0874 00000000 		.4byte	0
 14679 0878 00000000 		.4byte	0
 14680              	.LLST62:
 14681 087c 0C000000 		.4byte	.LVL179
 14682 0880 1E000000 		.4byte	.LVL182
 14683 0884 0600     		.2byte	0x6
 14684 0886 70       		.byte	0x70
 14685 0887 00       		.sleb128 0
 14686 0888 08       		.byte	0x8
 14687 0889 FF       		.byte	0xff
 14688 088a 1A       		.byte	0x1a
 14689 088b 9F       		.byte	0x9f
ARM GAS  C:\cygwin64\tmp\ccxdpAIh.s 			page 261


 14690 088c 00000000 		.4byte	0
 14691 0890 00000000 		.4byte	0
 14692              	.LLST58:
 14693 0894 00000000 		.4byte	.LVL173
 14694 0898 0B000000 		.4byte	.LVL174-1
 14695 089c 0100     		.2byte	0x1
 14696 089e 50       		.byte	0x50
 14697 089f 0B000000 		.4byte	.LVL174-1
 14698 08a3 28000000 		.4byte	.LFE291
 14699 08a7 0400     		.2byte	0x4
 14700 08a9 F3       		.byte	0xf3
 14701 08aa 01       		.uleb128 0x1
 14702 08ab 50       		.byte	0x50
 14703 08ac 9F       		.byte	0x9f
 14704 08ad 00000000 		.4byte	0
 14705 08b1 00000000 		.4byte	0
 14706              	.LLST59:
 14707 08b5 00000000 		.4byte	.LVL173
 14708 08b9 0B000000 		.4byte	.LVL174-1
 14709 08bd 0100     		.2byte	0x1
 14710 08bf 51       		.byte	0x51
 14711 08c0 0B000000 		.4byte	.LVL174-1
 14712 08c4 28000000 		.4byte	.LFE291
 14713 08c8 0400     		.2byte	0x4
 14714 08ca F3       		.byte	0xf3
 14715 08cb 01       		.uleb128 0x1
 14716 08cc 51       		.byte	0x51
 14717 08cd 9F       		.byte	0x9f
 14718 08ce 00000000 		.4byte	0
 14719 08d2 00000000 		.4byte	0
 14720              	.LLST60:
 14721 08d6 0C000000 		.4byte	.LVL174
 14722 08da 1E000000 		.4byte	.LVL177
 14723 08de 0600     		.2byte	0x6
 14724 08e0 70       		.byte	0x70
 14725 08e1 00       		.sleb128 0
 14726 08e2 08       		.byte	0x8
 14727 08e3 FF       		.byte	0xff
 14728 08e4 1A       		.byte	0x1a
 14729 08e5 9F       		.byte	0x9f
 14730 08e6 00000000 		.4byte	0
 14731 08ea 00000000 		.4byte	0
 14732              	.LLST55:
 14733 08ee 00000000 		.4byte	.LVL162
 14734 08f2 0F000000 		.4byte	.LVL163-1
 14735 08f6 0100     		.2byte	0x1
 14736 08f8 50       		.byte	0x50
 14737 08f9 0F000000 		.4byte	.LVL163-1
 14738 08fd 38000000 		.4byte	.LVL172
 14739 0901 0100     		.2byte	0x1
 14740 0903 57       		.byte	0x57
 14741 0904 38000000 		.4byte	.LVL172
 14742 0908 40000000 		.4byte	.LFE290
 14743 090c 0400     		.2byte	0x4
 14744 090e F3       		.byte	0xf3
 14745 090f 01       		.uleb128 0x1
 14746 0910 50       		.byte	0x50
ARM GAS  C:\cygwin64\tmp\ccxdpAIh.s 			page 262


 14747 0911 9F       		.byte	0x9f
 14748 0912 00000000 		.4byte	0
 14749 0916 00000000 		.4byte	0
 14750              	.LLST56:
 14751 091a 00000000 		.4byte	.LVL162
 14752 091e 0F000000 		.4byte	.LVL163-1
 14753 0922 0100     		.2byte	0x1
 14754 0924 51       		.byte	0x51
 14755 0925 0F000000 		.4byte	.LVL163-1
 14756 0929 38000000 		.4byte	.LVL172
 14757 092d 0100     		.2byte	0x1
 14758 092f 54       		.byte	0x54
 14759 0930 38000000 		.4byte	.LVL172
 14760 0934 40000000 		.4byte	.LFE290
 14761 0938 0100     		.2byte	0x1
 14762 093a 50       		.byte	0x50
 14763 093b 00000000 		.4byte	0
 14764 093f 00000000 		.4byte	0
 14765              	.LLST57:
 14766 0943 10000000 		.4byte	.LVL163
 14767 0947 24000000 		.4byte	.LVL166
 14768 094b 0600     		.2byte	0x6
 14769 094d 70       		.byte	0x70
 14770 094e 00       		.sleb128 0
 14771 094f 08       		.byte	0x8
 14772 0950 FF       		.byte	0xff
 14773 0951 1A       		.byte	0x1a
 14774 0952 9F       		.byte	0x9f
 14775 0953 26000000 		.4byte	.LVL167
 14776 0957 2C000000 		.4byte	.LVL168
 14777 095b 0600     		.2byte	0x6
 14778 095d 70       		.byte	0x70
 14779 095e 00       		.sleb128 0
 14780 095f 08       		.byte	0x8
 14781 0960 FF       		.byte	0xff
 14782 0961 1A       		.byte	0x1a
 14783 0962 9F       		.byte	0x9f
 14784 0963 34000000 		.4byte	.LVL170
 14785 0967 36000000 		.4byte	.LVL171
 14786 096b 0600     		.2byte	0x6
 14787 096d 70       		.byte	0x70
 14788 096e 00       		.sleb128 0
 14789 096f 08       		.byte	0x8
 14790 0970 FF       		.byte	0xff
 14791 0971 1A       		.byte	0x1a
 14792 0972 9F       		.byte	0x9f
 14793 0973 00000000 		.4byte	0
 14794 0977 00000000 		.4byte	0
 14795              	.LLST52:
 14796 097b 00000000 		.4byte	.LVL156
 14797 097f 0D000000 		.4byte	.LVL157-1
 14798 0983 0100     		.2byte	0x1
 14799 0985 50       		.byte	0x50
 14800 0986 0D000000 		.4byte	.LVL157-1
 14801 098a 1E000000 		.4byte	.LVL160
 14802 098e 0100     		.2byte	0x1
 14803 0990 55       		.byte	0x55
ARM GAS  C:\cygwin64\tmp\ccxdpAIh.s 			page 263


 14804 0991 1E000000 		.4byte	.LVL160
 14805 0995 2C000000 		.4byte	.LFE289
 14806 0999 0400     		.2byte	0x4
 14807 099b F3       		.byte	0xf3
 14808 099c 01       		.uleb128 0x1
 14809 099d 50       		.byte	0x50
 14810 099e 9F       		.byte	0x9f
 14811 099f 00000000 		.4byte	0
 14812 09a3 00000000 		.4byte	0
 14813              	.LLST53:
 14814 09a7 00000000 		.4byte	.LVL156
 14815 09ab 0D000000 		.4byte	.LVL157-1
 14816 09af 0100     		.2byte	0x1
 14817 09b1 51       		.byte	0x51
 14818 09b2 0D000000 		.4byte	.LVL157-1
 14819 09b6 2C000000 		.4byte	.LFE289
 14820 09ba 0400     		.2byte	0x4
 14821 09bc F3       		.byte	0xf3
 14822 09bd 01       		.uleb128 0x1
 14823 09be 51       		.byte	0x51
 14824 09bf 9F       		.byte	0x9f
 14825 09c0 00000000 		.4byte	0
 14826 09c4 00000000 		.4byte	0
 14827              	.LLST54:
 14828 09c8 0E000000 		.4byte	.LVL157
 14829 09cc 20000000 		.4byte	.LVL161
 14830 09d0 0600     		.2byte	0x6
 14831 09d2 70       		.byte	0x70
 14832 09d3 00       		.sleb128 0
 14833 09d4 08       		.byte	0x8
 14834 09d5 FF       		.byte	0xff
 14835 09d6 1A       		.byte	0x1a
 14836 09d7 9F       		.byte	0x9f
 14837 09d8 00000000 		.4byte	0
 14838 09dc 00000000 		.4byte	0
 14839              	.LLST49:
 14840 09e0 00000000 		.4byte	.LVL148
 14841 09e4 08000000 		.4byte	.LVL149
 14842 09e8 0100     		.2byte	0x1
 14843 09ea 50       		.byte	0x50
 14844 09eb 08000000 		.4byte	.LVL149
 14845 09ef 0E000000 		.4byte	.LVL151
 14846 09f3 0100     		.2byte	0x1
 14847 09f5 52       		.byte	0x52
 14848 09f6 0E000000 		.4byte	.LVL151
 14849 09fa 10000000 		.4byte	.LVL152
 14850 09fe 0300     		.2byte	0x3
 14851 0a00 72       		.byte	0x72
 14852 0a01 7F       		.sleb128 -1
 14853 0a02 9F       		.byte	0x9f
 14854 0a03 14000000 		.4byte	.LVL153
 14855 0a07 1A000000 		.4byte	.LVL154
 14856 0a0b 0300     		.2byte	0x3
 14857 0a0d 72       		.byte	0x72
 14858 0a0e 7F       		.sleb128 -1
 14859 0a0f 9F       		.byte	0x9f
 14860 0a10 1A000000 		.4byte	.LVL154
ARM GAS  C:\cygwin64\tmp\ccxdpAIh.s 			page 264


 14861 0a14 1C000000 		.4byte	.LVL155
 14862 0a18 0100     		.2byte	0x1
 14863 0a1a 52       		.byte	0x52
 14864 0a1b 1C000000 		.4byte	.LVL155
 14865 0a1f 20000000 		.4byte	.LFE288
 14866 0a23 0100     		.2byte	0x1
 14867 0a25 50       		.byte	0x50
 14868 0a26 00000000 		.4byte	0
 14869 0a2a 00000000 		.4byte	0
 14870              	.LLST50:
 14871 0a2e 00000000 		.4byte	.LVL148
 14872 0a32 08000000 		.4byte	.LVL149
 14873 0a36 0200     		.2byte	0x2
 14874 0a38 30       		.byte	0x30
 14875 0a39 9F       		.byte	0x9f
 14876 0a3a 0A000000 		.4byte	.LVL150
 14877 0a3e 10000000 		.4byte	.LVL152
 14878 0a42 0100     		.2byte	0x1
 14879 0a44 53       		.byte	0x53
 14880 0a45 14000000 		.4byte	.LVL153
 14881 0a49 1C000000 		.4byte	.LVL155
 14882 0a4d 0100     		.2byte	0x1
 14883 0a4f 53       		.byte	0x53
 14884 0a50 1C000000 		.4byte	.LVL155
 14885 0a54 20000000 		.4byte	.LFE288
 14886 0a58 0200     		.2byte	0x2
 14887 0a5a 30       		.byte	0x30
 14888 0a5b 9F       		.byte	0x9f
 14889 0a5c 00000000 		.4byte	0
 14890 0a60 00000000 		.4byte	0
 14891              	.LLST51:
 14892 0a64 00000000 		.4byte	.LVL148
 14893 0a68 08000000 		.4byte	.LVL149
 14894 0a6c 0200     		.2byte	0x2
 14895 0a6e 30       		.byte	0x30
 14896 0a6f 9F       		.byte	0x9f
 14897 0a70 0A000000 		.4byte	.LVL150
 14898 0a74 10000000 		.4byte	.LVL152
 14899 0a78 0100     		.2byte	0x1
 14900 0a7a 54       		.byte	0x54
 14901 0a7b 14000000 		.4byte	.LVL153
 14902 0a7f 1A000000 		.4byte	.LVL154
 14903 0a83 0100     		.2byte	0x1
 14904 0a85 54       		.byte	0x54
 14905 0a86 1A000000 		.4byte	.LVL154
 14906 0a8a 1C000000 		.4byte	.LVL155
 14907 0a8e 0600     		.2byte	0x6
 14908 0a90 72       		.byte	0x72
 14909 0a91 00       		.sleb128 0
 14910 0a92 70       		.byte	0x70
 14911 0a93 00       		.sleb128 0
 14912 0a94 1C       		.byte	0x1c
 14913 0a95 9F       		.byte	0x9f
 14914 0a96 1C000000 		.4byte	.LVL155
 14915 0a9a 20000000 		.4byte	.LFE288
 14916 0a9e 0200     		.2byte	0x2
 14917 0aa0 30       		.byte	0x30
ARM GAS  C:\cygwin64\tmp\ccxdpAIh.s 			page 265


 14918 0aa1 9F       		.byte	0x9f
 14919 0aa2 00000000 		.4byte	0
 14920 0aa6 00000000 		.4byte	0
 14921              	.LLST43:
 14922 0aaa 00000000 		.4byte	.LVL135
 14923 0aae 0B000000 		.4byte	.LVL136-1
 14924 0ab2 0100     		.2byte	0x1
 14925 0ab4 50       		.byte	0x50
 14926 0ab5 0B000000 		.4byte	.LVL136-1
 14927 0ab9 28000000 		.4byte	.LFE286
 14928 0abd 0400     		.2byte	0x4
 14929 0abf F3       		.byte	0xf3
 14930 0ac0 01       		.uleb128 0x1
 14931 0ac1 50       		.byte	0x50
 14932 0ac2 9F       		.byte	0x9f
 14933 0ac3 00000000 		.4byte	0
 14934 0ac7 00000000 		.4byte	0
 14935              	.LLST44:
 14936 0acb 0C000000 		.4byte	.LVL136
 14937 0acf 1E000000 		.4byte	.LVL139
 14938 0ad3 0600     		.2byte	0x6
 14939 0ad5 70       		.byte	0x70
 14940 0ad6 00       		.sleb128 0
 14941 0ad7 08       		.byte	0x8
 14942 0ad8 FF       		.byte	0xff
 14943 0ad9 1A       		.byte	0x1a
 14944 0ada 9F       		.byte	0x9f
 14945 0adb 00000000 		.4byte	0
 14946 0adf 00000000 		.4byte	0
 14947              	.LLST41:
 14948 0ae3 00000000 		.4byte	.LVL129
 14949 0ae7 06000000 		.4byte	.LVL131
 14950 0aeb 0100     		.2byte	0x1
 14951 0aed 50       		.byte	0x50
 14952 0aee 06000000 		.4byte	.LVL131
 14953 0af2 0A000000 		.4byte	.LVL132
 14954 0af6 0300     		.2byte	0x3
 14955 0af8 70       		.byte	0x70
 14956 0af9 7F       		.sleb128 -1
 14957 0afa 9F       		.byte	0x9f
 14958 0afb 0C000000 		.4byte	.LVL133
 14959 0aff 18000000 		.4byte	.LFE285
 14960 0b03 0100     		.2byte	0x1
 14961 0b05 50       		.byte	0x50
 14962 0b06 00000000 		.4byte	0
 14963 0b0a 00000000 		.4byte	0
 14964              	.LLST42:
 14965 0b0e 00000000 		.4byte	.LVL129
 14966 0b12 02000000 		.4byte	.LVL130
 14967 0b16 0600     		.2byte	0x6
 14968 0b18 03       		.byte	0x3
 14969 0b19 00000000 		.4byte	.LC2
 14970 0b1d 9F       		.byte	0x9f
 14971 0b1e 02000000 		.4byte	.LVL130
 14972 0b22 12000000 		.4byte	.LVL134
 14973 0b26 0100     		.2byte	0x1
 14974 0b28 53       		.byte	0x53
ARM GAS  C:\cygwin64\tmp\ccxdpAIh.s 			page 266


 14975 0b29 00000000 		.4byte	0
 14976 0b2d 00000000 		.4byte	0
 14977              	.LLST39:
 14978 0b31 00000000 		.4byte	.LVL122
 14979 0b35 04000000 		.4byte	.LVL123
 14980 0b39 0100     		.2byte	0x1
 14981 0b3b 50       		.byte	0x50
 14982 0b3c 04000000 		.4byte	.LVL123
 14983 0b40 08000000 		.4byte	.LVL124
 14984 0b44 0100     		.2byte	0x1
 14985 0b46 53       		.byte	0x53
 14986 0b47 08000000 		.4byte	.LVL124
 14987 0b4b 0C000000 		.4byte	.LVL125
 14988 0b4f 0300     		.2byte	0x3
 14989 0b51 73       		.byte	0x73
 14990 0b52 7F       		.sleb128 -1
 14991 0b53 9F       		.byte	0x9f
 14992 0b54 0C000000 		.4byte	.LVL125
 14993 0b58 14000000 		.4byte	.LVL127
 14994 0b5c 0100     		.2byte	0x1
 14995 0b5e 53       		.byte	0x53
 14996 0b5f 14000000 		.4byte	.LVL127
 14997 0b63 16000000 		.4byte	.LVL128
 14998 0b67 0100     		.2byte	0x1
 14999 0b69 50       		.byte	0x50
 15000 0b6a 16000000 		.4byte	.LVL128
 15001 0b6e 1C000000 		.4byte	.LFE284
 15002 0b72 0400     		.2byte	0x4
 15003 0b74 F3       		.byte	0xf3
 15004 0b75 01       		.uleb128 0x1
 15005 0b76 50       		.byte	0x50
 15006 0b77 9F       		.byte	0x9f
 15007 0b78 00000000 		.4byte	0
 15008 0b7c 00000000 		.4byte	0
 15009              	.LLST40:
 15010 0b80 00000000 		.4byte	.LVL122
 15011 0b84 12000000 		.4byte	.LVL126
 15012 0b88 0100     		.2byte	0x1
 15013 0b8a 50       		.byte	0x50
 15014 0b8b 14000000 		.4byte	.LVL127
 15015 0b8f 16000000 		.4byte	.LVL128
 15016 0b93 0100     		.2byte	0x1
 15017 0b95 50       		.byte	0x50
 15018 0b96 16000000 		.4byte	.LVL128
 15019 0b9a 1C000000 		.4byte	.LFE284
 15020 0b9e 0400     		.2byte	0x4
 15021 0ba0 F3       		.byte	0xf3
 15022 0ba1 01       		.uleb128 0x1
 15023 0ba2 50       		.byte	0x50
 15024 0ba3 9F       		.byte	0x9f
 15025 0ba4 00000000 		.4byte	0
 15026 0ba8 00000000 		.4byte	0
 15027              	.LLST37:
 15028 0bac 1E000000 		.4byte	.LVL120
 15029 0bb0 26000000 		.4byte	.LVL121
 15030 0bb4 0F00     		.2byte	0xf
 15031 0bb6 72       		.byte	0x72
ARM GAS  C:\cygwin64\tmp\ccxdpAIh.s 			page 267


 15032 0bb7 30       		.sleb128 48
 15033 0bb8 06       		.byte	0x6
 15034 0bb9 32       		.byte	0x32
 15035 0bba 1C       		.byte	0x1c
 15036 0bbb 72       		.byte	0x72
 15037 0bbc 0A       		.sleb128 10
 15038 0bbd 94       		.byte	0x94
 15039 0bbe 02       		.byte	0x2
 15040 0bbf 0A       		.byte	0xa
 15041 0bc0 FFFF     		.2byte	0xffff
 15042 0bc2 1A       		.byte	0x1a
 15043 0bc3 1E       		.byte	0x1e
 15044 0bc4 9F       		.byte	0x9f
 15045 0bc5 26000000 		.4byte	.LVL121
 15046 0bc9 30000000 		.4byte	.LFE283
 15047 0bcd 0100     		.2byte	0x1
 15048 0bcf 51       		.byte	0x51
 15049 0bd0 00000000 		.4byte	0
 15050 0bd4 00000000 		.4byte	0
 15051              	.LLST38:
 15052 0bd8 0C000000 		.4byte	.LVL117
 15053 0bdc 14000000 		.4byte	.LVL118
 15054 0be0 0100     		.2byte	0x1
 15055 0be2 50       		.byte	0x50
 15056 0be3 1C000000 		.4byte	.LVL119
 15057 0be7 30000000 		.4byte	.LFE283
 15058 0beb 0100     		.2byte	0x1
 15059 0bed 50       		.byte	0x50
 15060 0bee 00000000 		.4byte	0
 15061 0bf2 00000000 		.4byte	0
 15062              	.LLST36:
 15063 0bf6 0C000000 		.4byte	.LVL114
 15064 0bfa 14000000 		.4byte	.LVL115
 15065 0bfe 0100     		.2byte	0x1
 15066 0c00 50       		.byte	0x50
 15067 0c01 1C000000 		.4byte	.LVL116
 15068 0c05 30000000 		.4byte	.LFE282
 15069 0c09 0100     		.2byte	0x1
 15070 0c0b 50       		.byte	0x50
 15071 0c0c 00000000 		.4byte	0
 15072 0c10 00000000 		.4byte	0
 15073              	.LLST97:
 15074 0c14 00000000 		.4byte	.LVL278
 15075 0c18 0A000000 		.4byte	.LVL279
 15076 0c1c 0100     		.2byte	0x1
 15077 0c1e 50       		.byte	0x50
 15078 0c1f 0A000000 		.4byte	.LVL279
 15079 0c23 3A000000 		.4byte	.LVL284
 15080 0c27 0100     		.2byte	0x1
 15081 0c29 54       		.byte	0x54
 15082 0c2a 3A000000 		.4byte	.LVL284
 15083 0c2e 3C000000 		.4byte	.LVL285
 15084 0c32 0100     		.2byte	0x1
 15085 0c34 50       		.byte	0x50
 15086 0c35 3C000000 		.4byte	.LVL285
 15087 0c39 44000000 		.4byte	.LFE281
 15088 0c3d 0100     		.2byte	0x1
ARM GAS  C:\cygwin64\tmp\ccxdpAIh.s 			page 268


 15089 0c3f 54       		.byte	0x54
 15090 0c40 00000000 		.4byte	0
 15091 0c44 00000000 		.4byte	0
 15092              	.LLST98:
 15093 0c48 00000000 		.4byte	.LVL278
 15094 0c4c 10000000 		.4byte	.LVL280
 15095 0c50 0100     		.2byte	0x1
 15096 0c52 51       		.byte	0x51
 15097 0c53 10000000 		.4byte	.LVL280
 15098 0c57 3A000000 		.4byte	.LVL284
 15099 0c5b 0400     		.2byte	0x4
 15100 0c5d F3       		.byte	0xf3
 15101 0c5e 01       		.uleb128 0x1
 15102 0c5f 51       		.byte	0x51
 15103 0c60 9F       		.byte	0x9f
 15104 0c61 3A000000 		.4byte	.LVL284
 15105 0c65 44000000 		.4byte	.LFE281
 15106 0c69 0100     		.2byte	0x1
 15107 0c6b 51       		.byte	0x51
 15108 0c6c 00000000 		.4byte	0
 15109 0c70 00000000 		.4byte	0
 15110              	.LLST99:
 15111 0c74 00000000 		.4byte	.LVL278
 15112 0c78 0A000000 		.4byte	.LVL279
 15113 0c7c 0200     		.2byte	0x2
 15114 0c7e 30       		.byte	0x30
 15115 0c7f 9F       		.byte	0x9f
 15116 0c80 0A000000 		.4byte	.LVL279
 15117 0c84 13000000 		.4byte	.LVL281-1
 15118 0c88 0100     		.2byte	0x1
 15119 0c8a 50       		.byte	0x50
 15120 0c8b 3A000000 		.4byte	.LVL284
 15121 0c8f 44000000 		.4byte	.LFE281
 15122 0c93 0200     		.2byte	0x2
 15123 0c95 30       		.byte	0x30
 15124 0c96 9F       		.byte	0x9f
 15125 0c97 00000000 		.4byte	0
 15126 0c9b 00000000 		.4byte	0
 15127              	.LLST100:
 15128 0c9f 2C000000 		.4byte	.LVL282
 15129 0ca3 34000000 		.4byte	.LVL283
 15130 0ca7 0600     		.2byte	0x6
 15131 0ca9 70       		.byte	0x70
 15132 0caa 00       		.sleb128 0
 15133 0cab 08       		.byte	0x8
 15134 0cac FF       		.byte	0xff
 15135 0cad 1A       		.byte	0x1a
 15136 0cae 9F       		.byte	0x9f
 15137 0caf 00000000 		.4byte	0
 15138 0cb3 00000000 		.4byte	0
 15139              	.LLST90:
 15140 0cb7 00000000 		.4byte	.LVL260
 15141 0cbb 13000000 		.4byte	.LVL262-1
 15142 0cbf 0100     		.2byte	0x1
 15143 0cc1 50       		.byte	0x50
 15144 0cc2 13000000 		.4byte	.LVL262-1
 15145 0cc6 A8000000 		.4byte	.LFE280
ARM GAS  C:\cygwin64\tmp\ccxdpAIh.s 			page 269


 15146 0cca 0100     		.2byte	0x1
 15147 0ccc 56       		.byte	0x56
 15148 0ccd 00000000 		.4byte	0
 15149 0cd1 00000000 		.4byte	0
 15150              	.LLST91:
 15151 0cd5 00000000 		.4byte	.LVL260
 15152 0cd9 0C000000 		.4byte	.LVL261
 15153 0cdd 0100     		.2byte	0x1
 15154 0cdf 51       		.byte	0x51
 15155 0ce0 0C000000 		.4byte	.LVL261
 15156 0ce4 A8000000 		.4byte	.LFE280
 15157 0ce8 0100     		.2byte	0x1
 15158 0cea 54       		.byte	0x54
 15159 0ceb 00000000 		.4byte	0
 15160 0cef 00000000 		.4byte	0
 15161              	.LLST92:
 15162 0cf3 40000000 		.4byte	.LVL265
 15163 0cf7 52000000 		.4byte	.LVL268
 15164 0cfb 0600     		.2byte	0x6
 15165 0cfd 70       		.byte	0x70
 15166 0cfe 00       		.sleb128 0
 15167 0cff 08       		.byte	0x8
 15168 0d00 FF       		.byte	0xff
 15169 0d01 1A       		.byte	0x1a
 15170 0d02 9F       		.byte	0x9f
 15171 0d03 54000000 		.4byte	.LVL269
 15172 0d07 60000000 		.4byte	.LVL270
 15173 0d0b 0600     		.2byte	0x6
 15174 0d0d 70       		.byte	0x70
 15175 0d0e 00       		.sleb128 0
 15176 0d0f 08       		.byte	0x8
 15177 0d10 FF       		.byte	0xff
 15178 0d11 1A       		.byte	0x1a
 15179 0d12 9F       		.byte	0x9f
 15180 0d13 00000000 		.4byte	0
 15181 0d17 00000000 		.4byte	0
 15182              	.LLST93:
 15183 0d1b 64000000 		.4byte	.LVL271
 15184 0d1f 96000000 		.4byte	.LVL273
 15185 0d23 0100     		.2byte	0x1
 15186 0d25 50       		.byte	0x50
 15187 0d26 96000000 		.4byte	.LVL273
 15188 0d2a A8000000 		.4byte	.LFE280
 15189 0d2e 0200     		.2byte	0x2
 15190 0d30 74       		.byte	0x74
 15191 0d31 1C       		.sleb128 28
 15192 0d32 00000000 		.4byte	0
 15193 0d36 00000000 		.4byte	0
 15194              	.LLST176:
 15195 0d3a 00000000 		.4byte	.LVL434
 15196 0d3e 05000000 		.4byte	.LVL435-1
 15197 0d42 0100     		.2byte	0x1
 15198 0d44 50       		.byte	0x50
 15199 0d45 05000000 		.4byte	.LVL435-1
 15200 0d49 18000000 		.4byte	.LFE279
 15201 0d4d 0400     		.2byte	0x4
 15202 0d4f F3       		.byte	0xf3
ARM GAS  C:\cygwin64\tmp\ccxdpAIh.s 			page 270


 15203 0d50 01       		.uleb128 0x1
 15204 0d51 50       		.byte	0x50
 15205 0d52 9F       		.byte	0x9f
 15206 0d53 00000000 		.4byte	0
 15207 0d57 00000000 		.4byte	0
 15208              	.LLST177:
 15209 0d5b 06000000 		.4byte	.LVL435
 15210 0d5f 11000000 		.4byte	.LVL436-1
 15211 0d63 0100     		.2byte	0x1
 15212 0d65 50       		.byte	0x50
 15213 0d66 12000000 		.4byte	.LVL436
 15214 0d6a 16000000 		.4byte	.LVL437
 15215 0d6e 0100     		.2byte	0x1
 15216 0d70 50       		.byte	0x50
 15217 0d71 00000000 		.4byte	0
 15218 0d75 00000000 		.4byte	0
 15219              	.LLST195:
 15220 0d79 00000000 		.4byte	.LVL509
 15221 0d7d 06000000 		.4byte	.LVL510
 15222 0d81 0100     		.2byte	0x1
 15223 0d83 50       		.byte	0x50
 15224 0d84 06000000 		.4byte	.LVL510
 15225 0d88 1C000000 		.4byte	.LVL514
 15226 0d8c 0100     		.2byte	0x1
 15227 0d8e 54       		.byte	0x54
 15228 0d8f 1C000000 		.4byte	.LVL514
 15229 0d93 1F000000 		.4byte	.LVL515-1
 15230 0d97 0100     		.2byte	0x1
 15231 0d99 50       		.byte	0x50
 15232 0d9a 1F000000 		.4byte	.LVL515-1
 15233 0d9e 20000000 		.4byte	.LVL515
 15234 0da2 0400     		.2byte	0x4
 15235 0da4 F3       		.byte	0xf3
 15236 0da5 01       		.uleb128 0x1
 15237 0da6 50       		.byte	0x50
 15238 0da7 9F       		.byte	0x9f
 15239 0da8 20000000 		.4byte	.LVL515
 15240 0dac 24000000 		.4byte	.LFE278
 15241 0db0 0100     		.2byte	0x1
 15242 0db2 54       		.byte	0x54
 15243 0db3 00000000 		.4byte	0
 15244 0db7 00000000 		.4byte	0
 15245              	.LLST196:
 15246 0dbb 00000000 		.4byte	.LVL509
 15247 0dbf 0B000000 		.4byte	.LVL511-1
 15248 0dc3 0100     		.2byte	0x1
 15249 0dc5 51       		.byte	0x51
 15250 0dc6 0B000000 		.4byte	.LVL511-1
 15251 0dca 1C000000 		.4byte	.LVL514
 15252 0dce 0100     		.2byte	0x1
 15253 0dd0 55       		.byte	0x55
 15254 0dd1 1C000000 		.4byte	.LVL514
 15255 0dd5 1F000000 		.4byte	.LVL515-1
 15256 0dd9 0100     		.2byte	0x1
 15257 0ddb 51       		.byte	0x51
 15258 0ddc 1F000000 		.4byte	.LVL515-1
 15259 0de0 20000000 		.4byte	.LVL515
ARM GAS  C:\cygwin64\tmp\ccxdpAIh.s 			page 271


 15260 0de4 0400     		.2byte	0x4
 15261 0de6 F3       		.byte	0xf3
 15262 0de7 01       		.uleb128 0x1
 15263 0de8 51       		.byte	0x51
 15264 0de9 9F       		.byte	0x9f
 15265 0dea 20000000 		.4byte	.LVL515
 15266 0dee 24000000 		.4byte	.LFE278
 15267 0df2 0100     		.2byte	0x1
 15268 0df4 55       		.byte	0x55
 15269 0df5 00000000 		.4byte	0
 15270 0df9 00000000 		.4byte	0
 15271              	.LLST197:
 15272 0dfd 00000000 		.4byte	.LVL509
 15273 0e01 0B000000 		.4byte	.LVL511-1
 15274 0e05 0100     		.2byte	0x1
 15275 0e07 52       		.byte	0x52
 15276 0e08 0B000000 		.4byte	.LVL511-1
 15277 0e0c 24000000 		.4byte	.LFE278
 15278 0e10 0400     		.2byte	0x4
 15279 0e12 F3       		.byte	0xf3
 15280 0e13 01       		.uleb128 0x1
 15281 0e14 52       		.byte	0x52
 15282 0e15 9F       		.byte	0x9f
 15283 0e16 00000000 		.4byte	0
 15284 0e1a 00000000 		.4byte	0
 15285              	.LLST198:
 15286 0e1e 0C000000 		.4byte	.LVL511
 15287 0e22 0F000000 		.4byte	.LVL512-1
 15288 0e26 0100     		.2byte	0x1
 15289 0e28 50       		.byte	0x50
 15290 0e29 00000000 		.4byte	0
 15291 0e2d 00000000 		.4byte	0
 15292              	.LLST199:
 15293 0e31 10000000 		.4byte	.LVL512
 15294 0e35 18000000 		.4byte	.LVL513
 15295 0e39 0100     		.2byte	0x1
 15296 0e3b 50       		.byte	0x50
 15297 0e3c 20000000 		.4byte	.LVL515
 15298 0e40 22000000 		.4byte	.LVL516
 15299 0e44 0100     		.2byte	0x1
 15300 0e46 50       		.byte	0x50
 15301 0e47 00000000 		.4byte	0
 15302 0e4b 00000000 		.4byte	0
 15303              	.LLST153:
 15304 0e4f 00000000 		.4byte	.LVL387
 15305 0e53 11000000 		.4byte	.LVL389-1
 15306 0e57 0100     		.2byte	0x1
 15307 0e59 50       		.byte	0x50
 15308 0e5a 11000000 		.4byte	.LVL389-1
 15309 0e5e 8C000000 		.4byte	.LFE277
 15310 0e62 0100     		.2byte	0x1
 15311 0e64 59       		.byte	0x59
 15312 0e65 00000000 		.4byte	0
 15313 0e69 00000000 		.4byte	0
 15314              	.LLST154:
 15315 0e6d 00000000 		.4byte	.LVL387
 15316 0e71 28000000 		.4byte	.LVL393
ARM GAS  C:\cygwin64\tmp\ccxdpAIh.s 			page 272


 15317 0e75 0100     		.2byte	0x1
 15318 0e77 51       		.byte	0x51
 15319 0e78 28000000 		.4byte	.LVL393
 15320 0e7c 4C000000 		.4byte	.LVL398
 15321 0e80 0400     		.2byte	0x4
 15322 0e82 F3       		.byte	0xf3
 15323 0e83 01       		.uleb128 0x1
 15324 0e84 51       		.byte	0x51
 15325 0e85 9F       		.byte	0x9f
 15326 0e86 4C000000 		.4byte	.LVL398
 15327 0e8a 5E000000 		.4byte	.LVL401
 15328 0e8e 0100     		.2byte	0x1
 15329 0e90 51       		.byte	0x51
 15330 0e91 5E000000 		.4byte	.LVL401
 15331 0e95 64000000 		.4byte	.LVL402
 15332 0e99 0400     		.2byte	0x4
 15333 0e9b F3       		.byte	0xf3
 15334 0e9c 01       		.uleb128 0x1
 15335 0e9d 51       		.byte	0x51
 15336 0e9e 9F       		.byte	0x9f
 15337 0e9f 64000000 		.4byte	.LVL402
 15338 0ea3 6B000000 		.4byte	.LVL403-1
 15339 0ea7 0100     		.2byte	0x1
 15340 0ea9 51       		.byte	0x51
 15341 0eaa 6B000000 		.4byte	.LVL403-1
 15342 0eae 8C000000 		.4byte	.LFE277
 15343 0eb2 0400     		.2byte	0x4
 15344 0eb4 F3       		.byte	0xf3
 15345 0eb5 01       		.uleb128 0x1
 15346 0eb6 51       		.byte	0x51
 15347 0eb7 9F       		.byte	0x9f
 15348 0eb8 00000000 		.4byte	0
 15349 0ebc 00000000 		.4byte	0
 15350              	.LLST155:
 15351 0ec0 00000000 		.4byte	.LVL387
 15352 0ec4 11000000 		.4byte	.LVL389-1
 15353 0ec8 0100     		.2byte	0x1
 15354 0eca 52       		.byte	0x52
 15355 0ecb 11000000 		.4byte	.LVL389-1
 15356 0ecf 26000000 		.4byte	.LVL392
 15357 0ed3 0100     		.2byte	0x1
 15358 0ed5 54       		.byte	0x54
 15359 0ed6 26000000 		.4byte	.LVL392
 15360 0eda 28000000 		.4byte	.LVL393
 15361 0ede 0400     		.2byte	0x4
 15362 0ee0 F3       		.byte	0xf3
 15363 0ee1 01       		.uleb128 0x1
 15364 0ee2 52       		.byte	0x52
 15365 0ee3 9F       		.byte	0x9f
 15366 0ee4 28000000 		.4byte	.LVL393
 15367 0ee8 30000000 		.4byte	.LVL394
 15368 0eec 0C00     		.2byte	0xc
 15369 0eee 76       		.byte	0x76
 15370 0eef 00       		.sleb128 0
 15371 0ef0 20       		.byte	0x20
 15372 0ef1 F3       		.byte	0xf3
 15373 0ef2 01       		.uleb128 0x1
ARM GAS  C:\cygwin64\tmp\ccxdpAIh.s 			page 273


 15374 0ef3 52       		.byte	0x52
 15375 0ef4 22       		.byte	0x22
 15376 0ef5 F3       		.byte	0xf3
 15377 0ef6 01       		.uleb128 0x1
 15378 0ef7 51       		.byte	0x51
 15379 0ef8 22       		.byte	0x22
 15380 0ef9 9F       		.byte	0x9f
 15381 0efa 30000000 		.4byte	.LVL394
 15382 0efe 3C000000 		.4byte	.LVL396
 15383 0f02 0B00     		.2byte	0xb
 15384 0f04 F3       		.byte	0xf3
 15385 0f05 01       		.uleb128 0x1
 15386 0f06 51       		.byte	0x51
 15387 0f07 76       		.byte	0x76
 15388 0f08 00       		.sleb128 0
 15389 0f09 1C       		.byte	0x1c
 15390 0f0a F3       		.byte	0xf3
 15391 0f0b 01       		.uleb128 0x1
 15392 0f0c 52       		.byte	0x52
 15393 0f0d 22       		.byte	0x22
 15394 0f0e 9F       		.byte	0x9f
 15395 0f0f 44000000 		.4byte	.LVL397
 15396 0f13 4C000000 		.4byte	.LVL398
 15397 0f17 0B00     		.2byte	0xb
 15398 0f19 F3       		.byte	0xf3
 15399 0f1a 01       		.uleb128 0x1
 15400 0f1b 51       		.byte	0x51
 15401 0f1c 76       		.byte	0x76
 15402 0f1d 00       		.sleb128 0
 15403 0f1e 1C       		.byte	0x1c
 15404 0f1f F3       		.byte	0xf3
 15405 0f20 01       		.uleb128 0x1
 15406 0f21 52       		.byte	0x52
 15407 0f22 22       		.byte	0x22
 15408 0f23 9F       		.byte	0x9f
 15409 0f24 4C000000 		.4byte	.LVL398
 15410 0f28 8C000000 		.4byte	.LFE277
 15411 0f2c 0100     		.2byte	0x1
 15412 0f2e 54       		.byte	0x54
 15413 0f2f 00000000 		.4byte	0
 15414 0f33 00000000 		.4byte	0
 15415              	.LLST156:
 15416 0f37 0C000000 		.4byte	.LVL388
 15417 0f3b 11000000 		.4byte	.LVL389-1
 15418 0f3f 0100     		.2byte	0x1
 15419 0f41 52       		.byte	0x52
 15420 0f42 11000000 		.4byte	.LVL389-1
 15421 0f46 26000000 		.4byte	.LVL392
 15422 0f4a 0100     		.2byte	0x1
 15423 0f4c 54       		.byte	0x54
 15424 0f4d 26000000 		.4byte	.LVL392
 15425 0f51 4C000000 		.4byte	.LVL398
 15426 0f55 0400     		.2byte	0x4
 15427 0f57 F3       		.byte	0xf3
 15428 0f58 01       		.uleb128 0x1
 15429 0f59 52       		.byte	0x52
 15430 0f5a 9F       		.byte	0x9f
ARM GAS  C:\cygwin64\tmp\ccxdpAIh.s 			page 274


 15431 0f5b 4C000000 		.4byte	.LVL398
 15432 0f5f 8C000000 		.4byte	.LFE277
 15433 0f63 0100     		.2byte	0x1
 15434 0f65 54       		.byte	0x54
 15435 0f66 00000000 		.4byte	0
 15436 0f6a 00000000 		.4byte	0
 15437              	.LLST157:
 15438 0f6e 58000000 		.4byte	.LVL400
 15439 0f72 5E000000 		.4byte	.LVL401
 15440 0f76 0100     		.2byte	0x1
 15441 0f78 50       		.byte	0x50
 15442 0f79 64000000 		.4byte	.LVL402
 15443 0f7d 6B000000 		.4byte	.LVL403-1
 15444 0f81 0100     		.2byte	0x1
 15445 0f83 50       		.byte	0x50
 15446 0f84 00000000 		.4byte	0
 15447 0f88 00000000 		.4byte	0
 15448              	.LLST158:
 15449 0f8c 1A000000 		.4byte	.LVL390
 15450 0f90 28000000 		.4byte	.LVL393
 15451 0f94 0100     		.2byte	0x1
 15452 0f96 50       		.byte	0x50
 15453 0f97 28000000 		.4byte	.LVL393
 15454 0f9b 4C000000 		.4byte	.LVL398
 15455 0f9f 0100     		.2byte	0x1
 15456 0fa1 55       		.byte	0x55
 15457 0fa2 4C000000 		.4byte	.LVL398
 15458 0fa6 54000000 		.4byte	.LVL399
 15459 0faa 0100     		.2byte	0x1
 15460 0fac 50       		.byte	0x50
 15461 0fad 54000000 		.4byte	.LVL399
 15462 0fb1 8C000000 		.4byte	.LFE277
 15463 0fb5 0100     		.2byte	0x1
 15464 0fb7 55       		.byte	0x55
 15465 0fb8 00000000 		.4byte	0
 15466 0fbc 00000000 		.4byte	0
 15467              	.LLST159:
 15468 0fc0 22000000 		.4byte	.LVL391
 15469 0fc4 28000000 		.4byte	.LVL393
 15470 0fc8 0100     		.2byte	0x1
 15471 0fca 51       		.byte	0x51
 15472 0fcb 28000000 		.4byte	.LVL393
 15473 0fcf 30000000 		.4byte	.LVL394
 15474 0fd3 0100     		.2byte	0x1
 15475 0fd5 56       		.byte	0x56
 15476 0fd6 30000000 		.4byte	.LVL394
 15477 0fda 3C000000 		.4byte	.LVL396
 15478 0fde 0300     		.2byte	0x3
 15479 0fe0 76       		.byte	0x76
 15480 0fe1 7F       		.sleb128 -1
 15481 0fe2 9F       		.byte	0x9f
 15482 0fe3 44000000 		.4byte	.LVL397
 15483 0fe7 4C000000 		.4byte	.LVL398
 15484 0feb 0300     		.2byte	0x3
 15485 0fed 76       		.byte	0x76
 15486 0fee 7F       		.sleb128 -1
 15487 0fef 9F       		.byte	0x9f
ARM GAS  C:\cygwin64\tmp\ccxdpAIh.s 			page 275


 15488 0ff0 00000000 		.4byte	0
 15489 0ff4 00000000 		.4byte	0
 15490              	.LLST160:
 15491 0ff8 30000000 		.4byte	.LVL394
 15492 0ffc 3C000000 		.4byte	.LVL396
 15493 1000 0100     		.2byte	0x1
 15494 1002 57       		.byte	0x57
 15495 1003 44000000 		.4byte	.LVL397
 15496 1007 4C000000 		.4byte	.LVL398
 15497 100b 0100     		.2byte	0x1
 15498 100d 57       		.byte	0x57
 15499 100e 00000000 		.4byte	0
 15500 1012 00000000 		.4byte	0
 15501              	.LLST161:
 15502 1016 38000000 		.4byte	.LVL395
 15503 101a 3C000000 		.4byte	.LVL396
 15504 101e 0100     		.2byte	0x1
 15505 1020 50       		.byte	0x50
 15506 1021 44000000 		.4byte	.LVL397
 15507 1025 4C000000 		.4byte	.LVL398
 15508 1029 0100     		.2byte	0x1
 15509 102b 50       		.byte	0x50
 15510 102c 00000000 		.4byte	0
 15511 1030 00000000 		.4byte	0
 15512              	.LLST33:
 15513 1034 00000000 		.4byte	.LVL100
 15514 1038 12000000 		.4byte	.LVL102
 15515 103c 0100     		.2byte	0x1
 15516 103e 50       		.byte	0x50
 15517 103f 12000000 		.4byte	.LVL102
 15518 1043 17000000 		.4byte	.LVL103-1
 15519 1047 0100     		.2byte	0x1
 15520 1049 51       		.byte	0x51
 15521 104a 17000000 		.4byte	.LVL103-1
 15522 104e 54000000 		.4byte	.LFE276
 15523 1052 0400     		.2byte	0x4
 15524 1054 F3       		.byte	0xf3
 15525 1055 01       		.uleb128 0x1
 15526 1056 50       		.byte	0x50
 15527 1057 9F       		.byte	0x9f
 15528 1058 00000000 		.4byte	0
 15529 105c 00000000 		.4byte	0
 15530              	.LLST34:
 15531 1060 00000000 		.4byte	.LVL100
 15532 1064 0E000000 		.4byte	.LVL101
 15533 1068 0100     		.2byte	0x1
 15534 106a 51       		.byte	0x51
 15535 106b 0E000000 		.4byte	.LVL101
 15536 106f 4A000000 		.4byte	.LVL113
 15537 1073 0100     		.2byte	0x1
 15538 1075 55       		.byte	0x55
 15539 1076 4A000000 		.4byte	.LVL113
 15540 107a 54000000 		.4byte	.LFE276
 15541 107e 0400     		.2byte	0x4
 15542 1080 F3       		.byte	0xf3
 15543 1081 01       		.uleb128 0x1
 15544 1082 51       		.byte	0x51
ARM GAS  C:\cygwin64\tmp\ccxdpAIh.s 			page 276


 15545 1083 9F       		.byte	0x9f
 15546 1084 00000000 		.4byte	0
 15547 1088 00000000 		.4byte	0
 15548              	.LLST35:
 15549 108c 18000000 		.4byte	.LVL103
 15550 1090 2A000000 		.4byte	.LVL106
 15551 1094 0100     		.2byte	0x1
 15552 1096 50       		.byte	0x50
 15553 1097 2C000000 		.4byte	.LVL107
 15554 109b 32000000 		.4byte	.LVL108
 15555 109f 0100     		.2byte	0x1
 15556 10a1 50       		.byte	0x50
 15557 10a2 36000000 		.4byte	.LVL109
 15558 10a6 3C000000 		.4byte	.LVL110
 15559 10aa 0100     		.2byte	0x1
 15560 10ac 50       		.byte	0x50
 15561 10ad 40000000 		.4byte	.LVL111
 15562 10b1 44000000 		.4byte	.LVL112
 15563 10b5 0100     		.2byte	0x1
 15564 10b7 50       		.byte	0x50
 15565 10b8 00000000 		.4byte	0
 15566 10bc 00000000 		.4byte	0
 15567              	.LLST146:
 15568 10c0 00000000 		.4byte	.LVL368
 15569 10c4 0E000000 		.4byte	.LVL370
 15570 10c8 0100     		.2byte	0x1
 15571 10ca 50       		.byte	0x50
 15572 10cb 0E000000 		.4byte	.LVL370
 15573 10cf 10000000 		.4byte	.LVL371
 15574 10d3 0100     		.2byte	0x1
 15575 10d5 51       		.byte	0x51
 15576 10d6 10000000 		.4byte	.LVL371
 15577 10da 18000000 		.4byte	.LVL372
 15578 10de 0400     		.2byte	0x4
 15579 10e0 F3       		.byte	0xf3
 15580 10e1 01       		.uleb128 0x1
 15581 10e2 50       		.byte	0x50
 15582 10e3 9F       		.byte	0x9f
 15583 10e4 18000000 		.4byte	.LVL372
 15584 10e8 1B000000 		.4byte	.LVL373-1
 15585 10ec 0100     		.2byte	0x1
 15586 10ee 50       		.byte	0x50
 15587 10ef 1B000000 		.4byte	.LVL373-1
 15588 10f3 31000000 		.4byte	.LVL376-1
 15589 10f7 0100     		.2byte	0x1
 15590 10f9 51       		.byte	0x51
 15591 10fa 31000000 		.4byte	.LVL376-1
 15592 10fe 4C000000 		.4byte	.LFE275
 15593 1102 0400     		.2byte	0x4
 15594 1104 F3       		.byte	0xf3
 15595 1105 01       		.uleb128 0x1
 15596 1106 50       		.byte	0x50
 15597 1107 9F       		.byte	0x9f
 15598 1108 00000000 		.4byte	0
 15599 110c 00000000 		.4byte	0
 15600              	.LLST147:
 15601 1110 2A000000 		.4byte	.LVL375
ARM GAS  C:\cygwin64\tmp\ccxdpAIh.s 			page 277


 15602 1114 31000000 		.4byte	.LVL376-1
 15603 1118 0100     		.2byte	0x1
 15604 111a 50       		.byte	0x50
 15605 111b 00000000 		.4byte	0
 15606 111f 00000000 		.4byte	0
 15607              	.LLST148:
 15608 1123 1C000000 		.4byte	.LVL373
 15609 1127 26000000 		.4byte	.LVL374
 15610 112b 0100     		.2byte	0x1
 15611 112d 50       		.byte	0x50
 15612 112e 00000000 		.4byte	0
 15613 1132 00000000 		.4byte	0
 15614              	.LLST149:
 15615 1136 0C000000 		.4byte	.LVL369
 15616 113a 0E000000 		.4byte	.LVL370
 15617 113e 0100     		.2byte	0x1
 15618 1140 50       		.byte	0x50
 15619 1141 00000000 		.4byte	0
 15620 1145 00000000 		.4byte	0
 15621              	.LLST150:
 15622 1149 16000000 		.4byte	.LVL384
 15623 114d 1C000000 		.4byte	.LVL385
 15624 1151 0100     		.2byte	0x1
 15625 1153 50       		.byte	0x50
 15626 1154 00000000 		.4byte	0
 15627 1158 00000000 		.4byte	0
 15628              	.LLST151:
 15629 115c 00000000 		.4byte	.LVL379
 15630 1160 04000000 		.4byte	.LVL380
 15631 1164 0200     		.2byte	0x2
 15632 1166 30       		.byte	0x30
 15633 1167 9F       		.byte	0x9f
 15634 1168 06000000 		.4byte	.LVL381
 15635 116c 22000000 		.4byte	.LFE274
 15636 1170 0100     		.2byte	0x1
 15637 1172 54       		.byte	0x54
 15638 1173 00000000 		.4byte	0
 15639 1177 00000000 		.4byte	0
 15640              	.LLST152:
 15641 117b 00000000 		.4byte	.LVL379
 15642 117f 04000000 		.4byte	.LVL380
 15643 1183 0200     		.2byte	0x2
 15644 1185 30       		.byte	0x30
 15645 1186 9F       		.byte	0x9f
 15646 1187 0C000000 		.4byte	.LVL382
 15647 118b 10000000 		.4byte	.LVL383
 15648 118f 0100     		.2byte	0x1
 15649 1191 54       		.byte	0x54
 15650 1192 00000000 		.4byte	0
 15651 1196 00000000 		.4byte	0
 15652              	.LLST132:
 15653 119a 00000000 		.4byte	.LVL343
 15654 119e 13000000 		.4byte	.LVL345-1
 15655 11a2 0100     		.2byte	0x1
 15656 11a4 50       		.byte	0x50
 15657 11a5 13000000 		.4byte	.LVL345-1
 15658 11a9 94000000 		.4byte	.LFE273
ARM GAS  C:\cygwin64\tmp\ccxdpAIh.s 			page 278


 15659 11ad 0100     		.2byte	0x1
 15660 11af 59       		.byte	0x59
 15661 11b0 00000000 		.4byte	0
 15662 11b4 00000000 		.4byte	0
 15663              	.LLST133:
 15664 11b8 00000000 		.4byte	.LVL343
 15665 11bc 2C000000 		.4byte	.LVL349
 15666 11c0 0100     		.2byte	0x1
 15667 11c2 51       		.byte	0x51
 15668 11c3 2C000000 		.4byte	.LVL349
 15669 11c7 4E000000 		.4byte	.LVL354
 15670 11cb 0400     		.2byte	0x4
 15671 11cd F3       		.byte	0xf3
 15672 11ce 01       		.uleb128 0x1
 15673 11cf 51       		.byte	0x51
 15674 11d0 9F       		.byte	0x9f
 15675 11d1 4E000000 		.4byte	.LVL354
 15676 11d5 66000000 		.4byte	.LVL357
 15677 11d9 0100     		.2byte	0x1
 15678 11db 51       		.byte	0x51
 15679 11dc 66000000 		.4byte	.LVL357
 15680 11e0 6C000000 		.4byte	.LVL358
 15681 11e4 0400     		.2byte	0x4
 15682 11e6 F3       		.byte	0xf3
 15683 11e7 01       		.uleb128 0x1
 15684 11e8 51       		.byte	0x51
 15685 11e9 9F       		.byte	0x9f
 15686 11ea 6C000000 		.4byte	.LVL358
 15687 11ee 73000000 		.4byte	.LVL359-1
 15688 11f2 0100     		.2byte	0x1
 15689 11f4 51       		.byte	0x51
 15690 11f5 73000000 		.4byte	.LVL359-1
 15691 11f9 94000000 		.4byte	.LFE273
 15692 11fd 0400     		.2byte	0x4
 15693 11ff F3       		.byte	0xf3
 15694 1200 01       		.uleb128 0x1
 15695 1201 51       		.byte	0x51
 15696 1202 9F       		.byte	0x9f
 15697 1203 00000000 		.4byte	0
 15698 1207 00000000 		.4byte	0
 15699              	.LLST134:
 15700 120b 00000000 		.4byte	.LVL343
 15701 120f 13000000 		.4byte	.LVL345-1
 15702 1213 0100     		.2byte	0x1
 15703 1215 52       		.byte	0x52
 15704 1216 13000000 		.4byte	.LVL345-1
 15705 121a 2A000000 		.4byte	.LVL348
 15706 121e 0100     		.2byte	0x1
 15707 1220 56       		.byte	0x56
 15708 1221 2A000000 		.4byte	.LVL348
 15709 1225 2C000000 		.4byte	.LVL349
 15710 1229 0400     		.2byte	0x4
 15711 122b F3       		.byte	0xf3
 15712 122c 01       		.uleb128 0x1
 15713 122d 52       		.byte	0x52
 15714 122e 9F       		.byte	0x9f
 15715 122f 2C000000 		.4byte	.LVL349
ARM GAS  C:\cygwin64\tmp\ccxdpAIh.s 			page 279


 15716 1233 3A000000 		.4byte	.LVL351
 15717 1237 0C00     		.2byte	0xc
 15718 1239 74       		.byte	0x74
 15719 123a 00       		.sleb128 0
 15720 123b 20       		.byte	0x20
 15721 123c F3       		.byte	0xf3
 15722 123d 01       		.uleb128 0x1
 15723 123e 52       		.byte	0x52
 15724 123f 22       		.byte	0x22
 15725 1240 F3       		.byte	0xf3
 15726 1241 01       		.uleb128 0x1
 15727 1242 51       		.byte	0x51
 15728 1243 22       		.byte	0x22
 15729 1244 9F       		.byte	0x9f
 15730 1245 42000000 		.4byte	.LVL352
 15731 1249 48000000 		.4byte	.LVL353
 15732 124d 0C00     		.2byte	0xc
 15733 124f 74       		.byte	0x74
 15734 1250 00       		.sleb128 0
 15735 1251 20       		.byte	0x20
 15736 1252 F3       		.byte	0xf3
 15737 1253 01       		.uleb128 0x1
 15738 1254 52       		.byte	0x52
 15739 1255 22       		.byte	0x22
 15740 1256 F3       		.byte	0xf3
 15741 1257 01       		.uleb128 0x1
 15742 1258 51       		.byte	0x51
 15743 1259 22       		.byte	0x22
 15744 125a 9F       		.byte	0x9f
 15745 125b 48000000 		.4byte	.LVL353
 15746 125f 4E000000 		.4byte	.LVL354
 15747 1263 0B00     		.2byte	0xb
 15748 1265 F3       		.byte	0xf3
 15749 1266 01       		.uleb128 0x1
 15750 1267 51       		.byte	0x51
 15751 1268 74       		.byte	0x74
 15752 1269 00       		.sleb128 0
 15753 126a 1C       		.byte	0x1c
 15754 126b F3       		.byte	0xf3
 15755 126c 01       		.uleb128 0x1
 15756 126d 52       		.byte	0x52
 15757 126e 22       		.byte	0x22
 15758 126f 9F       		.byte	0x9f
 15759 1270 4E000000 		.4byte	.LVL354
 15760 1274 94000000 		.4byte	.LFE273
 15761 1278 0100     		.2byte	0x1
 15762 127a 56       		.byte	0x56
 15763 127b 00000000 		.4byte	0
 15764 127f 00000000 		.4byte	0
 15765              	.LLST135:
 15766 1283 0E000000 		.4byte	.LVL344
 15767 1287 13000000 		.4byte	.LVL345-1
 15768 128b 0100     		.2byte	0x1
 15769 128d 52       		.byte	0x52
 15770 128e 13000000 		.4byte	.LVL345-1
 15771 1292 2A000000 		.4byte	.LVL348
 15772 1296 0100     		.2byte	0x1
ARM GAS  C:\cygwin64\tmp\ccxdpAIh.s 			page 280


 15773 1298 56       		.byte	0x56
 15774 1299 2A000000 		.4byte	.LVL348
 15775 129d 4E000000 		.4byte	.LVL354
 15776 12a1 0400     		.2byte	0x4
 15777 12a3 F3       		.byte	0xf3
 15778 12a4 01       		.uleb128 0x1
 15779 12a5 52       		.byte	0x52
 15780 12a6 9F       		.byte	0x9f
 15781 12a7 4E000000 		.4byte	.LVL354
 15782 12ab 94000000 		.4byte	.LFE273
 15783 12af 0100     		.2byte	0x1
 15784 12b1 56       		.byte	0x56
 15785 12b2 00000000 		.4byte	0
 15786 12b6 00000000 		.4byte	0
 15787              	.LLST136:
 15788 12ba 36000000 		.4byte	.LVL350
 15789 12be 3A000000 		.4byte	.LVL351
 15790 12c2 0100     		.2byte	0x1
 15791 12c4 50       		.byte	0x50
 15792 12c5 42000000 		.4byte	.LVL352
 15793 12c9 4E000000 		.4byte	.LVL354
 15794 12cd 0100     		.2byte	0x1
 15795 12cf 50       		.byte	0x50
 15796 12d0 00000000 		.4byte	0
 15797 12d4 00000000 		.4byte	0
 15798              	.LLST137:
 15799 12d8 60000000 		.4byte	.LVL356
 15800 12dc 66000000 		.4byte	.LVL357
 15801 12e0 0100     		.2byte	0x1
 15802 12e2 50       		.byte	0x50
 15803 12e3 6C000000 		.4byte	.LVL358
 15804 12e7 73000000 		.4byte	.LVL359-1
 15805 12eb 0100     		.2byte	0x1
 15806 12ed 50       		.byte	0x50
 15807 12ee 00000000 		.4byte	0
 15808 12f2 00000000 		.4byte	0
 15809              	.LLST138:
 15810 12f6 1C000000 		.4byte	.LVL346
 15811 12fa 2C000000 		.4byte	.LVL349
 15812 12fe 0100     		.2byte	0x1
 15813 1300 50       		.byte	0x50
 15814 1301 2C000000 		.4byte	.LVL349
 15815 1305 4E000000 		.4byte	.LVL354
 15816 1309 0100     		.2byte	0x1
 15817 130b 55       		.byte	0x55
 15818 130c 4E000000 		.4byte	.LVL354
 15819 1310 5C000000 		.4byte	.LVL355
 15820 1314 0100     		.2byte	0x1
 15821 1316 50       		.byte	0x50
 15822 1317 5C000000 		.4byte	.LVL355
 15823 131b 94000000 		.4byte	.LFE273
 15824 131f 0100     		.2byte	0x1
 15825 1321 55       		.byte	0x55
 15826 1322 00000000 		.4byte	0
 15827 1326 00000000 		.4byte	0
 15828              	.LLST139:
 15829 132a 1E000000 		.4byte	.LVL347
ARM GAS  C:\cygwin64\tmp\ccxdpAIh.s 			page 281


 15830 132e 2C000000 		.4byte	.LVL349
 15831 1332 0100     		.2byte	0x1
 15832 1334 51       		.byte	0x51
 15833 1335 2C000000 		.4byte	.LVL349
 15834 1339 3A000000 		.4byte	.LVL351
 15835 133d 0100     		.2byte	0x1
 15836 133f 54       		.byte	0x54
 15837 1340 42000000 		.4byte	.LVL352
 15838 1344 48000000 		.4byte	.LVL353
 15839 1348 0100     		.2byte	0x1
 15840 134a 54       		.byte	0x54
 15841 134b 48000000 		.4byte	.LVL353
 15842 134f 4E000000 		.4byte	.LVL354
 15843 1353 0300     		.2byte	0x3
 15844 1355 74       		.byte	0x74
 15845 1356 7F       		.sleb128 -1
 15846 1357 9F       		.byte	0x9f
 15847 1358 00000000 		.4byte	0
 15848 135c 00000000 		.4byte	0
 15849              	.LLST182:
 15850 1360 00000000 		.4byte	.LVL454
 15851 1364 37000000 		.4byte	.LVL458-1
 15852 1368 0100     		.2byte	0x1
 15853 136a 50       		.byte	0x50
 15854 136b 37000000 		.4byte	.LVL458-1
 15855 136f 4A000000 		.4byte	.LVL463
 15856 1373 0100     		.2byte	0x1
 15857 1375 5B       		.byte	0x5b
 15858 1376 4A000000 		.4byte	.LVL463
 15859 137a 4E000000 		.4byte	.LVL464
 15860 137e 0100     		.2byte	0x1
 15861 1380 50       		.byte	0x50
 15862 1381 4E000000 		.4byte	.LVL464
 15863 1385 EC000000 		.4byte	.LFE272
 15864 1389 0100     		.2byte	0x1
 15865 138b 5B       		.byte	0x5b
 15866 138c 00000000 		.4byte	0
 15867 1390 00000000 		.4byte	0
 15868              	.LLST183:
 15869 1394 00000000 		.4byte	.LVL454
 15870 1398 37000000 		.4byte	.LVL458-1
 15871 139c 0100     		.2byte	0x1
 15872 139e 51       		.byte	0x51
 15873 139f 37000000 		.4byte	.LVL458-1
 15874 13a3 4A000000 		.4byte	.LVL463
 15875 13a7 0100     		.2byte	0x1
 15876 13a9 59       		.byte	0x59
 15877 13aa 4A000000 		.4byte	.LVL463
 15878 13ae 4E000000 		.4byte	.LVL464
 15879 13b2 0100     		.2byte	0x1
 15880 13b4 51       		.byte	0x51
 15881 13b5 4E000000 		.4byte	.LVL464
 15882 13b9 EC000000 		.4byte	.LFE272
 15883 13bd 0100     		.2byte	0x1
 15884 13bf 59       		.byte	0x59
 15885 13c0 00000000 		.4byte	0
 15886 13c4 00000000 		.4byte	0
ARM GAS  C:\cygwin64\tmp\ccxdpAIh.s 			page 282


 15887              	.LLST184:
 15888 13c8 3A000000 		.4byte	.LVL459
 15889 13cc 3D000000 		.4byte	.LVL460-1
 15890 13d0 0100     		.2byte	0x1
 15891 13d2 50       		.byte	0x50
 15892 13d3 3D000000 		.4byte	.LVL460-1
 15893 13d7 4A000000 		.4byte	.LVL463
 15894 13db 0100     		.2byte	0x1
 15895 13dd 54       		.byte	0x54
 15896 13de 4E000000 		.4byte	.LVL464
 15897 13e2 51000000 		.4byte	.LVL465-1
 15898 13e6 0100     		.2byte	0x1
 15899 13e8 50       		.byte	0x50
 15900 13e9 51000000 		.4byte	.LVL465-1
 15901 13ed 64000000 		.4byte	.LVL469
 15902 13f1 0100     		.2byte	0x1
 15903 13f3 54       		.byte	0x54
 15904 13f4 6A000000 		.4byte	.LVL470
 15905 13f8 EC000000 		.4byte	.LFE272
 15906 13fc 0100     		.2byte	0x1
 15907 13fe 54       		.byte	0x54
 15908 13ff 00000000 		.4byte	0
 15909 1403 00000000 		.4byte	0
 15910              	.LLST185:
 15911 1407 20000000 		.4byte	.LVL455
 15912 140b 4A000000 		.4byte	.LVL463
 15913 140f 0100     		.2byte	0x1
 15914 1411 57       		.byte	0x57
 15915 1412 4E000000 		.4byte	.LVL464
 15916 1416 EC000000 		.4byte	.LFE272
 15917 141a 0100     		.2byte	0x1
 15918 141c 57       		.byte	0x57
 15919 141d 00000000 		.4byte	0
 15920 1421 00000000 		.4byte	0
 15921              	.LLST186:
 15922 1425 3E000000 		.4byte	.LVL460
 15923 1429 42000000 		.4byte	.LVL461
 15924 142d 0100     		.2byte	0x1
 15925 142f 50       		.byte	0x50
 15926 1430 42000000 		.4byte	.LVL461
 15927 1434 4A000000 		.4byte	.LVL463
 15928 1438 0100     		.2byte	0x1
 15929 143a 55       		.byte	0x55
 15930 143b 4E000000 		.4byte	.LVL464
 15931 143f EC000000 		.4byte	.LFE272
 15932 1443 0100     		.2byte	0x1
 15933 1445 55       		.byte	0x55
 15934 1446 00000000 		.4byte	0
 15935 144a 00000000 		.4byte	0
 15936              	.LLST187:
 15937 144e 52000000 		.4byte	.LVL465
 15938 1452 58000000 		.4byte	.LVL466
 15939 1456 0100     		.2byte	0x1
 15940 1458 50       		.byte	0x50
 15941 1459 58000000 		.4byte	.LVL466
 15942 145d 60000000 		.4byte	.LVL468
 15943 1461 0100     		.2byte	0x1
ARM GAS  C:\cygwin64\tmp\ccxdpAIh.s 			page 283


 15944 1463 5A       		.byte	0x5a
 15945 1464 6A000000 		.4byte	.LVL470
 15946 1468 71000000 		.4byte	.LVL471-1
 15947 146c 0100     		.2byte	0x1
 15948 146e 50       		.byte	0x50
 15949 146f 71000000 		.4byte	.LVL471-1
 15950 1473 EC000000 		.4byte	.LFE272
 15951 1477 0100     		.2byte	0x1
 15952 1479 5A       		.byte	0x5a
 15953 147a 00000000 		.4byte	0
 15954 147e 00000000 		.4byte	0
 15955              	.LLST188:
 15956 1482 72000000 		.4byte	.LVL471
 15957 1486 80000000 		.4byte	.LVL474
 15958 148a 0600     		.2byte	0x6
 15959 148c 70       		.byte	0x70
 15960 148d 00       		.sleb128 0
 15961 148e 08       		.byte	0x8
 15962 148f FF       		.byte	0xff
 15963 1490 1A       		.byte	0x1a
 15964 1491 9F       		.byte	0x9f
 15965 1492 84000000 		.4byte	.LVL475
 15966 1496 90000000 		.4byte	.LVL476
 15967 149a 0600     		.2byte	0x6
 15968 149c 70       		.byte	0x70
 15969 149d 00       		.sleb128 0
 15970 149e 08       		.byte	0x8
 15971 149f FF       		.byte	0xff
 15972 14a0 1A       		.byte	0x1a
 15973 14a1 9F       		.byte	0x9f
 15974 14a2 94000000 		.4byte	.LVL477
 15975 14a6 A4000000 		.4byte	.LVL480
 15976 14aa 0600     		.2byte	0x6
 15977 14ac 70       		.byte	0x70
 15978 14ad 00       		.sleb128 0
 15979 14ae 08       		.byte	0x8
 15980 14af FF       		.byte	0xff
 15981 14b0 1A       		.byte	0x1a
 15982 14b1 9F       		.byte	0x9f
 15983 14b2 00000000 		.4byte	0
 15984 14b6 00000000 		.4byte	0
 15985              	.LLST162:
 15986 14ba 00000000 		.4byte	.LVL406
 15987 14be 0A000000 		.4byte	.LVL408
 15988 14c2 0100     		.2byte	0x1
 15989 14c4 50       		.byte	0x50
 15990 14c5 0A000000 		.4byte	.LVL408
 15991 14c9 1C000000 		.4byte	.LFE271
 15992 14cd 0100     		.2byte	0x1
 15993 14cf 54       		.byte	0x54
 15994 14d0 00000000 		.4byte	0
 15995 14d4 00000000 		.4byte	0
 15996              	.LLST163:
 15997 14d8 00000000 		.4byte	.LVL406
 15998 14dc 0D000000 		.4byte	.LVL409-1
 15999 14e0 0100     		.2byte	0x1
 16000 14e2 51       		.byte	0x51
ARM GAS  C:\cygwin64\tmp\ccxdpAIh.s 			page 284


 16001 14e3 0D000000 		.4byte	.LVL409-1
 16002 14e7 1C000000 		.4byte	.LFE271
 16003 14eb 0400     		.2byte	0x4
 16004 14ed F3       		.byte	0xf3
 16005 14ee 01       		.uleb128 0x1
 16006 14ef 51       		.byte	0x51
 16007 14f0 9F       		.byte	0x9f
 16008 14f1 00000000 		.4byte	0
 16009 14f5 00000000 		.4byte	0
 16010              	.LLST164:
 16011 14f9 00000000 		.4byte	.LVL406
 16012 14fd 0D000000 		.4byte	.LVL409-1
 16013 1501 0100     		.2byte	0x1
 16014 1503 52       		.byte	0x52
 16015 1504 0D000000 		.4byte	.LVL409-1
 16016 1508 1C000000 		.4byte	.LFE271
 16017 150c 0400     		.2byte	0x4
 16018 150e F3       		.byte	0xf3
 16019 150f 01       		.uleb128 0x1
 16020 1510 52       		.byte	0x52
 16021 1511 9F       		.byte	0x9f
 16022 1512 00000000 		.4byte	0
 16023 1516 00000000 		.4byte	0
 16024              	.LLST165:
 16025 151a 00000000 		.4byte	.LVL406
 16026 151e 0D000000 		.4byte	.LVL409-1
 16027 1522 0100     		.2byte	0x1
 16028 1524 53       		.byte	0x53
 16029 1525 0D000000 		.4byte	.LVL409-1
 16030 1529 1C000000 		.4byte	.LFE271
 16031 152d 0400     		.2byte	0x4
 16032 152f F3       		.byte	0xf3
 16033 1530 01       		.uleb128 0x1
 16034 1531 53       		.byte	0x53
 16035 1532 9F       		.byte	0x9f
 16036 1533 00000000 		.4byte	0
 16037 1537 00000000 		.4byte	0
 16038              	.LLST166:
 16039 153b 0E000000 		.4byte	.LVL409
 16040 153f 15000000 		.4byte	.LVL410-1
 16041 1543 0100     		.2byte	0x1
 16042 1545 50       		.byte	0x50
 16043 1546 00000000 		.4byte	0
 16044 154a 00000000 		.4byte	0
 16045              	.LLST167:
 16046 154e 16000000 		.4byte	.LVL410
 16047 1552 1A000000 		.4byte	.LVL411
 16048 1556 0100     		.2byte	0x1
 16049 1558 50       		.byte	0x50
 16050 1559 00000000 		.4byte	0
 16051 155d 00000000 		.4byte	0
 16052              	.LLST127:
 16053 1561 00000000 		.4byte	.LVL332
 16054 1565 0C000000 		.4byte	.LVL334
 16055 1569 0100     		.2byte	0x1
 16056 156b 50       		.byte	0x50
 16057 156c 0C000000 		.4byte	.LVL334
ARM GAS  C:\cygwin64\tmp\ccxdpAIh.s 			page 285


 16058 1570 1C000000 		.4byte	.LVL338
 16059 1574 0400     		.2byte	0x4
 16060 1576 F3       		.byte	0xf3
 16061 1577 01       		.uleb128 0x1
 16062 1578 50       		.byte	0x50
 16063 1579 9F       		.byte	0x9f
 16064 157a 1C000000 		.4byte	.LVL338
 16065 157e 1F000000 		.4byte	.LVL339-1
 16066 1582 0100     		.2byte	0x1
 16067 1584 50       		.byte	0x50
 16068 1585 1F000000 		.4byte	.LVL339-1
 16069 1589 48000000 		.4byte	.LFE270
 16070 158d 0400     		.2byte	0x4
 16071 158f F3       		.byte	0xf3
 16072 1590 01       		.uleb128 0x1
 16073 1591 50       		.byte	0x50
 16074 1592 9F       		.byte	0x9f
 16075 1593 00000000 		.4byte	0
 16076 1597 00000000 		.4byte	0
 16077              	.LLST128:
 16078 159b 00000000 		.4byte	.LVL332
 16079 159f 0C000000 		.4byte	.LVL334
 16080 15a3 0100     		.2byte	0x1
 16081 15a5 51       		.byte	0x51
 16082 15a6 0C000000 		.4byte	.LVL334
 16083 15aa 1C000000 		.4byte	.LVL338
 16084 15ae 0400     		.2byte	0x4
 16085 15b0 F3       		.byte	0xf3
 16086 15b1 01       		.uleb128 0x1
 16087 15b2 51       		.byte	0x51
 16088 15b3 9F       		.byte	0x9f
 16089 15b4 1C000000 		.4byte	.LVL338
 16090 15b8 2D000000 		.4byte	.LVL340-1
 16091 15bc 0100     		.2byte	0x1
 16092 15be 51       		.byte	0x51
 16093 15bf 2D000000 		.4byte	.LVL340-1
 16094 15c3 48000000 		.4byte	.LFE270
 16095 15c7 0400     		.2byte	0x4
 16096 15c9 F3       		.byte	0xf3
 16097 15ca 01       		.uleb128 0x1
 16098 15cb 51       		.byte	0x51
 16099 15cc 9F       		.byte	0x9f
 16100 15cd 00000000 		.4byte	0
 16101 15d1 00000000 		.4byte	0
 16102              	.LLST129:
 16103 15d5 12000000 		.4byte	.LVL335
 16104 15d9 1C000000 		.4byte	.LVL338
 16105 15dd 0100     		.2byte	0x1
 16106 15df 55       		.byte	0x55
 16107 15e0 20000000 		.4byte	.LVL339
 16108 15e4 2D000000 		.4byte	.LVL340-1
 16109 15e8 0100     		.2byte	0x1
 16110 15ea 50       		.byte	0x50
 16111 15eb 2D000000 		.4byte	.LVL340-1
 16112 15ef 48000000 		.4byte	.LFE270
 16113 15f3 0100     		.2byte	0x1
 16114 15f5 55       		.byte	0x55
ARM GAS  C:\cygwin64\tmp\ccxdpAIh.s 			page 286


 16115 15f6 00000000 		.4byte	0
 16116 15fa 00000000 		.4byte	0
 16117              	.LLST130:
 16118 15fe 12000000 		.4byte	.LVL335
 16119 1602 14000000 		.4byte	.LVL336
 16120 1606 0100     		.2byte	0x1
 16121 1608 50       		.byte	0x50
 16122 1609 18000000 		.4byte	.LVL337
 16123 160d 1C000000 		.4byte	.LVL338
 16124 1611 0100     		.2byte	0x1
 16125 1613 50       		.byte	0x50
 16126 1614 2E000000 		.4byte	.LVL340
 16127 1618 48000000 		.4byte	.LFE270
 16128 161c 0100     		.2byte	0x1
 16129 161e 50       		.byte	0x50
 16130 161f 00000000 		.4byte	0
 16131 1623 00000000 		.4byte	0
 16132              	.LLST131:
 16133 1627 0A000000 		.4byte	.LVL333
 16134 162b 0C000000 		.4byte	.LVL334
 16135 162f 0100     		.2byte	0x1
 16136 1631 50       		.byte	0x50
 16137 1632 00000000 		.4byte	0
 16138 1636 00000000 		.4byte	0
 16139              	.LLST140:
 16140 163a 00000000 		.4byte	.LVL362
 16141 163e 0A000000 		.4byte	.LVL364
 16142 1642 0100     		.2byte	0x1
 16143 1644 50       		.byte	0x50
 16144 1645 0A000000 		.4byte	.LVL364
 16145 1649 1C000000 		.4byte	.LFE269
 16146 164d 0100     		.2byte	0x1
 16147 164f 54       		.byte	0x54
 16148 1650 00000000 		.4byte	0
 16149 1654 00000000 		.4byte	0
 16150              	.LLST141:
 16151 1658 00000000 		.4byte	.LVL362
 16152 165c 0D000000 		.4byte	.LVL365-1
 16153 1660 0100     		.2byte	0x1
 16154 1662 51       		.byte	0x51
 16155 1663 0D000000 		.4byte	.LVL365-1
 16156 1667 1C000000 		.4byte	.LFE269
 16157 166b 0400     		.2byte	0x4
 16158 166d F3       		.byte	0xf3
 16159 166e 01       		.uleb128 0x1
 16160 166f 51       		.byte	0x51
 16161 1670 9F       		.byte	0x9f
 16162 1671 00000000 		.4byte	0
 16163 1675 00000000 		.4byte	0
 16164              	.LLST142:
 16165 1679 00000000 		.4byte	.LVL362
 16166 167d 0D000000 		.4byte	.LVL365-1
 16167 1681 0100     		.2byte	0x1
 16168 1683 52       		.byte	0x52
 16169 1684 0D000000 		.4byte	.LVL365-1
 16170 1688 1C000000 		.4byte	.LFE269
 16171 168c 0400     		.2byte	0x4
ARM GAS  C:\cygwin64\tmp\ccxdpAIh.s 			page 287


 16172 168e F3       		.byte	0xf3
 16173 168f 01       		.uleb128 0x1
 16174 1690 52       		.byte	0x52
 16175 1691 9F       		.byte	0x9f
 16176 1692 00000000 		.4byte	0
 16177 1696 00000000 		.4byte	0
 16178              	.LLST143:
 16179 169a 00000000 		.4byte	.LVL362
 16180 169e 0D000000 		.4byte	.LVL365-1
 16181 16a2 0100     		.2byte	0x1
 16182 16a4 53       		.byte	0x53
 16183 16a5 0D000000 		.4byte	.LVL365-1
 16184 16a9 1C000000 		.4byte	.LFE269
 16185 16ad 0400     		.2byte	0x4
 16186 16af F3       		.byte	0xf3
 16187 16b0 01       		.uleb128 0x1
 16188 16b1 53       		.byte	0x53
 16189 16b2 9F       		.byte	0x9f
 16190 16b3 00000000 		.4byte	0
 16191 16b7 00000000 		.4byte	0
 16192              	.LLST144:
 16193 16bb 0E000000 		.4byte	.LVL365
 16194 16bf 15000000 		.4byte	.LVL366-1
 16195 16c3 0100     		.2byte	0x1
 16196 16c5 50       		.byte	0x50
 16197 16c6 00000000 		.4byte	0
 16198 16ca 00000000 		.4byte	0
 16199              	.LLST145:
 16200 16ce 16000000 		.4byte	.LVL366
 16201 16d2 1A000000 		.4byte	.LVL367
 16202 16d6 0100     		.2byte	0x1
 16203 16d8 50       		.byte	0x50
 16204 16d9 00000000 		.4byte	0
 16205 16dd 00000000 		.4byte	0
 16206              	.LLST191:
 16207 16e1 00000000 		.4byte	.LVL502
 16208 16e5 06000000 		.4byte	.LVL503
 16209 16e9 0100     		.2byte	0x1
 16210 16eb 50       		.byte	0x50
 16211 16ec 06000000 		.4byte	.LVL503
 16212 16f0 16000000 		.4byte	.LVL507
 16213 16f4 0100     		.2byte	0x1
 16214 16f6 54       		.byte	0x54
 16215 16f7 16000000 		.4byte	.LVL507
 16216 16fb 1A000000 		.4byte	.LFE268
 16217 16ff 0400     		.2byte	0x4
 16218 1701 F3       		.byte	0xf3
 16219 1702 01       		.uleb128 0x1
 16220 1703 50       		.byte	0x50
 16221 1704 9F       		.byte	0x9f
 16222 1705 00000000 		.4byte	0
 16223 1709 00000000 		.4byte	0
 16224              	.LLST192:
 16225 170d 00000000 		.4byte	.LVL502
 16226 1711 09000000 		.4byte	.LVL504-1
 16227 1715 0100     		.2byte	0x1
 16228 1717 51       		.byte	0x51
ARM GAS  C:\cygwin64\tmp\ccxdpAIh.s 			page 288


 16229 1718 09000000 		.4byte	.LVL504-1
 16230 171c 1A000000 		.4byte	.LFE268
 16231 1720 0400     		.2byte	0x4
 16232 1722 F3       		.byte	0xf3
 16233 1723 01       		.uleb128 0x1
 16234 1724 51       		.byte	0x51
 16235 1725 9F       		.byte	0x9f
 16236 1726 00000000 		.4byte	0
 16237 172a 00000000 		.4byte	0
 16238              	.LLST193:
 16239 172e 0A000000 		.4byte	.LVL504
 16240 1732 0E000000 		.4byte	.LVL505
 16241 1736 0100     		.2byte	0x1
 16242 1738 50       		.byte	0x50
 16243 1739 0E000000 		.4byte	.LVL505
 16244 173d 11000000 		.4byte	.LVL506-1
 16245 1741 0100     		.2byte	0x1
 16246 1743 51       		.byte	0x51
 16247 1744 00000000 		.4byte	0
 16248 1748 00000000 		.4byte	0
 16249              	.LLST194:
 16250 174c 12000000 		.4byte	.LVL506
 16251 1750 19000000 		.4byte	.LVL508-1
 16252 1754 0100     		.2byte	0x1
 16253 1756 50       		.byte	0x50
 16254 1757 00000000 		.4byte	0
 16255 175b 00000000 		.4byte	0
 16256              	.LLST32:
 16257 175f 00000000 		.4byte	.LVL96
 16258 1763 0C000000 		.4byte	.LVL97
 16259 1767 0100     		.2byte	0x1
 16260 1769 50       		.byte	0x50
 16261 176a 0C000000 		.4byte	.LVL97
 16262 176e 0E000000 		.4byte	.LVL98
 16263 1772 0400     		.2byte	0x4
 16264 1774 F3       		.byte	0xf3
 16265 1775 01       		.uleb128 0x1
 16266 1776 50       		.byte	0x50
 16267 1777 9F       		.byte	0x9f
 16268 1778 0E000000 		.4byte	.LVL98
 16269 177c 14000000 		.4byte	.LVL99
 16270 1780 0100     		.2byte	0x1
 16271 1782 50       		.byte	0x50
 16272 1783 14000000 		.4byte	.LVL99
 16273 1787 28000000 		.4byte	.LFE267
 16274 178b 0400     		.2byte	0x4
 16275 178d F3       		.byte	0xf3
 16276 178e 01       		.uleb128 0x1
 16277 178f 50       		.byte	0x50
 16278 1790 9F       		.byte	0x9f
 16279 1791 00000000 		.4byte	0
 16280 1795 00000000 		.4byte	0
 16281              	.LLST31:
 16282 1799 00000000 		.4byte	.LVL91
 16283 179d 0E000000 		.4byte	.LVL92
 16284 17a1 0100     		.2byte	0x1
 16285 17a3 50       		.byte	0x50
ARM GAS  C:\cygwin64\tmp\ccxdpAIh.s 			page 289


 16286 17a4 0E000000 		.4byte	.LVL92
 16287 17a8 10000000 		.4byte	.LVL93
 16288 17ac 0400     		.2byte	0x4
 16289 17ae F3       		.byte	0xf3
 16290 17af 01       		.uleb128 0x1
 16291 17b0 50       		.byte	0x50
 16292 17b1 9F       		.byte	0x9f
 16293 17b2 10000000 		.4byte	.LVL93
 16294 17b6 2C000000 		.4byte	.LFE266
 16295 17ba 0100     		.2byte	0x1
 16296 17bc 50       		.byte	0x50
 16297 17bd 00000000 		.4byte	0
 16298 17c1 00000000 		.4byte	0
 16299              	.LLST172:
 16300 17c5 00000000 		.4byte	.LVL422
 16301 17c9 0D000000 		.4byte	.LVL423-1
 16302 17cd 0100     		.2byte	0x1
 16303 17cf 50       		.byte	0x50
 16304 17d0 0D000000 		.4byte	.LVL423-1
 16305 17d4 40000000 		.4byte	.LVL433
 16306 17d8 0100     		.2byte	0x1
 16307 17da 56       		.byte	0x56
 16308 17db 40000000 		.4byte	.LVL433
 16309 17df 48000000 		.4byte	.LFE265
 16310 17e3 0400     		.2byte	0x4
 16311 17e5 F3       		.byte	0xf3
 16312 17e6 01       		.uleb128 0x1
 16313 17e7 50       		.byte	0x50
 16314 17e8 9F       		.byte	0x9f
 16315 17e9 00000000 		.4byte	0
 16316 17ed 00000000 		.4byte	0
 16317              	.LLST173:
 16318 17f1 0E000000 		.4byte	.LVL423
 16319 17f5 10000000 		.4byte	.LVL424
 16320 17f9 0100     		.2byte	0x1
 16321 17fb 50       		.byte	0x50
 16322 17fc 16000000 		.4byte	.LVL425
 16323 1800 18000000 		.4byte	.LVL426
 16324 1804 0100     		.2byte	0x1
 16325 1806 50       		.byte	0x50
 16326 1807 00000000 		.4byte	0
 16327 180b 00000000 		.4byte	0
 16328              	.LLST174:
 16329 180f 1C000000 		.4byte	.LVL427
 16330 1813 23000000 		.4byte	.LVL428-1
 16331 1817 0100     		.2byte	0x1
 16332 1819 50       		.byte	0x50
 16333 181a 00000000 		.4byte	0
 16334 181e 00000000 		.4byte	0
 16335              	.LLST175:
 16336 1822 26000000 		.4byte	.LVL429
 16337 1826 40000000 		.4byte	.LVL433
 16338 182a 0600     		.2byte	0x6
 16339 182c 74       		.byte	0x74
 16340 182d 00       		.sleb128 0
 16341 182e 08       		.byte	0x8
 16342 182f FF       		.byte	0xff
ARM GAS  C:\cygwin64\tmp\ccxdpAIh.s 			page 290


 16343 1830 1A       		.byte	0x1a
 16344 1831 9F       		.byte	0x9f
 16345 1832 00000000 		.4byte	0
 16346 1836 00000000 		.4byte	0
 16347              	.LLST126:
 16348 183a 00000000 		.4byte	.LVL330
 16349 183e 07000000 		.4byte	.LVL331-1
 16350 1842 0100     		.2byte	0x1
 16351 1844 50       		.byte	0x50
 16352 1845 07000000 		.4byte	.LVL331-1
 16353 1849 08000000 		.4byte	.LFE264
 16354 184d 0400     		.2byte	0x4
 16355 184f F3       		.byte	0xf3
 16356 1850 01       		.uleb128 0x1
 16357 1851 50       		.byte	0x50
 16358 1852 9F       		.byte	0x9f
 16359 1853 00000000 		.4byte	0
 16360 1857 00000000 		.4byte	0
 16361              	.LLST112:
 16362 185b 00000000 		.4byte	.LVL304
 16363 185f 11000000 		.4byte	.LVL305-1
 16364 1863 0100     		.2byte	0x1
 16365 1865 50       		.byte	0x50
 16366 1866 11000000 		.4byte	.LVL305-1
 16367 186a 68000000 		.4byte	.LVL319
 16368 186e 0100     		.2byte	0x1
 16369 1870 58       		.byte	0x58
 16370 1871 68000000 		.4byte	.LVL319
 16371 1875 70000000 		.4byte	.LFE263
 16372 1879 0400     		.2byte	0x4
 16373 187b F3       		.byte	0xf3
 16374 187c 01       		.uleb128 0x1
 16375 187d 50       		.byte	0x50
 16376 187e 9F       		.byte	0x9f
 16377 187f 00000000 		.4byte	0
 16378 1883 00000000 		.4byte	0
 16379              	.LLST113:
 16380 1887 00000000 		.4byte	.LVL304
 16381 188b 1C000000 		.4byte	.LVL306
 16382 188f 0100     		.2byte	0x1
 16383 1891 51       		.byte	0x51
 16384 1892 24000000 		.4byte	.LVL307
 16385 1896 49000000 		.4byte	.LVL313-1
 16386 189a 0100     		.2byte	0x1
 16387 189c 51       		.byte	0x51
 16388 189d 5A000000 		.4byte	.LVL316
 16389 18a1 62000000 		.4byte	.LVL317
 16390 18a5 0100     		.2byte	0x1
 16391 18a7 51       		.byte	0x51
 16392 18a8 00000000 		.4byte	0
 16393 18ac 00000000 		.4byte	0
 16394              	.LLST114:
 16395 18b0 00000000 		.4byte	.LVL304
 16396 18b4 11000000 		.4byte	.LVL305-1
 16397 18b8 0100     		.2byte	0x1
 16398 18ba 52       		.byte	0x52
 16399 18bb 11000000 		.4byte	.LVL305-1
ARM GAS  C:\cygwin64\tmp\ccxdpAIh.s 			page 291


 16400 18bf 68000000 		.4byte	.LVL319
 16401 18c3 0100     		.2byte	0x1
 16402 18c5 56       		.byte	0x56
 16403 18c6 68000000 		.4byte	.LVL319
 16404 18ca 70000000 		.4byte	.LFE263
 16405 18ce 0400     		.2byte	0x4
 16406 18d0 F3       		.byte	0xf3
 16407 18d1 01       		.uleb128 0x1
 16408 18d2 52       		.byte	0x52
 16409 18d3 9F       		.byte	0x9f
 16410 18d4 00000000 		.4byte	0
 16411 18d8 00000000 		.4byte	0
 16412              	.LLST115:
 16413 18dc 4A000000 		.4byte	.LVL313
 16414 18e0 5A000000 		.4byte	.LVL316
 16415 18e4 0100     		.2byte	0x1
 16416 18e6 50       		.byte	0x50
 16417 18e7 62000000 		.4byte	.LVL317
 16418 18eb 64000000 		.4byte	.LVL318
 16419 18ef 0100     		.2byte	0x1
 16420 18f1 50       		.byte	0x50
 16421 18f2 00000000 		.4byte	0
 16422 18f6 00000000 		.4byte	0
 16423              	.LLST116:
 16424 18fa 12000000 		.4byte	.LVL305
 16425 18fe 1C000000 		.4byte	.LVL306
 16426 1902 0100     		.2byte	0x1
 16427 1904 50       		.byte	0x50
 16428 1905 1C000000 		.4byte	.LVL306
 16429 1909 24000000 		.4byte	.LVL307
 16430 190d 0100     		.2byte	0x1
 16431 190f 54       		.byte	0x54
 16432 1910 24000000 		.4byte	.LVL307
 16433 1914 2C000000 		.4byte	.LVL309
 16434 1918 0100     		.2byte	0x1
 16435 191a 50       		.byte	0x50
 16436 191b 2C000000 		.4byte	.LVL309
 16437 191f 68000000 		.4byte	.LVL319
 16438 1923 0100     		.2byte	0x1
 16439 1925 54       		.byte	0x54
 16440 1926 00000000 		.4byte	0
 16441 192a 00000000 		.4byte	0
 16442              	.LLST117:
 16443 192e 30000000 		.4byte	.LVL310
 16444 1932 46000000 		.4byte	.LVL312
 16445 1936 0100     		.2byte	0x1
 16446 1938 50       		.byte	0x50
 16447 1939 5A000000 		.4byte	.LVL316
 16448 193d 62000000 		.4byte	.LVL317
 16449 1941 0100     		.2byte	0x1
 16450 1943 50       		.byte	0x50
 16451 1944 00000000 		.4byte	0
 16452 1948 00000000 		.4byte	0
 16453              	.LLST118:
 16454 194c 24000000 		.4byte	.LVL307
 16455 1950 2A000000 		.4byte	.LVL308
 16456 1954 0100     		.2byte	0x1
ARM GAS  C:\cygwin64\tmp\ccxdpAIh.s 			page 292


 16457 1956 58       		.byte	0x58
 16458 1957 00000000 		.4byte	0
 16459 195b 00000000 		.4byte	0
 16460              	.LLST105:
 16461 195f 00000000 		.4byte	.LVL294
 16462 1963 0B000000 		.4byte	.LVL295-1
 16463 1967 0100     		.2byte	0x1
 16464 1969 50       		.byte	0x50
 16465 196a 0B000000 		.4byte	.LVL295-1
 16466 196e 28000000 		.4byte	.LFE262
 16467 1972 0400     		.2byte	0x4
 16468 1974 F3       		.byte	0xf3
 16469 1975 01       		.uleb128 0x1
 16470 1976 50       		.byte	0x50
 16471 1977 9F       		.byte	0x9f
 16472 1978 00000000 		.4byte	0
 16473 197c 00000000 		.4byte	0
 16474              	.LLST106:
 16475 1980 0C000000 		.4byte	.LVL295
 16476 1984 13000000 		.4byte	.LVL297-1
 16477 1988 0100     		.2byte	0x1
 16478 198a 50       		.byte	0x50
 16479 198b 00000000 		.4byte	0
 16480 198f 00000000 		.4byte	0
 16481              	.LLST107:
 16482 1993 14000000 		.4byte	.LVL297
 16483 1997 1A000000 		.4byte	.LVL298
 16484 199b 0100     		.2byte	0x1
 16485 199d 50       		.byte	0x50
 16486 199e 20000000 		.4byte	.LVL299
 16487 19a2 22000000 		.4byte	.LVL300
 16488 19a6 0100     		.2byte	0x1
 16489 19a8 50       		.byte	0x50
 16490 19a9 00000000 		.4byte	0
 16491 19ad 00000000 		.4byte	0
 16492              	.LLST108:
 16493 19b1 0C000000 		.4byte	.LVL295
 16494 19b5 10000000 		.4byte	.LVL296
 16495 19b9 0100     		.2byte	0x1
 16496 19bb 50       		.byte	0x50
 16497 19bc 00000000 		.4byte	0
 16498 19c0 00000000 		.4byte	0
 16499              	.LLST124:
 16500 19c4 00000000 		.4byte	.LVL327
 16501 19c8 07000000 		.4byte	.LVL329-1
 16502 19cc 0100     		.2byte	0x1
 16503 19ce 50       		.byte	0x50
 16504 19cf 07000000 		.4byte	.LVL329-1
 16505 19d3 08000000 		.4byte	.LFE261
 16506 19d7 0400     		.2byte	0x4
 16507 19d9 F3       		.byte	0xf3
 16508 19da 01       		.uleb128 0x1
 16509 19db 50       		.byte	0x50
 16510 19dc 9F       		.byte	0x9f
 16511 19dd 00000000 		.4byte	0
 16512 19e1 00000000 		.4byte	0
 16513              	.LLST125:
ARM GAS  C:\cygwin64\tmp\ccxdpAIh.s 			page 293


 16514 19e5 00000000 		.4byte	.LVL327
 16515 19e9 04000000 		.4byte	.LVL328
 16516 19ed 0100     		.2byte	0x1
 16517 19ef 51       		.byte	0x51
 16518 19f0 04000000 		.4byte	.LVL328
 16519 19f4 08000000 		.4byte	.LFE261
 16520 19f8 0400     		.2byte	0x4
 16521 19fa F3       		.byte	0xf3
 16522 19fb 01       		.uleb128 0x1
 16523 19fc 51       		.byte	0x51
 16524 19fd 9F       		.byte	0x9f
 16525 19fe 00000000 		.4byte	0
 16526 1a02 00000000 		.4byte	0
 16527              	.LLST119:
 16528 1a06 00000000 		.4byte	.LVL320
 16529 1a0a 09000000 		.4byte	.LVL321-1
 16530 1a0e 0100     		.2byte	0x1
 16531 1a10 50       		.byte	0x50
 16532 1a11 09000000 		.4byte	.LVL321-1
 16533 1a15 28000000 		.4byte	.LFE260
 16534 1a19 0400     		.2byte	0x4
 16535 1a1b F3       		.byte	0xf3
 16536 1a1c 01       		.uleb128 0x1
 16537 1a1d 50       		.byte	0x50
 16538 1a1e 9F       		.byte	0x9f
 16539 1a1f 00000000 		.4byte	0
 16540 1a23 00000000 		.4byte	0
 16541              	.LLST120:
 16542 1a27 00000000 		.4byte	.LVL320
 16543 1a2b 09000000 		.4byte	.LVL321-1
 16544 1a2f 0100     		.2byte	0x1
 16545 1a31 51       		.byte	0x51
 16546 1a32 09000000 		.4byte	.LVL321-1
 16547 1a36 28000000 		.4byte	.LFE260
 16548 1a3a 0100     		.2byte	0x1
 16549 1a3c 54       		.byte	0x54
 16550 1a3d 00000000 		.4byte	0
 16551 1a41 00000000 		.4byte	0
 16552              	.LLST121:
 16553 1a45 00000000 		.4byte	.LVL320
 16554 1a49 09000000 		.4byte	.LVL321-1
 16555 1a4d 0100     		.2byte	0x1
 16556 1a4f 52       		.byte	0x52
 16557 1a50 09000000 		.4byte	.LVL321-1
 16558 1a54 28000000 		.4byte	.LFE260
 16559 1a58 0100     		.2byte	0x1
 16560 1a5a 55       		.byte	0x55
 16561 1a5b 00000000 		.4byte	0
 16562 1a5f 00000000 		.4byte	0
 16563              	.LLST122:
 16564 1a63 16000000 		.4byte	.LVL322
 16565 1a67 18000000 		.4byte	.LVL323
 16566 1a6b 0100     		.2byte	0x1
 16567 1a6d 50       		.byte	0x50
 16568 1a6e 18000000 		.4byte	.LVL323
 16569 1a72 1C000000 		.4byte	.LVL324
 16570 1a76 0300     		.2byte	0x3
ARM GAS  C:\cygwin64\tmp\ccxdpAIh.s 			page 294


 16571 1a78 70       		.byte	0x70
 16572 1a79 7F       		.sleb128 -1
 16573 1a7a 9F       		.byte	0x9f
 16574 1a7b 00000000 		.4byte	0
 16575 1a7f 00000000 		.4byte	0
 16576              	.LLST123:
 16577 1a83 0A000000 		.4byte	.LVL321
 16578 1a87 15000000 		.4byte	.LVL322-1
 16579 1a8b 0100     		.2byte	0x1
 16580 1a8d 50       		.byte	0x50
 16581 1a8e 22000000 		.4byte	.LVL325
 16582 1a92 26000000 		.4byte	.LVL326
 16583 1a96 0100     		.2byte	0x1
 16584 1a98 50       		.byte	0x50
 16585 1a99 00000000 		.4byte	0
 16586 1a9d 00000000 		.4byte	0
 16587              	.LLST109:
 16588 1aa1 00000000 		.4byte	.LVL301
 16589 1aa5 07000000 		.4byte	.LVL302-1
 16590 1aa9 0100     		.2byte	0x1
 16591 1aab 50       		.byte	0x50
 16592 1aac 07000000 		.4byte	.LVL302-1
 16593 1ab0 16000000 		.4byte	.LFE259
 16594 1ab4 0400     		.2byte	0x4
 16595 1ab6 F3       		.byte	0xf3
 16596 1ab7 01       		.uleb128 0x1
 16597 1ab8 50       		.byte	0x50
 16598 1ab9 9F       		.byte	0x9f
 16599 1aba 00000000 		.4byte	0
 16600 1abe 00000000 		.4byte	0
 16601              	.LLST110:
 16602 1ac2 00000000 		.4byte	.LVL301
 16603 1ac6 07000000 		.4byte	.LVL302-1
 16604 1aca 0100     		.2byte	0x1
 16605 1acc 51       		.byte	0x51
 16606 1acd 07000000 		.4byte	.LVL302-1
 16607 1ad1 16000000 		.4byte	.LFE259
 16608 1ad5 0100     		.2byte	0x1
 16609 1ad7 54       		.byte	0x54
 16610 1ad8 00000000 		.4byte	0
 16611 1adc 00000000 		.4byte	0
 16612              	.LLST111:
 16613 1ae0 08000000 		.4byte	.LVL302
 16614 1ae4 0C000000 		.4byte	.LVL303
 16615 1ae8 0100     		.2byte	0x1
 16616 1aea 50       		.byte	0x50
 16617 1aeb 0C000000 		.4byte	.LVL303
 16618 1aef 16000000 		.4byte	.LFE259
 16619 1af3 0200     		.2byte	0x2
 16620 1af5 74       		.byte	0x74
 16621 1af6 00       		.sleb128 0
 16622 1af7 00000000 		.4byte	0
 16623 1afb 00000000 		.4byte	0
 16624              	.LLST30:
 16625 1aff 00000000 		.4byte	.LVL89
 16626 1b03 02000000 		.4byte	.LVL90
 16627 1b07 0100     		.2byte	0x1
ARM GAS  C:\cygwin64\tmp\ccxdpAIh.s 			page 295


 16628 1b09 50       		.byte	0x50
 16629 1b0a 02000000 		.4byte	.LVL90
 16630 1b0e 08000000 		.4byte	.LFE258
 16631 1b12 0400     		.2byte	0x4
 16632 1b14 F3       		.byte	0xf3
 16633 1b15 01       		.uleb128 0x1
 16634 1b16 50       		.byte	0x50
 16635 1b17 9F       		.byte	0x9f
 16636 1b18 00000000 		.4byte	0
 16637 1b1c 00000000 		.4byte	0
 16638              	.LLST29:
 16639 1b20 00000000 		.4byte	.LVL82
 16640 1b24 06000000 		.4byte	.LVL83
 16641 1b28 0100     		.2byte	0x1
 16642 1b2a 50       		.byte	0x50
 16643 1b2b 06000000 		.4byte	.LVL83
 16644 1b2f 0A000000 		.4byte	.LVL84
 16645 1b33 0300     		.2byte	0x3
 16646 1b35 75       		.byte	0x75
 16647 1b36 01       		.sleb128 1
 16648 1b37 9F       		.byte	0x9f
 16649 1b38 0A000000 		.4byte	.LVL84
 16650 1b3c 14000000 		.4byte	.LVL85
 16651 1b40 0100     		.2byte	0x1
 16652 1b42 55       		.byte	0x55
 16653 1b43 18000000 		.4byte	.LVL86
 16654 1b47 22000000 		.4byte	.LVL88
 16655 1b4b 0100     		.2byte	0x1
 16656 1b4d 55       		.byte	0x55
 16657 1b4e 00000000 		.4byte	0
 16658 1b52 00000000 		.4byte	0
 16659              	.LLST27:
 16660 1b56 00000000 		.4byte	.LVL78
 16661 1b5a 06000000 		.4byte	.LVL79
 16662 1b5e 0100     		.2byte	0x1
 16663 1b60 50       		.byte	0x50
 16664 1b61 06000000 		.4byte	.LVL79
 16665 1b65 0A000000 		.4byte	.LVL80
 16666 1b69 0300     		.2byte	0x3
 16667 1b6b 74       		.byte	0x74
 16668 1b6c 01       		.sleb128 1
 16669 1b6d 9F       		.byte	0x9f
 16670 1b6e 0A000000 		.4byte	.LVL80
 16671 1b72 18000000 		.4byte	.LFE256
 16672 1b76 0100     		.2byte	0x1
 16673 1b78 54       		.byte	0x54
 16674 1b79 00000000 		.4byte	0
 16675 1b7d 00000000 		.4byte	0
 16676              	.LLST28:
 16677 1b81 00000000 		.4byte	.LVL78
 16678 1b85 06000000 		.4byte	.LVL79
 16679 1b89 0100     		.2byte	0x1
 16680 1b8b 51       		.byte	0x51
 16681 1b8c 06000000 		.4byte	.LVL79
 16682 1b90 18000000 		.4byte	.LFE256
 16683 1b94 0100     		.2byte	0x1
 16684 1b96 55       		.byte	0x55
ARM GAS  C:\cygwin64\tmp\ccxdpAIh.s 			page 296


 16685 1b97 00000000 		.4byte	0
 16686 1b9b 00000000 		.4byte	0
 16687              	.LLST24:
 16688 1b9f 00000000 		.4byte	.LVL71
 16689 1ba3 0D000000 		.4byte	.LVL72-1
 16690 1ba7 0100     		.2byte	0x1
 16691 1ba9 50       		.byte	0x50
 16692 1baa 0D000000 		.4byte	.LVL72-1
 16693 1bae 2A000000 		.4byte	.LVL77
 16694 1bb2 0100     		.2byte	0x1
 16695 1bb4 54       		.byte	0x54
 16696 1bb5 2A000000 		.4byte	.LVL77
 16697 1bb9 30000000 		.4byte	.LFE255
 16698 1bbd 0400     		.2byte	0x4
 16699 1bbf F3       		.byte	0xf3
 16700 1bc0 01       		.uleb128 0x1
 16701 1bc1 50       		.byte	0x50
 16702 1bc2 9F       		.byte	0x9f
 16703 1bc3 00000000 		.4byte	0
 16704 1bc7 00000000 		.4byte	0
 16705              	.LLST25:
 16706 1bcb 0E000000 		.4byte	.LVL72
 16707 1bcf 14000000 		.4byte	.LVL73
 16708 1bd3 0100     		.2byte	0x1
 16709 1bd5 50       		.byte	0x50
 16710 1bd6 14000000 		.4byte	.LVL73
 16711 1bda 2A000000 		.4byte	.LVL77
 16712 1bde 0100     		.2byte	0x1
 16713 1be0 55       		.byte	0x55
 16714 1be1 2A000000 		.4byte	.LVL77
 16715 1be5 30000000 		.4byte	.LFE255
 16716 1be9 0100     		.2byte	0x1
 16717 1beb 50       		.byte	0x50
 16718 1bec 00000000 		.4byte	0
 16719 1bf0 00000000 		.4byte	0
 16720              	.LLST26:
 16721 1bf4 18000000 		.4byte	.LVL74
 16722 1bf8 1C000000 		.4byte	.LVL75
 16723 1bfc 0100     		.2byte	0x1
 16724 1bfe 50       		.byte	0x50
 16725 1bff 1C000000 		.4byte	.LVL75
 16726 1c03 26000000 		.4byte	.LVL76
 16727 1c07 0300     		.2byte	0x3
 16728 1c09 70       		.byte	0x70
 16729 1c0a 01       		.sleb128 1
 16730 1c0b 9F       		.byte	0x9f
 16731 1c0c 00000000 		.4byte	0
 16732 1c10 00000000 		.4byte	0
 16733              	.LLST19:
 16734 1c14 00000000 		.4byte	.LVL60
 16735 1c18 0A000000 		.4byte	.LVL61
 16736 1c1c 0100     		.2byte	0x1
 16737 1c1e 50       		.byte	0x50
 16738 1c1f 0A000000 		.4byte	.LVL61
 16739 1c23 1C000000 		.4byte	.LVL64
 16740 1c27 0100     		.2byte	0x1
 16741 1c29 55       		.byte	0x55
ARM GAS  C:\cygwin64\tmp\ccxdpAIh.s 			page 297


 16742 1c2a 1C000000 		.4byte	.LVL64
 16743 1c2e 20000000 		.4byte	.LVL65
 16744 1c32 0400     		.2byte	0x4
 16745 1c34 F3       		.byte	0xf3
 16746 1c35 01       		.uleb128 0x1
 16747 1c36 50       		.byte	0x50
 16748 1c37 9F       		.byte	0x9f
 16749 1c38 20000000 		.4byte	.LVL65
 16750 1c3c 38000000 		.4byte	.LVL70
 16751 1c40 0100     		.2byte	0x1
 16752 1c42 55       		.byte	0x55
 16753 1c43 38000000 		.4byte	.LVL70
 16754 1c47 3A000000 		.4byte	.LFE254
 16755 1c4b 0400     		.2byte	0x4
 16756 1c4d F3       		.byte	0xf3
 16757 1c4e 01       		.uleb128 0x1
 16758 1c4f 50       		.byte	0x50
 16759 1c50 9F       		.byte	0x9f
 16760 1c51 00000000 		.4byte	0
 16761 1c55 00000000 		.4byte	0
 16762              	.LLST20:
 16763 1c59 00000000 		.4byte	.LVL60
 16764 1c5d 0A000000 		.4byte	.LVL61
 16765 1c61 0100     		.2byte	0x1
 16766 1c63 51       		.byte	0x51
 16767 1c64 0A000000 		.4byte	.LVL61
 16768 1c68 2E000000 		.4byte	.LVL67
 16769 1c6c 0300     		.2byte	0x3
 16770 1c6e 76       		.byte	0x76
 16771 1c6f 7F       		.sleb128 -1
 16772 1c70 9F       		.byte	0x9f
 16773 1c71 2E000000 		.4byte	.LVL67
 16774 1c75 30000000 		.4byte	.LVL68
 16775 1c79 0100     		.2byte	0x1
 16776 1c7b 56       		.byte	0x56
 16777 1c7c 30000000 		.4byte	.LVL68
 16778 1c80 3A000000 		.4byte	.LFE254
 16779 1c84 0300     		.2byte	0x3
 16780 1c86 76       		.byte	0x76
 16781 1c87 7F       		.sleb128 -1
 16782 1c88 9F       		.byte	0x9f
 16783 1c89 00000000 		.4byte	0
 16784 1c8d 00000000 		.4byte	0
 16785              	.LLST21:
 16786 1c91 00000000 		.4byte	.LVL60
 16787 1c95 0A000000 		.4byte	.LVL61
 16788 1c99 0100     		.2byte	0x1
 16789 1c9b 52       		.byte	0x52
 16790 1c9c 0A000000 		.4byte	.LVL61
 16791 1ca0 3A000000 		.4byte	.LFE254
 16792 1ca4 0100     		.2byte	0x1
 16793 1ca6 57       		.byte	0x57
 16794 1ca7 00000000 		.4byte	0
 16795 1cab 00000000 		.4byte	0
 16796              	.LLST22:
 16797 1caf 12000000 		.4byte	.LVL62
 16798 1cb3 18000000 		.4byte	.LVL63
ARM GAS  C:\cygwin64\tmp\ccxdpAIh.s 			page 298


 16799 1cb7 0100     		.2byte	0x1
 16800 1cb9 50       		.byte	0x50
 16801 1cba 20000000 		.4byte	.LVL65
 16802 1cbe 3A000000 		.4byte	.LFE254
 16803 1cc2 0100     		.2byte	0x1
 16804 1cc4 50       		.byte	0x50
 16805 1cc5 00000000 		.4byte	0
 16806 1cc9 00000000 		.4byte	0
 16807              	.LLST23:
 16808 1ccd 00000000 		.4byte	.LVL60
 16809 1cd1 0A000000 		.4byte	.LVL61
 16810 1cd5 0200     		.2byte	0x2
 16811 1cd7 30       		.byte	0x30
 16812 1cd8 9F       		.byte	0x9f
 16813 1cd9 0A000000 		.4byte	.LVL61
 16814 1cdd 30000000 		.4byte	.LVL68
 16815 1ce1 0100     		.2byte	0x1
 16816 1ce3 54       		.byte	0x54
 16817 1ce4 30000000 		.4byte	.LVL68
 16818 1ce8 34000000 		.4byte	.LVL69
 16819 1cec 0300     		.2byte	0x3
 16820 1cee 74       		.byte	0x74
 16821 1cef 01       		.sleb128 1
 16822 1cf0 9F       		.byte	0x9f
 16823 1cf1 34000000 		.4byte	.LVL69
 16824 1cf5 3A000000 		.4byte	.LFE254
 16825 1cf9 0100     		.2byte	0x1
 16826 1cfb 54       		.byte	0x54
 16827 1cfc 00000000 		.4byte	0
 16828 1d00 00000000 		.4byte	0
 16829              	.LLST17:
 16830 1d04 00000000 		.4byte	.LVL58
 16831 1d08 03000000 		.4byte	.LVL59-1
 16832 1d0c 0100     		.2byte	0x1
 16833 1d0e 50       		.byte	0x50
 16834 1d0f 03000000 		.4byte	.LVL59-1
 16835 1d13 04000000 		.4byte	.LFE253
 16836 1d17 0400     		.2byte	0x4
 16837 1d19 F3       		.byte	0xf3
 16838 1d1a 01       		.uleb128 0x1
 16839 1d1b 50       		.byte	0x50
 16840 1d1c 9F       		.byte	0x9f
 16841 1d1d 00000000 		.4byte	0
 16842 1d21 00000000 		.4byte	0
 16843              	.LLST18:
 16844 1d25 00000000 		.4byte	.LVL58
 16845 1d29 03000000 		.4byte	.LVL59-1
 16846 1d2d 0100     		.2byte	0x1
 16847 1d2f 51       		.byte	0x51
 16848 1d30 03000000 		.4byte	.LVL59-1
 16849 1d34 04000000 		.4byte	.LFE253
 16850 1d38 0400     		.2byte	0x4
 16851 1d3a F3       		.byte	0xf3
 16852 1d3b 01       		.uleb128 0x1
 16853 1d3c 51       		.byte	0x51
 16854 1d3d 9F       		.byte	0x9f
 16855 1d3e 00000000 		.4byte	0
ARM GAS  C:\cygwin64\tmp\ccxdpAIh.s 			page 299


 16856 1d42 00000000 		.4byte	0
 16857              	.LLST16:
 16858 1d46 00000000 		.4byte	.LVL56
 16859 1d4a 07000000 		.4byte	.LVL57-1
 16860 1d4e 0100     		.2byte	0x1
 16861 1d50 50       		.byte	0x50
 16862 1d51 07000000 		.4byte	.LVL57-1
 16863 1d55 0C000000 		.4byte	.LFE252
 16864 1d59 0400     		.2byte	0x4
 16865 1d5b F3       		.byte	0xf3
 16866 1d5c 01       		.uleb128 0x1
 16867 1d5d 50       		.byte	0x50
 16868 1d5e 9F       		.byte	0x9f
 16869 1d5f 00000000 		.4byte	0
 16870 1d63 00000000 		.4byte	0
 16871              	.LLST10:
 16872 1d67 00000000 		.4byte	.LVL41
 16873 1d6b 03000000 		.4byte	.LVL42-1
 16874 1d6f 0100     		.2byte	0x1
 16875 1d71 50       		.byte	0x50
 16876 1d72 03000000 		.4byte	.LVL42-1
 16877 1d76 04000000 		.4byte	.LFE248
 16878 1d7a 0400     		.2byte	0x4
 16879 1d7c F3       		.byte	0xf3
 16880 1d7d 01       		.uleb128 0x1
 16881 1d7e 50       		.byte	0x50
 16882 1d7f 9F       		.byte	0x9f
 16883 1d80 00000000 		.4byte	0
 16884 1d84 00000000 		.4byte	0
 16885              	.LLST8:
 16886 1d88 00000000 		.4byte	.LVL30
 16887 1d8c 0C000000 		.4byte	.LVL31
 16888 1d90 0100     		.2byte	0x1
 16889 1d92 50       		.byte	0x50
 16890 1d93 0C000000 		.4byte	.LVL31
 16891 1d97 12000000 		.4byte	.LVL32
 16892 1d9b 0100     		.2byte	0x1
 16893 1d9d 54       		.byte	0x54
 16894 1d9e 12000000 		.4byte	.LVL32
 16895 1da2 2A000000 		.4byte	.LVL33
 16896 1da6 0100     		.2byte	0x1
 16897 1da8 50       		.byte	0x50
 16898 1da9 2A000000 		.4byte	.LVL33
 16899 1dad 2C000000 		.4byte	.LVL34
 16900 1db1 0100     		.2byte	0x1
 16901 1db3 54       		.byte	0x54
 16902 1db4 2C000000 		.4byte	.LVL34
 16903 1db8 34000000 		.4byte	.LVL35
 16904 1dbc 0100     		.2byte	0x1
 16905 1dbe 50       		.byte	0x50
 16906 1dbf 34000000 		.4byte	.LVL35
 16907 1dc3 4A000000 		.4byte	.LVL38
 16908 1dc7 0100     		.2byte	0x1
 16909 1dc9 54       		.byte	0x54
 16910 1dca 4A000000 		.4byte	.LVL38
 16911 1dce 51000000 		.4byte	.LVL39-1
 16912 1dd2 0100     		.2byte	0x1
ARM GAS  C:\cygwin64\tmp\ccxdpAIh.s 			page 300


 16913 1dd4 50       		.byte	0x50
 16914 1dd5 51000000 		.4byte	.LVL39-1
 16915 1dd9 6C000000 		.4byte	.LFE247
 16916 1ddd 0100     		.2byte	0x1
 16917 1ddf 54       		.byte	0x54
 16918 1de0 00000000 		.4byte	0
 16919 1de4 00000000 		.4byte	0
 16920              	.LLST9:
 16921 1de8 34000000 		.4byte	.LVL35
 16922 1dec 3A000000 		.4byte	.LVL36
 16923 1df0 0100     		.2byte	0x1
 16924 1df2 50       		.byte	0x50
 16925 1df3 3E000000 		.4byte	.LVL37
 16926 1df7 4A000000 		.4byte	.LVL38
 16927 1dfb 0100     		.2byte	0x1
 16928 1dfd 50       		.byte	0x50
 16929 1dfe 52000000 		.4byte	.LVL39
 16930 1e02 58000000 		.4byte	.LVL40
 16931 1e06 0100     		.2byte	0x1
 16932 1e08 50       		.byte	0x50
 16933 1e09 58000000 		.4byte	.LVL40
 16934 1e0d 6C000000 		.4byte	.LFE247
 16935 1e11 0300     		.2byte	0x3
 16936 1e13 70       		.byte	0x70
 16937 1e14 7E       		.sleb128 -2
 16938 1e15 9F       		.byte	0x9f
 16939 1e16 00000000 		.4byte	0
 16940 1e1a 00000000 		.4byte	0
 16941              	.LLST7:
 16942 1e1e 00000000 		.4byte	.LVL28
 16943 1e22 06000000 		.4byte	.LVL29
 16944 1e26 0100     		.2byte	0x1
 16945 1e28 50       		.byte	0x50
 16946 1e29 06000000 		.4byte	.LVL29
 16947 1e2d 0A000000 		.4byte	.LFE246
 16948 1e31 0400     		.2byte	0x4
 16949 1e33 F3       		.byte	0xf3
 16950 1e34 01       		.uleb128 0x1
 16951 1e35 50       		.byte	0x50
 16952 1e36 9F       		.byte	0x9f
 16953 1e37 00000000 		.4byte	0
 16954 1e3b 00000000 		.4byte	0
 16955              	.LLST11:
 16956 1e3f 00000000 		.4byte	.LVL43
 16957 1e43 1A000000 		.4byte	.LVL44
 16958 1e47 0100     		.2byte	0x1
 16959 1e49 50       		.byte	0x50
 16960 1e4a 1A000000 		.4byte	.LVL44
 16961 1e4e 22000000 		.4byte	.LVL45
 16962 1e52 0400     		.2byte	0x4
 16963 1e54 F3       		.byte	0xf3
 16964 1e55 01       		.uleb128 0x1
 16965 1e56 50       		.byte	0x50
 16966 1e57 9F       		.byte	0x9f
 16967 1e58 22000000 		.4byte	.LVL45
 16968 1e5c 3C000000 		.4byte	.LVL47
 16969 1e60 0100     		.2byte	0x1
ARM GAS  C:\cygwin64\tmp\ccxdpAIh.s 			page 301


 16970 1e62 50       		.byte	0x50
 16971 1e63 3C000000 		.4byte	.LVL47
 16972 1e67 44000000 		.4byte	.LVL48
 16973 1e6b 0400     		.2byte	0x4
 16974 1e6d F3       		.byte	0xf3
 16975 1e6e 01       		.uleb128 0x1
 16976 1e6f 50       		.byte	0x50
 16977 1e70 9F       		.byte	0x9f
 16978 1e71 44000000 		.4byte	.LVL48
 16979 1e75 4C000000 		.4byte	.LVL49
 16980 1e79 0100     		.2byte	0x1
 16981 1e7b 50       		.byte	0x50
 16982 1e7c 4C000000 		.4byte	.LVL49
 16983 1e80 54000000 		.4byte	.LVL52
 16984 1e84 0400     		.2byte	0x4
 16985 1e86 F3       		.byte	0xf3
 16986 1e87 01       		.uleb128 0x1
 16987 1e88 50       		.byte	0x50
 16988 1e89 9F       		.byte	0x9f
 16989 1e8a 54000000 		.4byte	.LVL52
 16990 1e8e 58000000 		.4byte	.LVL53
 16991 1e92 0100     		.2byte	0x1
 16992 1e94 50       		.byte	0x50
 16993 1e95 58000000 		.4byte	.LVL53
 16994 1e99 64000000 		.4byte	.LFE249
 16995 1e9d 0400     		.2byte	0x4
 16996 1e9f F3       		.byte	0xf3
 16997 1ea0 01       		.uleb128 0x1
 16998 1ea1 50       		.byte	0x50
 16999 1ea2 9F       		.byte	0x9f
 17000 1ea3 00000000 		.4byte	0
 17001 1ea7 00000000 		.4byte	0
 17002              	.LLST12:
 17003 1eab 00000000 		.4byte	.LVL43
 17004 1eaf 21000000 		.4byte	.LVL45-1
 17005 1eb3 0100     		.2byte	0x1
 17006 1eb5 51       		.byte	0x51
 17007 1eb6 21000000 		.4byte	.LVL45-1
 17008 1eba 22000000 		.4byte	.LVL45
 17009 1ebe 0400     		.2byte	0x4
 17010 1ec0 F3       		.byte	0xf3
 17011 1ec1 01       		.uleb128 0x1
 17012 1ec2 51       		.byte	0x51
 17013 1ec3 9F       		.byte	0x9f
 17014 1ec4 22000000 		.4byte	.LVL45
 17015 1ec8 26000000 		.4byte	.LVL46
 17016 1ecc 0100     		.2byte	0x1
 17017 1ece 51       		.byte	0x51
 17018 1ecf 26000000 		.4byte	.LVL46
 17019 1ed3 64000000 		.4byte	.LFE249
 17020 1ed7 0100     		.2byte	0x1
 17021 1ed9 54       		.byte	0x54
 17022 1eda 00000000 		.4byte	0
 17023 1ede 00000000 		.4byte	0
 17024              	.LLST13:
 17025 1ee2 44000000 		.4byte	.LVL48
 17026 1ee6 52000000 		.4byte	.LVL51
ARM GAS  C:\cygwin64\tmp\ccxdpAIh.s 			page 302


 17027 1eea 0100     		.2byte	0x1
 17028 1eec 54       		.byte	0x54
 17029 1eed 00000000 		.4byte	0
 17030 1ef1 00000000 		.4byte	0
 17031              	.LLST14:
 17032 1ef5 44000000 		.4byte	.LVL48
 17033 1ef9 4C000000 		.4byte	.LVL49
 17034 1efd 0100     		.2byte	0x1
 17035 1eff 50       		.byte	0x50
 17036 1f00 4C000000 		.4byte	.LVL49
 17037 1f04 52000000 		.4byte	.LVL51
 17038 1f08 0400     		.2byte	0x4
 17039 1f0a F3       		.byte	0xf3
 17040 1f0b 01       		.uleb128 0x1
 17041 1f0c 50       		.byte	0x50
 17042 1f0d 9F       		.byte	0x9f
 17043 1f0e 00000000 		.4byte	0
 17044 1f12 00000000 		.4byte	0
 17045              	.LLST15:
 17046 1f16 4E000000 		.4byte	.LVL50
 17047 1f1a 52000000 		.4byte	.LVL51
 17048 1f1e 0100     		.2byte	0x1
 17049 1f20 50       		.byte	0x50
 17050 1f21 00000000 		.4byte	0
 17051 1f25 00000000 		.4byte	0
 17052              	.LLST45:
 17053 1f29 00000000 		.4byte	.LVL140
 17054 1f2d 0E000000 		.4byte	.LVL141
 17055 1f31 0100     		.2byte	0x1
 17056 1f33 50       		.byte	0x50
 17057 1f34 0E000000 		.4byte	.LVL141
 17058 1f38 12000000 		.4byte	.LVL142
 17059 1f3c 0400     		.2byte	0x4
 17060 1f3e F3       		.byte	0xf3
 17061 1f3f 01       		.uleb128 0x1
 17062 1f40 50       		.byte	0x50
 17063 1f41 9F       		.byte	0x9f
 17064 1f42 12000000 		.4byte	.LVL142
 17065 1f46 19000000 		.4byte	.LVL144-1
 17066 1f4a 0100     		.2byte	0x1
 17067 1f4c 50       		.byte	0x50
 17068 1f4d 19000000 		.4byte	.LVL144-1
 17069 1f51 38000000 		.4byte	.LFE287
 17070 1f55 0400     		.2byte	0x4
 17071 1f57 F3       		.byte	0xf3
 17072 1f58 01       		.uleb128 0x1
 17073 1f59 50       		.byte	0x50
 17074 1f5a 9F       		.byte	0x9f
 17075 1f5b 00000000 		.4byte	0
 17076 1f5f 00000000 		.4byte	0
 17077              	.LLST46:
 17078 1f63 00000000 		.4byte	.LVL140
 17079 1f67 0E000000 		.4byte	.LVL141
 17080 1f6b 0100     		.2byte	0x1
 17081 1f6d 51       		.byte	0x51
 17082 1f6e 0E000000 		.4byte	.LVL141
 17083 1f72 12000000 		.4byte	.LVL142
ARM GAS  C:\cygwin64\tmp\ccxdpAIh.s 			page 303


 17084 1f76 0400     		.2byte	0x4
 17085 1f78 F3       		.byte	0xf3
 17086 1f79 01       		.uleb128 0x1
 17087 1f7a 51       		.byte	0x51
 17088 1f7b 9F       		.byte	0x9f
 17089 1f7c 12000000 		.4byte	.LVL142
 17090 1f80 16000000 		.4byte	.LVL143
 17091 1f84 0100     		.2byte	0x1
 17092 1f86 51       		.byte	0x51
 17093 1f87 16000000 		.4byte	.LVL143
 17094 1f8b 38000000 		.4byte	.LFE287
 17095 1f8f 0400     		.2byte	0x4
 17096 1f91 F3       		.byte	0xf3
 17097 1f92 01       		.uleb128 0x1
 17098 1f93 51       		.byte	0x51
 17099 1f94 9F       		.byte	0x9f
 17100 1f95 00000000 		.4byte	0
 17101 1f99 00000000 		.4byte	0
 17102              	.LLST47:
 17103 1f9d 12000000 		.4byte	.LVL142
 17104 1fa1 16000000 		.4byte	.LVL143
 17105 1fa5 0100     		.2byte	0x1
 17106 1fa7 51       		.byte	0x51
 17107 1fa8 16000000 		.4byte	.LVL143
 17108 1fac 38000000 		.4byte	.LFE287
 17109 1fb0 0400     		.2byte	0x4
 17110 1fb2 F3       		.byte	0xf3
 17111 1fb3 01       		.uleb128 0x1
 17112 1fb4 51       		.byte	0x51
 17113 1fb5 9F       		.byte	0x9f
 17114 1fb6 00000000 		.4byte	0
 17115 1fba 00000000 		.4byte	0
 17116              	.LLST48:
 17117 1fbe 1A000000 		.4byte	.LVL144
 17118 1fc2 2E000000 		.4byte	.LVL147
 17119 1fc6 0600     		.2byte	0x6
 17120 1fc8 70       		.byte	0x70
 17121 1fc9 00       		.sleb128 0
 17122 1fca 08       		.byte	0x8
 17123 1fcb FF       		.byte	0xff
 17124 1fcc 1A       		.byte	0x1a
 17125 1fcd 9F       		.byte	0x9f
 17126 1fce 00000000 		.4byte	0
 17127 1fd2 00000000 		.4byte	0
 17128              	.LLST79:
 17129 1fd6 00000000 		.4byte	.LVL232
 17130 1fda 08000000 		.4byte	.LVL233
 17131 1fde 0100     		.2byte	0x1
 17132 1fe0 50       		.byte	0x50
 17133 1fe1 08000000 		.4byte	.LVL233
 17134 1fe5 10000000 		.4byte	.LFE306
 17135 1fe9 0400     		.2byte	0x4
 17136 1feb F3       		.byte	0xf3
 17137 1fec 01       		.uleb128 0x1
 17138 1fed 50       		.byte	0x50
 17139 1fee 9F       		.byte	0x9f
 17140 1fef 00000000 		.4byte	0
ARM GAS  C:\cygwin64\tmp\ccxdpAIh.s 			page 304


 17141 1ff3 00000000 		.4byte	0
 17142              	.LLST189:
 17143 1ff7 00000000 		.4byte	.LVL482
 17144 1ffb 09000000 		.4byte	.LVL483-1
 17145 1fff 0100     		.2byte	0x1
 17146 2001 50       		.byte	0x50
 17147 2002 09000000 		.4byte	.LVL483-1
 17148 2006 A2000000 		.4byte	.LVL501
 17149 200a 0100     		.2byte	0x1
 17150 200c 54       		.byte	0x54
 17151 200d A2000000 		.4byte	.LVL501
 17152 2011 D4000000 		.4byte	.LFE314
 17153 2015 0400     		.2byte	0x4
 17154 2017 F3       		.byte	0xf3
 17155 2018 01       		.uleb128 0x1
 17156 2019 50       		.byte	0x50
 17157 201a 9F       		.byte	0x9f
 17158 201b 00000000 		.4byte	0
 17159 201f 00000000 		.4byte	0
 17160              	.LLST190:
 17161 2023 38000000 		.4byte	.LVL488
 17162 2027 8A000000 		.4byte	.LVL496
 17163 202b 0100     		.2byte	0x1
 17164 202d 54       		.byte	0x54
 17165 202e 90000000 		.4byte	.LVL497
 17166 2032 A0000000 		.4byte	.LVL500
 17167 2036 0100     		.2byte	0x1
 17168 2038 54       		.byte	0x54
 17169 2039 00000000 		.4byte	0
 17170 203d 00000000 		.4byte	0
 17171              		.section	.debug_aranges,"",%progbits
 17172 0000 34020000 		.4byte	0x234
 17173 0004 0200     		.2byte	0x2
 17174 0006 00000000 		.4byte	.Ldebug_info0
 17175 000a 04       		.byte	0x4
 17176 000b 00       		.byte	0
 17177 000c 0000     		.2byte	0
 17178 000e 0000     		.2byte	0
 17179 0010 00000000 		.4byte	.LFB304
 17180 0014 90000000 		.4byte	.LFE304-.LFB304
 17181 0018 00000000 		.4byte	.LFB305
 17182 001c 60000000 		.4byte	.LFE305-.LFB305
 17183 0020 00000000 		.4byte	.LFB246
 17184 0024 0A000000 		.4byte	.LFE246-.LFB246
 17185 0028 00000000 		.4byte	.LFB247
 17186 002c 6C000000 		.4byte	.LFE247-.LFB247
 17187 0030 00000000 		.4byte	.LFB248
 17188 0034 04000000 		.4byte	.LFE248-.LFB248
 17189 0038 00000000 		.4byte	.LFB249
 17190 003c 64000000 		.4byte	.LFE249-.LFB249
 17191 0040 00000000 		.4byte	.LFB250
 17192 0044 06000000 		.4byte	.LFE250-.LFB250
 17193 0048 00000000 		.4byte	.LFB251
 17194 004c 0C000000 		.4byte	.LFE251-.LFB251
 17195 0050 00000000 		.4byte	.LFB252
 17196 0054 0C000000 		.4byte	.LFE252-.LFB252
 17197 0058 00000000 		.4byte	.LFB253
ARM GAS  C:\cygwin64\tmp\ccxdpAIh.s 			page 305


 17198 005c 04000000 		.4byte	.LFE253-.LFB253
 17199 0060 00000000 		.4byte	.LFB254
 17200 0064 3A000000 		.4byte	.LFE254-.LFB254
 17201 0068 00000000 		.4byte	.LFB255
 17202 006c 30000000 		.4byte	.LFE255-.LFB255
 17203 0070 00000000 		.4byte	.LFB256
 17204 0074 18000000 		.4byte	.LFE256-.LFB256
 17205 0078 00000000 		.4byte	.LFB257
 17206 007c 28000000 		.4byte	.LFE257-.LFB257
 17207 0080 00000000 		.4byte	.LFB258
 17208 0084 08000000 		.4byte	.LFE258-.LFB258
 17209 0088 00000000 		.4byte	.LFB266
 17210 008c 2C000000 		.4byte	.LFE266-.LFB266
 17211 0090 00000000 		.4byte	.LFB267
 17212 0094 28000000 		.4byte	.LFE267-.LFB267
 17213 0098 00000000 		.4byte	.LFB276
 17214 009c 54000000 		.4byte	.LFE276-.LFB276
 17215 00a0 00000000 		.4byte	.LFB282
 17216 00a4 30000000 		.4byte	.LFE282-.LFB282
 17217 00a8 00000000 		.4byte	.LFB283
 17218 00ac 30000000 		.4byte	.LFE283-.LFB283
 17219 00b0 00000000 		.4byte	.LFB284
 17220 00b4 1C000000 		.4byte	.LFE284-.LFB284
 17221 00b8 00000000 		.4byte	.LFB285
 17222 00bc 18000000 		.4byte	.LFE285-.LFB285
 17223 00c0 00000000 		.4byte	.LFB286
 17224 00c4 28000000 		.4byte	.LFE286-.LFB286
 17225 00c8 00000000 		.4byte	.LFB287
 17226 00cc 38000000 		.4byte	.LFE287-.LFB287
 17227 00d0 00000000 		.4byte	.LFB288
 17228 00d4 20000000 		.4byte	.LFE288-.LFB288
 17229 00d8 00000000 		.4byte	.LFB289
 17230 00dc 2C000000 		.4byte	.LFE289-.LFB289
 17231 00e0 00000000 		.4byte	.LFB290
 17232 00e4 40000000 		.4byte	.LFE290-.LFB290
 17233 00e8 00000000 		.4byte	.LFB291
 17234 00ec 28000000 		.4byte	.LFE291-.LFB291
 17235 00f0 00000000 		.4byte	.LFB294
 17236 00f4 28000000 		.4byte	.LFE294-.LFB294
 17237 00f8 00000000 		.4byte	.LFB295
 17238 00fc 28000000 		.4byte	.LFE295-.LFB295
 17239 0100 00000000 		.4byte	.LFB296
 17240 0104 30000000 		.4byte	.LFE296-.LFB296
 17241 0108 00000000 		.4byte	.LFB297
 17242 010c 58000000 		.4byte	.LFE297-.LFB297
 17243 0110 00000000 		.4byte	.LFB298
 17244 0114 0A000000 		.4byte	.LFE298-.LFB298
 17245 0118 00000000 		.4byte	.LFB299
 17246 011c 08000000 		.4byte	.LFE299-.LFB299
 17247 0120 00000000 		.4byte	.LFB300
 17248 0124 34000000 		.4byte	.LFE300-.LFB300
 17249 0128 00000000 		.4byte	.LFB301
 17250 012c 0C000000 		.4byte	.LFE301-.LFB301
 17251 0130 00000000 		.4byte	.LFB302
 17252 0134 18000000 		.4byte	.LFE302-.LFB302
 17253 0138 00000000 		.4byte	.LFB303
 17254 013c 50000000 		.4byte	.LFE303-.LFB303
ARM GAS  C:\cygwin64\tmp\ccxdpAIh.s 			page 306


 17255 0140 00000000 		.4byte	.LFB306
 17256 0144 10000000 		.4byte	.LFE306-.LFB306
 17257 0148 00000000 		.4byte	.LFB307
 17258 014c 30000000 		.4byte	.LFE307-.LFB307
 17259 0150 00000000 		.4byte	.LFB309
 17260 0154 E0000000 		.4byte	.LFE309-.LFB309
 17261 0158 00000000 		.4byte	.LFB280
 17262 015c A8000000 		.4byte	.LFE280-.LFB280
 17263 0160 00000000 		.4byte	.LFB310
 17264 0164 50000000 		.4byte	.LFE310-.LFB310
 17265 0168 00000000 		.4byte	.LFB281
 17266 016c 44000000 		.4byte	.LFE281-.LFB281
 17267 0170 00000000 		.4byte	.LFB311
 17268 0174 2C000000 		.4byte	.LFE311-.LFB311
 17269 0178 00000000 		.4byte	.LFB262
 17270 017c 28000000 		.4byte	.LFE262-.LFB262
 17271 0180 00000000 		.4byte	.LFB259
 17272 0184 16000000 		.4byte	.LFE259-.LFB259
 17273 0188 00000000 		.4byte	.LFB263
 17274 018c 70000000 		.4byte	.LFE263-.LFB263
 17275 0190 00000000 		.4byte	.LFB260
 17276 0194 28000000 		.4byte	.LFE260-.LFB260
 17277 0198 00000000 		.4byte	.LFB261
 17278 019c 08000000 		.4byte	.LFE261-.LFB261
 17279 01a0 00000000 		.4byte	.LFB264
 17280 01a4 08000000 		.4byte	.LFE264-.LFB264
 17281 01a8 00000000 		.4byte	.LFB270
 17282 01ac 48000000 		.4byte	.LFE270-.LFB270
 17283 01b0 00000000 		.4byte	.LFB273
 17284 01b4 94000000 		.4byte	.LFE273-.LFB273
 17285 01b8 00000000 		.4byte	.LFB269
 17286 01bc 1C000000 		.4byte	.LFE269-.LFB269
 17287 01c0 00000000 		.4byte	.LFB275
 17288 01c4 4C000000 		.4byte	.LFE275-.LFB275
 17289 01c8 00000000 		.4byte	.LFB274
 17290 01cc 22000000 		.4byte	.LFE274-.LFB274
 17291 01d0 00000000 		.4byte	.LFB277
 17292 01d4 8C000000 		.4byte	.LFE277-.LFB277
 17293 01d8 00000000 		.4byte	.LFB271
 17294 01dc 1C000000 		.4byte	.LFE271-.LFB271
 17295 01e0 00000000 		.4byte	.LFB312
 17296 01e4 50000000 		.4byte	.LFE312-.LFB312
 17297 01e8 00000000 		.4byte	.LFB265
 17298 01ec 48000000 		.4byte	.LFE265-.LFB265
 17299 01f0 00000000 		.4byte	.LFB279
 17300 01f4 18000000 		.4byte	.LFE279-.LFB279
 17301 01f8 00000000 		.4byte	.LFB313
 17302 01fc 5C000000 		.4byte	.LFE313-.LFB313
 17303 0200 00000000 		.4byte	.LFB272
 17304 0204 EC000000 		.4byte	.LFE272-.LFB272
 17305 0208 00000000 		.4byte	.LFB314
 17306 020c D4000000 		.4byte	.LFE314-.LFB314
 17307 0210 00000000 		.4byte	.LFB268
 17308 0214 1A000000 		.4byte	.LFE268-.LFB268
 17309 0218 00000000 		.4byte	.LFB278
 17310 021c 24000000 		.4byte	.LFE278-.LFB278
 17311 0220 00000000 		.4byte	.LFB315
ARM GAS  C:\cygwin64\tmp\ccxdpAIh.s 			page 307


 17312 0224 40000000 		.4byte	.LFE315-.LFB315
 17313 0228 00000000 		.4byte	.LFB316
 17314 022c 40000000 		.4byte	.LFE316-.LFB316
 17315 0230 00000000 		.4byte	0
 17316 0234 00000000 		.4byte	0
 17317              		.section	.debug_ranges,"",%progbits
 17318              	.Ldebug_ranges0:
 17319 0000 04000000 		.4byte	.LBB89
 17320 0004 06000000 		.4byte	.LBE89
 17321 0008 1A000000 		.4byte	.LBB95
 17322 000c 1C000000 		.4byte	.LBE95
 17323 0010 1E000000 		.4byte	.LBB96
 17324 0014 5E000000 		.4byte	.LBE96
 17325 0018 66000000 		.4byte	.LBB97
 17326 001c 8C000000 		.4byte	.LBE97
 17327 0020 94000000 		.4byte	.LBB98
 17328 0024 E0000000 		.4byte	.LBE98
 17329 0028 00000000 		.4byte	0
 17330 002c 00000000 		.4byte	0
 17331 0030 00000000 		.4byte	.LBB99
 17332 0034 02000000 		.4byte	.LBE99
 17333 0038 04000000 		.4byte	.LBB102
 17334 003c 06000000 		.4byte	.LBE102
 17335 0040 00000000 		.4byte	0
 17336 0044 00000000 		.4byte	0
 17337 0048 06000000 		.4byte	.LBB107
 17338 004c 08000000 		.4byte	.LBE107
 17339 0050 0A000000 		.4byte	.LBB110
 17340 0054 0C000000 		.4byte	.LBE110
 17341 0058 00000000 		.4byte	0
 17342 005c 00000000 		.4byte	0
 17343 0060 1E000000 		.4byte	.LBB111
 17344 0064 3A000000 		.4byte	.LBE111
 17345 0068 42000000 		.4byte	.LBB112
 17346 006c 4E000000 		.4byte	.LBE112
 17347 0070 00000000 		.4byte	0
 17348 0074 00000000 		.4byte	0
 17349 0078 06000000 		.4byte	.LBB113
 17350 007c 08000000 		.4byte	.LBE113
 17351 0080 0C000000 		.4byte	.LBB116
 17352 0084 0E000000 		.4byte	.LBE116
 17353 0088 00000000 		.4byte	0
 17354 008c 00000000 		.4byte	0
 17355 0090 22000000 		.4byte	.LBB119
 17356 0094 3C000000 		.4byte	.LBE119
 17357 0098 44000000 		.4byte	.LBB122
 17358 009c 4C000000 		.4byte	.LBE122
 17359 00a0 00000000 		.4byte	0
 17360 00a4 00000000 		.4byte	0
 17361 00a8 2C000000 		.4byte	.LBB120
 17362 00ac 3C000000 		.4byte	.LBE120
 17363 00b0 44000000 		.4byte	.LBB121
 17364 00b4 4C000000 		.4byte	.LBE121
 17365 00b8 00000000 		.4byte	0
 17366 00bc 00000000 		.4byte	0
 17367 00c0 00000000 		.4byte	.LBB123
 17368 00c4 02000000 		.4byte	.LBE123
ARM GAS  C:\cygwin64\tmp\ccxdpAIh.s 			page 308


 17369 00c8 06000000 		.4byte	.LBB126
 17370 00cc 08000000 		.4byte	.LBE126
 17371 00d0 00000000 		.4byte	0
 17372 00d4 00000000 		.4byte	0
 17373 00d8 38000000 		.4byte	.LBB131
 17374 00dc 8A000000 		.4byte	.LBE131
 17375 00e0 90000000 		.4byte	.LBB134
 17376 00e4 A0000000 		.4byte	.LBE134
 17377 00e8 00000000 		.4byte	0
 17378 00ec 00000000 		.4byte	0
 17379 00f0 00000000 		.4byte	.LFB304
 17380 00f4 90000000 		.4byte	.LFE304
 17381 00f8 00000000 		.4byte	.LFB305
 17382 00fc 60000000 		.4byte	.LFE305
 17383 0100 00000000 		.4byte	.LFB246
 17384 0104 0A000000 		.4byte	.LFE246
 17385 0108 00000000 		.4byte	.LFB247
 17386 010c 6C000000 		.4byte	.LFE247
 17387 0110 00000000 		.4byte	.LFB248
 17388 0114 04000000 		.4byte	.LFE248
 17389 0118 00000000 		.4byte	.LFB249
 17390 011c 64000000 		.4byte	.LFE249
 17391 0120 00000000 		.4byte	.LFB250
 17392 0124 06000000 		.4byte	.LFE250
 17393 0128 00000000 		.4byte	.LFB251
 17394 012c 0C000000 		.4byte	.LFE251
 17395 0130 00000000 		.4byte	.LFB252
 17396 0134 0C000000 		.4byte	.LFE252
 17397 0138 00000000 		.4byte	.LFB253
 17398 013c 04000000 		.4byte	.LFE253
 17399 0140 00000000 		.4byte	.LFB254
 17400 0144 3A000000 		.4byte	.LFE254
 17401 0148 00000000 		.4byte	.LFB255
 17402 014c 30000000 		.4byte	.LFE255
 17403 0150 00000000 		.4byte	.LFB256
 17404 0154 18000000 		.4byte	.LFE256
 17405 0158 00000000 		.4byte	.LFB257
 17406 015c 28000000 		.4byte	.LFE257
 17407 0160 00000000 		.4byte	.LFB258
 17408 0164 08000000 		.4byte	.LFE258
 17409 0168 00000000 		.4byte	.LFB266
 17410 016c 2C000000 		.4byte	.LFE266
 17411 0170 00000000 		.4byte	.LFB267
 17412 0174 28000000 		.4byte	.LFE267
 17413 0178 00000000 		.4byte	.LFB276
 17414 017c 54000000 		.4byte	.LFE276
 17415 0180 00000000 		.4byte	.LFB282
 17416 0184 30000000 		.4byte	.LFE282
 17417 0188 00000000 		.4byte	.LFB283
 17418 018c 30000000 		.4byte	.LFE283
 17419 0190 00000000 		.4byte	.LFB284
 17420 0194 1C000000 		.4byte	.LFE284
 17421 0198 00000000 		.4byte	.LFB285
 17422 019c 18000000 		.4byte	.LFE285
 17423 01a0 00000000 		.4byte	.LFB286
 17424 01a4 28000000 		.4byte	.LFE286
 17425 01a8 00000000 		.4byte	.LFB287
ARM GAS  C:\cygwin64\tmp\ccxdpAIh.s 			page 309


 17426 01ac 38000000 		.4byte	.LFE287
 17427 01b0 00000000 		.4byte	.LFB288
 17428 01b4 20000000 		.4byte	.LFE288
 17429 01b8 00000000 		.4byte	.LFB289
 17430 01bc 2C000000 		.4byte	.LFE289
 17431 01c0 00000000 		.4byte	.LFB290
 17432 01c4 40000000 		.4byte	.LFE290
 17433 01c8 00000000 		.4byte	.LFB291
 17434 01cc 28000000 		.4byte	.LFE291
 17435 01d0 00000000 		.4byte	.LFB294
 17436 01d4 28000000 		.4byte	.LFE294
 17437 01d8 00000000 		.4byte	.LFB295
 17438 01dc 28000000 		.4byte	.LFE295
 17439 01e0 00000000 		.4byte	.LFB296
 17440 01e4 30000000 		.4byte	.LFE296
 17441 01e8 00000000 		.4byte	.LFB297
 17442 01ec 58000000 		.4byte	.LFE297
 17443 01f0 00000000 		.4byte	.LFB298
 17444 01f4 0A000000 		.4byte	.LFE298
 17445 01f8 00000000 		.4byte	.LFB299
 17446 01fc 08000000 		.4byte	.LFE299
 17447 0200 00000000 		.4byte	.LFB300
 17448 0204 34000000 		.4byte	.LFE300
 17449 0208 00000000 		.4byte	.LFB301
 17450 020c 0C000000 		.4byte	.LFE301
 17451 0210 00000000 		.4byte	.LFB302
 17452 0214 18000000 		.4byte	.LFE302
 17453 0218 00000000 		.4byte	.LFB303
 17454 021c 50000000 		.4byte	.LFE303
 17455 0220 00000000 		.4byte	.LFB306
 17456 0224 10000000 		.4byte	.LFE306
 17457 0228 00000000 		.4byte	.LFB307
 17458 022c 30000000 		.4byte	.LFE307
 17459 0230 00000000 		.4byte	.LFB309
 17460 0234 E0000000 		.4byte	.LFE309
 17461 0238 00000000 		.4byte	.LFB280
 17462 023c A8000000 		.4byte	.LFE280
 17463 0240 00000000 		.4byte	.LFB310
 17464 0244 50000000 		.4byte	.LFE310
 17465 0248 00000000 		.4byte	.LFB281
 17466 024c 44000000 		.4byte	.LFE281
 17467 0250 00000000 		.4byte	.LFB311
 17468 0254 2C000000 		.4byte	.LFE311
 17469 0258 00000000 		.4byte	.LFB262
 17470 025c 28000000 		.4byte	.LFE262
 17471 0260 00000000 		.4byte	.LFB259
 17472 0264 16000000 		.4byte	.LFE259
 17473 0268 00000000 		.4byte	.LFB263
 17474 026c 70000000 		.4byte	.LFE263
 17475 0270 00000000 		.4byte	.LFB260
 17476 0274 28000000 		.4byte	.LFE260
 17477 0278 00000000 		.4byte	.LFB261
 17478 027c 08000000 		.4byte	.LFE261
 17479 0280 00000000 		.4byte	.LFB264
 17480 0284 08000000 		.4byte	.LFE264
 17481 0288 00000000 		.4byte	.LFB270
 17482 028c 48000000 		.4byte	.LFE270
ARM GAS  C:\cygwin64\tmp\ccxdpAIh.s 			page 310


 17483 0290 00000000 		.4byte	.LFB273
 17484 0294 94000000 		.4byte	.LFE273
 17485 0298 00000000 		.4byte	.LFB269
 17486 029c 1C000000 		.4byte	.LFE269
 17487 02a0 00000000 		.4byte	.LFB275
 17488 02a4 4C000000 		.4byte	.LFE275
 17489 02a8 00000000 		.4byte	.LFB274
 17490 02ac 22000000 		.4byte	.LFE274
 17491 02b0 00000000 		.4byte	.LFB277
 17492 02b4 8C000000 		.4byte	.LFE277
 17493 02b8 00000000 		.4byte	.LFB271
 17494 02bc 1C000000 		.4byte	.LFE271
 17495 02c0 00000000 		.4byte	.LFB312
 17496 02c4 50000000 		.4byte	.LFE312
 17497 02c8 00000000 		.4byte	.LFB265
 17498 02cc 48000000 		.4byte	.LFE265
 17499 02d0 00000000 		.4byte	.LFB279
 17500 02d4 18000000 		.4byte	.LFE279
 17501 02d8 00000000 		.4byte	.LFB313
 17502 02dc 5C000000 		.4byte	.LFE313
 17503 02e0 00000000 		.4byte	.LFB272
 17504 02e4 EC000000 		.4byte	.LFE272
 17505 02e8 00000000 		.4byte	.LFB314
 17506 02ec D4000000 		.4byte	.LFE314
 17507 02f0 00000000 		.4byte	.LFB268
 17508 02f4 1A000000 		.4byte	.LFE268
 17509 02f8 00000000 		.4byte	.LFB278
 17510 02fc 24000000 		.4byte	.LFE278
 17511 0300 00000000 		.4byte	.LFB315
 17512 0304 40000000 		.4byte	.LFE315
 17513 0308 00000000 		.4byte	.LFB316
 17514 030c 40000000 		.4byte	.LFE316
 17515 0310 00000000 		.4byte	0
 17516 0314 00000000 		.4byte	0
 17517              		.section	.debug_line,"",%progbits
 17518              	.Ldebug_line0:
 17519 0000 EA0C0000 		.section	.debug_str,"MS",%progbits,1
 17519      02004404 
 17519      00000201 
 17519      FB0E0D00 
 17519      01010101 
 17520              	.LASF245:
 17521 0000 6F66665F 		.ascii	"off_ctx\000"
 17521      63747800 
 17522              	.LASF283:
 17523 0008 77696E73 		.ascii	"winsect\000"
 17523      65637400 
 17524              	.LASF480:
 17525 0010 7472756E 		.ascii	"truncate\000"
 17525      63617465 
 17525      00
 17526              	.LASF27:
 17527 0019 5F737369 		.ascii	"_ssize_t\000"
 17527      7A655F74 
 17527      00
 17528              	.LASF4:
 17529 0022 73697A65 		.ascii	"size_t\000"
ARM GAS  C:\cygwin64\tmp\ccxdpAIh.s 			page 311


 17529      5F7400
 17530              	.LASF244:
 17531 0029 6F66665F 		.ascii	"off_prio\000"
 17531      7072696F 
 17531      00
 17532              	.LASF453:
 17533 0032 756E6C69 		.ascii	"unlink\000"
 17533      6E6B00
 17534              	.LASF31:
 17535 0039 73697A65 		.ascii	"sizetype\000"
 17535      74797065 
 17535      00
 17536              	.LASF135:
 17537 0042 5F5F6C6F 		.ascii	"__locale_t\000"
 17537      63616C65 
 17537      5F7400
 17538              	.LASF33:
 17539 004d 5F5F7661 		.ascii	"__value\000"
 17539      6C756500 
 17540              	.LASF161:
 17541 0055 73797374 		.ascii	"systime_t\000"
 17541      696D655F 
 17541      7400
 17542              	.LASF253:
 17543 005f 6F66665F 		.ascii	"off_preempt\000"
 17543      70726565 
 17543      6D707400 
 17544              	.LASF103:
 17545 006b 5F5F7366 		.ascii	"__sf\000"
 17545      00
 17546              	.LASF295:
 17547 0070 66707472 		.ascii	"fptr\000"
 17547      00
 17548              	.LASF235:
 17549 0075 6F776E65 		.ascii	"owner\000"
 17549      7200
 17550              	.LASF150:
 17551 007b 51574F52 		.ascii	"QWORD\000"
 17551      4400
 17552              	.LASF70:
 17553 0081 5F726561 		.ascii	"_read\000"
 17553      6400
 17554              	.LASF156:
 17555 0087 74707269 		.ascii	"tprio_t\000"
 17555      6F5F7400 
 17556              	.LASF398:
 17557 008f 73745F62 		.ascii	"st_blocks\000"
 17557      6C6F636B 
 17557      7300
 17558              	.LASF404:
 17559 0099 6D6F6474 		.ascii	"modtime\000"
 17559      696D6500 
 17560              	.LASF256:
 17561 00a1 63685F64 		.ascii	"ch_debug\000"
 17561      65627567 
 17561      00
 17562              	.LASF71:
ARM GAS  C:\cygwin64\tmp\ccxdpAIh.s 			page 312


 17563 00aa 5F777269 		.ascii	"_write\000"
 17563      746500
 17564              	.LASF141:
 17565 00b1 696E7433 		.ascii	"int32_t\000"
 17565      325F7400 
 17566              	.LASF275:
 17567 00b9 6364635F 		.ascii	"cdc_size\000"
 17567      73697A65 
 17567      00
 17568              	.LASF114:
 17569 00c2 5F617363 		.ascii	"_asctime_buf\000"
 17569      74696D65 
 17569      5F627566 
 17569      00
 17570              	.LASF97:
 17571 00cf 5F637674 		.ascii	"_cvtlen\000"
 17571      6C656E00 
 17572              	.LASF190:
 17573 00d7 76746675 		.ascii	"vtfunc_t\000"
 17573      6E635F74 
 17573      00
 17574              	.LASF481:
 17575 00e0 70617468 		.ascii	"path\000"
 17575      00
 17576              	.LASF196:
 17577 00e5 63685F76 		.ascii	"ch_virtual_timers_list\000"
 17577      69727475 
 17577      616C5F74 
 17577      696D6572 
 17577      735F6C69 
 17578              	.LASF420:
 17579 00fc 66726565 		.ascii	"free_file_descriptor\000"
 17579      5F66696C 
 17579      655F6465 
 17579      73637269 
 17579      70746F72 
 17580              	.LASF336:
 17581 0111 6465765F 		.ascii	"dev_t\000"
 17581      7400
 17582              	.LASF341:
 17583 0117 6E6C696E 		.ascii	"nlink_t\000"
 17583      6B5F7400 
 17584              	.LASF22:
 17585 011f 5F5F6769 		.ascii	"__gid_t\000"
 17585      645F7400 
 17586              	.LASF133:
 17587 0127 5F756E75 		.ascii	"_unused\000"
 17587      73656400 
 17588              	.LASF44:
 17589 012f 5F5F746D 		.ascii	"__tm\000"
 17589      00
 17590              	.LASF129:
 17591 0134 5F776373 		.ascii	"_wcsrtombs_state\000"
 17591      72746F6D 
 17591      62735F73 
 17591      74617465 
 17591      00
ARM GAS  C:\cygwin64\tmp\ccxdpAIh.s 			page 313


 17592              	.LASF75:
 17593 0145 5F6E6275 		.ascii	"_nbuf\000"
 17593      6600
 17594              	.LASF45:
 17595 014b 5F5F746D 		.ascii	"__tm_sec\000"
 17595      5F736563 
 17595      00
 17596              	.LASF122:
 17597 0154 5F6C3634 		.ascii	"_l64a_buf\000"
 17597      615F6275 
 17597      6600
 17598              	.LASF333:
 17599 015e 74696D65 		.ascii	"time_t\000"
 17599      5F7400
 17600              	.LASF476:
 17601 0165 5F5F7772 		.ascii	"__wrap_freopen\000"
 17601      61705F66 
 17601      72656F70 
 17601      656E00
 17602              	.LASF348:
 17603 0174 746D5F77 		.ascii	"tm_wday\000"
 17603      64617900 
 17604              	.LASF517:
 17605 017c 76617370 		.ascii	"vasprintf\000"
 17605      72696E74 
 17605      6600
 17606              	.LASF278:
 17607 0186 6673697A 		.ascii	"fsize\000"
 17607      6500
 17608              	.LASF508:
 17609 018c 70757463 		.ascii	"putc\000"
 17609      00
 17610              	.LASF170:
 17611 0191 73746174 		.ascii	"state\000"
 17611      6500
 17612              	.LASF523:
 17613 0197 665F6C73 		.ascii	"f_lseek\000"
 17613      65656B00 
 17614              	.LASF269:
 17615 019f 64697262 		.ascii	"dirbuf\000"
 17615      756600
 17616              	.LASF79:
 17617 01a6 5F6C6F63 		.ascii	"_lock\000"
 17617      6B00
 17618              	.LASF260:
 17619 01ac 54434841 		.ascii	"TCHAR\000"
 17619      5200
 17620              	.LASF179:
 17621 01b2 73746174 		.ascii	"stats\000"
 17621      7300
 17622              	.LASF409:
 17623 01b8 756E6765 		.ascii	"unget\000"
 17623      7400
 17624              	.LASF405:
 17625 01be 64697265 		.ascii	"dirent\000"
 17625      6E7400
 17626              	.LASF494:
ARM GAS  C:\cygwin64\tmp\ccxdpAIh.s 			page 314


 17627 01c5 636C6F73 		.ascii	"close\000"
 17627      6500
 17628              	.LASF110:
 17629 01cb 5F6D756C 		.ascii	"_mult\000"
 17629      7400
 17630              	.LASF327:
 17631 01d1 46525F49 		.ascii	"FR_INVALID_PARAMETER\000"
 17631      4E56414C 
 17631      49445F50 
 17631      4152414D 
 17631      45544552 
 17632              	.LASF372:
 17633 01e6 454E4F44 		.ascii	"ENODEV\000"
 17633      455600
 17634              	.LASF219:
 17635 01ed 74696D65 		.ascii	"time_measurement_t\000"
 17635      5F6D6561 
 17635      73757265 
 17635      6D656E74 
 17635      5F7400
 17636              	.LASF460:
 17637 0200 6469726E 		.ascii	"dirname\000"
 17637      616D6500 
 17638              	.LASF291:
 17639 0208 635F7369 		.ascii	"c_size\000"
 17639      7A6500
 17640              	.LASF247:
 17641 020f 6F66665F 		.ascii	"off_older\000"
 17641      6F6C6465 
 17641      7200
 17642              	.LASF502:
 17643 0219 66676574 		.ascii	"fgetpos\000"
 17643      706F7300 
 17644              	.LASF339:
 17645 0221 7373697A 		.ascii	"ssize_t\000"
 17645      655F7400 
 17646              	.LASF270:
 17647 0229 736F626A 		.ascii	"sobj\000"
 17647      00
 17648              	.LASF165:
 17649 022e 7072696F 		.ascii	"prio\000"
 17649      00
 17650              	.LASF511:
 17651 0233 636C6561 		.ascii	"clearerr\000"
 17651      72657272 
 17651      00
 17652              	.LASF271:
 17653 023c 6C617374 		.ascii	"last_clst\000"
 17653      5F636C73 
 17653      7400
 17654              	.LASF369:
 17655 0246 45425553 		.ascii	"EBUSY\000"
 17655      5900
 17656              	.LASF539:
 17657 024c 665F6F70 		.ascii	"f_open\000"
 17657      656E00
 17658              	.LASF491:
ARM GAS  C:\cygwin64\tmp\ccxdpAIh.s 			page 315


 17659 0253 5F5F7772 		.ascii	"__wrap_fread\000"
 17659      61705F66 
 17659      72656164 
 17659      00
 17660              	.LASF487:
 17661 0260 66617466 		.ascii	"fatfs_modes\000"
 17661      735F6D6F 
 17661      64657300 
 17662              	.LASF29:
 17663 026c 5F5F7763 		.ascii	"__wch\000"
 17663      6800
 17664              	.LASF226:
 17665 0272 65786974 		.ascii	"exitcode\000"
 17665      636F6465 
 17665      00
 17666              	.LASF5:
 17667 027b 5F5F7569 		.ascii	"__uint8_t\000"
 17667      6E74385F 
 17667      7400
 17668              	.LASF146:
 17669 0285 42595445 		.ascii	"BYTE\000"
 17669      00
 17670              	.LASF20:
 17671 028a 5F5F6465 		.ascii	"__dev_t\000"
 17671      765F7400 
 17672              	.LASF314:
 17673 0292 46525F49 		.ascii	"FR_INVALID_NAME\000"
 17673      4E56414C 
 17673      49445F4E 
 17673      414D4500 
 17674              	.LASF337:
 17675 02a2 7569645F 		.ascii	"uid_t\000"
 17675      7400
 17676              	.LASF67:
 17677 02a8 5F66696C 		.ascii	"_file\000"
 17677      6500
 17678              	.LASF418:
 17679 02ae 66696C65 		.ascii	"fileno\000"
 17679      6E6F00
 17680              	.LASF54:
 17681 02b5 5F6F6E5F 		.ascii	"_on_exit_args\000"
 17681      65786974 
 17681      5F617267 
 17681      7300
 17682              	.LASF297:
 17683 02c3 73656374 		.ascii	"sect\000"
 17683      00
 17684              	.LASF403:
 17685 02c8 61637469 		.ascii	"actime\000"
 17685      6D6500
 17686              	.LASF354:
 17687 02cf 6572726E 		.ascii	"errno\000"
 17687      6F00
 17688              	.LASF411:
 17689 02d5 46494C45 		.ascii	"FILE\000"
 17689      00
 17690              	.LASF125:
ARM GAS  C:\cygwin64\tmp\ccxdpAIh.s 			page 316


 17691 02da 5F6D6272 		.ascii	"_mbrlen_state\000"
 17691      6C656E5F 
 17691      73746174 
 17691      6500
 17692              	.LASF12:
 17693 02e8 6C6F6E67 		.ascii	"long int\000"
 17693      20696E74 
 17693      00
 17694              	.LASF303:
 17695 02f1 6674696D 		.ascii	"ftime\000"
 17695      6500
 17696              	.LASF136:
 17697 02f7 5F696D70 		.ascii	"_impure_ptr\000"
 17697      7572655F 
 17697      70747200 
 17698              	.LASF94:
 17699 0303 5F726573 		.ascii	"_result_k\000"
 17699      756C745F 
 17699      6B00
 17700              	.LASF64:
 17701 030d 5F73697A 		.ascii	"_size\000"
 17701      6500
 17702              	.LASF238:
 17703 0313 7A65726F 		.ascii	"zero\000"
 17703      00
 17704              	.LASF521:
 17705 0318 665F7772 		.ascii	"f_write\000"
 17705      69746500 
 17706              	.LASF115:
 17707 0320 5F6C6F63 		.ascii	"_localtime_buf\000"
 17707      616C7469 
 17707      6D655F62 
 17707      756600
 17708              	.LASF422:
 17709 032f 65706F63 		.ascii	"epoch\000"
 17709      6800
 17710              	.LASF154:
 17711 0335 74737461 		.ascii	"tstate_t\000"
 17711      74655F74 
 17711      00
 17712              	.LASF152:
 17713 033e 72747469 		.ascii	"rttime_t\000"
 17713      6D655F74 
 17713      00
 17714              	.LASF184:
 17715 0347 74687265 		.ascii	"threads_queue_t\000"
 17715      6164735F 
 17715      71756575 
 17715      655F7400 
 17716              	.LASF355:
 17717 0357 45504552 		.ascii	"EPERM\000"
 17717      4D00
 17718              	.LASF318:
 17719 035d 46525F57 		.ascii	"FR_WRITE_PROTECTED\000"
 17719      52495445 
 17719      5F50524F 
 17719      54454354 
ARM GAS  C:\cygwin64\tmp\ccxdpAIh.s 			page 317


 17719      454400
 17720              	.LASF363:
 17721 0370 45434849 		.ascii	"ECHILD\000"
 17721      4C4400
 17722              	.LASF209:
 17723 0377 72656761 		.ascii	"regarm_t\000"
 17723      726D5F74 
 17723      00
 17724              	.LASF429:
 17725 0380 484F5552 		.ascii	"HOUR\000"
 17725      00
 17726              	.LASF49:
 17727 0385 5F5F746D 		.ascii	"__tm_mon\000"
 17727      5F6D6F6E 
 17727      00
 17728              	.LASF370:
 17729 038e 45455849 		.ascii	"EEXIST\000"
 17729      535400
 17730              	.LASF401:
 17731 0395 73745F63 		.ascii	"st_ctime\000"
 17731      74696D65 
 17731      00
 17732              	.LASF382:
 17733 039e 45535049 		.ascii	"ESPIPE\000"
 17733      504500
 17734              	.LASF419:
 17735 03a5 6E65775F 		.ascii	"new_file_descriptor\000"
 17735      66696C65 
 17735      5F646573 
 17735      63726970 
 17735      746F7200 
 17736              	.LASF310:
 17737 03b9 46525F49 		.ascii	"FR_INT_ERR\000"
 17737      4E545F45 
 17737      525200
 17738              	.LASF439:
 17739 03c4 6572726E 		.ascii	"errnum\000"
 17739      756D00
 17740              	.LASF296:
 17741 03cb 636C7573 		.ascii	"clust\000"
 17741      7400
 17742              	.LASF112:
 17743 03d1 5F756E75 		.ascii	"_unused_rand\000"
 17743      7365645F 
 17743      72616E64 
 17743      00
 17744              	.LASF3:
 17745 03de 7369676E 		.ascii	"signed char\000"
 17745      65642063 
 17745      68617200 
 17746              	.LASF232:
 17747 03ea 65776D61 		.ascii	"ewmask\000"
 17747      736B00
 17748              	.LASF138:
 17749 03f1 75696E74 		.ascii	"uint8_t\000"
 17749      385F7400 
 17750              	.LASF451:
ARM GAS  C:\cygwin64\tmp\ccxdpAIh.s 			page 318


 17751 03f9 72656D6F 		.ascii	"remove\000"
 17751      766500
 17752              	.LASF472:
 17753 0400 66696C65 		.ascii	"filename\000"
 17753      6E616D65 
 17753      00
 17754              	.LASF393:
 17755 0409 73745F75 		.ascii	"st_uid\000"
 17755      696400
 17756              	.LASF158:
 17757 0410 6576656E 		.ascii	"eventmask_t\000"
 17757      746D6173 
 17757      6B5F7400 
 17758              	.LASF493:
 17759 041c 66696C65 		.ascii	"fileno_to_stream\000"
 17759      6E6F5F74 
 17759      6F5F7374 
 17759      7265616D 
 17759      00
 17760              	.LASF298:
 17761 042d 6469725F 		.ascii	"dir_sect\000"
 17761      73656374 
 17761      00
 17762              	.LASF228:
 17763 0436 77747472 		.ascii	"wttrp\000"
 17763      7000
 17764              	.LASF326:
 17765 043c 46525F54 		.ascii	"FR_TOO_MANY_OPEN_FILES\000"
 17765      4F4F5F4D 
 17765      414E595F 
 17765      4F50454E 
 17765      5F46494C 
 17766              	.LASF6:
 17767 0453 756E7369 		.ascii	"unsigned char\000"
 17767      676E6564 
 17767      20636861 
 17767      7200
 17768              	.LASF197:
 17769 0461 6C617374 		.ascii	"lasttime\000"
 17769      74696D65 
 17769      00
 17770              	.LASF527:
 17771 046a 7374726C 		.ascii	"strlen\000"
 17771      656E00
 17772              	.LASF395:
 17773 0471 73745F72 		.ascii	"st_rdev\000"
 17773      64657600 
 17774              	.LASF281:
 17775 0479 64697262 		.ascii	"dirbase\000"
 17775      61736500 
 17776              	.LASF200:
 17777 0481 70616E69 		.ascii	"panic_msg\000"
 17777      635F6D73 
 17777      6700
 17778              	.LASF89:
 17779 048b 5F756E73 		.ascii	"_unspecified_locale_info\000"
 17779      70656369 
ARM GAS  C:\cygwin64\tmp\ccxdpAIh.s 			page 319


 17779      66696564 
 17779      5F6C6F63 
 17779      616C655F 
 17780              	.LASF262:
 17781 04a4 66735F74 		.ascii	"fs_type\000"
 17781      79706500 
 17782              	.LASF516:
 17783 04ac 665F7379 		.ascii	"f_sync\000"
 17783      6E6300
 17784              	.LASF82:
 17785 04b3 5F726565 		.ascii	"_reent\000"
 17785      6E7400
 17786              	.LASF412:
 17787 04ba 5F5F696F 		.ascii	"__iob\000"
 17787      6200
 17788              	.LASF311:
 17789 04c0 46525F4E 		.ascii	"FR_NOT_READY\000"
 17789      4F545F52 
 17789      45414459 
 17789      00
 17790              	.LASF137:
 17791 04cd 5F676C6F 		.ascii	"_global_impure_ptr\000"
 17791      62616C5F 
 17791      696D7075 
 17791      72655F70 
 17791      747200
 17792              	.LASF386:
 17793 04e0 45444F4D 		.ascii	"EDOM\000"
 17793      00
 17794              	.LASF198:
 17795 04e5 73797374 		.ascii	"system_debug_t\000"
 17795      656D5F64 
 17795      65627567 
 17795      5F7400
 17796              	.LASF536:
 17797 04f4 665F7574 		.ascii	"f_utime\000"
 17797      696D6500 
 17798              	.LASF410:
 17799 04fc 75646174 		.ascii	"udata\000"
 17799      6100
 17800              	.LASF432:
 17801 0502 706F7369 		.ascii	"posix_fopen_modes_to_open\000"
 17801      785F666F 
 17801      70656E5F 
 17801      6D6F6465 
 17801      735F746F 
 17802              	.LASF329:
 17803 051c 5F5F676E 		.ascii	"__gnuc_va_list\000"
 17803      75635F76 
 17803      615F6C69 
 17803      737400
 17804              	.LASF259:
 17805 052b 5F426F6F 		.ascii	"_Bool\000"
 17805      6C00
 17806              	.LASF479:
 17807 0531 62797465 		.ascii	"bytes\000"
 17807      7300
ARM GAS  C:\cygwin64\tmp\ccxdpAIh.s 			page 320


 17808              	.LASF361:
 17809 0537 454E4F45 		.ascii	"ENOEXEC\000"
 17809      58454300 
 17810              	.LASF504:
 17811 053f 70757473 		.ascii	"puts\000"
 17811      00
 17812              	.LASF547:
 17813 0544 7265706C 		.ascii	"replace_mktime\000"
 17813      6163655F 
 17813      6D6B7469 
 17813      6D6500
 17814              	.LASF449:
 17815 0553 70617468 		.ascii	"pathdir\000"
 17815      64697200 
 17816              	.LASF37:
 17817 055b 63686172 		.ascii	"char\000"
 17817      00
 17818              	.LASF358:
 17819 0560 45494E54 		.ascii	"EINTR\000"
 17819      5200
 17820              	.LASF61:
 17821 0566 5F666E73 		.ascii	"_fns\000"
 17821      00
 17822              	.LASF513:
 17823 056b 67657463 		.ascii	"getc\000"
 17823      00
 17824              	.LASF73:
 17825 0570 5F636C6F 		.ascii	"_close\000"
 17825      736500
 17826              	.LASF301:
 17827 0577 626C6B5F 		.ascii	"blk_ofs\000"
 17827      6F667300 
 17828              	.LASF522:
 17829 057f 665F7265 		.ascii	"f_read\000"
 17829      616400
 17830              	.LASF276:
 17831 0586 6364635F 		.ascii	"cdc_ofs\000"
 17831      6F667300 
 17832              	.LASF277:
 17833 058e 6E5F6661 		.ascii	"n_fatent\000"
 17833      74656E74 
 17833      00
 17834              	.LASF300:
 17835 0597 64707472 		.ascii	"dptr\000"
 17835      00
 17836              	.LASF498:
 17837 059c 7768656E 		.ascii	"whence\000"
 17837      636500
 17838              	.LASF9:
 17839 05a3 5F5F7569 		.ascii	"__uint16_t\000"
 17839      6E743136 
 17839      5F7400
 17840              	.LASF227:
 17841 05ae 77746F62 		.ascii	"wtobjp\000"
 17841      6A7000
 17842              	.LASF406:
 17843 05b5 645F6E61 		.ascii	"d_name\000"
ARM GAS  C:\cygwin64\tmp\ccxdpAIh.s 			page 321


 17843      6D6500
 17844              	.LASF459:
 17845 05bc 67657463 		.ascii	"getcwd\000"
 17845      776400
 17846              	.LASF483:
 17847 05c3 73796E63 		.ascii	"syncfs\000"
 17847      667300
 17848              	.LASF221:
 17849 05ca 6E5F6374 		.ascii	"n_ctxswc\000"
 17849      78737763 
 17849      00
 17850              	.LASF84:
 17851 05d3 5F737464 		.ascii	"_stdin\000"
 17851      696E00
 17852              	.LASF438:
 17853 05da 5F5F7772 		.ascii	"__wrap_strerror_r\000"
 17853      61705F73 
 17853      74726572 
 17853      726F725F 
 17853      7200
 17854              	.LASF518:
 17855 05ec 63616C6C 		.ascii	"calloc\000"
 17855      6F6300
 17856              	.LASF261:
 17857 05f3 4653495A 		.ascii	"FSIZE_t\000"
 17857      455F7400 
 17858              	.LASF24:
 17859 05fb 5F5F6D6F 		.ascii	"__mode_t\000"
 17859      64655F74 
 17859      00
 17860              	.LASF543:
 17861 0604 474E5520 		.ascii	"GNU C11 6.3.1 20170620 (release) [ARM/embedded-6-br"
 17861      43313120 
 17861      362E332E 
 17861      31203230 
 17861      31373036 
 17862 0637 616E6368 		.ascii	"anch revision 249437] -mcpu=cortex-m4 -mfloat-abi=h"
 17862      20726576 
 17862      6973696F 
 17862      6E203234 
 17862      39343337 
 17863 066a 61726420 		.ascii	"ard -mfpu=fpv4-sp-d16 -mno-thumb-interwork -mthumb "
 17863      2D6D6670 
 17863      753D6670 
 17863      76342D73 
 17863      702D6431 
 17864 069d 2D67202D 		.ascii	"-g -Os -fomit-frame-pointer -falign-functions=16 -f"
 17864      4F73202D 
 17864      666F6D69 
 17864      742D6672 
 17864      616D652D 
 17865 06d0 66756E63 		.ascii	"function-sections -fdata-sections -fno-common -fsin"
 17865      74696F6E 
 17865      2D736563 
 17865      74696F6E 
 17865      73202D66 
 17866 0703 676C652D 		.ascii	"gle-precision-constant\000"
ARM GAS  C:\cygwin64\tmp\ccxdpAIh.s 			page 322


 17866      70726563 
 17866      6973696F 
 17866      6E2D636F 
 17866      6E737461 
 17867              	.LASF171:
 17868 071a 666C6167 		.ascii	"flags\000"
 17868      7300
 17869              	.LASF343:
 17870 0720 746D5F6D 		.ascii	"tm_min\000"
 17870      696E00
 17871              	.LASF145:
 17872 0727 55494E54 		.ascii	"UINT\000"
 17872      00
 17873              	.LASF506:
 17874 072c 67657473 		.ascii	"gets\000"
 17874      00
 17875              	.LASF210:
 17876 0731 73746B61 		.ascii	"stkalign_t\000"
 17876      6C69676E 
 17876      5F7400
 17877              	.LASF499:
 17878 073c 6674656C 		.ascii	"ftell\000"
 17878      6C00
 17879              	.LASF424:
 17880 0742 74696D65 		.ascii	"time\000"
 17880      00
 17881              	.LASF352:
 17882 0747 5F646179 		.ascii	"_daylight\000"
 17882      6C696768 
 17882      7400
 17883              	.LASF445:
 17884 0751 636C7265 		.ascii	"clrerror\000"
 17884      72726F72 
 17884      00
 17885              	.LASF537:
 17886 075a 73747263 		.ascii	"strcmp\000"
 17886      6D7000
 17887              	.LASF545:
 17888 0761 433A5C63 		.ascii	"C:\\cygwin64\\home\\calfan\\ardupilot\\build\\fmuv3"
 17888      79677769 
 17888      6E36345C 
 17888      686F6D65 
 17888      5C63616C 
 17889 078e 00       		.ascii	"\000"
 17890              	.LASF178:
 17891 078f 6D706F6F 		.ascii	"mpool\000"
 17891      6C00
 17892              	.LASF415:
 17893 0795 73747265 		.ascii	"stream\000"
 17893      616D00
 17894              	.LASF414:
 17895 079c 7379735F 		.ascii	"sys_errlist\000"
 17895      6572726C 
 17895      69737400 
 17896              	.LASF216:
 17897 07a8 776F7273 		.ascii	"worst\000"
 17897      7400
ARM GAS  C:\cygwin64\tmp\ccxdpAIh.s 			page 323


 17898              	.LASF155:
 17899 07ae 74726566 		.ascii	"trefs_t\000"
 17899      735F7400 
 17900              	.LASF241:
 17901 07b6 70747273 		.ascii	"ptrsize\000"
 17901      697A6500 
 17902              	.LASF344:
 17903 07be 746D5F68 		.ascii	"tm_hour\000"
 17903      6F757200 
 17904              	.LASF371:
 17905 07c6 45584445 		.ascii	"EXDEV\000"
 17905      5600
 17906              	.LASF293:
 17907 07cc 5F464449 		.ascii	"_FDID\000"
 17907      4400
 17908              	.LASF254:
 17909 07d2 6F66665F 		.ascii	"off_time\000"
 17909      74696D65 
 17909      00
 17910              	.LASF159:
 17911 07db 636E745F 		.ascii	"cnt_t\000"
 17911      7400
 17912              	.LASF313:
 17913 07e1 46525F4E 		.ascii	"FR_NO_PATH\000"
 17913      4F5F5041 
 17913      544800
 17914              	.LASF328:
 17915 07ec 46524553 		.ascii	"FRESULT\000"
 17915      554C5400 
 17916              	.LASF525:
 17917 07f4 7072696E 		.ascii	"printf\000"
 17917      746600
 17918              	.LASF353:
 17919 07fb 5F747A6E 		.ascii	"_tzname\000"
 17919      616D6500 
 17920              	.LASF69:
 17921 0803 5F636F6F 		.ascii	"_cookie\000"
 17921      6B696500 
 17922              	.LASF231:
 17923 080b 77746D74 		.ascii	"wtmtxp\000"
 17923      787000
 17924              	.LASF42:
 17925 0812 5F776473 		.ascii	"_wds\000"
 17925      00
 17926              	.LASF319:
 17927 0817 46525F49 		.ascii	"FR_INVALID_DRIVE\000"
 17927      4E56414C 
 17927      49445F44 
 17927      52495645 
 17927      00
 17928              	.LASF188:
 17929 0828 63685F72 		.ascii	"ch_ready_list\000"
 17929      65616479 
 17929      5F6C6973 
 17929      7400
 17930              	.LASF335:
 17931 0836 6F66665F 		.ascii	"off_t\000"
ARM GAS  C:\cygwin64\tmp\ccxdpAIh.s 			page 324


 17931      7400
 17932              	.LASF134:
 17933 083c 5F5F6C6F 		.ascii	"__lock\000"
 17933      636B00
 17934              	.LASF101:
 17935 0843 5F736967 		.ascii	"_sig_func\000"
 17935      5F66756E 
 17935      6300
 17936              	.LASF272:
 17937 084d 66726565 		.ascii	"free_clst\000"
 17937      5F636C73 
 17937      7400
 17938              	.LASF342:
 17939 0857 746D5F73 		.ascii	"tm_sec\000"
 17939      656300
 17940              	.LASF546:
 17941 085e 504F5349 		.ascii	"POSIX_errno\000"
 17941      585F6572 
 17941      726E6F00 
 17942              	.LASF77:
 17943 086a 5F6F6666 		.ascii	"_offset\000"
 17943      73657400 
 17944              	.LASF98:
 17945 0872 5F637674 		.ascii	"_cvtbuf\000"
 17945      62756600 
 17946              	.LASF458:
 17947 087a 6D6B6469 		.ascii	"mkdir\000"
 17947      7200
 17948              	.LASF450:
 17949 0880 636C6F73 		.ascii	"closedir\000"
 17949      65646972 
 17949      00
 17950              	.LASF532:
 17951 0889 665F6D6B 		.ascii	"f_mkdir\000"
 17951      64697200 
 17952              	.LASF364:
 17953 0891 45414741 		.ascii	"EAGAIN\000"
 17953      494E00
 17954              	.LASF394:
 17955 0898 73745F67 		.ascii	"st_gid\000"
 17955      696400
 17956              	.LASF515:
 17957 089f 69736174 		.ascii	"isatty\000"
 17957      747900
 17958              	.LASF218:
 17959 08a6 63756D75 		.ascii	"cumulative\000"
 17959      6C617469 
 17959      766500
 17960              	.LASF274:
 17961 08b1 6364635F 		.ascii	"cdc_scl\000"
 17961      73636C00 
 17962              	.LASF446:
 17963 08b9 72656164 		.ascii	"readdir\000"
 17963      64697200 
 17964              	.LASF442:
 17965 08c1 756E6978 		.ascii	"unix_time_to_fat\000"
 17965      5F74696D 
ARM GAS  C:\cygwin64\tmp\ccxdpAIh.s 			page 325


 17965      655F746F 
 17965      5F666174 
 17965      00
 17966              	.LASF423:
 17967 08d2 64617465 		.ascii	"date\000"
 17967      00
 17968              	.LASF519:
 17969 08d7 66726565 		.ascii	"free\000"
 17969      00
 17970              	.LASF541:
 17971 08dc 665F636C 		.ascii	"f_close\000"
 17971      6F736500 
 17972              	.LASF222:
 17973 08e4 6D5F6372 		.ascii	"m_crit_thd\000"
 17973      69745F74 
 17973      686400
 17974              	.LASF16:
 17975 08ef 5F5F7569 		.ascii	"__uint64_t\000"
 17975      6E743634 
 17975      5F7400
 17976              	.LASF334:
 17977 08fa 696E6F5F 		.ascii	"ino_t\000"
 17977      7400
 17978              	.LASF250:
 17979 0900 6F66665F 		.ascii	"off_state\000"
 17979      73746174 
 17979      6500
 17980              	.LASF95:
 17981 090a 5F703573 		.ascii	"_p5s\000"
 17981      00
 17982              	.LASF14:
 17983 090f 6C6F6E67 		.ascii	"long unsigned int\000"
 17983      20756E73 
 17983      69676E65 
 17983      6420696E 
 17983      7400
 17984              	.LASF243:
 17985 0921 74687265 		.ascii	"threadsize\000"
 17985      61647369 
 17985      7A6500
 17986              	.LASF330:
 17987 092c 5F5F7661 		.ascii	"__va_list\000"
 17987      5F6C6973 
 17987      7400
 17988              	.LASF462:
 17989 0936 63686469 		.ascii	"chdir\000"
 17989      7200
 17990              	.LASF65:
 17991 093c 5F5F7346 		.ascii	"__sFILE\000"
 17991      494C4500 
 17992              	.LASF91:
 17993 0944 5F5F7364 		.ascii	"__sdidinit\000"
 17993      6964696E 
 17993      697400
 17994              	.LASF81:
 17995 094f 5F666C61 		.ascii	"_flags2\000"
 17995      67733200 
ARM GAS  C:\cygwin64\tmp\ccxdpAIh.s 			page 326


 17996              	.LASF408:
 17997 0957 5F5F6669 		.ascii	"__file\000"
 17997      6C6500
 17998              	.LASF396:
 17999 095e 73745F73 		.ascii	"st_size\000"
 17999      697A6500 
 18000              	.LASF208:
 18001 0966 53797374 		.ascii	"SystemCoreClock\000"
 18001      656D436F 
 18001      7265436C 
 18001      6F636B00 
 18002              	.LASF233:
 18003 0976 63685F73 		.ascii	"ch_semaphore\000"
 18003      656D6170 
 18003      686F7265 
 18003      00
 18004              	.LASF163:
 18005 0983 63685F74 		.ascii	"ch_thread\000"
 18005      68726561 
 18005      6400
 18006              	.LASF331:
 18007 098d 5F5F6170 		.ascii	"__ap\000"
 18007      00
 18008              	.LASF195:
 18009 0992 76697274 		.ascii	"virtual_timers_list_t\000"
 18009      75616C5F 
 18009      74696D65 
 18009      72735F6C 
 18009      6973745F 
 18010              	.LASF285:
 18011 09a8 61747472 		.ascii	"attr\000"
 18011      00
 18012              	.LASF236:
 18013 09ad 63685F69 		.ascii	"ch_idle_thread_wa\000"
 18013      646C655F 
 18013      74687265 
 18013      61645F77 
 18013      6100
 18014              	.LASF83:
 18015 09bf 5F657272 		.ascii	"_errno\000"
 18015      6E6F00
 18016              	.LASF191:
 18017 09c6 76697274 		.ascii	"virtual_timer_t\000"
 18017      75616C5F 
 18017      74696D65 
 18017      725F7400 
 18018              	.LASF187:
 18019 09d6 72656164 		.ascii	"ready_list_t\000"
 18019      795F6C69 
 18019      73745F74 
 18019      00
 18020              	.LASF167:
 18021 09e3 6F6C6465 		.ascii	"older\000"
 18021      7200
 18022              	.LASF280:
 18023 09e9 66617462 		.ascii	"fatbase\000"
 18023      61736500 
ARM GAS  C:\cygwin64\tmp\ccxdpAIh.s 			page 327


 18024              	.LASF123:
 18025 09f1 5F736967 		.ascii	"_signal_buf\000"
 18025      6E616C5F 
 18025      62756600 
 18026              	.LASF177:
 18027 09fd 7265616C 		.ascii	"realprio\000"
 18027      7072696F 
 18027      00
 18028              	.LASF160:
 18029 0a06 75636E74 		.ascii	"ucnt_t\000"
 18029      5F7400
 18030              	.LASF477:
 18031 0a0d 77726974 		.ascii	"write\000"
 18031      6500
 18032              	.LASF249:
 18033 0a13 6F66665F 		.ascii	"off_stklimit\000"
 18033      73746B6C 
 18033      696D6974 
 18033      00
 18034              	.LASF43:
 18035 0a20 5F426967 		.ascii	"_Bigint\000"
 18035      696E7400 
 18036              	.LASF182:
 18037 0a28 63685F74 		.ascii	"ch_threads_list\000"
 18037      68726561 
 18037      64735F6C 
 18037      69737400 
 18038              	.LASF40:
 18039 0a38 5F6D6178 		.ascii	"_maxwds\000"
 18039      77647300 
 18040              	.LASF500:
 18041 0a40 66736574 		.ascii	"fsetpos\000"
 18041      706F7300 
 18042              	.LASF220:
 18043 0a48 6E5F6972 		.ascii	"n_irq\000"
 18043      7100
 18044              	.LASF381:
 18045 0a4e 454E4F53 		.ascii	"ENOSPC\000"
 18045      504300
 18046              	.LASF92:
 18047 0a55 5F5F636C 		.ascii	"__cleanup\000"
 18047      65616E75 
 18047      7000
 18048              	.LASF100:
 18049 0a5f 5F617465 		.ascii	"_atexit0\000"
 18049      78697430 
 18049      00
 18050              	.LASF286:
 18051 0a68 73746174 		.ascii	"stat\000"
 18051      00
 18052              	.LASF387:
 18053 0a6d 4552414E 		.ascii	"ERANGE\000"
 18053      474500
 18054              	.LASF397:
 18055 0a74 73745F62 		.ascii	"st_blksize\000"
 18055      6C6B7369 
 18055      7A6500
ARM GAS  C:\cygwin64\tmp\ccxdpAIh.s 			page 328


 18056              	.LASF23:
 18057 0a7f 5F5F696E 		.ascii	"__ino_t\000"
 18057      6F5F7400 
 18058              	.LASF388:
 18059 0a87 45424144 		.ascii	"EBADMSG\000"
 18059      4D534700 
 18060              	.LASF324:
 18061 0a8f 46525F4C 		.ascii	"FR_LOCKED\000"
 18061      4F434B45 
 18061      4400
 18062              	.LASF13:
 18063 0a99 5F5F7569 		.ascii	"__uint32_t\000"
 18063      6E743332 
 18063      5F7400
 18064              	.LASF88:
 18065 0aa4 5F656D65 		.ascii	"_emergency\000"
 18065      7267656E 
 18065      637900
 18066              	.LASF176:
 18067 0aaf 6D74786C 		.ascii	"mtxlist\000"
 18067      69737400 
 18068              	.LASF1:
 18069 0ab7 6C6F6E67 		.ascii	"long long int\000"
 18069      206C6F6E 
 18069      6720696E 
 18069      7400
 18070              	.LASF332:
 18071 0ac5 76615F6C 		.ascii	"va_list\000"
 18071      69737400 
 18072              	.LASF346:
 18073 0acd 746D5F6D 		.ascii	"tm_mon\000"
 18073      6F6E00
 18074              	.LASF106:
 18075 0ad4 5F6E696F 		.ascii	"_niobs\000"
 18075      627300
 18076              	.LASF306:
 18077 0adb 666E616D 		.ascii	"fname\000"
 18077      6500
 18078              	.LASF102:
 18079 0ae1 5F5F7367 		.ascii	"__sglue\000"
 18079      6C756500 
 18080              	.LASF132:
 18081 0ae9 5F6E6D61 		.ascii	"_nmalloc\000"
 18081      6C6C6F63 
 18081      00
 18082              	.LASF484:
 18083 0af2 73796E63 		.ascii	"sync\000"
 18083      00
 18084              	.LASF116:
 18085 0af7 5F67616D 		.ascii	"_gamma_signgam\000"
 18085      6D615F73 
 18085      69676E67 
 18085      616D00
 18086              	.LASF471:
 18087 0b06 7574696D 		.ascii	"utime\000"
 18087      6500
 18088              	.LASF366:
ARM GAS  C:\cygwin64\tmp\ccxdpAIh.s 			page 329


 18089 0b0c 45414343 		.ascii	"EACCES\000"
 18089      455300
 18090              	.LASF96:
 18091 0b13 5F667265 		.ascii	"_freelist\000"
 18091      656C6973 
 18091      7400
 18092              	.LASF473:
 18093 0b1d 74696D65 		.ascii	"times\000"
 18093      7300
 18094              	.LASF447:
 18095 0b23 64697270 		.ascii	"dirp\000"
 18095      00
 18096              	.LASF107:
 18097 0b28 5F696F62 		.ascii	"_iobs\000"
 18097      7300
 18098              	.LASF105:
 18099 0b2e 5F676C75 		.ascii	"_glue\000"
 18099      6500
 18100              	.LASF207:
 18101 0b34 49544D5F 		.ascii	"ITM_RxBuffer\000"
 18101      52784275 
 18101      66666572 
 18101      00
 18102              	.LASF41:
 18103 0b41 5F736967 		.ascii	"_sign\000"
 18103      6E00
 18104              	.LASF375:
 18105 0b47 45494E56 		.ascii	"EINVAL\000"
 18105      414C00
 18106              	.LASF441:
 18107 0b4e 73747265 		.ascii	"strerror\000"
 18107      72726F72 
 18107      00
 18108              	.LASF435:
 18109 0b57 66617466 		.ascii	"fatfs_putc\000"
 18109      735F7075 
 18109      746300
 18110              	.LASF478:
 18111 0b62 636F756E 		.ascii	"count\000"
 18111      7400
 18112              	.LASF456:
 18113 0b68 6F6C6470 		.ascii	"oldpath\000"
 18113      61746800 
 18114              	.LASF485:
 18115 0b70 72656164 		.ascii	"read\000"
 18115      00
 18116              	.LASF544:
 18117 0b75 2E2E2F2E 		.ascii	"../../libraries/AP_HAL_ChibiOS/hwdef/common/posix.c"
 18117      2E2F6C69 
 18117      62726172 
 18117      6965732F 
 18117      41505F48 
 18118 0ba8 00       		.ascii	"\000"
 18119              	.LASF246:
 18120 0ba9 6F66665F 		.ascii	"off_newer\000"
 18120      6E657765 
 18120      7200
ARM GAS  C:\cygwin64\tmp\ccxdpAIh.s 			page 330


 18121              	.LASF223:
 18122 0bb3 6D5F6372 		.ascii	"m_crit_isr\000"
 18122      69745F69 
 18122      737200
 18123              	.LASF0:
 18124 0bbe 756E7369 		.ascii	"unsigned int\000"
 18124      676E6564 
 18124      20696E74 
 18124      00
 18125              	.LASF357:
 18126 0bcb 45535243 		.ascii	"ESRCH\000"
 18126      4800
 18127              	.LASF443:
 18128 0bd1 70657272 		.ascii	"perror\000"
 18128      6F7200
 18129              	.LASF325:
 18130 0bd8 46525F4E 		.ascii	"FR_NOT_ENOUGH_CORE\000"
 18130      4F545F45 
 18130      4E4F5547 
 18130      485F434F 
 18130      524500
 18131              	.LASF492:
 18132 0beb 666F7065 		.ascii	"fopen\000"
 18132      6E00
 18133              	.LASF489:
 18134 0bf1 6E6D656D 		.ascii	"nmemb\000"
 18134      6200
 18135              	.LASF440:
 18136 0bf7 6275666C 		.ascii	"buflen\000"
 18136      656E00
 18137              	.LASF268:
 18138 0bfe 6C666E62 		.ascii	"lfnbuf\000"
 18138      756600
 18139              	.LASF151:
 18140 0c05 7274636E 		.ascii	"rtcnt_t\000"
 18140      745F7400 
 18141              	.LASF172:
 18142 0c0d 72656673 		.ascii	"refs\000"
 18142      00
 18143              	.LASF130:
 18144 0c12 5F685F65 		.ascii	"_h_errno\000"
 18144      72726E6F 
 18144      00
 18145              	.LASF497:
 18146 0c1b 706F7369 		.ascii	"position\000"
 18146      74696F6E 
 18146      00
 18147              	.LASF490:
 18148 0c24 66747275 		.ascii	"ftruncate\000"
 18148      6E636174 
 18148      6500
 18149              	.LASF265:
 18150 0c2e 6673695F 		.ascii	"fsi_flag\000"
 18150      666C6167 
 18150      00
 18151              	.LASF501:
 18152 0c37 66736565 		.ascii	"fseek\000"
ARM GAS  C:\cygwin64\tmp\ccxdpAIh.s 			page 331


 18152      6B00
 18153              	.LASF362:
 18154 0c3d 45424144 		.ascii	"EBADF\000"
 18154      4600
 18155              	.LASF128:
 18156 0c43 5F776372 		.ascii	"_wcrtomb_state\000"
 18156      746F6D62 
 18156      5F737461 
 18156      746500
 18157              	.LASF294:
 18158 0c52 666C6167 		.ascii	"flag\000"
 18158      00
 18159              	.LASF48:
 18160 0c57 5F5F746D 		.ascii	"__tm_mday\000"
 18160      5F6D6461 
 18160      7900
 18161              	.LASF224:
 18162 0c61 6B65726E 		.ascii	"kernel_stats_t\000"
 18162      656C5F73 
 18162      74617473 
 18162      5F7400
 18163              	.LASF421:
 18164 0c70 66696C65 		.ascii	"fileno_to_fatfs\000"
 18164      6E6F5F74 
 18164      6F5F6661 
 18164      74667300 
 18165              	.LASF99:
 18166 0c80 5F6E6577 		.ascii	"_new\000"
 18166      00
 18167              	.LASF74:
 18168 0c85 5F756275 		.ascii	"_ubuf\000"
 18168      6600
 18169              	.LASF356:
 18170 0c8b 454E4F45 		.ascii	"ENOENT\000"
 18170      4E5400
 18171              	.LASF86:
 18172 0c92 5F737464 		.ascii	"_stderr\000"
 18172      65727200 
 18173              	.LASF121:
 18174 0c9a 5F776374 		.ascii	"_wctomb_state\000"
 18174      6F6D625F 
 18174      73746174 
 18174      6500
 18175              	.LASF80:
 18176 0ca8 5F6D6273 		.ascii	"_mbstate\000"
 18176      74617465 
 18176      00
 18177              	.LASF455:
 18178 0cb1 72656E61 		.ascii	"rename\000"
 18178      6D6500
 18179              	.LASF434:
 18180 0cb8 52657375 		.ascii	"Result\000"
 18180      6C7400
 18181              	.LASF367:
 18182 0cbf 45464155 		.ascii	"EFAULT\000"
 18182      4C5400
 18183              	.LASF189:
ARM GAS  C:\cygwin64\tmp\ccxdpAIh.s 			page 332


 18184 0cc6 63757272 		.ascii	"current\000"
 18184      656E7400 
 18185              	.LASF117:
 18186 0cce 5F72616E 		.ascii	"_rand_next\000"
 18186      645F6E65 
 18186      787400
 18187              	.LASF457:
 18188 0cd9 6E657770 		.ascii	"newpath\000"
 18188      61746800 
 18189              	.LASF66:
 18190 0ce1 5F666C61 		.ascii	"_flags\000"
 18190      677300
 18191              	.LASF213:
 18192 0ce8 6F666673 		.ascii	"offset\000"
 18192      657400
 18193              	.LASF452:
 18194 0cef 70617468 		.ascii	"pathname\000"
 18194      6E616D65 
 18194      00
 18195              	.LASF180:
 18196 0cf8 74687265 		.ascii	"thread_reference_t\000"
 18196      61645F72 
 18196      65666572 
 18196      656E6365 
 18196      5F7400
 18197              	.LASF59:
 18198 0d0b 5F617465 		.ascii	"_atexit\000"
 18198      78697400 
 18199              	.LASF377:
 18200 0d13 454D4649 		.ascii	"EMFILE\000"
 18200      4C4500
 18201              	.LASF148:
 18202 0d1a 57434841 		.ascii	"WCHAR\000"
 18202      5200
 18203              	.LASF263:
 18204 0d20 6E5F6661 		.ascii	"n_fats\000"
 18204      747300
 18205              	.LASF374:
 18206 0d27 45495344 		.ascii	"EISDIR\000"
 18206      495200
 18207              	.LASF510:
 18208 0d2e 67657463 		.ascii	"getchar\000"
 18208      68617200 
 18209              	.LASF32:
 18210 0d36 5F5F636F 		.ascii	"__count\000"
 18210      756E7400 
 18211              	.LASF392:
 18212 0d3e 73745F6E 		.ascii	"st_nlink\000"
 18212      6C696E6B 
 18212      00
 18213              	.LASF149:
 18214 0d47 44574F52 		.ascii	"DWORD\000"
 18214      4400
 18215              	.LASF340:
 18216 0d4d 6D6F6465 		.ascii	"mode_t\000"
 18216      5F7400
 18217              	.LASF540:
ARM GAS  C:\cygwin64\tmp\ccxdpAIh.s 			page 333


 18218 0d54 665F7472 		.ascii	"f_truncate\000"
 18218      756E6361 
 18218      746500
 18219              	.LASF320:
 18220 0d5f 46525F4E 		.ascii	"FR_NOT_ENABLED\000"
 18220      4F545F45 
 18220      4E41424C 
 18220      454400
 18221              	.LASF322:
 18222 0d6e 46525F4D 		.ascii	"FR_MKFS_ABORTED\000"
 18222      4B46535F 
 18222      41424F52 
 18222      54454400 
 18223              	.LASF503:
 18224 0d7e 66656F66 		.ascii	"feof\000"
 18224      00
 18225              	.LASF368:
 18226 0d83 454E4F54 		.ascii	"ENOTBLK\000"
 18226      424C4B00 
 18227              	.LASF51:
 18228 0d8b 5F5F746D 		.ascii	"__tm_wday\000"
 18228      5F776461 
 18228      7900
 18229              	.LASF385:
 18230 0d95 45504950 		.ascii	"EPIPE\000"
 18230      4500
 18231              	.LASF437:
 18232 0d9b 66646576 		.ascii	"fdevopen\000"
 18232      6F70656E 
 18232      00
 18233              	.LASF304:
 18234 0da4 66617474 		.ascii	"fattrib\000"
 18234      72696200 
 18235              	.LASF162:
 18236 0dac 74687265 		.ascii	"thread_t\000"
 18236      61645F74 
 18236      00
 18237              	.LASF399:
 18238 0db5 73745F61 		.ascii	"st_atime\000"
 18238      74696D65 
 18238      00
 18239              	.LASF470:
 18240 0dbe 6672655F 		.ascii	"fre_sect\000"
 18240      73656374 
 18240      00
 18241              	.LASF2:
 18242 0dc7 6C6F6E67 		.ascii	"long double\000"
 18242      20646F75 
 18242      626C6500 
 18243              	.LASF267:
 18244 0dd3 6373697A 		.ascii	"csize\000"
 18244      6500
 18245              	.LASF312:
 18246 0dd9 46525F4E 		.ascii	"FR_NO_FILE\000"
 18246      4F5F4649 
 18246      4C4500
 18247              	.LASF52:
ARM GAS  C:\cygwin64\tmp\ccxdpAIh.s 			page 334


 18248 0de4 5F5F746D 		.ascii	"__tm_yday\000"
 18248      5F796461 
 18248      7900
 18249              	.LASF147:
 18250 0dee 574F5244 		.ascii	"WORD\000"
 18250      00
 18251              	.LASF229:
 18252 0df3 73656E74 		.ascii	"sentmsg\000"
 18252      6D736700 
 18253              	.LASF212:
 18254 0dfb 706F7274 		.ascii	"port_intctx\000"
 18254      5F696E74 
 18254      63747800 
 18255              	.LASF448:
 18256 0e07 6F70656E 		.ascii	"opendir\000"
 18256      64697200 
 18257              	.LASF407:
 18258 0e0f 64697265 		.ascii	"dirent_t\000"
 18258      6E745F74 
 18258      00
 18259              	.LASF109:
 18260 0e18 5F736565 		.ascii	"_seed\000"
 18260      6400
 18261              	.LASF317:
 18262 0e1e 46525F49 		.ascii	"FR_INVALID_OBJECT\000"
 18262      4E56414C 
 18262      49445F4F 
 18262      424A4543 
 18262      5400
 18263              	.LASF72:
 18264 0e30 5F736565 		.ascii	"_seek\000"
 18264      6B00
 18265              	.LASF389:
 18266 0e36 73745F64 		.ascii	"st_dev\000"
 18266      657600
 18267              	.LASF433:
 18268 0e3d 66617466 		.ascii	"fatfs_to_errno\000"
 18268      735F746F 
 18268      5F657272 
 18268      6E6F00
 18269              	.LASF548:
 18270 0e4c 5F5F6275 		.ascii	"__builtin_puts\000"
 18270      696C7469 
 18270      6E5F7075 
 18270      747300
 18271              	.LASF345:
 18272 0e5b 746D5F6D 		.ascii	"tm_mday\000"
 18272      64617900 
 18273              	.LASF26:
 18274 0e63 5F66706F 		.ascii	"_fpos_t\000"
 18274      735F7400 
 18275              	.LASF474:
 18276 0e6b 696E666F 		.ascii	"info\000"
 18276      00
 18277              	.LASF30:
 18278 0e70 5F5F7763 		.ascii	"__wchb\000"
 18278      686200
ARM GAS  C:\cygwin64\tmp\ccxdpAIh.s 			page 335


 18279              	.LASF378:
 18280 0e77 454E4F54 		.ascii	"ENOTTY\000"
 18280      545900
 18281              	.LASF266:
 18282 0e7e 6E5F726F 		.ascii	"n_rootdir\000"
 18282      6F746469 
 18282      7200
 18283              	.LASF192:
 18284 0e88 63685F76 		.ascii	"ch_virtual_timer\000"
 18284      69727475 
 18284      616C5F74 
 18284      696D6572 
 18284      00
 18285              	.LASF120:
 18286 0e99 5F6D6274 		.ascii	"_mbtowc_state\000"
 18286      6F77635F 
 18286      73746174 
 18286      6500
 18287              	.LASF206:
 18288 0ea7 6B65726E 		.ascii	"kernel_stats\000"
 18288      656C5F73 
 18288      74617473 
 18288      00
 18289              	.LASF282:
 18290 0eb4 64617461 		.ascii	"database\000"
 18290      62617365 
 18290      00
 18291              	.LASF239:
 18292 0ebd 73697A65 		.ascii	"size\000"
 18292      00
 18293              	.LASF17:
 18294 0ec2 6C6F6E67 		.ascii	"long long unsigned int\000"
 18294      206C6F6E 
 18294      6720756E 
 18294      7369676E 
 18294      65642069 
 18295              	.LASF402:
 18296 0ed9 7574696D 		.ascii	"utimbuf\000"
 18296      62756600 
 18297              	.LASF290:
 18298 0ee1 635F7363 		.ascii	"c_scl\000"
 18298      6C00
 18299              	.LASF482:
 18300 0ee7 6C656E67 		.ascii	"length\000"
 18300      746800
 18301              	.LASF140:
 18302 0eee 75696E74 		.ascii	"uint16_t\000"
 18302      31365F74 
 18302      00
 18303              	.LASF25:
 18304 0ef7 5F5F6F66 		.ascii	"__off_t\000"
 18304      665F7400 
 18305              	.LASF248:
 18306 0eff 6F66665F 		.ascii	"off_name\000"
 18306      6E616D65 
 18306      00
 18307              	.LASF56:
ARM GAS  C:\cygwin64\tmp\ccxdpAIh.s 			page 336


 18308 0f08 5F64736F 		.ascii	"_dso_handle\000"
 18308      5F68616E 
 18308      646C6500 
 18309              	.LASF157:
 18310 0f14 6D73675F 		.ascii	"msg_t\000"
 18310      7400
 18311              	.LASF185:
 18312 0f1a 63685F74 		.ascii	"ch_threads_queue\000"
 18312      68726561 
 18312      64735F71 
 18312      75657565 
 18312      00
 18313              	.LASF108:
 18314 0f2b 5F72616E 		.ascii	"_rand48\000"
 18314      64343800 
 18315              	.LASF85:
 18316 0f33 5F737464 		.ascii	"_stdout\000"
 18316      6F757400 
 18317              	.LASF529:
 18318 0f3b 665F636C 		.ascii	"f_closedir\000"
 18318      6F736564 
 18318      697200
 18319              	.LASF384:
 18320 0f46 454D4C49 		.ascii	"EMLINK\000"
 18320      4E4B00
 18321              	.LASF193:
 18322 0f4d 64656C74 		.ascii	"delta\000"
 18322      6100
 18323              	.LASF413:
 18324 0f53 76707269 		.ascii	"vprintf_console_hook\000"
 18324      6E74665F 
 18324      636F6E73 
 18324      6F6C655F 
 18324      686F6F6B 
 18325              	.LASF76:
 18326 0f68 5F626C6B 		.ascii	"_blksize\000"
 18326      73697A65 
 18326      00
 18327              	.LASF273:
 18328 0f71 63646972 		.ascii	"cdir\000"
 18328      00
 18329              	.LASF323:
 18330 0f76 46525F54 		.ascii	"FR_TIMEOUT\000"
 18330      494D454F 
 18330      555400
 18331              	.LASF289:
 18332 0f81 6E5F636F 		.ascii	"n_cont\000"
 18332      6E7400
 18333              	.LASF63:
 18334 0f88 5F626173 		.ascii	"_base\000"
 18334      6500
 18335              	.LASF164:
 18336 0f8e 71756575 		.ascii	"queue\000"
 18336      6500
 18337              	.LASF279:
 18338 0f94 766F6C62 		.ascii	"volbase\000"
 18338      61736500 
ARM GAS  C:\cygwin64\tmp\ccxdpAIh.s 			page 337


 18339              	.LASF175:
 18340 0f9c 6570656E 		.ascii	"epending\000"
 18340      64696E67 
 18340      00
 18341              	.LASF349:
 18342 0fa5 746D5F79 		.ascii	"tm_yday\000"
 18342      64617900 
 18343              	.LASF113:
 18344 0fad 5F737472 		.ascii	"_strtok_last\000"
 18344      746F6B5F 
 18344      6C617374 
 18344      00
 18345              	.LASF531:
 18346 0fba 665F7265 		.ascii	"f_rename\000"
 18346      6E616D65 
 18346      00
 18347              	.LASF496:
 18348 0fc3 6C736565 		.ascii	"lseek\000"
 18348      6B00
 18349              	.LASF126:
 18350 0fc9 5F6D6272 		.ascii	"_mbrtowc_state\000"
 18350      746F7763 
 18350      5F737461 
 18350      746500
 18351              	.LASF205:
 18352 0fd8 6D61696E 		.ascii	"mainthread\000"
 18352      74687265 
 18352      616400
 18353              	.LASF35:
 18354 0fe3 5F666C6F 		.ascii	"_flock_t\000"
 18354      636B5F74 
 18354      00
 18355              	.LASF535:
 18356 0fec 665F6765 		.ascii	"f_getfree\000"
 18356      74667265 
 18356      6500
 18357              	.LASF240:
 18358 0ff6 76657273 		.ascii	"version\000"
 18358      696F6E00 
 18359              	.LASF104:
 18360 0ffe 5F5F4649 		.ascii	"__FILE\000"
 18360      4C4500
 18361              	.LASF7:
 18362 1005 5F5F696E 		.ascii	"__int16_t\000"
 18362      7431365F 
 18362      7400
 18363              	.LASF533:
 18364 100f 665F6765 		.ascii	"f_getcwd\000"
 18364      74637764 
 18364      00
 18365              	.LASF524:
 18366 1018 7374726E 		.ascii	"strncpy\000"
 18366      63707900 
 18367              	.LASF215:
 18368 1020 62657374 		.ascii	"best\000"
 18368      00
 18369              	.LASF287:
ARM GAS  C:\cygwin64\tmp\ccxdpAIh.s 			page 338


 18370 1025 73636C75 		.ascii	"sclust\000"
 18370      737400
 18371              	.LASF34:
 18372 102c 5F6D6273 		.ascii	"_mbstate_t\000"
 18372      74617465 
 18372      5F7400
 18373              	.LASF383:
 18374 1037 45524F46 		.ascii	"EROFS\000"
 18374      5300
 18375              	.LASF466:
 18376 103d 66735F67 		.ascii	"fs_gettotal\000"
 18376      6574746F 
 18376      74616C00 
 18377              	.LASF118:
 18378 1049 5F723438 		.ascii	"_r48\000"
 18378      00
 18379              	.LASF169:
 18380 104e 77616261 		.ascii	"wabase\000"
 18380      736500
 18381              	.LASF28:
 18382 1055 77696E74 		.ascii	"wint_t\000"
 18382      5F7400
 18383              	.LASF430:
 18384 105c 59454152 		.ascii	"YEAR\000"
 18384      00
 18385              	.LASF39:
 18386 1061 5F6E6578 		.ascii	"_next\000"
 18386      7400
 18387              	.LASF78:
 18388 1067 5F646174 		.ascii	"_data\000"
 18388      6100
 18389              	.LASF436:
 18390 106d 66617466 		.ascii	"fatfs_getc\000"
 18390      735F6765 
 18390      746300
 18391              	.LASF315:
 18392 1078 46525F44 		.ascii	"FR_DENIED\000"
 18392      454E4945 
 18392      4400
 18393              	.LASF203:
 18394 1082 726C6973 		.ascii	"rlist\000"
 18394      7400
 18395              	.LASF467:
 18396 1088 6672655F 		.ascii	"fre_clust\000"
 18396      636C7573 
 18396      7400
 18397              	.LASF153:
 18398 1092 746D6F64 		.ascii	"tmode_t\000"
 18398      655F7400 
 18399              	.LASF512:
 18400 109a 66707574 		.ascii	"fputc\000"
 18400      6300
 18401              	.LASF376:
 18402 10a0 454E4649 		.ascii	"ENFILE\000"
 18402      4C4500
 18403              	.LASF299:
 18404 10a7 6469725F 		.ascii	"dir_ptr\000"
ARM GAS  C:\cygwin64\tmp\ccxdpAIh.s 			page 339


 18404      70747200 
 18405              	.LASF505:
 18406 10af 66707574 		.ascii	"fputs\000"
 18406      7300
 18407              	.LASF400:
 18408 10b5 73745F6D 		.ascii	"st_mtime\000"
 18408      74696D65 
 18408      00
 18409              	.LASF530:
 18410 10be 665F756E 		.ascii	"f_unlink\000"
 18410      6C696E6B 
 18410      00
 18411              	.LASF495:
 18412 10c7 72657769 		.ascii	"rewind\000"
 18412      6E6400
 18413              	.LASF214:
 18414 10ce 746D5F63 		.ascii	"tm_calibration_t\000"
 18414      616C6962 
 18414      72617469 
 18414      6F6E5F74 
 18414      00
 18415              	.LASF168:
 18416 10df 6E616D65 		.ascii	"name\000"
 18416      00
 18417              	.LASF417:
 18418 10e4 66707269 		.ascii	"fprintf\000"
 18418      6E746600 
 18419              	.LASF380:
 18420 10ec 45464249 		.ascii	"EFBIG\000"
 18420      4700
 18421              	.LASF305:
 18422 10f2 616C746E 		.ascii	"altname\000"
 18422      616D6500 
 18423              	.LASF444:
 18424 10fa 66657272 		.ascii	"ferror\000"
 18424      6F7200
 18425              	.LASF119:
 18426 1101 5F6D626C 		.ascii	"_mblen_state\000"
 18426      656E5F73 
 18426      74617465 
 18426      00
 18427              	.LASF538:
 18428 110e 665F7374 		.ascii	"f_stat\000"
 18428      617400
 18429              	.LASF8:
 18430 1115 73686F72 		.ascii	"short int\000"
 18430      7420696E 
 18430      7400
 18431              	.LASF288:
 18432 111f 6F626A73 		.ascii	"objsize\000"
 18432      697A6500 
 18433              	.LASF379:
 18434 1127 45545854 		.ascii	"ETXTBSY\000"
 18434      42535900 
 18435              	.LASF144:
 18436 112f 75696E74 		.ascii	"uint64_t\000"
 18436      36345F74 
ARM GAS  C:\cygwin64\tmp\ccxdpAIh.s 			page 340


 18436      00
 18437              	.LASF427:
 18438 1138 6D6F6465 		.ascii	"mode\000"
 18438      00
 18439              	.LASF284:
 18440 113d 46415446 		.ascii	"FATFS\000"
 18440      5300
 18441              	.LASF194:
 18442 1143 66756E63 		.ascii	"func\000"
 18442      00
 18443              	.LASF234:
 18444 1148 63685F6D 		.ascii	"ch_mutex\000"
 18444      75746578 
 18444      00
 18445              	.LASF514:
 18446 1151 66676574 		.ascii	"fgetc\000"
 18446      6300
 18447              	.LASF139:
 18448 1157 696E7431 		.ascii	"int16_t\000"
 18448      365F7400 
 18449              	.LASF174:
 18450 115f 6D736771 		.ascii	"msgqueue\000"
 18450      75657565 
 18450      00
 18451              	.LASF461:
 18452 1168 63686D6F 		.ascii	"chmod\000"
 18452      6400
 18453              	.LASF57:
 18454 116e 5F666E74 		.ascii	"_fntypes\000"
 18454      79706573 
 18454      00
 18455              	.LASF199:
 18456 1177 63685F73 		.ascii	"ch_system_debug\000"
 18456      79737465 
 18456      6D5F6465 
 18456      62756700 
 18457              	.LASF534:
 18458 1187 665F6368 		.ascii	"f_chdir\000"
 18458      64697200 
 18459              	.LASF50:
 18460 118f 5F5F746D 		.ascii	"__tm_year\000"
 18460      5F796561 
 18460      7200
 18461              	.LASF542:
 18462 1199 665F6368 		.ascii	"f_chmod\000"
 18462      6D6F6400 
 18463              	.LASF428:
 18464 11a1 4D494E55 		.ascii	"MINUTE\000"
 18464      544500
 18465              	.LASF509:
 18466 11a8 70757463 		.ascii	"putchar\000"
 18466      68617200 
 18467              	.LASF302:
 18468 11b0 66646174 		.ascii	"fdate\000"
 18468      6500
 18469              	.LASF526:
 18470 11b6 665F7265 		.ascii	"f_readdir\000"
ARM GAS  C:\cygwin64\tmp\ccxdpAIh.s 			page 341


 18470      61646469 
 18470      7200
 18471              	.LASF360:
 18472 11c0 45324249 		.ascii	"E2BIG\000"
 18472      4700
 18473              	.LASF431:
 18474 11c6 66617466 		.ascii	"fatfs_to_fileno\000"
 18474      735F746F 
 18474      5F66696C 
 18474      656E6F00 
 18475              	.LASF68:
 18476 11d6 5F6C6266 		.ascii	"_lbfsize\000"
 18476      73697A65 
 18476      00
 18477              	.LASF204:
 18478 11df 76746C69 		.ascii	"vtlist\000"
 18478      737400
 18479              	.LASF87:
 18480 11e6 5F696E63 		.ascii	"_inc\000"
 18480      00
 18481              	.LASF60:
 18482 11eb 5F696E64 		.ascii	"_ind\000"
 18482      00
 18483              	.LASF173:
 18484 11f0 77616974 		.ascii	"waiting\000"
 18484      696E6700 
 18485              	.LASF15:
 18486 11f8 5F5F696E 		.ascii	"__int64_t\000"
 18486      7436345F 
 18486      7400
 18487              	.LASF62:
 18488 1202 5F5F7362 		.ascii	"__sbuf\000"
 18488      756600
 18489              	.LASF58:
 18490 1209 5F69735F 		.ascii	"_is_cxa\000"
 18490      63786100 
 18491              	.LASF18:
 18492 1211 5F4C4F43 		.ascii	"_LOCK_T\000"
 18492      4B5F5400 
 18493              	.LASF258:
 18494 1219 6D757465 		.ascii	"mutex_t\000"
 18494      785F7400 
 18495              	.LASF391:
 18496 1221 73745F6D 		.ascii	"st_mode\000"
 18496      6F646500 
 18497              	.LASF21:
 18498 1229 5F5F7569 		.ascii	"__uid_t\000"
 18498      645F7400 
 18499              	.LASF131:
 18500 1231 5F6E6578 		.ascii	"_nextf\000"
 18500      746600
 18501              	.LASF426:
 18502 1238 756E6978 		.ascii	"unix\000"
 18502      00
 18503              	.LASF211:
 18504 123d 706F7274 		.ascii	"port_context\000"
 18504      5F636F6E 
ARM GAS  C:\cygwin64\tmp\ccxdpAIh.s 			page 342


 18504      74657874 
 18504      00
 18505              	.LASF181:
 18506 124a 74687265 		.ascii	"threads_list_t\000"
 18506      6164735F 
 18506      6C697374 
 18506      5F7400
 18507              	.LASF528:
 18508 1259 665F6F70 		.ascii	"f_opendir\000"
 18508      656E6469 
 18508      7200
 18509              	.LASF309:
 18510 1263 46525F44 		.ascii	"FR_DISK_ERR\000"
 18510      49534B5F 
 18510      45525200 
 18511              	.LASF202:
 18512 126f 63685F73 		.ascii	"ch_system\000"
 18512      79737465 
 18512      6D00
 18513              	.LASF90:
 18514 1279 5F6C6F63 		.ascii	"_locale\000"
 18514      616C6500 
 18515              	.LASF38:
 18516 1281 5F5F554C 		.ascii	"__ULong\000"
 18516      6F6E6700 
 18517              	.LASF166:
 18518 1289 6E657765 		.ascii	"newer\000"
 18518      7200
 18519              	.LASF463:
 18520 128f 62617365 		.ascii	"baseext\000"
 18520      65787400 
 18521              	.LASF416:
 18522 1297 6673796E 		.ascii	"fsync\000"
 18522      6300
 18523              	.LASF464:
 18524 129d 62617365 		.ascii	"basename\000"
 18524      6E616D65 
 18524      00
 18525              	.LASF142:
 18526 12a6 75696E74 		.ascii	"uint32_t\000"
 18526      33325F74 
 18526      00
 18527              	.LASF468:
 18528 12af 746F745F 		.ascii	"tot_sect\000"
 18528      73656374 
 18528      00
 18529              	.LASF365:
 18530 12b8 454E4F4D 		.ascii	"ENOMEM\000"
 18530      454D00
 18531              	.LASF93:
 18532 12bf 5F726573 		.ascii	"_result\000"
 18532      756C7400 
 18533              	.LASF475:
 18534 12c7 5F5F7772 		.ascii	"__wrap_fclose\000"
 18534      61705F66 
 18534      636C6F73 
 18534      6500
ARM GAS  C:\cygwin64\tmp\ccxdpAIh.s 			page 343


 18535              	.LASF308:
 18536 12d5 46525F4F 		.ascii	"FR_OK\000"
 18536      4B00
 18537              	.LASF252:
 18538 12db 6F66665F 		.ascii	"off_refs\000"
 18538      72656673 
 18538      00
 18539              	.LASF19:
 18540 12e4 5F6F6666 		.ascii	"_off_t\000"
 18540      5F7400
 18541              	.LASF350:
 18542 12eb 746D5F69 		.ascii	"tm_isdst\000"
 18542      73647374 
 18542      00
 18543              	.LASF469:
 18544 12f4 66735F67 		.ascii	"fs_getfree\000"
 18544      65746672 
 18544      656500
 18545              	.LASF225:
 18546 12ff 7264796D 		.ascii	"rdymsg\000"
 18546      736700
 18547              	.LASF111:
 18548 1306 5F616464 		.ascii	"_add\000"
 18548      00
 18549              	.LASF347:
 18550 130b 746D5F79 		.ascii	"tm_year\000"
 18550      65617200 
 18551              	.LASF10:
 18552 1313 73686F72 		.ascii	"short unsigned int\000"
 18552      7420756E 
 18552      7369676E 
 18552      65642069 
 18552      6E7400
 18553              	.LASF316:
 18554 1326 46525F45 		.ascii	"FR_EXIST\000"
 18554      58495354 
 18554      00
 18555              	.LASF47:
 18556 132f 5F5F746D 		.ascii	"__tm_hour\000"
 18556      5F686F75 
 18556      7200
 18557              	.LASF520:
 18558 1339 676D7469 		.ascii	"gmtime\000"
 18558      6D6500
 18559              	.LASF465:
 18560 1340 62617365 		.ascii	"base\000"
 18560      00
 18561              	.LASF201:
 18562 1345 63685F73 		.ascii	"ch_system_t\000"
 18562      79737465 
 18562      6D5F7400 
 18563              	.LASF255:
 18564 1351 63686465 		.ascii	"chdebug_t\000"
 18564      6275675F 
 18564      7400
 18565              	.LASF351:
 18566 135b 5F74696D 		.ascii	"_timezone\000"
ARM GAS  C:\cygwin64\tmp\ccxdpAIh.s 			page 344


 18566      657A6F6E 
 18566      6500
 18567              	.LASF454:
 18568 1365 726D6469 		.ascii	"rmdir\000"
 18568      7200
 18569              	.LASF127:
 18570 136b 5F6D6273 		.ascii	"_mbsrtowcs_state\000"
 18570      72746F77 
 18570      63735F73 
 18570      74617465 
 18570      00
 18571              	.LASF373:
 18572 137c 454E4F54 		.ascii	"ENOTDIR\000"
 18572      44495200 
 18573              	.LASF186:
 18574 1384 70726576 		.ascii	"prev\000"
 18574      00
 18575              	.LASF242:
 18576 1389 74696D65 		.ascii	"timesize\000"
 18576      73697A65 
 18576      00
 18577              	.LASF321:
 18578 1392 46525F4E 		.ascii	"FR_NO_FILESYSTEM\000"
 18578      4F5F4649 
 18578      4C455359 
 18578      5354454D 
 18578      00
 18579              	.LASF11:
 18580 13a3 5F5F696E 		.ascii	"__int32_t\000"
 18580      7433325F 
 18580      7400
 18581              	.LASF143:
 18582 13ad 696E7436 		.ascii	"int64_t\000"
 18582      345F7400 
 18583              	.LASF507:
 18584 13b5 66676574 		.ascii	"fgets\000"
 18584      7300
 18585              	.LASF390:
 18586 13bb 73745F69 		.ascii	"st_ino\000"
 18586      6E6F00
 18587              	.LASF251:
 18588 13c2 6F66665F 		.ascii	"off_flags\000"
 18588      666C6167 
 18588      7300
 18589              	.LASF36:
 18590 13cc 5F5F6E6C 		.ascii	"__nlink_t\000"
 18590      696E6B5F 
 18590      7400
 18591              	.LASF55:
 18592 13d6 5F666E61 		.ascii	"_fnargs\000"
 18592      72677300 
 18593              	.LASF53:
 18594 13de 5F5F746D 		.ascii	"__tm_isdst\000"
 18594      5F697364 
 18594      737400
 18595              	.LASF359:
 18596 13e9 454E5849 		.ascii	"ENXIO\000"
ARM GAS  C:\cygwin64\tmp\ccxdpAIh.s 			page 345


 18596      4F00
 18597              	.LASF425:
 18598 13ef 6661745F 		.ascii	"fat_time_to_unix\000"
 18598      74696D65 
 18598      5F746F5F 
 18598      756E6978 
 18598      00
 18599              	.LASF264:
 18600 1400 77666C61 		.ascii	"wflag\000"
 18600      6700
 18601              	.LASF183:
 18602 1406 6E657874 		.ascii	"next\000"
 18602      00
 18603              	.LASF338:
 18604 140b 6769645F 		.ascii	"gid_t\000"
 18604      7400
 18605              	.LASF257:
 18606 1411 73656D61 		.ascii	"semaphore_t\000"
 18606      70686F72 
 18606      655F7400 
 18607              	.LASF46:
 18608 141d 5F5F746D 		.ascii	"__tm_min\000"
 18608      5F6D696E 
 18608      00
 18609              	.LASF237:
 18610 1426 6964656E 		.ascii	"identifier\000"
 18610      74696669 
 18610      657200
 18611              	.LASF124:
 18612 1431 5F676574 		.ascii	"_getdate_err\000"
 18612      64617465 
 18612      5F657272 
 18612      00
 18613              	.LASF488:
 18614 143e 66777269 		.ascii	"fwrite\000"
 18614      746500
 18615              	.LASF307:
 18616 1445 46494C49 		.ascii	"FILINFO\000"
 18616      4E464F00 
 18617              	.LASF292:
 18618 144d 635F6F66 		.ascii	"c_ofs\000"
 18618      7300
 18619              	.LASF230:
 18620 1453 77747365 		.ascii	"wtsemp\000"
 18620      6D7000
 18621              	.LASF217:
 18622 145a 6C617374 		.ascii	"last\000"
 18622      00
 18623              	.LASF486:
 18624 145f 6F70656E 		.ascii	"open\000"
 18624      00
 18625              		.ident	"GCC: (GNU Tools for ARM Embedded Processors 6-2017-q2-update) 6.3.1 20170620 (release) [AR
ARM GAS  C:\cygwin64\tmp\ccxdpAIh.s 			page 346


DEFINED SYMBOLS
                            *ABS*:00000000 posix.c
C:\cygwin64\tmp\ccxdpAIh.s:18     .text.fatfs_getc:00000000 $t
C:\cygwin64\tmp\ccxdpAIh.s:25     .text.fatfs_getc:00000000 fatfs_getc
C:\cygwin64\tmp\ccxdpAIh.s:150    .text.fatfs_getc:00000088 $d
C:\cygwin64\tmp\ccxdpAIh.s:156    .text.fatfs_putc:00000000 $t
C:\cygwin64\tmp\ccxdpAIh.s:163    .text.fatfs_putc:00000000 fatfs_putc
C:\cygwin64\tmp\ccxdpAIh.s:256    .text.fatfs_putc:00000058 $d
C:\cygwin64\tmp\ccxdpAIh.s:262    .text.isatty:00000000 $t
C:\cygwin64\tmp\ccxdpAIh.s:269    .text.isatty:00000000 isatty
C:\cygwin64\tmp\ccxdpAIh.s:288    .text.fgetc:00000000 $t
C:\cygwin64\tmp\ccxdpAIh.s:295    .text.fgetc:00000000 fgetc
C:\cygwin64\tmp\ccxdpAIh.s:393    .text.fgetc:00000068 $d
C:\cygwin64\tmp\ccxdpAIh.s:398    .text.getc:00000000 $t
C:\cygwin64\tmp\ccxdpAIh.s:405    .text.getc:00000000 getc
C:\cygwin64\tmp\ccxdpAIh.s:420    .text.fputc:00000000 $t
C:\cygwin64\tmp\ccxdpAIh.s:427    .text.fputc:00000000 fputc
C:\cygwin64\tmp\ccxdpAIh.s:526    .text.fputc:0000005c $d
C:\cygwin64\tmp\ccxdpAIh.s:532    .text.clearerr:00000000 $t
C:\cygwin64\tmp\ccxdpAIh.s:539    .text.clearerr:00000000 clearerr
C:\cygwin64\tmp\ccxdpAIh.s:555    .text.getchar:00000000 $t
C:\cygwin64\tmp\ccxdpAIh.s:562    .text.getchar:00000000 getchar
C:\cygwin64\tmp\ccxdpAIh.s:577    .text.getchar:00000008 $d
C:\cygwin64\tmp\ccxdpAIh.s:582    .text.putchar:00000000 $t
C:\cygwin64\tmp\ccxdpAIh.s:589    .text.putchar:00000000 putchar
C:\cygwin64\tmp\ccxdpAIh.s:605    .text.putchar:00000008 $d
C:\cygwin64\tmp\ccxdpAIh.s:610    .text.putc:00000000 $t
C:\cygwin64\tmp\ccxdpAIh.s:617    .text.putc:00000000 putc
C:\cygwin64\tmp\ccxdpAIh.s:632    .text.fgets:00000000 $t
C:\cygwin64\tmp\ccxdpAIh.s:639    .text.fgets:00000000 fgets
C:\cygwin64\tmp\ccxdpAIh.s:716    .text.gets:00000000 $t
C:\cygwin64\tmp\ccxdpAIh.s:723    .text.gets:00000000 gets
C:\cygwin64\tmp\ccxdpAIh.s:773    .text.gets:0000002c $d
C:\cygwin64\tmp\ccxdpAIh.s:778    .text.fputs:00000000 $t
C:\cygwin64\tmp\ccxdpAIh.s:785    .text.fputs:00000000 fputs
C:\cygwin64\tmp\ccxdpAIh.s:820    .text.puts:00000000 $t
C:\cygwin64\tmp\ccxdpAIh.s:827    .text.puts:00000000 puts
C:\cygwin64\tmp\ccxdpAIh.s:878    .text.puts:00000024 $d
C:\cygwin64\tmp\ccxdpAIh.s:883    .text.feof:00000000 $t
C:\cygwin64\tmp\ccxdpAIh.s:890    .text.feof:00000000 feof
C:\cygwin64\tmp\ccxdpAIh.s:908    .text.fileno:00000000 $t
C:\cygwin64\tmp\ccxdpAIh.s:915    .text.fileno:00000000 fileno
C:\cygwin64\tmp\ccxdpAIh.s:956    .text.fileno:00000024 $d
C:\cygwin64\tmp\ccxdpAIh.s:962    .text.fileno_to_stream:00000000 $t
C:\cygwin64\tmp\ccxdpAIh.s:969    .text.fileno_to_stream:00000000 fileno_to_stream
C:\cygwin64\tmp\ccxdpAIh.s:1006   .text.fileno_to_stream:00000020 $d
C:\cygwin64\tmp\ccxdpAIh.s:1012   .text.truncate:00000000 $t
C:\cygwin64\tmp\ccxdpAIh.s:1019   .text.truncate:00000000 truncate
C:\cygwin64\tmp\ccxdpAIh.s:1099   .text.truncate:0000004c $d
C:\cygwin64\tmp\ccxdpAIh.s:1105   .text.fs_getfree:00000000 $t
C:\cygwin64\tmp\ccxdpAIh.s:1112   .text.fs_getfree:00000000 fs_getfree
C:\cygwin64\tmp\ccxdpAIh.s:1157   .text.fs_getfree:0000002c $d
C:\cygwin64\tmp\ccxdpAIh.s:1162   .text.fs_gettotal:00000000 $t
C:\cygwin64\tmp\ccxdpAIh.s:1169   .text.fs_gettotal:00000000 fs_gettotal
C:\cygwin64\tmp\ccxdpAIh.s:1217   .text.fs_gettotal:0000002c $d
C:\cygwin64\tmp\ccxdpAIh.s:1222   .text.basename:00000000 $t
C:\cygwin64\tmp\ccxdpAIh.s:1229   .text.basename:00000000 basename
ARM GAS  C:\cygwin64\tmp\ccxdpAIh.s 			page 347


C:\cygwin64\tmp\ccxdpAIh.s:1265   .text.basename:00000018 $d
C:\cygwin64\tmp\ccxdpAIh.s:1270   .text.baseext:00000000 $t
C:\cygwin64\tmp\ccxdpAIh.s:1277   .text.baseext:00000000 baseext
C:\cygwin64\tmp\ccxdpAIh.s:1308   .text.baseext:00000014 $d
C:\cygwin64\tmp\ccxdpAIh.s:1313   .text.chdir:00000000 $t
C:\cygwin64\tmp\ccxdpAIh.s:1320   .text.chdir:00000000 chdir
C:\cygwin64\tmp\ccxdpAIh.s:1358   .text.chdir:00000020 $d
C:\cygwin64\tmp\ccxdpAIh.s:1364   .text.chmod:00000000 $t
C:\cygwin64\tmp\ccxdpAIh.s:1371   .text.chmod:00000000 chmod
C:\cygwin64\tmp\ccxdpAIh.s:1428   .text.chmod:00000030 $d
C:\cygwin64\tmp\ccxdpAIh.s:1434   .text.dirname:00000000 $t
C:\cygwin64\tmp\ccxdpAIh.s:1441   .text.dirname:00000000 dirname
C:\cygwin64\tmp\ccxdpAIh.s:1486   .text.getcwd:00000000 $t
C:\cygwin64\tmp\ccxdpAIh.s:1493   .text.getcwd:00000000 getcwd
C:\cygwin64\tmp\ccxdpAIh.s:1538   .text.getcwd:00000024 $d
C:\cygwin64\tmp\ccxdpAIh.s:1544   .text.mkdir:00000000 $t
C:\cygwin64\tmp\ccxdpAIh.s:1551   .text.mkdir:00000000 mkdir
C:\cygwin64\tmp\ccxdpAIh.s:1616   .text.mkdir:00000038 $d
C:\cygwin64\tmp\ccxdpAIh.s:1622   .text.rename:00000000 $t
C:\cygwin64\tmp\ccxdpAIh.s:1629   .text.rename:00000000 rename
C:\cygwin64\tmp\ccxdpAIh.s:1667   .text.rename:00000020 $d
C:\cygwin64\tmp\ccxdpAIh.s:1673   .text.remove:00000000 $t
C:\cygwin64\tmp\ccxdpAIh.s:1680   .text.remove:00000000 remove
C:\cygwin64\tmp\ccxdpAIh.s:1718   .text.remove:00000020 $d
C:\cygwin64\tmp\ccxdpAIh.s:1724   .text.unlink:00000000 $t
C:\cygwin64\tmp\ccxdpAIh.s:1731   .text.unlink:00000000 unlink
C:\cygwin64\tmp\ccxdpAIh.s:1742   .text.rmdir:00000000 $t
C:\cygwin64\tmp\ccxdpAIh.s:1749   .text.rmdir:00000000 rmdir
C:\cygwin64\tmp\ccxdpAIh.s:1760   .text.closedir:00000000 $t
C:\cygwin64\tmp\ccxdpAIh.s:1767   .text.closedir:00000000 closedir
C:\cygwin64\tmp\ccxdpAIh.s:1806   .text.closedir:00000020 $d
C:\cygwin64\tmp\ccxdpAIh.s:1812   .text.opendir:00000000 $t
C:\cygwin64\tmp\ccxdpAIh.s:1819   .text.opendir:00000000 opendir
C:\cygwin64\tmp\ccxdpAIh.s:1865   .text.opendir:00000024 $d
C:\cygwin64\tmp\ccxdpAIh.s:1872   .text.readdir:00000000 $t
C:\cygwin64\tmp\ccxdpAIh.s:1879   .text.readdir:00000000 readdir
C:\cygwin64\tmp\ccxdpAIh.s:1964   .text.readdir:0000004c $d
C:\cygwin64\tmp\ccxdpAIh.s:1971   .text.clrerror:00000000 $t
C:\cygwin64\tmp\ccxdpAIh.s:1978   .text.clrerror:00000000 clrerror
C:\cygwin64\tmp\ccxdpAIh.s:1995   .text.ferror:00000000 $t
C:\cygwin64\tmp\ccxdpAIh.s:2002   .text.ferror:00000000 ferror
C:\cygwin64\tmp\ccxdpAIh.s:2020   .text.perror:00000000 $t
C:\cygwin64\tmp\ccxdpAIh.s:2027   .text.perror:00000000 perror
C:\cygwin64\tmp\ccxdpAIh.s:2068   .text.perror:00000028 $d
C:\cygwin64\tmp\ccxdpAIh.s:2075   .text.strerror:00000000 $t
C:\cygwin64\tmp\ccxdpAIh.s:2082   .text.strerror:00000000 strerror
C:\cygwin64\tmp\ccxdpAIh.s:2098   .text.strerror:00000008 $d
C:\cygwin64\tmp\ccxdpAIh.s:2103   .text.__wrap_strerror_r:00000000 $t
C:\cygwin64\tmp\ccxdpAIh.s:2110   .text.__wrap_strerror_r:00000000 __wrap_strerror_r
C:\cygwin64\tmp\ccxdpAIh.s:2139   .text.__wrap_strerror_r:00000014 $d
C:\cygwin64\tmp\ccxdpAIh.s:2144   .text.fdevopen:00000000 $t
C:\cygwin64\tmp\ccxdpAIh.s:2151   .text.fdevopen:00000000 fdevopen
C:\cygwin64\tmp\ccxdpAIh.s:2233   .text.fdevopen:0000004c $d
C:\cygwin64\tmp\ccxdpAIh.s:2238   .text.fatfs_to_errno:00000000 $t
C:\cygwin64\tmp\ccxdpAIh.s:2245   .text.fatfs_to_errno:00000000 fatfs_to_errno
C:\cygwin64\tmp\ccxdpAIh.s:2265   .text.fatfs_to_errno:0000000c $d
C:\cygwin64\tmp\ccxdpAIh.s:2270   .text.fatfs_to_fileno:00000000 $t
ARM GAS  C:\cygwin64\tmp\ccxdpAIh.s 			page 348


C:\cygwin64\tmp\ccxdpAIh.s:2277   .text.fatfs_to_fileno:00000000 fatfs_to_fileno
C:\cygwin64\tmp\ccxdpAIh.s:2325   .text.fatfs_to_fileno:00000028 $d
C:\cygwin64\tmp\ccxdpAIh.s:2331   .text.fat_time_to_unix:00000000 $t
C:\cygwin64\tmp\ccxdpAIh.s:2338   .text.fat_time_to_unix:00000000 fat_time_to_unix
C:\cygwin64\tmp\ccxdpAIh.s:2510   .text.fat_time_to_unix:000000d4 $d
C:\cygwin64\tmp\ccxdpAIh.s:2519   .text.stat:00000000 $t
C:\cygwin64\tmp\ccxdpAIh.s:2526   .text.stat:00000000 stat
C:\cygwin64\tmp\ccxdpAIh.s:2662   .text.stat:00000098 $d
C:\cygwin64\tmp\ccxdpAIh.s:2670   .text.unix_time_to_fat:00000000 $t
C:\cygwin64\tmp\ccxdpAIh.s:2677   .text.unix_time_to_fat:00000000 unix_time_to_fat
C:\cygwin64\tmp\ccxdpAIh.s:2745   .text.unix_time_to_fat:00000048 $d
C:\cygwin64\tmp\ccxdpAIh.s:2751   .text.utime:00000000 $t
C:\cygwin64\tmp\ccxdpAIh.s:2758   .text.utime:00000000 utime
C:\cygwin64\tmp\ccxdpAIh.s:2818   .text.utime:00000040 $d
C:\cygwin64\tmp\ccxdpAIh.s:2823   .text.fileno_to_fatfs:00000000 $t
C:\cygwin64\tmp\ccxdpAIh.s:2830   .text.fileno_to_fatfs:00000000 fileno_to_fatfs
C:\cygwin64\tmp\ccxdpAIh.s:2891   .text.fileno_to_fatfs:00000028 $d
C:\cygwin64\tmp\ccxdpAIh.s:2896   .text.ftell:00000000 $t
C:\cygwin64\tmp\ccxdpAIh.s:2903   .text.ftell:00000000 ftell
C:\cygwin64\tmp\ccxdpAIh.s:2951   .text.ftell:00000024 $d
C:\cygwin64\tmp\ccxdpAIh.s:2956   .text.fgetpos:00000000 $t
C:\cygwin64\tmp\ccxdpAIh.s:2963   .text.fgetpos:00000000 fgetpos
C:\cygwin64\tmp\ccxdpAIh.s:2992   .text.lseek:00000000 $t
C:\cygwin64\tmp\ccxdpAIh.s:2999   .text.lseek:00000000 lseek
C:\cygwin64\tmp\ccxdpAIh.s:3105   .text.lseek:00000068 $d
C:\cygwin64\tmp\ccxdpAIh.s:3111   .text.fseek:00000000 $t
C:\cygwin64\tmp\ccxdpAIh.s:3118   .text.fseek:00000000 fseek
C:\cygwin64\tmp\ccxdpAIh.s:3164   .text.fsetpos:00000000 $t
C:\cygwin64\tmp\ccxdpAIh.s:3171   .text.fsetpos:00000000 fsetpos
C:\cygwin64\tmp\ccxdpAIh.s:3189   .text.rewind:00000000 $t
C:\cygwin64\tmp\ccxdpAIh.s:3196   .text.rewind:00000000 rewind
C:\cygwin64\tmp\ccxdpAIh.s:3213   .text.ftruncate:00000000 $t
C:\cygwin64\tmp\ccxdpAIh.s:3220   .text.ftruncate:00000000 ftruncate
C:\cygwin64\tmp\ccxdpAIh.s:3299   .text.ftruncate:00000040 $d
C:\cygwin64\tmp\ccxdpAIh.s:3305   .text.read:00000000 $t
C:\cygwin64\tmp\ccxdpAIh.s:3312   .text.read:00000000 read
C:\cygwin64\tmp\ccxdpAIh.s:3450   .text.read:00000088 $d
C:\cygwin64\tmp\ccxdpAIh.s:3457   .text.__wrap_fread:00000000 $t
C:\cygwin64\tmp\ccxdpAIh.s:3464   .text.__wrap_fread:00000000 __wrap_fread
C:\cygwin64\tmp\ccxdpAIh.s:3500   .text.syncfs:00000000 $t
C:\cygwin64\tmp\ccxdpAIh.s:3507   .text.syncfs:00000000 syncfs
C:\cygwin64\tmp\ccxdpAIh.s:3585   .text.syncfs:00000044 $d
C:\cygwin64\tmp\ccxdpAIh.s:3591   .text.sync:00000000 $t
C:\cygwin64\tmp\ccxdpAIh.s:3598   .text.sync:00000000 sync
C:\cygwin64\tmp\ccxdpAIh.s:3646   .text.write:00000000 $t
C:\cygwin64\tmp\ccxdpAIh.s:3653   .text.write:00000000 write
C:\cygwin64\tmp\ccxdpAIh.s:3789   .text.write:00000080 $d
C:\cygwin64\tmp\ccxdpAIh.s:3796   .text.fwrite:00000000 $t
C:\cygwin64\tmp\ccxdpAIh.s:3803   .text.fwrite:00000000 fwrite
C:\cygwin64\tmp\ccxdpAIh.s:3839   .text.free_file_descriptor:00000000 $t
C:\cygwin64\tmp\ccxdpAIh.s:3846   .text.free_file_descriptor:00000000 free_file_descriptor
C:\cygwin64\tmp\ccxdpAIh.s:3930   .text.free_file_descriptor:00000048 $d
C:\cygwin64\tmp\ccxdpAIh.s:3936   .text.close:00000000 $t
C:\cygwin64\tmp\ccxdpAIh.s:3943   .text.close:00000000 close
C:\cygwin64\tmp\ccxdpAIh.s:4013   .text.close:00000040 $d
C:\cygwin64\tmp\ccxdpAIh.s:4019   .text.__wrap_fclose:00000000 $t
C:\cygwin64\tmp\ccxdpAIh.s:4026   .text.__wrap_fclose:00000000 __wrap_fclose
ARM GAS  C:\cygwin64\tmp\ccxdpAIh.s 			page 349


C:\cygwin64\tmp\ccxdpAIh.s:4062   .text.new_file_descriptor:00000000 $t
C:\cygwin64\tmp\ccxdpAIh.s:4069   .text.new_file_descriptor:00000000 new_file_descriptor
C:\cygwin64\tmp\ccxdpAIh.s:4163   .text.new_file_descriptor:00000054 $d
C:\cygwin64\tmp\ccxdpAIh.s:4169   .text.open:00000000 $t
C:\cygwin64\tmp\ccxdpAIh.s:4176   .text.open:00000000 open
C:\cygwin64\tmp\ccxdpAIh.s:4372   .text.open:000000dc $d
C:\cygwin64\tmp\ccxdpAIh.s:4380   .text.posix_fopen_modes_to_open:00000000 $t
C:\cygwin64\tmp\ccxdpAIh.s:4387   .text.posix_fopen_modes_to_open:00000000 posix_fopen_modes_to_open
C:\cygwin64\tmp\ccxdpAIh.s:4511   .text.posix_fopen_modes_to_open:000000a4 $d
C:\cygwin64\tmp\ccxdpAIh.s:4527   .text.fopen:00000000 $t
C:\cygwin64\tmp\ccxdpAIh.s:4534   .text.fopen:00000000 fopen
C:\cygwin64\tmp\ccxdpAIh.s:4571   .text.__wrap_freopen:00000000 $t
C:\cygwin64\tmp\ccxdpAIh.s:4578   .text.__wrap_freopen:00000000 __wrap_freopen
C:\cygwin64\tmp\ccxdpAIh.s:4633   .text.fprintf:00000000 $t
C:\cygwin64\tmp\ccxdpAIh.s:4640   .text.fprintf:00000000 fprintf
C:\cygwin64\tmp\ccxdpAIh.s:4720   .text.fsync:00000000 $t
C:\cygwin64\tmp\ccxdpAIh.s:4727   .text.fsync:00000000 fsync
C:\cygwin64\tmp\ccxdpAIh.s:4788   .text.fsync:00000038 $d
C:\cygwin64\tmp\ccxdpAIh.s:4844   .data.sys_errlist:00000000 sys_errlist
C:\cygwin64\tmp\ccxdpAIh.s:4817   .bss.__iob:00000000 __iob
C:\cygwin64\tmp\ccxdpAIh.s:4837   .bss.errno:00000000 errno
C:\cygwin64\tmp\ccxdpAIh.s:4797   .rodata:00000000 $d
C:\cygwin64\tmp\ccxdpAIh.s:4813   .bss.__iob:00000000 $d
C:\cygwin64\tmp\ccxdpAIh.s:4823   .bss._de:00000000 _de
C:\cygwin64\tmp\ccxdpAIh.s:4824   .bss._de:00000000 $d
C:\cygwin64\tmp\ccxdpAIh.s:4826   .bss._dp:00000000 $d
C:\cygwin64\tmp\ccxdpAIh.s:4830   .bss._dp:00000000 _dp
C:\cygwin64\tmp\ccxdpAIh.s:4833   .bss.errno:00000000 $d
C:\cygwin64\tmp\ccxdpAIh.s:4840   .data.sys_errlist:00000000 $d
C:\cygwin64\tmp\ccxdpAIh.s:4886   .rodata.CSWTCH.61:00000000 CSWTCH.61
                     .debug_frame:00000010 $d

UNDEFINED SYMBOLS
f_read
f_lseek
f_write
strlen
f_open
f_truncate
f_getfree
f_chdir
f_chmod
f_getcwd
f_mkdir
f_rename
f_unlink
f_closedir
f_opendir
f_readdir
strncpy
printf
calloc
strcmp
f_stat
gmtime
f_utime
f_sync
ARM GAS  C:\cygwin64\tmp\ccxdpAIh.s 			page 350


free
f_close
vasprintf
