ARM GAS  C:\cygwin64\tmp\ccVYAIZI.s 			page 1


   1              		.cpu cortex-m4
   2              		.eabi_attribute 27, 1
   3              		.eabi_attribute 28, 1
   4              		.eabi_attribute 20, 1
   5              		.eabi_attribute 21, 1
   6              		.eabi_attribute 23, 3
   7              		.eabi_attribute 24, 1
   8              		.eabi_attribute 25, 1
   9              		.eabi_attribute 26, 1
  10              		.eabi_attribute 30, 4
  11              		.eabi_attribute 34, 1
  12              		.eabi_attribute 18, 4
  13              		.file	"stdio.c"
  14              		.text
  15              	.Ltext0:
  16              		.cfi_sections	.debug_frame
  17              		.section	.text.vprintf,"ax",%progbits
  18              		.align	1
  19              		.global	vprintf
  20              		.syntax unified
  21              		.thumb
  22              		.thumb_func
  23              		.fpu fpv4-sp-d16
  24              		.type	vprintf, %function
  25              	vprintf:
  26              	.LFB281:
  27              		.file 1 "../../libraries/AP_HAL_ChibiOS/hwdef/common/stdio.c"
  28              		.loc 1 128 0
  29              		.cfi_startproc
  30              		@ args = 0, pretend = 0, frame = 0
  31              		@ frame_needed = 0, uses_anonymous_args = 0
  32              		@ link register save eliminated.
  33              	.LVL0:
  34              		.loc 1 133 0
  35 0000 FFF7FEBF 		b	strlen
  36              	.LVL1:
  37              		.cfi_endproc
  38              	.LFE281:
  39              		.size	vprintf, .-vprintf
  40              		.section	.text._atob,"ax",%progbits
  41              		.align	1
  42              		.syntax unified
  43              		.thumb
  44              		.thumb_func
  45              		.fpu fpv4-sp-d16
  46              		.type	_atob, %function
  47              	_atob:
  48              	.LFB286:
  49              		.loc 1 205 0
  50              		.cfi_startproc
  51              		@ args = 0, pretend = 0, frame = 32
  52              		@ frame_needed = 0, uses_anonymous_args = 0
  53              	.LVL2:
  54 0000 F0B5     		push	{r4, r5, r6, r7, lr}
  55              		.cfi_def_cfa_offset 20
  56              		.cfi_offset 4, -20
  57              		.cfi_offset 5, -16
ARM GAS  C:\cygwin64\tmp\ccVYAIZI.s 			page 2


  58              		.cfi_offset 6, -12
  59              		.cfi_offset 7, -8
  60              		.cfi_offset 14, -4
  61              		.loc 1 210 0
  62 0002 0B78     		ldrb	r3, [r1]	@ zero_extendqisi2
  63 0004 302B     		cmp	r3, #48
  64              		.loc 1 205 0
  65 0006 89B0     		sub	sp, sp, #36
  66              		.cfi_def_cfa_offset 56
  67              		.loc 1 205 0
  68 0008 0546     		mov	r5, r0
  69 000a 0C46     		mov	r4, r1
  70              		.loc 1 210 0
  71 000c 12D1     		bne	.L3
  72              		.loc 1 210 0 is_stmt 0 discriminator 1
  73 000e 4B78     		ldrb	r3, [r1, #1]	@ zero_extendqisi2
  74 0010 03F0DF03 		and	r3, r3, #223
  75 0014 582B     		cmp	r3, #88
  76 0016 0DD1     		bne	.L3
  77              	.LVL3:
  78              		.loc 1 212 0 is_stmt 1
  79 0018 0234     		adds	r4, r4, #2
  80              	.LVL4:
  81              	.L4:
  82              		.loc 1 215 0 discriminator 1
  83 001a 2E21     		movs	r1, #46
  84 001c 2046     		mov	r0, r4
  85              	.LVL5:
  86 001e FFF7FEFF 		bl	strchr
  87              	.LVL6:
  88 0022 0646     		mov	r6, r0
  89 0024 0028     		cmp	r0, #0
  90 0026 35D0     		beq	.L14
  91              		.loc 1 216 0
  92 0028 071B     		subs	r7, r0, r4
  93 002a 132F     		cmp	r7, #19
  94 002c 0CD9     		bls	.L6
  95              	.LVL7:
  96              	.L8:
  97              		.loc 1 217 0
  98 002e 0020     		movs	r0, #0
  99              	.L7:
 100              		.loc 1 252 0
 101 0030 09B0     		add	sp, sp, #36
 102              		.cfi_remember_state
 103              		.cfi_def_cfa_offset 20
 104              		@ sp needed
 105 0032 F0BD     		pop	{r4, r5, r6, r7, pc}
 106              	.LVL8:
 107              	.L3:
 108              		.cfi_restore_state
 109              		.loc 1 215 0
 110 0034 102A     		cmp	r2, #16
 111 0036 F0D0     		beq	.L4
 112              	.LVL9:
 113              	.L5:
 114              		.loc 1 234 0
ARM GAS  C:\cygwin64\tmp\ccVYAIZI.s 			page 3


 115 0038 0021     		movs	r1, #0
 116 003a 2960     		str	r1, [r5]
 117              	.LVL10:
 118 003c 013C     		subs	r4, r4, #1
 119              	.LVL11:
 120              	.L9:
 121              		.loc 1 235 0 discriminator 1
 122 003e 14F8010F 		ldrb	r0, [r4, #1]!	@ zero_extendqisi2
 123              	.LVL12:
 124 0042 48BB     		cbnz	r0, .L13
 125              		.loc 1 250 0
 126 0044 2960     		str	r1, [r5]
 127 0046 23E0     		b	.L21
 128              	.LVL13:
 129              	.L6:
 130              		.loc 1 219 0
 131 0048 3A46     		mov	r2, r7
 132 004a 2146     		mov	r1, r4
 133 004c 03A8     		add	r0, sp, #12
 134              	.LVL14:
 135 004e FFF7FEFF 		bl	strncpy
 136              	.LVL15:
 137              		.loc 1 220 0
 138 0052 08AB     		add	r3, sp, #32
 139 0054 1F44     		add	r7, r7, r3
 140              		.loc 1 221 0
 141 0056 1022     		movs	r2, #16
 142              		.loc 1 220 0
 143 0058 0023     		movs	r3, #0
 144              		.loc 1 221 0
 145 005a 03A9     		add	r1, sp, #12
 146 005c 01A8     		add	r0, sp, #4
 147              		.loc 1 220 0
 148 005e 07F8143C 		strb	r3, [r7, #-20]
 149              		.loc 1 221 0
 150 0062 FFF7CDFF 		bl	_atob
 151              	.LVL16:
 152 0066 0028     		cmp	r0, #0
 153 0068 E1D0     		beq	.L8
 154              		.loc 1 224 0
 155 006a 0136     		adds	r6, r6, #1
 156              	.LVL17:
 157              		.loc 1 225 0
 158 006c 2E21     		movs	r1, #46
 159 006e 3046     		mov	r0, r6
 160 0070 FFF7FEFF 		bl	strchr
 161              	.LVL18:
 162 0074 0028     		cmp	r0, #0
 163 0076 DAD1     		bne	.L8
 164              		.loc 1 228 0
 165 0078 1022     		movs	r2, #16
 166 007a 3146     		mov	r1, r6
 167 007c 02A8     		add	r0, sp, #8
 168 007e FFF7BFFF 		bl	_atob
 169              	.LVL19:
 170 0082 0028     		cmp	r0, #0
 171 0084 D3D0     		beq	.L8
ARM GAS  C:\cygwin64\tmp\ccVYAIZI.s 			page 4


 172              		.loc 1 230 0
 173 0086 029B     		ldr	r3, [sp, #8]
 174 0088 019A     		ldr	r2, [sp, #4]
 175 008a 03EB0243 		add	r3, r3, r2, lsl #16
 176 008e 2B60     		str	r3, [r5]
 177              	.LVL20:
 178              	.L21:
 179              		.loc 1 251 0
 180 0090 0120     		movs	r0, #1
 181 0092 CDE7     		b	.L7
 182              	.LVL21:
 183              	.L14:
 184 0094 1022     		movs	r2, #16
 185 0096 CFE7     		b	.L5
 186              	.LVL22:
 187              	.L13:
 188              		.loc 1 236 0
 189 0098 A0F13003 		sub	r3, r0, #48
 190 009c DEB2     		uxtb	r6, r3
 191 009e 092E     		cmp	r6, #9
 192 00a0 05D9     		bls	.L11
 193              		.loc 1 238 0
 194 00a2 A0F16103 		sub	r3, r0, #97
 195 00a6 052B     		cmp	r3, #5
 196 00a8 06D8     		bhi	.L12
 197              		.loc 1 239 0
 198 00aa A0F15703 		sub	r3, r0, #87
 199              	.LVL23:
 200              	.L11:
 201              		.loc 1 245 0
 202 00ae 9342     		cmp	r3, r2
 203 00b0 BDDA     		bge	.L8
 204              	.LVL24:
 205              		.loc 1 248 0
 206 00b2 01FB0231 		mla	r1, r1, r2, r3
 207              	.LVL25:
 208 00b6 C2E7     		b	.L9
 209              	.LVL26:
 210              	.L12:
 211              		.loc 1 240 0
 212 00b8 A0F14103 		sub	r3, r0, #65
 213 00bc 052B     		cmp	r3, #5
 214 00be B6D8     		bhi	.L8
 215              		.loc 1 241 0
 216 00c0 A0F13703 		sub	r3, r0, #55
 217              	.LVL27:
 218 00c4 F3E7     		b	.L11
 219              		.cfi_endproc
 220              	.LFE286:
 221              		.size	_atob, .-_atob
 222              		.section	.text.vsnprintf,"ax",%progbits
 223              		.align	1
 224              		.global	vsnprintf
 225              		.syntax unified
 226              		.thumb
 227              		.thumb_func
 228              		.fpu fpv4-sp-d16
ARM GAS  C:\cygwin64\tmp\ccVYAIZI.s 			page 5


 229              		.type	vsnprintf, %function
 230              	vsnprintf:
 231              	.LFB277:
 232              		.loc 1 35 0
 233              		.cfi_startproc
 234              		@ args = 0, pretend = 0, frame = 24
 235              		@ frame_needed = 0, uses_anonymous_args = 0
 236              	.LVL28:
 237 0000 F0B5     		push	{r4, r5, r6, r7, lr}
 238              		.cfi_def_cfa_offset 20
 239              		.cfi_offset 4, -20
 240              		.cfi_offset 5, -16
 241              		.cfi_offset 6, -12
 242              		.cfi_offset 7, -8
 243              		.cfi_offset 14, -4
 244 0002 0546     		mov	r5, r0
 245 0004 87B0     		sub	sp, sp, #28
 246              		.cfi_def_cfa_offset 48
 247              		.loc 1 35 0
 248 0006 1646     		mov	r6, r2
 249 0008 1F46     		mov	r7, r3
 250              		.loc 1 42 0
 251 000a 0C46     		mov	r4, r1
 252 000c 89B1     		cbz	r1, .L25
 253              		.loc 1 43 0
 254 000e 4A1E     		subs	r2, r1, #1
 255              	.LVL29:
 256              	.L23:
 257              		.loc 1 49 0
 258 0010 0023     		movs	r3, #0
 259              	.LVL30:
 260 0012 2946     		mov	r1, r5
 261              	.LVL31:
 262 0014 01A8     		add	r0, sp, #4
 263              	.LVL32:
 264 0016 FFF7FEFF 		bl	msObjectInit
 265              	.LVL33:
 266              		.loc 1 54 0
 267 001a 3A46     		mov	r2, r7
 268 001c 3146     		mov	r1, r6
 269 001e 01A8     		add	r0, sp, #4
 270              	.LVL34:
 271 0020 FFF7FEFF 		bl	chvprintf
 272              	.LVL35:
 273              		.loc 1 58 0
 274 0024 049B     		ldr	r3, [sp, #16]
 275 0026 9C42     		cmp	r4, r3
 276              		.loc 1 59 0
 277 0028 84BF     		itt	hi
 278 002a 0022     		movhi	r2, #0
 279 002c EA54     		strbhi	r2, [r5, r3]
 280              		.loc 1 69 0
 281 002e 07B0     		add	sp, sp, #28
 282              		.cfi_remember_state
 283              		.cfi_def_cfa_offset 20
 284              		@ sp needed
 285 0030 F0BD     		pop	{r4, r5, r6, r7, pc}
ARM GAS  C:\cygwin64\tmp\ccVYAIZI.s 			page 6


 286              	.LVL36:
 287              	.L25:
 288              		.cfi_restore_state
 289              		.loc 1 45 0
 290 0032 0A46     		mov	r2, r1
 291              	.LVL37:
 292 0034 ECE7     		b	.L23
 293              		.cfi_endproc
 294              	.LFE277:
 295              		.size	vsnprintf, .-vsnprintf
 296              		.section	.text.snprintf,"ax",%progbits
 297              		.align	1
 298              		.global	snprintf
 299              		.syntax unified
 300              		.thumb
 301              		.thumb_func
 302              		.fpu fpv4-sp-d16
 303              		.type	snprintf, %function
 304              	snprintf:
 305              	.LFB278:
 306              		.loc 1 72 0
 307              		.cfi_startproc
 308              		@ args = 4, pretend = 8, frame = 8
 309              		@ frame_needed = 0, uses_anonymous_args = 1
 310              	.LVL38:
 311 0000 0CB4     		push	{r2, r3}
 312              		.cfi_def_cfa_offset 8
 313              		.cfi_offset 2, -8
 314              		.cfi_offset 3, -4
 315 0002 07B5     		push	{r0, r1, r2, lr}
 316              		.cfi_def_cfa_offset 24
 317              		.cfi_offset 14, -12
 318              		.loc 1 72 0
 319 0004 04AB     		add	r3, sp, #16
 320 0006 53F8042B 		ldr	r2, [r3], #4
 321              		.loc 1 77 0
 322 000a 0193     		str	r3, [sp, #4]
 323              		.loc 1 78 0
 324 000c FFF7FEFF 		bl	vsnprintf
 325              	.LVL39:
 326              		.loc 1 88 0
 327 0010 03B0     		add	sp, sp, #12
 328              		.cfi_def_cfa_offset 12
 329              		@ sp needed
 330 0012 5DF804EB 		ldr	lr, [sp], #4
 331              		.cfi_restore 14
 332              		.cfi_def_cfa_offset 8
 333 0016 02B0     		add	sp, sp, #8
 334              		.cfi_restore 3
 335              		.cfi_restore 2
 336              		.cfi_def_cfa_offset 0
 337 0018 7047     		bx	lr
 338              		.cfi_endproc
 339              	.LFE278:
 340              		.size	snprintf, .-snprintf
 341              		.section	.text.vasprintf,"ax",%progbits
 342              		.align	1
ARM GAS  C:\cygwin64\tmp\ccVYAIZI.s 			page 7


 343              		.global	vasprintf
 344              		.syntax unified
 345              		.thumb
 346              		.thumb_func
 347              		.fpu fpv4-sp-d16
 348              		.type	vasprintf, %function
 349              	vasprintf:
 350              	.LFB279:
 351              		.loc 1 91 0
 352              		.cfi_startproc
 353              		@ args = 0, pretend = 0, frame = 0
 354              		@ frame_needed = 0, uses_anonymous_args = 0
 355              	.LVL40:
 356 0000 2DE9F843 		push	{r3, r4, r5, r6, r7, r8, r9, lr}
 357              		.cfi_def_cfa_offset 32
 358              		.cfi_offset 3, -32
 359              		.cfi_offset 4, -28
 360              		.cfi_offset 5, -24
 361              		.cfi_offset 6, -20
 362              		.cfi_offset 7, -16
 363              		.cfi_offset 8, -12
 364              		.cfi_offset 9, -8
 365              		.cfi_offset 14, -4
 366              		.loc 1 93 0
 367 0004 1346     		mov	r3, r2
 368              		.loc 1 91 0
 369 0006 0E46     		mov	r6, r1
 370 0008 1746     		mov	r7, r2
 371              		.loc 1 93 0
 372 000a 0A46     		mov	r2, r1
 373              	.LVL41:
 374 000c 0021     		movs	r1, #0
 375              	.LVL42:
 376              		.loc 1 91 0
 377 000e 8046     		mov	r8, r0
 378              		.loc 1 93 0
 379 0010 0846     		mov	r0, r1
 380              	.LVL43:
 381 0012 FFF7FEFF 		bl	vsnprintf
 382              	.LVL44:
 383              		.loc 1 94 0
 384 0016 041E     		subs	r4, r0, #0
 385 0018 04DC     		bgt	.L28
 386              	.LVL45:
 387              	.L30:
 388              		.loc 1 95 0
 389 001a 4FF0FF34 		mov	r4, #-1
 390              	.LVL46:
 391              	.L27:
 392              		.loc 1 110 0
 393 001e 2046     		mov	r0, r4
 394 0020 BDE8F883 		pop	{r3, r4, r5, r6, r7, r8, r9, pc}
 395              	.LVL47:
 396              	.L28:
 397              		.loc 1 97 0
 398 0024 651C     		adds	r5, r4, #1
 399 0026 0121     		movs	r1, #1
ARM GAS  C:\cygwin64\tmp\ccVYAIZI.s 			page 8


 400 0028 2846     		mov	r0, r5
 401              	.LVL48:
 402 002a FFF7FEFF 		bl	calloc
 403              	.LVL49:
 404              		.loc 1 98 0
 405 002e 8146     		mov	r9, r0
 406 0030 0028     		cmp	r0, #0
 407 0032 F2D0     		beq	.L30
 408              	.LVL50:
 409              		.loc 1 101 0
 410 0034 3B46     		mov	r3, r7
 411 0036 3246     		mov	r2, r6
 412 0038 2946     		mov	r1, r5
 413 003a FFF7FEFF 		bl	vsnprintf
 414              	.LVL51:
 415              		.loc 1 102 0
 416 003e C8F80090 		str	r9, [r8]
 417              		.loc 1 103 0
 418 0042 ECE7     		b	.L27
 419              		.cfi_endproc
 420              	.LFE279:
 421              		.size	vasprintf, .-vasprintf
 422              		.section	.text.asprintf,"ax",%progbits
 423              		.align	1
 424              		.global	asprintf
 425              		.syntax unified
 426              		.thumb
 427              		.thumb_func
 428              		.fpu fpv4-sp-d16
 429              		.type	asprintf, %function
 430              	asprintf:
 431              	.LFB280:
 432              		.loc 1 113 0
 433              		.cfi_startproc
 434              		@ args = 4, pretend = 12, frame = 8
 435              		@ frame_needed = 0, uses_anonymous_args = 1
 436              	.LVL52:
 437 0000 0EB4     		push	{r1, r2, r3}
 438              		.cfi_def_cfa_offset 12
 439              		.cfi_offset 1, -12
 440              		.cfi_offset 2, -8
 441              		.cfi_offset 3, -4
 442 0002 03B5     		push	{r0, r1, lr}
 443              		.cfi_def_cfa_offset 24
 444              		.cfi_offset 14, -16
 445              		.loc 1 113 0
 446 0004 03AA     		add	r2, sp, #12
 447 0006 52F8041B 		ldr	r1, [r2], #4
 448              		.loc 1 116 0
 449 000a 0192     		str	r2, [sp, #4]
 450              		.loc 1 117 0
 451 000c FFF7FEFF 		bl	vasprintf
 452              	.LVL53:
 453              		.loc 1 125 0
 454 0010 02B0     		add	sp, sp, #8
 455              		.cfi_def_cfa_offset 16
 456              		@ sp needed
ARM GAS  C:\cygwin64\tmp\ccVYAIZI.s 			page 9


 457 0012 5DF804EB 		ldr	lr, [sp], #4
 458              		.cfi_restore 14
 459              		.cfi_def_cfa_offset 12
 460 0016 03B0     		add	sp, sp, #12
 461              		.cfi_restore 3
 462              		.cfi_restore 2
 463              		.cfi_restore 1
 464              		.cfi_def_cfa_offset 0
 465 0018 7047     		bx	lr
 466              		.cfi_endproc
 467              	.LFE280:
 468              		.size	asprintf, .-asprintf
 469              		.section	.text.printf,"ax",%progbits
 470              		.align	1
 471              		.global	printf
 472              		.syntax unified
 473              		.thumb
 474              		.thumb_func
 475              		.fpu fpv4-sp-d16
 476              		.type	printf, %function
 477              	printf:
 478              	.LFB282:
 479              		.loc 1 141 0
 480              		.cfi_startproc
 481              		@ args = 4, pretend = 16, frame = 8
 482              		@ frame_needed = 0, uses_anonymous_args = 1
 483              	.LVL54:
 484 0000 0FB4     		push	{r0, r1, r2, r3}
 485              		.cfi_def_cfa_offset 16
 486              		.cfi_offset 0, -16
 487              		.cfi_offset 1, -12
 488              		.cfi_offset 2, -8
 489              		.cfi_offset 3, -4
 490 0002 07B5     		push	{r0, r1, r2, lr}
 491              		.cfi_def_cfa_offset 32
 492              		.cfi_offset 14, -20
 493              		.loc 1 147 0
 494 0004 054B     		ldr	r3, .L36
 495              		.loc 1 141 0
 496 0006 04A9     		add	r1, sp, #16
 497              		.loc 1 147 0
 498 0008 1B68     		ldr	r3, [r3]
 499              		.loc 1 141 0
 500 000a 51F8040B 		ldr	r0, [r1], #4
 501              		.loc 1 146 0
 502 000e 0191     		str	r1, [sp, #4]
 503              		.loc 1 147 0
 504 0010 9847     		blx	r3
 505              	.LVL55:
 506              		.loc 1 155 0
 507 0012 03B0     		add	sp, sp, #12
 508              		.cfi_def_cfa_offset 20
 509              		@ sp needed
 510 0014 5DF804EB 		ldr	lr, [sp], #4
 511              		.cfi_restore 14
 512              		.cfi_def_cfa_offset 16
 513 0018 04B0     		add	sp, sp, #16
ARM GAS  C:\cygwin64\tmp\ccVYAIZI.s 			page 10


 514              		.cfi_restore 3
 515              		.cfi_restore 2
 516              		.cfi_restore 1
 517              		.cfi_restore 0
 518              		.cfi_def_cfa_offset 0
 519 001a 7047     		bx	lr
 520              	.L37:
 521              		.align	2
 522              	.L36:
 523 001c 00000000 		.word	.LANCHOR0
 524              		.cfi_endproc
 525              	.LFE282:
 526              		.size	printf, .-printf
 527              		.section	.text.scanf,"ax",%progbits
 528              		.align	1
 529              		.global	scanf
 530              		.syntax unified
 531              		.thumb
 532              		.thumb_func
 533              		.fpu fpv4-sp-d16
 534              		.type	scanf, %function
 535              	scanf:
 536              	.LFB283:
 537              		.loc 1 160 0
 538              		.cfi_startproc
 539              		@ args = 4, pretend = 16, frame = 0
 540              		@ frame_needed = 0, uses_anonymous_args = 1
 541              		@ link register save eliminated.
 542              	.LVL56:
 543 0000 0FB4     		push	{r0, r1, r2, r3}
 544              		.cfi_def_cfa_offset 16
 545              		.cfi_offset 0, -16
 546              		.cfi_offset 1, -12
 547              		.cfi_offset 2, -8
 548              		.cfi_offset 3, -4
 549              		.loc 1 163 0
 550 0002 0020     		movs	r0, #0
 551 0004 04B0     		add	sp, sp, #16
 552              		.cfi_restore 3
 553              		.cfi_restore 2
 554              		.cfi_restore 1
 555              		.cfi_restore 0
 556              		.cfi_def_cfa_offset 0
 557 0006 7047     		bx	lr
 558              		.cfi_endproc
 559              	.LFE283:
 560              		.size	scanf, .-scanf
 561              		.section	.text.atob,"ax",%progbits
 562              		.align	1
 563              		.global	atob
 564              		.syntax unified
 565              		.thumb
 566              		.thumb_func
 567              		.fpu fpv4-sp-d16
 568              		.type	atob, %function
 569              	atob:
 570              	.LFB287:
ARM GAS  C:\cygwin64\tmp\ccVYAIZI.s 			page 11


 571              		.loc 1 260 0
 572              		.cfi_startproc
 573              		@ args = 0, pretend = 0, frame = 8
 574              		@ frame_needed = 0, uses_anonymous_args = 0
 575              	.LVL57:
 576 0000 13B5     		push	{r0, r1, r4, lr}
 577              		.cfi_def_cfa_offset 16
 578              		.cfi_offset 4, -8
 579              		.cfi_offset 14, -4
 580              		.loc 1 260 0
 581 0002 0446     		mov	r4, r0
 582              		.loc 1 263 0
 583 0004 82B9     		cbnz	r2, .L40
 584              	.LVL58:
 585              	.LBB4:
 586              	.LBB5:
 587              		.loc 1 182 0
 588 0006 0B78     		ldrb	r3, [r1]	@ zero_extendqisi2
 589 0008 302B     		cmp	r3, #48
 590 000a 1AD1     		bne	.L47
 591              		.loc 1 183 0
 592 000c 4B78     		ldrb	r3, [r1, #1]	@ zero_extendqisi2
 593 000e 6E3B     		subs	r3, r3, #110
 594 0010 0A2B     		cmp	r3, #10
 595 0012 16D8     		bhi	.L47
 596 0014 DFE803F0 		tbb	[pc, r3]
 597              	.LVL59:
 598              	.L42:
 599 0018 06       		.byte	(.L41-.L42)/2
 600 0019 11       		.byte	(.L43-.L42)/2
 601 001a 15       		.byte	(.L47-.L42)/2
 602 001b 15       		.byte	(.L47-.L42)/2
 603 001c 15       		.byte	(.L47-.L42)/2
 604 001d 15       		.byte	(.L47-.L42)/2
 605 001e 06       		.byte	(.L41-.L42)/2
 606 001f 15       		.byte	(.L47-.L42)/2
 607 0020 15       		.byte	(.L47-.L42)/2
 608 0021 15       		.byte	(.L47-.L42)/2
 609 0022 13       		.byte	(.L48-.L42)/2
 610 0023 00       		.p2align 1
 611              	.L41:
 612              		.loc 1 188 0
 613 0024 0A22     		movs	r2, #10
 614              	.LVL60:
 615              	.L44:
 616              		.loc 1 197 0
 617 0026 0231     		adds	r1, r1, #2
 618              	.LVL61:
 619              	.L40:
 620              	.LBE5:
 621              	.LBE4:
 622              		.loc 1 265 0
 623 0028 01A8     		add	r0, sp, #4
 624              	.LVL62:
 625 002a FFF7FEFF 		bl	_atob
 626              	.LVL63:
 627 002e 10B1     		cbz	r0, .L45
ARM GAS  C:\cygwin64\tmp\ccVYAIZI.s 			page 12


 628              		.loc 1 266 0
 629 0030 019B     		ldr	r3, [sp, #4]
 630 0032 2360     		str	r3, [r4]
 631              		.loc 1 267 0
 632 0034 0120     		movs	r0, #1
 633              	.L45:
 634              		.loc 1 270 0
 635 0036 02B0     		add	sp, sp, #8
 636              		.cfi_remember_state
 637              		.cfi_def_cfa_offset 8
 638              		@ sp needed
 639 0038 10BD     		pop	{r4, pc}
 640              	.LVL64:
 641              	.L43:
 642              		.cfi_restore_state
 643              	.LBB7:
 644              	.LBB6:
 645              		.loc 1 191 0
 646 003a 0822     		movs	r2, #8
 647 003c F3E7     		b	.L44
 648              	.LVL65:
 649              	.L48:
 650              		.loc 1 185 0
 651 003e 1022     		movs	r2, #16
 652 0040 F1E7     		b	.L44
 653              	.L47:
 654              		.loc 1 194 0
 655 0042 0A22     		movs	r2, #10
 656 0044 F0E7     		b	.L40
 657              	.LBE6:
 658              	.LBE7:
 659              		.cfi_endproc
 660              	.LFE287:
 661              		.size	atob, .-atob
 662              		.section	.text.vsscanf,"ax",%progbits
 663              		.align	1
 664              		.global	vsscanf
 665              		.syntax unified
 666              		.thumb
 667              		.thumb_func
 668              		.fpu fpv4-sp-d16
 669              		.type	vsscanf, %function
 670              	vsscanf:
 671              	.LFB288:
 672              		.loc 1 279 0
 673              		.cfi_startproc
 674              		@ args = 0, pretend = 0, frame = 144
 675              		@ frame_needed = 0, uses_anonymous_args = 0
 676              	.LVL66:
 677 0000 2DE9F04F 		push	{r4, r5, r6, r7, r8, r9, r10, fp, lr}
 678              		.cfi_def_cfa_offset 36
 679              		.cfi_offset 4, -36
 680              		.cfi_offset 5, -32
 681              		.cfi_offset 6, -28
 682              		.cfi_offset 7, -24
 683              		.cfi_offset 8, -20
 684              		.cfi_offset 9, -16
ARM GAS  C:\cygwin64\tmp\ccVYAIZI.s 			page 13


 685              		.cfi_offset 10, -12
 686              		.cfi_offset 11, -8
 687              		.cfi_offset 14, -4
 688 0004 A5B0     		sub	sp, sp, #148
 689              		.cfi_def_cfa_offset 184
 690              		.loc 1 285 0
 691 0006 0027     		movs	r7, #0
 692              		.loc 1 279 0
 693 0008 0446     		mov	r4, r0
 694 000a 9046     		mov	r8, r2
 695              	.LVL67:
 696              		.loc 1 285 0
 697 000c 0397     		str	r7, [sp, #12]
 698              	.LVL68:
 699 000e BB46     		mov	fp, r7
 700              	.LVL69:
 701              	.L53:
 702              		.loc 1 286 0
 703 0010 0B78     		ldrb	r3, [r1]	@ zero_extendqisi2
 704 0012 002B     		cmp	r3, #0
 705 0014 00F0F680 		beq	.L52
 706              		.loc 1 286 0 is_stmt 0 discriminator 1
 707 0018 2378     		ldrb	r3, [r4]	@ zero_extendqisi2
 708 001a 002B     		cmp	r3, #0
 709 001c 00F0F280 		beq	.L52
 710 0020 0D46     		mov	r5, r1
 711              	.LVL70:
 712              	.L54:
 713              		.loc 1 287 0 is_stmt 1
 714 0022 FFF7FEFF 		bl	__locale_ctype_ptr
 715              	.LVL71:
 716 0026 2B78     		ldrb	r3, [r5]	@ zero_extendqisi2
 717 0028 1844     		add	r0, r0, r3
 718 002a A946     		mov	r9, r5
 719              	.LVL72:
 720 002c 4678     		ldrb	r6, [r0, #1]	@ zero_extendqisi2
 721 002e 16F00806 		ands	r6, r6, #8
 722 0032 05F10105 		add	r5, r5, #1
 723              	.LVL73:
 724 0036 F4D1     		bne	.L54
 725              		.loc 1 289 0
 726 0038 252B     		cmp	r3, #37
 727 003a 40F0D480 		bne	.L56
 728              	.LVL74:
 729              	.L57:
 730              		.loc 1 291 0 discriminator 1
 731 003e 95F80090 		ldrb	r9, [r5]	@ zero_extendqisi2
 732 0042 B9F1000F 		cmp	r9, #0
 733 0046 4BD1     		bne	.L61
 734              	.L62:
 735              		.loc 1 324 0
 736 0048 4946     		mov	r1, r9
 737 004a 7048     		ldr	r0, .L100
 738 004c FFF7FEFF 		bl	strchr
 739              	.LVL75:
 740 0050 0028     		cmp	r0, #0
 741 0052 00F09C80 		beq	.L67
ARM GAS  C:\cygwin64\tmp\ccVYAIZI.s 			page 14


 742              	.LVL76:
 743              	.L70:
 744              		.loc 1 325 0
 745 0056 FFF7FEFF 		bl	__locale_ctype_ptr
 746              	.LVL77:
 747 005a 2378     		ldrb	r3, [r4]	@ zero_extendqisi2
 748 005c 1844     		add	r0, r0, r3
 749 005e 621C     		adds	r2, r4, #1
 750 0060 4378     		ldrb	r3, [r0, #1]	@ zero_extendqisi2
 751 0062 1B07     		lsls	r3, r3, #28
 752 0064 00F1B280 		bmi	.L82
 753              		.loc 1 327 0
 754 0068 2B78     		ldrb	r3, [r5]	@ zero_extendqisi2
 755 006a 642B     		cmp	r3, #100
 756 006c 00F0B080 		beq	.L84
 757              		.loc 1 327 0 is_stmt 0 discriminator 1
 758 0070 752B     		cmp	r3, #117
 759 0072 00F0AD80 		beq	.L84
 760              		.loc 1 329 0 is_stmt 1
 761 0076 782B     		cmp	r3, #120
 762 0078 00F0AC80 		beq	.L85
 763              		.loc 1 331 0
 764 007c 6F2B     		cmp	r3, #111
 765 007e 00F0AB80 		beq	.L86
 766              		.loc 1 334 0
 767 0082 622B     		cmp	r3, #98
 768 0084 08BF     		it	eq
 769 0086 0227     		moveq	r7, #2
 770              	.LVL78:
 771              	.L71:
 772              		.loc 1 335 0
 773 0088 039B     		ldr	r3, [sp, #12]
 774 008a 73B9     		cbnz	r3, .L72
 775              		.loc 1 336 0
 776 008c FFF7FEFF 		bl	__locale_ctype_ptr
 777              	.LVL79:
 778 0090 6978     		ldrb	r1, [r5, #1]	@ zero_extendqisi2
 779 0092 0844     		add	r0, r0, r1
 780 0094 4378     		ldrb	r3, [r0, #1]	@ zero_extendqisi2
 781 0096 1807     		lsls	r0, r3, #28
 782 0098 02D4     		bmi	.L73
 783              		.loc 1 336 0 is_stmt 0 discriminator 1
 784 009a 0029     		cmp	r1, #0
 785 009c 40F09E80 		bne	.L74
 786              	.L73:
 787              		.loc 1 337 0 is_stmt 1
 788 00a0 5B49     		ldr	r1, .L100+4
 789 00a2 2046     		mov	r0, r4
 790 00a4 FFF7FEFF 		bl	strcspn
 791              	.LVL80:
 792              	.L99:
 793              		.loc 1 339 0
 794 00a8 0390     		str	r0, [sp, #12]
 795              	.L72:
 796              		.loc 1 341 0
 797 00aa DDF80C90 		ldr	r9, [sp, #12]
 798 00ae 2146     		mov	r1, r4
ARM GAS  C:\cygwin64\tmp\ccVYAIZI.s 			page 15


 799 00b0 4A46     		mov	r2, r9
 800 00b2 04A8     		add	r0, sp, #16
 801 00b4 FFF7FEFF 		bl	strncpy
 802              	.LVL81:
 803              		.loc 1 342 0
 804 00b8 24AB     		add	r3, sp, #144
 805 00ba 4B44     		add	r3, r3, r9
 806 00bc 0022     		movs	r2, #0
 807 00be 03F8802C 		strb	r2, [r3, #-128]
 808              		.loc 1 343 0
 809 00c2 4C44     		add	r4, r4, r9
 810              	.LVL82:
 811              		.loc 1 344 0
 812 00c4 002E     		cmp	r6, #0
 813 00c6 64D1     		bne	.L75
 814              		.loc 1 345 0
 815 00c8 D8F80000 		ldr	r0, [r8]
 816 00cc 3A46     		mov	r2, r7
 817 00ce 04A9     		add	r1, sp, #16
 818 00d0 FFF7FEFF 		bl	atob
 819              	.LVL83:
 820 00d4 08F10406 		add	r6, r8, #4
 821              	.LVL84:
 822 00d8 B046     		mov	r8, r6
 823              	.LVL85:
 824              	.L76:
 825              		.loc 1 348 0
 826 00da 0BF1010B 		add	fp, fp, #1
 827              	.LVL86:
 828 00de 58E0     		b	.L75
 829              	.L61:
 830              		.loc 1 292 0
 831 00e0 4946     		mov	r1, r9
 832 00e2 4C48     		ldr	r0, .L100+8
 833 00e4 FFF7FEFF 		bl	strchr
 834              	.LVL87:
 835 00e8 68BB     		cbnz	r0, .L58
 836              		.loc 1 294 0
 837 00ea B9F12A0F 		cmp	r9, #42
 838 00ee 28D0     		beq	.L80
 839              		.loc 1 298 0
 840 00f0 A9F13109 		sub	r9, r9, #49
 841 00f4 B9F1080F 		cmp	r9, #8
 842 00f8 1FD8     		bhi	.L59
 843 00fa A946     		mov	r9, r5
 844              	.LVL88:
 845              	.L60:
 846              		.loc 1 299 0 discriminator 1
 847 00fc FFF7FEFF 		bl	__locale_ctype_ptr
 848              	.LVL89:
 849 0100 99F80030 		ldrb	r3, [r9]	@ zero_extendqisi2
 850 0104 1844     		add	r0, r0, r3
 851 0106 09F10102 		add	r2, r9, #1
 852 010a 4378     		ldrb	r3, [r0, #1]	@ zero_extendqisi2
 853 010c 13F00403 		ands	r3, r3, #4
 854 0110 15D1     		bne	.L81
 855              		.loc 1 300 0
ARM GAS  C:\cygwin64\tmp\ccVYAIZI.s 			page 16


 856 0112 A9EB050A 		sub	r10, r9, r5
 857 0116 5246     		mov	r2, r10
 858 0118 2946     		mov	r1, r5
 859 011a 04A8     		add	r0, sp, #16
 860 011c 0193     		str	r3, [sp, #4]
 861 011e FFF7FEFF 		bl	strncpy
 862              	.LVL90:
 863              		.loc 1 301 0
 864 0122 24AB     		add	r3, sp, #144
 865 0124 9A44     		add	r10, r10, r3
 866              		.loc 1 302 0
 867 0126 0A22     		movs	r2, #10
 868              		.loc 1 301 0
 869 0128 019B     		ldr	r3, [sp, #4]
 870 012a 0AF8803C 		strb	r3, [r10, #-128]
 871              		.loc 1 302 0
 872 012e 04A9     		add	r1, sp, #16
 873 0130 03A8     		add	r0, sp, #12
 874 0132 FFF7FEFF 		bl	atob
 875              	.LVL91:
 876              		.loc 1 303 0
 877 0136 09F1FF35 		add	r5, r9, #-1
 878              	.LVL92:
 879              	.L59:
 880              		.loc 1 291 0
 881 013a 0135     		adds	r5, r5, #1
 882              	.LVL93:
 883 013c 7FE7     		b	.L57
 884              	.LVL94:
 885              	.L81:
 886 013e 9146     		mov	r9, r2
 887              	.LVL95:
 888 0140 DCE7     		b	.L60
 889              	.LVL96:
 890              	.L80:
 891              		.loc 1 295 0
 892 0142 0126     		movs	r6, #1
 893 0144 F9E7     		b	.L59
 894              	.L58:
 895              		.loc 1 306 0
 896 0146 B9F1730F 		cmp	r9, #115
 897 014a 26D1     		bne	.L63
 898              	.LVL97:
 899              	.L64:
 900 014c A146     		mov	r9, r4
 901              	.LVL98:
 902              		.loc 1 307 0
 903 014e FFF7FEFF 		bl	__locale_ctype_ptr
 904              	.LVL99:
 905 0152 99F80030 		ldrb	r3, [r9]	@ zero_extendqisi2
 906 0156 1844     		add	r0, r0, r3
 907 0158 0134     		adds	r4, r4, #1
 908              	.LVL100:
 909 015a 4378     		ldrb	r3, [r0, #1]	@ zero_extendqisi2
 910 015c 1A07     		lsls	r2, r3, #28
 911 015e F5D4     		bmi	.L64
 912              		.loc 1 309 0
ARM GAS  C:\cygwin64\tmp\ccVYAIZI.s 			page 17


 913 0160 039B     		ldr	r3, [sp, #12]
 914 0162 23B9     		cbnz	r3, .L65
 915              		.loc 1 310 0
 916 0164 2A49     		ldr	r1, .L100+4
 917 0166 4846     		mov	r0, r9
 918 0168 FFF7FEFF 		bl	strcspn
 919              	.LVL101:
 920 016c 0390     		str	r0, [sp, #12]
 921              	.L65:
 922              		.loc 1 311 0
 923 016e 66B9     		cbnz	r6, .L66
 924              		.loc 1 312 0
 925 0170 08F10404 		add	r4, r8, #4
 926              	.LVL102:
 927 0174 D8F80080 		ldr	r8, [r8]
 928 0178 039A     		ldr	r2, [sp, #12]
 929 017a 4046     		mov	r0, r8
 930 017c 4946     		mov	r1, r9
 931 017e FFF7FEFF 		bl	strncpy
 932              	.LVL103:
 933              		.loc 1 313 0
 934 0182 039B     		ldr	r3, [sp, #12]
 935 0184 08F80360 		strb	r6, [r8, r3]
 936              		.loc 1 312 0
 937 0188 A046     		mov	r8, r4
 938              	.LVL104:
 939              	.L66:
 940              		.loc 1 315 0
 941 018a 039C     		ldr	r4, [sp, #12]
 942 018c 4C44     		add	r4, r4, r9
 943              	.LVL105:
 944              	.L67:
 945              		.loc 1 347 0
 946 018e 002E     		cmp	r6, #0
 947 0190 A3D0     		beq	.L76
 948              	.L75:
 949              	.LVL106:
 950              		.loc 1 349 0
 951 0192 0023     		movs	r3, #0
 952 0194 0393     		str	r3, [sp, #12]
 953              		.loc 1 350 0
 954 0196 691C     		adds	r1, r5, #1
 955              	.LVL107:
 956 0198 3AE7     		b	.L53
 957              	.LVL108:
 958              	.L63:
 959              		.loc 1 316 0
 960 019a B9F1630F 		cmp	r9, #99
 961 019e 7FF453AF 		bne	.L62
 962              		.loc 1 317 0
 963 01a2 039B     		ldr	r3, [sp, #12]
 964 01a4 0BB9     		cbnz	r3, .L68
 965              		.loc 1 318 0
 966 01a6 0123     		movs	r3, #1
 967 01a8 0393     		str	r3, [sp, #12]
 968              	.L68:
 969              		.loc 1 319 0
ARM GAS  C:\cygwin64\tmp\ccVYAIZI.s 			page 18


 970 01aa 66B9     		cbnz	r6, .L69
 971              		.loc 1 320 0
 972 01ac 08F10409 		add	r9, r8, #4
 973              	.LVL109:
 974 01b0 D8F80080 		ldr	r8, [r8]
 975 01b4 039A     		ldr	r2, [sp, #12]
 976 01b6 4046     		mov	r0, r8
 977 01b8 2146     		mov	r1, r4
 978 01ba FFF7FEFF 		bl	strncpy
 979              	.LVL110:
 980              		.loc 1 321 0
 981 01be 039B     		ldr	r3, [sp, #12]
 982 01c0 08F80360 		strb	r6, [r8, r3]
 983              		.loc 1 320 0
 984 01c4 C846     		mov	r8, r9
 985              	.LVL111:
 986              	.L69:
 987              		.loc 1 323 0
 988 01c6 039B     		ldr	r3, [sp, #12]
 989 01c8 1C44     		add	r4, r4, r3
 990              	.LVL112:
 991 01ca E0E7     		b	.L67
 992              	.L82:
 993 01cc 1446     		mov	r4, r2
 994              	.LVL113:
 995 01ce 42E7     		b	.L70
 996              	.LVL114:
 997              	.L84:
 998              		.loc 1 328 0
 999 01d0 0A27     		movs	r7, #10
 1000              	.LVL115:
 1001 01d2 59E7     		b	.L71
 1002              	.LVL116:
 1003              	.L85:
 1004              		.loc 1 330 0
 1005 01d4 1027     		movs	r7, #16
 1006              	.LVL117:
 1007 01d6 57E7     		b	.L71
 1008              	.LVL118:
 1009              	.L86:
 1010              		.loc 1 332 0
 1011 01d8 0827     		movs	r7, #8
 1012              	.LVL119:
 1013 01da 55E7     		b	.L71
 1014              	.LVL120:
 1015              	.L74:
 1016              		.loc 1 339 0
 1017 01dc 2046     		mov	r0, r4
 1018 01de FFF7FEFF 		bl	strchr
 1019              	.LVL121:
 1020 01e2 001B     		subs	r0, r0, r4
 1021 01e4 60E7     		b	.L99
 1022              	.LVL122:
 1023              	.L56:
 1024              		.loc 1 352 0
 1025 01e6 FFF7FEFF 		bl	__locale_ctype_ptr
 1026              	.LVL123:
ARM GAS  C:\cygwin64\tmp\ccVYAIZI.s 			page 19


 1027 01ea 14F8013B 		ldrb	r3, [r4], #1	@ zero_extendqisi2
 1028              	.LVL124:
 1029 01ee 1844     		add	r0, r0, r3
 1030 01f0 4278     		ldrb	r2, [r0, #1]	@ zero_extendqisi2
 1031 01f2 1207     		lsls	r2, r2, #28
 1032 01f4 F7D4     		bmi	.L56
 1033              		.loc 1 354 0
 1034 01f6 99F80020 		ldrb	r2, [r9]	@ zero_extendqisi2
 1035 01fa 9A42     		cmp	r2, r3
 1036 01fc 02D1     		bne	.L52
 1037              		.loc 1 357 0
 1038 01fe 09F10101 		add	r1, r9, #1
 1039              	.LVL125:
 1040 0202 05E7     		b	.L53
 1041              	.LVL126:
 1042              	.L52:
 1043              		.loc 1 361 0
 1044 0204 5846     		mov	r0, fp
 1045 0206 25B0     		add	sp, sp, #148
 1046              		.cfi_def_cfa_offset 36
 1047              		@ sp needed
 1048 0208 BDE8F08F 		pop	{r4, r5, r6, r7, r8, r9, r10, fp, pc}
 1049              	.LVL127:
 1050              	.L101:
 1051              		.align	2
 1052              	.L100:
 1053 020c 14000000 		.word	.LC2
 1054 0210 0D000000 		.word	.LC1
 1055 0214 00000000 		.word	.LC0
 1056              		.cfi_endproc
 1057              	.LFE288:
 1058              		.size	vsscanf, .-vsscanf
 1059              		.section	.text.sscanf,"ax",%progbits
 1060              		.align	1
 1061              		.global	sscanf
 1062              		.syntax unified
 1063              		.thumb
 1064              		.thumb_func
 1065              		.fpu fpv4-sp-d16
 1066              		.type	sscanf, %function
 1067              	sscanf:
 1068              	.LFB284:
 1069              		.loc 1 169 0
 1070              		.cfi_startproc
 1071              		@ args = 4, pretend = 12, frame = 8
 1072              		@ frame_needed = 0, uses_anonymous_args = 1
 1073              	.LVL128:
 1074 0000 0EB4     		push	{r1, r2, r3}
 1075              		.cfi_def_cfa_offset 12
 1076              		.cfi_offset 1, -12
 1077              		.cfi_offset 2, -8
 1078              		.cfi_offset 3, -4
 1079 0002 03B5     		push	{r0, r1, lr}
 1080              		.cfi_def_cfa_offset 24
 1081              		.cfi_offset 14, -16
 1082              		.loc 1 169 0
 1083 0004 03AA     		add	r2, sp, #12
ARM GAS  C:\cygwin64\tmp\ccVYAIZI.s 			page 20


 1084 0006 52F8041B 		ldr	r1, [r2], #4
 1085              		.loc 1 173 0
 1086 000a 0192     		str	r2, [sp, #4]
 1087              		.loc 1 174 0
 1088 000c FFF7FEFF 		bl	vsscanf
 1089              	.LVL129:
 1090              		.loc 1 177 0
 1091 0010 02B0     		add	sp, sp, #8
 1092              		.cfi_def_cfa_offset 16
 1093              		@ sp needed
 1094 0012 5DF804EB 		ldr	lr, [sp], #4
 1095              		.cfi_restore 14
 1096              		.cfi_def_cfa_offset 12
 1097 0016 03B0     		add	sp, sp, #12
 1098              		.cfi_restore 3
 1099              		.cfi_restore 2
 1100              		.cfi_restore 1
 1101              		.cfi_def_cfa_offset 0
 1102 0018 7047     		bx	lr
 1103              		.cfi_endproc
 1104              	.LFE284:
 1105              		.size	sscanf, .-sscanf
 1106              		.section	.text.fscanf,"ax",%progbits
 1107              		.align	1
 1108              		.global	fscanf
 1109              		.syntax unified
 1110              		.thumb
 1111              		.thumb_func
 1112              		.fpu fpv4-sp-d16
 1113              		.type	fscanf, %function
 1114              	fscanf:
 1115              	.LFB289:
 1116              		.loc 1 369 0
 1117              		.cfi_startproc
 1118              		@ args = 4, pretend = 12, frame = 136
 1119              		@ frame_needed = 0, uses_anonymous_args = 1
 1120              	.LVL130:
 1121 0000 0EB4     		push	{r1, r2, r3}
 1122              		.cfi_def_cfa_offset 12
 1123              		.cfi_offset 1, -12
 1124              		.cfi_offset 2, -8
 1125              		.cfi_offset 3, -4
 1126 0002 30B5     		push	{r4, r5, lr}
 1127              		.cfi_def_cfa_offset 24
 1128              		.cfi_offset 4, -24
 1129              		.cfi_offset 5, -20
 1130              		.cfi_offset 14, -16
 1131 0004 A2B0     		sub	sp, sp, #136
 1132              		.cfi_def_cfa_offset 160
 1133              		.loc 1 369 0
 1134 0006 25AC     		add	r4, sp, #148
 1135              	.LBB10:
 1136              	.LBB11:
 1137              		.loc 1 387 0
 1138 0008 0246     		mov	r2, r0
 1139              	.LBE11:
 1140              	.LBE10:
ARM GAS  C:\cygwin64\tmp\ccVYAIZI.s 			page 21


 1141              		.loc 1 369 0
 1142 000a 54F8045B 		ldr	r5, [r4], #4
 1143              		.loc 1 373 0
 1144 000e 0094     		str	r4, [sp]
 1145              	.LVL131:
 1146              	.LBB14:
 1147              	.LBB12:
 1148              		.loc 1 387 0
 1149 0010 8021     		movs	r1, #128
 1150 0012 01A8     		add	r0, sp, #4
 1151              	.LVL132:
 1152 0014 FFF7FEFF 		bl	fgets
 1153              	.LVL133:
 1154 0018 48B1     		cbz	r0, .L105
 1155              		.loc 1 390 0
 1156 001a 2246     		mov	r2, r4
 1157 001c 2946     		mov	r1, r5
 1158 001e 01A8     		add	r0, sp, #4
 1159 0020 FFF7FEFF 		bl	vsscanf
 1160              	.LVL134:
 1161              	.L103:
 1162              	.LBE12:
 1163              	.LBE14:
 1164              		.loc 1 377 0
 1165 0024 22B0     		add	sp, sp, #136
 1166              		.cfi_remember_state
 1167              		.cfi_def_cfa_offset 24
 1168              		@ sp needed
 1169 0026 BDE83040 		pop	{r4, r5, lr}
 1170              		.cfi_restore 14
 1171              		.cfi_restore 5
 1172              		.cfi_restore 4
 1173              		.cfi_def_cfa_offset 12
 1174 002a 03B0     		add	sp, sp, #12
 1175              		.cfi_restore 3
 1176              		.cfi_restore 2
 1177              		.cfi_restore 1
 1178              		.cfi_def_cfa_offset 0
 1179 002c 7047     		bx	lr
 1180              	.LVL135:
 1181              	.L105:
 1182              		.cfi_restore_state
 1183              	.LBB15:
 1184              	.LBB13:
 1185              		.loc 1 388 0
 1186 002e 4FF0FF30 		mov	r0, #-1
 1187              	.LVL136:
 1188              	.LBE13:
 1189              	.LBE15:
 1190              		.loc 1 376 0
 1191 0032 F7E7     		b	.L103
 1192              		.cfi_endproc
 1193              	.LFE289:
 1194              		.size	fscanf, .-fscanf
 1195              		.global	vprintf_console_hook
 1196              		.section	.data.vprintf_console_hook,"aw",%progbits
 1197              		.align	2
ARM GAS  C:\cygwin64\tmp\ccVYAIZI.s 			page 22


 1198              		.set	.LANCHOR0,. + 0
 1199              		.type	vprintf_console_hook, %object
 1200              		.size	vprintf_console_hook, 4
 1201              	vprintf_console_hook:
 1202 0000 00000000 		.word	vprintf
 1203              		.section	.rodata.vsscanf.str1.1,"aMS",%progbits,1
 1204              	.LC0:
 1205 0000 6469626F 		.ascii	"dibouxcsefg%\000"
 1205      75786373 
 1205      65666725 
 1205      00
 1206              	.LC1:
 1207 000d 20090A0D 		.ascii	" \011\012\015\014\013\000"
 1207      0C0B00
 1208              	.LC2:
 1209 0014 646F6278 		.ascii	"dobxu\000"
 1209      7500
 1210              		.text
 1211              	.Letext0:
 1212              		.file 2 "c:\\program files (x86)\\gnu tools arm embedded\\6 2017-q2-update\\arm-none-eabi\\include
 1213              		.file 3 "c:\\program files (x86)\\gnu tools arm embedded\\6 2017-q2-update\\arm-none-eabi\\include
 1214              		.file 4 "c:\\program files (x86)\\gnu tools arm embedded\\6 2017-q2-update\\lib\\gcc\\arm-none-eab
 1215              		.file 5 "../../modules/ChibiOS/os/common/ports/ARMCMx/compilers/GCC/chtypes.h"
 1216              		.file 6 "../../modules/ChibiOS/os/rt/include/chsystypes.h"
 1217              		.file 7 "../../modules/ChibiOS/os/rt/include/chschd.h"
 1218              		.file 8 "../../modules/ChibiOS/os/common/ext/CMSIS/include/core_cm4.h"
 1219              		.file 9 "../../modules/ChibiOS/os/common/ext/CMSIS/ST/STM32F4xx/system_stm32f4xx.h"
 1220              		.file 10 "../../modules/ChibiOS/os/common/ext/CMSIS/ST/STM32F4xx/stm32f427xx.h"
 1221              		.file 11 "../../modules/ChibiOS/os/common/ports/ARMCMx/chcore.h"
 1222              		.file 12 "../../modules/ChibiOS/os/common/ports/ARMCMx/chcore_v7m.h"
 1223              		.file 13 "../../modules/ChibiOS/os/hal/ports/STM32/LLD/TIMv1/stm32_tim.h"
 1224              		.file 14 "../../modules/ChibiOS/os/rt/include/chtm.h"
 1225              		.file 15 "../../modules/ChibiOS/os/rt/include/chstats.h"
 1226              		.file 16 "../../modules/ChibiOS/os/rt/include/chsem.h"
 1227              		.file 17 "../../modules/ChibiOS/os/rt/include/chmtx.h"
 1228              		.file 18 "../../modules/ChibiOS/os/rt/include/chsys.h"
 1229              		.file 19 "../../modules/ChibiOS/os/rt/include/chregistry.h"
 1230              		.file 20 "../../modules/ChibiOS/os/rt/include/chevents.h"
 1231              		.file 21 "c:\\program files (x86)\\gnu tools arm embedded\\6 2017-q2-update\\lib\\gcc\\arm-none-ea
 1232              		.file 22 "<built-in>"
 1233              		.file 23 "c:\\program files (x86)\\gnu tools arm embedded\\6 2017-q2-update\\arm-none-eabi\\includ
 1234              		.file 24 "c:\\program files (x86)\\gnu tools arm embedded\\6 2017-q2-update\\arm-none-eabi\\includ
 1235              		.file 25 "c:\\program files (x86)\\gnu tools arm embedded\\6 2017-q2-update\\arm-none-eabi\\includ
 1236              		.file 26 "c:\\program files (x86)\\gnu tools arm embedded\\6 2017-q2-update\\arm-none-eabi\\includ
 1237              		.file 27 "../../libraries/AP_HAL_ChibiOS/hwdef/common/posix.h"
 1238              		.file 28 "../../modules/ChibiOS/os/hal/ports/STM32/LLD/DMAv2/stm32_dma.h"
 1239              		.file 29 "../../modules/ChibiOS/os/hal/include/hal_streams.h"
 1240              		.file 30 "../../modules/ChibiOS/os/hal/include/hal_ioblock.h"
 1241              		.file 31 "../../modules/ChibiOS/os/hal/include/hal_queues.h"
 1242              		.file 32 "../../modules/ChibiOS/os/hal/ports/STM32/LLD/GPIOv2/hal_pal_lld.h"
 1243              		.file 33 "../../modules/ChibiOS/os/hal/include/hal_adc.h"
 1244              		.file 34 "../../modules/ChibiOS/os/hal/ports/STM32/LLD/ADCv2/hal_adc_lld.h"
 1245              		.file 35 "../../modules/ChibiOS/os/hal/include/hal_ext.h"
 1246              		.file 36 "../../modules/ChibiOS/os/hal/ports/STM32/LLD/EXTIv1/hal_ext_lld.h"
 1247              		.file 37 "../../modules/ChibiOS/os/hal/include/hal_i2c.h"
 1248              		.file 38 "../../modules/ChibiOS/os/hal/ports/STM32/LLD/I2Cv1/hal_i2c_lld.h"
 1249              		.file 39 "../../modules/ChibiOS/os/hal/include/hal_pwm.h"
ARM GAS  C:\cygwin64\tmp\ccVYAIZI.s 			page 23


 1250              		.file 40 "../../modules/ChibiOS/os/hal/ports/STM32/LLD/TIMv1/hal_pwm_lld.h"
 1251              		.file 41 "../../modules/ChibiOS/os/hal/include/hal_serial.h"
 1252              		.file 42 "../../modules/ChibiOS/os/hal/ports/STM32/LLD/USARTv1/hal_serial_lld.h"
 1253              		.file 43 "../../modules/ChibiOS/os/hal/include/hal_sdc.h"
 1254              		.file 44 "../../modules/ChibiOS/os/hal/ports/STM32/LLD/SDIOv1/hal_sdc_lld.h"
 1255              		.file 45 "../../modules/ChibiOS/os/hal/include/hal_spi.h"
 1256              		.file 46 "../../modules/ChibiOS/os/hal/ports/STM32/LLD/SPIv1/hal_spi_lld.h"
 1257              		.file 47 "../../modules/ChibiOS/os/hal/include/hal_usb.h"
 1258              		.file 48 "../../modules/ChibiOS/os/hal/ports/STM32/LLD/OTGv1/hal_usb_lld.h"
 1259              		.file 49 "../../modules/ChibiOS/os/hal/ports/STM32/LLD/OTGv1/stm32_otg.h"
 1260              		.file 50 "../../modules/ChibiOS/os/hal/lib/streams/memstreams.h"
 1261              		.file 51 "c:\\program files (x86)\\gnu tools arm embedded\\6 2017-q2-update\\arm-none-eabi\\includ
 1262              		.file 52 "../../libraries/AP_HAL_ChibiOS/hwdef/common/stdio.h"
 1263              		.file 53 "c:\\program files (x86)\\gnu tools arm embedded\\6 2017-q2-update\\arm-none-eabi\\includ
 1264              		.file 54 "../../modules/ChibiOS/os/hal/lib/streams/chprintf.h"