ARM GAS  C:\cygwin64\tmp\ccWa3opV.s 			page 1


   1              		.cpu cortex-m4
   2              		.eabi_attribute 27, 1
   3              		.eabi_attribute 28, 1
   4              		.eabi_attribute 20, 1
   5              		.eabi_attribute 21, 1
   6              		.eabi_attribute 23, 3
   7              		.eabi_attribute 24, 1
   8              		.eabi_attribute 25, 1
   9              		.eabi_attribute 26, 1
  10              		.eabi_attribute 30, 4
  11              		.eabi_attribute 34, 1
  12              		.eabi_attribute 18, 4
  13              		.file	"stm32_util.c"
  14              		.text
  15              	.Ltext0:
  16              		.cfi_sections	.debug_frame
  17              		.section	.text.stm32_timer_set_input_filter,"ax",%progbits
  18              		.align	1
  19              		.global	stm32_timer_set_input_filter
  20              		.syntax unified
  21              		.thumb
  22              		.thumb_func
  23              		.fpu fpv4-sp-d16
  24              		.type	stm32_timer_set_input_filter, %function
  25              	stm32_timer_set_input_filter:
  26              	.LFB277:
  27              		.file 1 "../../libraries/AP_HAL_ChibiOS/hwdef/common/stm32_util.c"
  28              		.loc 1 29 0
  29              		.cfi_startproc
  30              		@ args = 0, pretend = 0, frame = 0
  31              		@ frame_needed = 0, uses_anonymous_args = 0
  32              		@ link register save eliminated.
  33              	.LVL0:
  34              		.loc 1 30 0
  35 0000 0329     		cmp	r1, #3
  36 0002 10D8     		bhi	.L1
  37 0004 DFE801F0 		tbb	[pc, r1]
  38              	.L4:
  39 0008 02       		.byte	(.L3-.L4)/2
  40 0009 07       		.byte	(.L5-.L4)/2
  41 000a 0B       		.byte	(.L6-.L4)/2
  42 000b 10       		.byte	(.L7-.L4)/2
  43              		.p2align 1
  44              	.L3:
  45              		.loc 1 32 0
  46 000c 8369     		ldr	r3, [r0, #24]
  47 000e 43EA0212 		orr	r2, r3, r2, lsl #4
  48              	.LVL1:
  49              	.L8:
  50              		.loc 1 35 0
  51 0012 8261     		str	r2, [r0, #24]
  52              		.loc 1 36 0
  53 0014 7047     		bx	lr
  54              	.LVL2:
  55              	.L5:
  56              		.loc 1 35 0
  57 0016 8369     		ldr	r3, [r0, #24]
ARM GAS  C:\cygwin64\tmp\ccWa3opV.s 			page 2


  58 0018 43EA0232 		orr	r2, r3, r2, lsl #12
  59              	.LVL3:
  60 001c F9E7     		b	.L8
  61              	.LVL4:
  62              	.L6:
  63              		.loc 1 38 0
  64 001e C369     		ldr	r3, [r0, #28]
  65 0020 43EA0212 		orr	r2, r3, r2, lsl #4
  66              	.LVL5:
  67              	.L9:
  68              		.loc 1 41 0
  69 0024 C261     		str	r2, [r0, #28]
  70              	.L1:
  71 0026 7047     		bx	lr
  72              	.LVL6:
  73              	.L7:
  74 0028 C369     		ldr	r3, [r0, #28]
  75 002a 43EA0232 		orr	r2, r3, r2, lsl #12
  76              	.LVL7:
  77 002e F9E7     		b	.L9
  78              		.cfi_endproc
  79              	.LFE277:
  80              		.size	stm32_timer_set_input_filter, .-stm32_timer_set_input_filter
  81              		.section	.text.stm32_timer_set_channel_input,"ax",%progbits
  82              		.align	1
  83              		.global	stm32_timer_set_channel_input
  84              		.syntax unified
  85              		.thumb
  86              		.thumb_func
  87              		.fpu fpv4-sp-d16
  88              		.type	stm32_timer_set_channel_input, %function
  89              	stm32_timer_set_channel_input:
  90              	.LFB278:
  91              		.loc 1 50 0
  92              		.cfi_startproc
  93              		@ args = 0, pretend = 0, frame = 0
  94              		@ frame_needed = 0, uses_anonymous_args = 0
  95              		@ link register save eliminated.
  96              	.LVL8:
  97              		.loc 1 51 0
  98 0000 0329     		cmp	r1, #3
  99 0002 12D8     		bhi	.L10
 100 0004 DFE801F0 		tbb	[pc, r1]
 101              	.L13:
 102 0008 02       		.byte	(.L12-.L13)/2
 103 0009 12       		.byte	(.L14-.L13)/2
 104 000a 22       		.byte	(.L15-.L13)/2
 105 000b 31       		.byte	(.L16-.L13)/2
 106              		.p2align 1
 107              	.L12:
 108              		.loc 1 53 0
 109 000c 036A     		ldr	r3, [r0, #32]
 110 000e 23F00103 		bic	r3, r3, #1
 111 0012 0362     		str	r3, [r0, #32]
 112              		.loc 1 54 0
 113 0014 8369     		ldr	r3, [r0, #24]
 114 0016 23F00303 		bic	r3, r3, #3
ARM GAS  C:\cygwin64\tmp\ccWa3opV.s 			page 3


 115 001a 8361     		str	r3, [r0, #24]
 116              		.loc 1 55 0
 117 001c 8369     		ldr	r3, [r0, #24]
 118 001e 1A43     		orrs	r2, r2, r3
 119              	.LVL9:
 120 0020 8261     		str	r2, [r0, #24]
 121              		.loc 1 56 0
 122 0022 036A     		ldr	r3, [r0, #32]
 123 0024 43F00103 		orr	r3, r3, #1
 124              	.L17:
 125              		.loc 1 74 0
 126 0028 0362     		str	r3, [r0, #32]
 127              	.L10:
 128 002a 7047     		bx	lr
 129              	.LVL10:
 130              	.L14:
 131              		.loc 1 59 0
 132 002c 036A     		ldr	r3, [r0, #32]
 133 002e 23F01003 		bic	r3, r3, #16
 134 0032 0362     		str	r3, [r0, #32]
 135              		.loc 1 60 0
 136 0034 8369     		ldr	r3, [r0, #24]
 137 0036 23F44073 		bic	r3, r3, #768
 138 003a 8361     		str	r3, [r0, #24]
 139              		.loc 1 61 0
 140 003c 8369     		ldr	r3, [r0, #24]
 141 003e 43EA0222 		orr	r2, r3, r2, lsl #8
 142              	.LVL11:
 143 0042 8261     		str	r2, [r0, #24]
 144              		.loc 1 62 0
 145 0044 036A     		ldr	r3, [r0, #32]
 146 0046 43F01003 		orr	r3, r3, #16
 147 004a EDE7     		b	.L17
 148              	.LVL12:
 149              	.L15:
 150              		.loc 1 65 0
 151 004c 036A     		ldr	r3, [r0, #32]
 152 004e 23F48073 		bic	r3, r3, #256
 153 0052 0362     		str	r3, [r0, #32]
 154              		.loc 1 66 0
 155 0054 C369     		ldr	r3, [r0, #28]
 156 0056 23F00303 		bic	r3, r3, #3
 157 005a C361     		str	r3, [r0, #28]
 158              		.loc 1 67 0
 159 005c C369     		ldr	r3, [r0, #28]
 160 005e 1A43     		orrs	r2, r2, r3
 161              	.LVL13:
 162 0060 C261     		str	r2, [r0, #28]
 163              		.loc 1 68 0
 164 0062 036A     		ldr	r3, [r0, #32]
 165 0064 43F48073 		orr	r3, r3, #256
 166 0068 DEE7     		b	.L17
 167              	.LVL14:
 168              	.L16:
 169              		.loc 1 71 0
 170 006a 036A     		ldr	r3, [r0, #32]
 171 006c 23F48053 		bic	r3, r3, #4096
ARM GAS  C:\cygwin64\tmp\ccWa3opV.s 			page 4


 172 0070 0362     		str	r3, [r0, #32]
 173              		.loc 1 72 0
 174 0072 C369     		ldr	r3, [r0, #28]
 175 0074 23F44073 		bic	r3, r3, #768
 176 0078 C361     		str	r3, [r0, #28]
 177              		.loc 1 73 0
 178 007a C369     		ldr	r3, [r0, #28]
 179 007c 43EA0222 		orr	r2, r3, r2, lsl #8
 180              	.LVL15:
 181 0080 C261     		str	r2, [r0, #28]
 182              		.loc 1 74 0
 183 0082 036A     		ldr	r3, [r0, #32]
 184 0084 43F48053 		orr	r3, r3, #4096
 185 0088 CEE7     		b	.L17
 186              		.cfi_endproc
 187              	.LFE278:
 188              		.size	stm32_timer_set_channel_input, .-stm32_timer_set_channel_input
 189              		.section	.text.memory_flush_all,"ax",%progbits
 190              		.align	1
 191              		.global	memory_flush_all
 192              		.syntax unified
 193              		.thumb
 194              		.thumb_func
 195              		.fpu fpv4-sp-d16
 196              		.type	memory_flush_all, %function
 197              	memory_flush_all:
 198              	.LFB292:
 199              		.cfi_startproc
 200              		@ args = 0, pretend = 0, frame = 0
 201              		@ frame_needed = 0, uses_anonymous_args = 0
 202              		@ link register save eliminated.
 203 0000 7047     		bx	lr
 204              		.cfi_endproc
 205              	.LFE292:
 206              		.size	memory_flush_all, .-memory_flush_all
 207              		.section	.text.stm32_set_utc_usec,"ax",%progbits
 208              		.align	1
 209              		.global	stm32_set_utc_usec
 210              		.syntax unified
 211              		.thumb
 212              		.thumb_func
 213              		.fpu fpv4-sp-d16
 214              		.type	stm32_set_utc_usec, %function
 215              	stm32_set_utc_usec:
 216              	.LFB280:
 217              		.loc 1 112 0
 218              		.cfi_startproc
 219              		@ args = 0, pretend = 0, frame = 0
 220              		@ frame_needed = 0, uses_anonymous_args = 0
 221              	.LVL16:
 222              		.loc 1 112 0
 223 0000 38B5     		push	{r3, r4, r5, lr}
 224              		.cfi_def_cfa_offset 16
 225              		.cfi_offset 3, -16
 226              		.cfi_offset 4, -12
 227              		.cfi_offset 5, -8
 228              		.cfi_offset 14, -4
ARM GAS  C:\cygwin64\tmp\ccWa3opV.s 			page 5


 229              		.loc 1 112 0
 230 0002 0446     		mov	r4, r0
 231 0004 0D46     		mov	r5, r1
 232              		.loc 1 113 0
 233 0006 FFF7FEFF 		bl	hrt_micros
 234              	.LVL17:
 235              		.loc 1 114 0
 236 000a 8D42     		cmp	r5, r1
 237 000c 08BF     		it	eq
 238 000e 8442     		cmpeq	r4, r0
 239 0010 05D3     		bcc	.L19
 240              		.loc 1 115 0
 241 0012 241A     		subs	r4, r4, r0
 242 0014 024B     		ldr	r3, .L21
 243 0016 65EB0105 		sbc	r5, r5, r1
 244 001a C3E90045 		strd	r4, [r3]
 245              	.L19:
 246 001e 38BD     		pop	{r3, r4, r5, pc}
 247              	.L22:
 248              		.align	2
 249              	.L21:
 250 0020 00000000 		.word	.LANCHOR0
 251              		.cfi_endproc
 252              	.LFE280:
 253              		.size	stm32_set_utc_usec, .-stm32_set_utc_usec
 254              		.section	.text.stm32_get_utc_usec,"ax",%progbits
 255              		.align	1
 256              		.global	stm32_get_utc_usec
 257              		.syntax unified
 258              		.thumb
 259              		.thumb_func
 260              		.fpu fpv4-sp-d16
 261              		.type	stm32_get_utc_usec, %function
 262              	stm32_get_utc_usec:
 263              	.LFB281:
 264              		.loc 1 123 0
 265              		.cfi_startproc
 266              		@ args = 0, pretend = 0, frame = 0
 267              		@ frame_needed = 0, uses_anonymous_args = 0
 268 0000 08B5     		push	{r3, lr}
 269              		.cfi_def_cfa_offset 8
 270              		.cfi_offset 3, -8
 271              		.cfi_offset 14, -4
 272              		.loc 1 124 0
 273 0002 FFF7FEFF 		bl	hrt_micros
 274              	.LVL18:
 275 0006 034B     		ldr	r3, .L24
 276 0008 D3E90023 		ldrd	r2, [r3]
 277              		.loc 1 125 0
 278 000c 8018     		adds	r0, r0, r2
 279 000e 5941     		adcs	r1, r1, r3
 280 0010 08BD     		pop	{r3, pc}
 281              	.L25:
 282 0012 00BF     		.align	2
 283              	.L24:
 284 0014 00000000 		.word	.LANCHOR0
 285              		.cfi_endproc
ARM GAS  C:\cygwin64\tmp\ccWa3opV.s 			page 6


 286              	.LFE281:
 287              		.size	stm32_get_utc_usec, .-stm32_get_utc_usec
 288              		.global	__aeabi_uldivmod
 289              		.section	.text.get_fattime,"ax",%progbits
 290              		.align	1
 291              		.global	get_fattime
 292              		.syntax unified
 293              		.thumb
 294              		.thumb_func
 295              		.fpu fpv4-sp-d16
 296              		.type	get_fattime, %function
 297              	get_fattime:
 298              	.LFB284:
 299              		.loc 1 199 0
 300              		.cfi_startproc
 301              		@ args = 0, pretend = 0, frame = 8
 302              		@ frame_needed = 0, uses_anonymous_args = 0
 303              		.loc 1 200 0
 304 0000 484B     		ldr	r3, .L46
 305              		.loc 1 199 0
 306 0002 2DE9F743 		push	{r0, r1, r2, r4, r5, r6, r7, r8, r9, lr}
 307              		.cfi_def_cfa_offset 40
 308              		.cfi_offset 4, -28
 309              		.cfi_offset 5, -24
 310              		.cfi_offset 6, -20
 311              		.cfi_offset 7, -16
 312              		.cfi_offset 8, -12
 313              		.cfi_offset 9, -8
 314              		.cfi_offset 14, -4
 315              		.loc 1 200 0
 316 0006 D3E90023 		ldrd	r2, [r3]
 317 000a 1343     		orrs	r3, r2, r3
 318 000c 00F08780 		beq	.L36
 319              		.loc 1 204 0
 320 0010 FFF7FEFF 		bl	stm32_get_utc_usec
 321              	.LVL19:
 322              		.loc 1 205 0
 323 0014 444A     		ldr	r2, .L46+4
 324 0016 0023     		movs	r3, #0
 325              		.loc 1 204 0
 326 0018 0646     		mov	r6, r0
 327 001a 0F46     		mov	r7, r1
 328              	.LVL20:
 329              		.loc 1 205 0
 330 001c FFF7FEFF 		bl	__aeabi_uldivmod
 331              	.LVL21:
 332              	.LBB10:
 333              	.LBB11:
 334              		.loc 1 156 0
 335 0020 424A     		ldr	r2, .L46+8
 336 0022 0023     		movs	r3, #0
 337 0024 FFF7FEFF 		bl	__aeabi_uldivmod
 338              	.LVL22:
 339              		.loc 1 157 0
 340 0028 1423     		movs	r3, #20
 341              		.loc 1 156 0
 342 002a 1446     		mov	r4, r2
ARM GAS  C:\cygwin64\tmp\ccWa3opV.s 			page 7


 343              	.LVL23:
 344              		.loc 1 157 0
 345 002c 3046     		mov	r0, r6
 346 002e 404A     		ldr	r2, .L46+12
 347              	.LVL24:
 348 0030 3946     		mov	r1, r7
 349 0032 FFF7FEFF 		bl	__aeabi_uldivmod
 350              	.LVL25:
 351              		.loc 1 161 0
 352 0036 3C23     		movs	r3, #60
 353              		.loc 1 162 0
 354 0038 4FF46162 		mov	r2, #3600
 355              		.loc 1 161 0
 356 003c B4FBF3F1 		udiv	r1, r4, r3
 357              		.loc 1 162 0
 358 0040 B4FBF2F5 		udiv	r5, r4, r2
 359              		.loc 1 161 0
 360 0044 03FB1141 		mls	r1, r3, r1, r4
 361              		.loc 1 162 0
 362 0048 02FB1542 		mls	r2, r2, r5, r4
 363              		.loc 1 166 0
 364 004c 394C     		ldr	r4, .L46+16
 365              	.LVL26:
 366              		.loc 1 162 0
 367 004e B2FBF3F2 		udiv	r2, r2, r3
 368              		.loc 1 159 0
 369 0052 0026     		movs	r6, #0
 370              	.LVL27:
 371              		.loc 1 164 0
 372 0054 4623     		movs	r3, #70
 373              		.loc 1 166 0
 374 0056 A042     		cmp	r0, r4
 375              		.loc 1 159 0
 376 0058 0096     		str	r6, [sp]
 377              		.loc 1 161 0
 378 005a C9B2     		uxtb	r1, r1
 379              		.loc 1 164 0
 380 005c 8DF80030 		strb	r3, [sp]
 381              		.loc 1 166 0
 382 0060 47D8     		bhi	.L28
 383              	.LBB12:
 384              		.loc 1 172 0
 385 0062 40F26D19 		movw	r9, #365
 386              	.LBB13:
 387              	.LBB14:
 388              		.loc 1 143 0
 389 0066 4FF0640C 		mov	ip, #100
 390 006a 4FF4C878 		mov	r8, #400
 391              	.L31:
 392              	.LVL28:
 393              		.loc 1 142 0
 394 006e 03F26C74 		addw	r4, r3, #1900
 395              	.LVL29:
 396              		.loc 1 143 0
 397 0072 A707     		lsls	r7, r4, #30
 398 0074 19D1     		bne	.L37
 399 0076 B4FBFCF7 		udiv	r7, r4, ip
ARM GAS  C:\cygwin64\tmp\ccWa3opV.s 			page 8


 400 007a 0CFB1747 		mls	r7, ip, r7, r4
 401 007e C7B9     		cbnz	r7, .L38
 402 0080 B4FBF8F7 		udiv	r7, r4, r8
 403 0084 08FB1744 		mls	r4, r8, r7, r4
 404              	.LVL30:
 405 0088 002C     		cmp	r4, #0
 406 008a 15BF     		itete	ne
 407 008c 0024     		movne	r4, #0
 408 008e 0124     		moveq	r4, #1
 409 0090 4F46     		movne	r7, r9
 410 0092 4FF4B777 		moveq	r7, #366
 411              	.L29:
 412              	.LVL31:
 413 0096 03F1010E 		add	lr, r3, #1
 414              	.LBE14:
 415              	.LBE13:
 416              		.loc 1 173 0
 417 009a B842     		cmp	r0, r7
 418 009c 5FFA8EFE 		uxtb	lr, lr
 419 00a0 0BD3     		bcc	.L30
 420              		.loc 1 177 0
 421 00a2 C01B     		subs	r0, r0, r7
 422              	.LVL32:
 423 00a4 0126     		movs	r6, #1
 424 00a6 7346     		mov	r3, lr
 425              	.LVL33:
 426 00a8 E1E7     		b	.L31
 427              	.LVL34:
 428              	.L37:
 429              	.LBB17:
 430              	.LBB15:
 431              		.loc 1 143 0
 432 00aa 0024     		movs	r4, #0
 433              	.LVL35:
 434              	.LBE15:
 435              	.LBE17:
 436              		.loc 1 172 0
 437 00ac 40F26D17 		movw	r7, #365
 438 00b0 F1E7     		b	.L29
 439              	.LVL36:
 440              	.L38:
 441              	.LBB18:
 442              	.LBB16:
 443              		.loc 1 143 0
 444 00b2 0124     		movs	r4, #1
 445              	.LVL37:
 446              	.LBE16:
 447              	.LBE18:
 448              		.loc 1 172 0
 449 00b4 4FF4B777 		mov	r7, #366
 450 00b8 EDE7     		b	.L29
 451              	.LVL38:
 452              	.L30:
 453 00ba 0EB1     		cbz	r6, .L32
 454 00bc 8DF80030 		strb	r3, [sp]
 455              	.L32:
 456              	.LBE12:
ARM GAS  C:\cygwin64\tmp\ccWa3opV.s 			page 9


 457              	.LBB19:
 458              		.loc 1 182 0
 459 00c0 1D4E     		ldr	r6, .L46+20
 460 00c2 9DF80130 		ldrb	r3, [sp, #1]	@ zero_extendqisi2
 461              	.LVL39:
 462 00c6 4FF00C0E 		mov	lr, #12
 463              	.LBE19:
 464              	.LBB20:
 465              		.loc 1 172 0
 466 00ca 0027     		movs	r7, #0
 467              	.LVL40:
 468              	.LBE20:
 469              	.LBB21:
 470              		.loc 1 182 0
 471 00cc 0EFB0464 		mla	r4, lr, r4, r6
 472              	.L34:
 473 00d0 14F803E0 		ldrb	lr, [r4, r3]	@ zero_extendqisi2
 474              	.LVL41:
 475 00d4 5E1C     		adds	r6, r3, #1
 476              		.loc 1 183 0
 477 00d6 8645     		cmp	lr, r0
 478 00d8 F6B2     		uxtb	r6, r6
 479 00da 04D8     		bhi	.L33
 480              		.loc 1 186 0
 481 00dc A0EB0E00 		sub	r0, r0, lr
 482              	.LVL42:
 483 00e0 0127     		movs	r7, #1
 484 00e2 3346     		mov	r3, r6
 485 00e4 F4E7     		b	.L34
 486              	.L33:
 487 00e6 0FB1     		cbz	r7, .L35
 488 00e8 8DF80130 		strb	r3, [sp, #1]
 489              	.L35:
 490              	.LBE21:
 491              		.loc 1 189 0
 492 00ec 431C     		adds	r3, r0, #1
 493 00ee 8DF80230 		strb	r3, [sp, #2]
 494              	.LVL43:
 495              	.L28:
 496              	.LBE11:
 497              	.LBE10:
 498              		.loc 1 216 0
 499 00f2 9DF80100 		ldrb	r0, [sp, #1]	@ zero_extendqisi2
 500 00f6 431C     		adds	r3, r0, #1
 501              		.loc 1 217 0
 502 00f8 9DF80000 		ldrb	r0, [sp]	@ zero_extendqisi2
 503 00fc 5038     		subs	r0, r0, #80
 504 00fe 4006     		lsls	r0, r0, #25
 505 0100 40EA4350 		orr	r0, r0, r3, lsl #21
 506              		.loc 1 215 0
 507 0104 9DF80230 		ldrb	r3, [sp, #2]	@ zero_extendqisi2
 508 0108 40EA0340 		orr	r0, r0, r3, lsl #16
 509 010c 40EA5100 		orr	r0, r0, r1, lsr #1
 510 0110 40EAC520 		orr	r0, r0, r5, lsl #11
 511              		.loc 1 217 0
 512 0114 40EA4210 		orr	r0, r0, r2, lsl #5
 513              	.LVL44:
ARM GAS  C:\cygwin64\tmp\ccWa3opV.s 			page 10


 514              	.L26:
 515              		.loc 1 220 0
 516 0118 03B0     		add	sp, sp, #12
 517              		.cfi_remember_state
 518              		.cfi_def_cfa_offset 28
 519              		@ sp needed
 520 011a BDE8F083 		pop	{r4, r5, r6, r7, r8, r9, pc}
 521              	.L36:
 522              		.cfi_restore_state
 523              		.loc 1 202 0
 524 011e 4FF40410 		mov	r0, #2162688
 525 0122 F9E7     		b	.L26
 526              	.L47:
 527              		.align	2
 528              	.L46:
 529 0124 00000000 		.word	.LANCHOR0
 530 0128 40420F00 		.word	1000000
 531 012c 80510100 		.word	86400
 532 0130 0060D71D 		.word	500654080
 533 0134 90230B00 		.word	730000
 534 0138 00000000 		.word	.LANCHOR1
 535              		.cfi_endproc
 536              	.LFE284:
 537              		.size	get_fattime, .-get_fattime
 538              		.section	.text.check_fast_reboot,"ax",%progbits
 539              		.align	1
 540              		.global	check_fast_reboot
 541              		.syntax unified
 542              		.thumb
 543              		.thumb_func
 544              		.fpu fpv4-sp-d16
 545              		.type	check_fast_reboot, %function
 546              	check_fast_reboot:
 547              	.LFB287:
 548              		.loc 1 245 0
 549              		.cfi_startproc
 550              		@ args = 0, pretend = 0, frame = 0
 551              		@ frame_needed = 0, uses_anonymous_args = 0
 552              		@ link register save eliminated.
 553              	.LBB22:
 554              	.LBB23:
 555              		.loc 1 225 0
 556 0000 014B     		ldr	r3, .L49
 557 0002 186D     		ldr	r0, [r3, #80]
 558              	.LBE23:
 559              	.LBE22:
 560              		.loc 1 247 0
 561 0004 7047     		bx	lr
 562              	.L50:
 563 0006 00BF     		.align	2
 564              	.L49:
 565 0008 00280040 		.word	1073752064
 566              		.cfi_endproc
 567              	.LFE287:
 568              		.size	check_fast_reboot, .-check_fast_reboot
 569              		.section	.text.set_fast_reboot,"ax",%progbits
 570              		.align	1
ARM GAS  C:\cygwin64\tmp\ccWa3opV.s 			page 11


 571              		.global	set_fast_reboot
 572              		.syntax unified
 573              		.thumb
 574              		.thumb_func
 575              		.fpu fpv4-sp-d16
 576              		.type	set_fast_reboot, %function
 577              	set_fast_reboot:
 578              	.LFB288:
 579              		.loc 1 251 0
 580              		.cfi_startproc
 581              		@ args = 0, pretend = 0, frame = 0
 582              		@ frame_needed = 0, uses_anonymous_args = 0
 583              		@ link register save eliminated.
 584              	.LVL45:
 585              	.LBB26:
 586              	.LBB27:
 587              		.loc 1 231 0
 588 0000 094B     		ldr	r3, .L53
 589 0002 1A6F     		ldr	r2, [r3, #112]
 590 0004 1204     		lsls	r2, r2, #16
 591 0006 07D4     		bmi	.L52
 592              		.loc 1 232 0
 593 0008 1A6F     		ldr	r2, [r3, #112]
 594 000a 42F40072 		orr	r2, r2, #512
 595 000e 1A67     		str	r2, [r3, #112]
 596              		.loc 1 233 0
 597 0010 1A6F     		ldr	r2, [r3, #112]
 598 0012 42F40042 		orr	r2, r2, #32768
 599 0016 1A67     		str	r2, [r3, #112]
 600              	.L52:
 601              		.loc 1 236 0
 602 0018 044A     		ldr	r2, .L53+4
 603 001a 1368     		ldr	r3, [r2]
 604 001c 43F48073 		orr	r3, r3, #256
 605 0020 1360     		str	r3, [r2]
 606              		.loc 1 240 0
 607 0022 034B     		ldr	r3, .L53+8
 608 0024 1865     		str	r0, [r3, #80]
 609              	.LVL46:
 610 0026 7047     		bx	lr
 611              	.L54:
 612              		.align	2
 613              	.L53:
 614 0028 00380240 		.word	1073887232
 615 002c 00700040 		.word	1073770496
 616 0030 00280040 		.word	1073752064
 617              	.LBE27:
 618              	.LBE26:
 619              		.cfi_endproc
 620              	.LFE288:
 621              		.size	set_fast_reboot, .-set_fast_reboot
 622              		.section	.text.peripheral_power_enable,"ax",%progbits
 623              		.align	1
 624              		.global	peripheral_power_enable
 625              		.syntax unified
 626              		.thumb
 627              		.thumb_func
ARM GAS  C:\cygwin64\tmp\ccWa3opV.s 			page 12


 628              		.fpu fpv4-sp-d16
 629              		.type	peripheral_power_enable, %function
 630              	peripheral_power_enable:
 631              	.LFB289:
 632              		.loc 1 261 0
 633              		.cfi_startproc
 634              		@ args = 0, pretend = 0, frame = 0
 635              		@ frame_needed = 0, uses_anonymous_args = 0
 636              		@ link register save eliminated.
 637 0000 7047     		bx	lr
 638              		.cfi_endproc
 639              	.LFE289:
 640              		.size	peripheral_power_enable, .-peripheral_power_enable
 641              		.section	.text.palReadLineMode,"ax",%progbits
 642              		.align	1
 643              		.global	palReadLineMode
 644              		.syntax unified
 645              		.thumb
 646              		.thumb_func
 647              		.fpu fpv4-sp-d16
 648              		.type	palReadLineMode, %function
 649              	palReadLineMode:
 650              	.LFB290:
 651              		.loc 1 286 0
 652              		.cfi_startproc
 653              		@ args = 0, pretend = 0, frame = 0
 654              		@ frame_needed = 0, uses_anonymous_args = 0
 655              	.LVL47:
 656              		.loc 1 286 0
 657 0000 F0B5     		push	{r4, r5, r6, r7, lr}
 658              		.cfi_def_cfa_offset 20
 659              		.cfi_offset 4, -20
 660              		.cfi_offset 5, -16
 661              		.cfi_offset 6, -12
 662              		.cfi_offset 7, -8
 663              		.cfi_offset 14, -4
 664              		.loc 1 287 0
 665 0002 20F00F07 		bic	r7, r0, #15
 666              	.LVL48:
 667              		.loc 1 288 0
 668 0006 00F00F05 		and	r5, r0, #15
 669              	.LVL49:
 670              		.loc 1 290 0
 671 000a 3A68     		ldr	r2, [r7]
 672              		.loc 1 291 0
 673 000c 7B68     		ldr	r3, [r7, #4]
 674              		.loc 1 290 0
 675 000e 2EB2     		sxth	r6, r5
 676 0010 7100     		lsls	r1, r6, #1
 677              	.LVL50:
 678              		.loc 1 291 0
 679 0012 EB40     		lsrs	r3, r3, r5
 680 0014 9B00     		lsls	r3, r3, #2
 681              		.loc 1 290 0
 682 0016 CA40     		lsrs	r2, r2, r1
 683              	.LVL51:
 684              		.loc 1 291 0
ARM GAS  C:\cygwin64\tmp\ccWa3opV.s 			page 13


 685 0018 03F00403 		and	r3, r3, #4
 686              		.loc 1 290 0
 687 001c 02F00302 		and	r2, r2, #3
 688              	.LVL52:
 689              		.loc 1 291 0
 690 0020 1A43     		orrs	r2, r2, r3
 691              	.LVL53:
 692              		.loc 1 292 0
 693 0022 BB68     		ldr	r3, [r7, #8]
 694              		.loc 1 293 0
 695 0024 FC68     		ldr	r4, [r7, #12]
 696              		.loc 1 292 0
 697 0026 CB40     		lsrs	r3, r3, r1
 698 0028 DB00     		lsls	r3, r3, #3
 699              		.loc 1 293 0
 700 002a CC40     		lsrs	r4, r4, r1
 701              		.loc 1 292 0
 702 002c 03F01803 		and	r3, r3, #24
 703              		.loc 1 293 0
 704 0030 6401     		lsls	r4, r4, #5
 705              		.loc 1 292 0
 706 0032 1343     		orrs	r3, r3, r2
 707              	.LVL54:
 708              		.loc 1 293 0
 709 0034 04F06004 		and	r4, r4, #96
 710              		.loc 1 294 0
 711 0038 072D     		cmp	r5, #7
 712              		.loc 1 293 0
 713 003a 44EA0300 		orr	r0, r4, r3
 714              	.LVL55:
 715              		.loc 1 294 0
 716 003e 07D8     		bhi	.L57
 717              		.loc 1 295 0
 718 0040 396A     		ldr	r1, [r7, #32]
 719 0042 B600     		lsls	r6, r6, #2
 720 0044 F140     		lsrs	r1, r1, r6
 721 0046 C901     		lsls	r1, r1, #7
 722 0048 01F4F061 		and	r1, r1, #1920
 723 004c 0843     		orrs	r0, r0, r1
 724              	.LVL56:
 725 004e F0BD     		pop	{r4, r5, r6, r7, pc}
 726              	.LVL57:
 727              	.L57:
 728              		.loc 1 297 0
 729 0050 796A     		ldr	r1, [r7, #36]
 730 0052 A5F10802 		sub	r2, r5, #8
 731 0056 9200     		lsls	r2, r2, #2
 732 0058 21FA02F2 		lsr	r2, r1, r2
 733 005c D201     		lsls	r2, r2, #7
 734 005e 02F4F062 		and	r2, r2, #1920
 735 0062 1043     		orrs	r0, r0, r2
 736              	.LVL58:
 737              		.loc 1 300 0
 738 0064 F0BD     		pop	{r4, r5, r6, r7, pc}
 739              		.cfi_endproc
 740              	.LFE290:
 741              		.size	palReadLineMode, .-palReadLineMode
ARM GAS  C:\cygwin64\tmp\ccWa3opV.s 			page 14


 742              		.section	.bss.utc_time_offset,"aw",%nobits
 743              		.align	3
 744              		.set	.LANCHOR0,. + 0
 745              		.type	utc_time_offset, %object
 746              		.size	utc_time_offset, 8
 747              	utc_time_offset:
 748 0000 00000000 		.space	8
 748      00000000 
 749              		.section	.rodata.ndays,"a",%progbits
 750              		.set	.LANCHOR1,. + 0
 751              		.type	ndays, %object
 752              		.size	ndays, 24
 753              	ndays:
 754 0000 1F       		.byte	31
 755 0001 1C       		.byte	28
 756 0002 1F       		.byte	31
 757 0003 1E       		.byte	30
 758 0004 1F       		.byte	31
 759 0005 1E       		.byte	30
 760 0006 1F       		.byte	31
 761 0007 1F       		.byte	31
 762 0008 1E       		.byte	30
 763 0009 1F       		.byte	31
 764 000a 1E       		.byte	30
 765 000b 1F       		.byte	31
 766 000c 1F       		.byte	31
 767 000d 1D       		.byte	29
 768 000e 1F       		.byte	31
 769 000f 1E       		.byte	30
 770 0010 1F       		.byte	31
 771 0011 1E       		.byte	30
 772 0012 1F       		.byte	31
 773 0013 1F       		.byte	31
 774 0014 1E       		.byte	30
 775 0015 1F       		.byte	31
 776 0016 1E       		.byte	30
 777 0017 1F       		.byte	31
 778              		.text
 779              	.Letext0:
 780              		.file 2 "c:\\program files (x86)\\gnu tools arm embedded\\6 2017-q2-update\\lib\\gcc\\arm-none-eab
 781              		.file 3 "c:\\program files (x86)\\gnu tools arm embedded\\6 2017-q2-update\\arm-none-eabi\\include
 782              		.file 4 "c:\\program files (x86)\\gnu tools arm embedded\\6 2017-q2-update\\arm-none-eabi\\include
 783              		.file 5 "../../modules/ChibiOS/os/common/ports/ARMCMx/compilers/GCC/chtypes.h"
 784              		.file 6 "../../modules/ChibiOS/os/rt/include/chsystypes.h"
 785              		.file 7 "../../modules/ChibiOS/os/rt/include/chschd.h"
 786              		.file 8 "../../modules/ChibiOS/os/common/ext/CMSIS/include/core_cm4.h"
 787              		.file 9 "../../modules/ChibiOS/os/common/ext/CMSIS/ST/STM32F4xx/system_stm32f4xx.h"
 788              		.file 10 "../../modules/ChibiOS/os/common/ext/CMSIS/ST/STM32F4xx/stm32f427xx.h"
 789              		.file 11 "../../modules/ChibiOS/os/common/ports/ARMCMx/chcore.h"
 790              		.file 12 "../../modules/ChibiOS/os/common/ports/ARMCMx/chcore_v7m.h"
 791              		.file 13 "../../modules/ChibiOS/os/hal/ports/STM32/LLD/TIMv1/stm32_tim.h"
 792              		.file 14 "../../modules/ChibiOS/os/rt/include/chtm.h"
 793              		.file 15 "../../modules/ChibiOS/os/rt/include/chstats.h"
 794              		.file 16 "../../modules/ChibiOS/os/rt/include/chsem.h"
 795              		.file 17 "../../modules/ChibiOS/os/rt/include/chmtx.h"
 796              		.file 18 "../../modules/ChibiOS/os/rt/include/chsys.h"
 797              		.file 19 "../../modules/ChibiOS/os/rt/include/chregistry.h"
ARM GAS  C:\cygwin64\tmp\ccWa3opV.s 			page 15


 798              		.file 20 "../../modules/ChibiOS/os/rt/include/chevents.h"
 799              		.file 21 "../../modules/ChibiOS/os/hal/ports/STM32/LLD/DMAv2/stm32_dma.h"
 800              		.file 22 "../../modules/ChibiOS/os/hal/include/hal_ioblock.h"
 801              		.file 23 "../../modules/ChibiOS/os/hal/include/hal_queues.h"
 802              		.file 24 "../../modules/ChibiOS/os/hal/ports/STM32/LLD/GPIOv2/hal_pal_lld.h"
 803              		.file 25 "../../modules/ChibiOS/os/hal/include/hal_adc.h"
 804              		.file 26 "../../modules/ChibiOS/os/hal/ports/STM32/LLD/ADCv2/hal_adc_lld.h"
 805              		.file 27 "../../modules/ChibiOS/os/hal/include/hal_ext.h"
 806              		.file 28 "../../modules/ChibiOS/os/hal/ports/STM32/LLD/EXTIv1/hal_ext_lld.h"
 807              		.file 29 "../../modules/ChibiOS/os/hal/include/hal_i2c.h"
 808              		.file 30 "../../modules/ChibiOS/os/hal/ports/STM32/LLD/I2Cv1/hal_i2c_lld.h"
 809              		.file 31 "../../modules/ChibiOS/os/hal/include/hal_pwm.h"
 810              		.file 32 "../../modules/ChibiOS/os/hal/ports/STM32/LLD/TIMv1/hal_pwm_lld.h"
 811              		.file 33 "../../modules/ChibiOS/os/hal/include/hal_serial.h"
 812              		.file 34 "../../modules/ChibiOS/os/hal/ports/STM32/LLD/USARTv1/hal_serial_lld.h"
 813              		.file 35 "../../modules/ChibiOS/os/hal/include/hal_sdc.h"
 814              		.file 36 "../../modules/ChibiOS/os/hal/ports/STM32/LLD/SDIOv1/hal_sdc_lld.h"
 815              		.file 37 "../../modules/ChibiOS/os/hal/include/hal_spi.h"
 816              		.file 38 "../../modules/ChibiOS/os/hal/ports/STM32/LLD/SPIv1/hal_spi_lld.h"
 817              		.file 39 "../../modules/ChibiOS/os/hal/include/hal_usb.h"
 818              		.file 40 "../../modules/ChibiOS/os/hal/ports/STM32/LLD/OTGv1/hal_usb_lld.h"
 819              		.file 41 "../../modules/ChibiOS/os/hal/ports/STM32/LLD/OTGv1/stm32_otg.h"
 820              		.file 42 "c:\\program files (x86)\\gnu tools arm embedded\\6 2017-q2-update\\lib\\gcc\\arm-none-ea
 821              		.file 43 "<built-in>"
 822              		.file 44 "c:\\program files (x86)\\gnu tools arm embedded\\6 2017-q2-update\\arm-none-eabi\\includ
 823              		.file 45 "c:\\program files (x86)\\gnu tools arm embedded\\6 2017-q2-update\\arm-none-eabi\\includ
 824              		.file 46 "c:\\program files (x86)\\gnu tools arm embedded\\6 2017-q2-update\\arm-none-eabi\\includ
 825              		.file 47 "c:\\program files (x86)\\gnu tools arm embedded\\6 2017-q2-update\\arm-none-eabi\\includ
 826              		.file 48 "../../libraries/AP_HAL_ChibiOS/hwdef/common/posix.h"
 827              		.file 49 "../../libraries/AP_HAL_ChibiOS/hwdef/common/stdio.h"
 828              		.file 50 "../../libraries/AP_HAL_ChibiOS/hwdef/common/stm32_util.h"
 829              		.file 51 "../../libraries/AP_HAL_ChibiOS/hwdef/common/hrt.h"