ARM GAS  C:\cygwin64\tmp\ccjlEhND.s 			page 1


   1              		.cpu cortex-m4
   2              		.eabi_attribute 27, 1
   3              		.eabi_attribute 28, 1
   4              		.eabi_attribute 20, 1
   5              		.eabi_attribute 21, 1
   6              		.eabi_attribute 23, 3
   7              		.eabi_attribute 24, 1
   8              		.eabi_attribute 25, 1
   9              		.eabi_attribute 26, 1
  10              		.eabi_attribute 30, 4
  11              		.eabi_attribute 34, 1
  12              		.eabi_attribute 18, 4
  13              		.file	"syscalls_cpp.cpp"
  14              		.text
  15              	.Ltext0:
  16              		.cfi_sections	.debug_frame
  17              		.section	.text._exit,"ax",%progbits
  18              		.align	1
  19              		.global	_exit
  20              		.syntax unified
  21              		.thumb
  22              		.thumb_func
  23              		.fpu fpv4-sp-d16
  24              		.type	_exit, %function
  25              	_exit:
  26              		.fnstart
  27              	.LFB277:
  28              		.file 1 "../../modules/ChibiOS/os/various/cpp_wrappers/syscalls_cpp.cpp"
  29              		.loc 1 12 0
  30              		.cfi_startproc
  31              		@ args = 0, pretend = 0, frame = 0
  32              		@ frame_needed = 0, uses_anonymous_args = 0
  33              	.LVL0:
  34 0000 08B5     		push	{r3, lr}
  35              		.save {r3, lr}
  36              		.cfi_def_cfa_offset 8
  37              		.cfi_offset 3, -8
  38              		.cfi_offset 14, -4
  39              	.LBB6:
  40              	.LBB7:
  41              		.file 2 "../../modules/ChibiOS/os/hal/osal/rt/osal.h"
  42              		.loc 2 462 0
  43 0002 0248     		ldr	r0, .L3
  44              	.LVL1:
  45 0004 FFF7FEFF 		bl	chSysHalt
  46              	.LVL2:
  47              	.L2:
  48 0008 FEE7     		b	.L2
  49              	.L4:
  50 000a 00BF     		.align	2
  51              	.L3:
  52 000c 00000000 		.word	.LC0
  53              	.LBE7:
  54              	.LBE6:
  55              		.cfi_endproc
  56              	.LFE277:
  57              		.fnend
ARM GAS  C:\cygwin64\tmp\ccjlEhND.s 			page 2


  58              		.size	_exit, .-_exit
  59              		.section	.text._kill,"ax",%progbits
  60              		.align	1
  61              		.global	_kill
  62              		.syntax unified
  63              		.thumb
  64              		.thumb_func
  65              		.fpu fpv4-sp-d16
  66              		.type	_kill, %function
  67              	_kill:
  68              		.fnstart
  69              	.LFB278:
  70              		.loc 1 20 0
  71              		.cfi_startproc
  72              		@ args = 0, pretend = 0, frame = 0
  73              		@ frame_needed = 0, uses_anonymous_args = 0
  74              		@ link register save eliminated.
  75              	.LVL3:
  76              		.loc 1 23 0
  77 0000 024B     		ldr	r3, .L6
  78 0002 1622     		movs	r2, #22
  79 0004 1A60     		str	r2, [r3]
  80              		.loc 1 25 0
  81 0006 4FF0FF30 		mov	r0, #-1
  82              	.LVL4:
  83 000a 7047     		bx	lr
  84              	.L7:
  85              		.align	2
  86              	.L6:
  87 000c 00000000 		.word	errno
  88              		.cfi_endproc
  89              	.LFE278:
  90              		.cantunwind
  91              		.fnend
  92              		.size	_kill, .-_kill
  93              		.section	.text._open_r,"ax",%progbits
  94              		.align	1
  95              		.global	_open_r
  96              		.syntax unified
  97              		.thumb
  98              		.thumb_func
  99              		.fpu fpv4-sp-d16
 100              		.type	_open_r, %function
 101              	_open_r:
 102              		.fnstart
 103              	.LFB279:
 104              		.loc 1 27 0
 105              		.cfi_startproc
 106              		@ args = 0, pretend = 0, frame = 0
 107              		@ frame_needed = 0, uses_anonymous_args = 0
 108              		@ link register save eliminated.
 109 0000 7047     		bx	lr
 110              		.cfi_endproc
 111              	.LFE279:
 112              		.cantunwind
 113              		.fnend
 114              		.size	_open_r, .-_open_r
ARM GAS  C:\cygwin64\tmp\ccjlEhND.s 			page 3


 115              		.section	.text.__cxa_pure_virtual,"ax",%progbits
 116              		.align	1
 117              		.global	__cxa_pure_virtual
 118              		.syntax unified
 119              		.thumb
 120              		.thumb_func
 121              		.fpu fpv4-sp-d16
 122              		.type	__cxa_pure_virtual, %function
 123              	__cxa_pure_virtual:
 124              		.fnstart
 125              	.LFB280:
 126              		.loc 1 31 0
 127              		.cfi_startproc
 128              		@ args = 0, pretend = 0, frame = 0
 129              		@ frame_needed = 0, uses_anonymous_args = 0
 130              		@ link register save eliminated.
 131              	.LVL5:
 132              	.LBB8:
 133              	.LBB9:
 134              		.loc 2 462 0
 135 0000 0148     		ldr	r0, .L10
 136 0002 FFF7FEBF 		b	chSysHalt
 137              	.LVL6:
 138              	.L11:
 139 0006 00BF     		.align	2
 140              	.L10:
 141 0008 00000000 		.word	.LC1
 142              	.LBE9:
 143              	.LBE8:
 144              		.cfi_endproc
 145              	.LFE280:
 146              		.cantunwind
 147              		.fnend
 148              		.size	__cxa_pure_virtual, .-__cxa_pure_virtual
 149              		.global	__dso_handle
 150              		.section	.bss.__dso_handle,"aw",%nobits
 151              		.align	2
 152              		.type	__dso_handle, %object
 153              		.size	__dso_handle, 4
 154              	__dso_handle:
 155 0000 00000000 		.space	4
 156              		.section	.rodata.__cxa_pure_virtual.str1.1,"aMS",%progbits,1
 157              	.LC1:
 158 0000 50757265 		.ascii	"Pure virtual function call.\000"
 158      20766972 
 158      7475616C 
 158      2066756E 
 158      6374696F 
 159              		.section	.rodata._exit.str1.1,"aMS",%progbits,1
 160              	.LC0:
 161 0000 556E7265 		.ascii	"Unrealized\000"
 161      616C697A 
 161      656400
 162              		.text
 163              	.Letext0:
 164              		.file 3 "c:\\program files (x86)\\gnu tools arm embedded\\6 2017-q2-update\\arm-none-eabi\\include
 165              		.file 4 "c:\\program files (x86)\\gnu tools arm embedded\\6 2017-q2-update\\arm-none-eabi\\include
ARM GAS  C:\cygwin64\tmp\ccjlEhND.s 			page 4


 166              		.file 5 "../../modules/ChibiOS/os/common/ports/ARMCMx/compilers/GCC/chtypes.h"
 167              		.file 6 "../../modules/ChibiOS/os/rt/include/chsystypes.h"
 168              		.file 7 "../../modules/ChibiOS/os/rt/include/chschd.h"
 169              		.file 8 "../../modules/ChibiOS/os/common/ext/CMSIS/include/core_cm4.h"
 170              		.file 9 "../../modules/ChibiOS/os/common/ext/CMSIS/ST/STM32F4xx/system_stm32f4xx.h"
 171              		.file 10 "../../modules/ChibiOS/os/common/ext/CMSIS/ST/STM32F4xx/stm32f4xx.h"
 172              		.file 11 "../../modules/ChibiOS/os/common/ports/ARMCMx/chcore.h"
 173              		.file 12 "../../modules/ChibiOS/os/common/ports/ARMCMx/chcore_v7m.h"
 174              		.file 13 "../../modules/ChibiOS/os/rt/include/chtm.h"
 175              		.file 14 "../../modules/ChibiOS/os/rt/include/chstats.h"
 176              		.file 15 "../../modules/ChibiOS/os/rt/include/chsem.h"
 177              		.file 16 "../../modules/ChibiOS/os/rt/include/chmtx.h"
 178              		.file 17 "../../modules/ChibiOS/os/rt/include/chsys.h"
 179              		.file 18 "../../modules/ChibiOS/os/rt/include/chregistry.h"
 180              		.file 19 "c:\\program files (x86)\\gnu tools arm embedded\\6 2017-q2-update\\lib\\gcc\\arm-none-ea
 181              		.file 20 "<built-in>"
 182              		.file 21 "c:\\program files (x86)\\gnu tools arm embedded\\6 2017-q2-update\\arm-none-eabi\\includ
 183              		.file 22 "c:\\program files (x86)\\gnu tools arm embedded\\6 2017-q2-update\\arm-none-eabi\\includ
 184              		.file 23 "c:\\program files (x86)\\gnu tools arm embedded\\6 2017-q2-update\\lib\\gcc\\arm-none-ea
 185              		.file 24 "c:\\program files (x86)\\gnu tools arm embedded\\6 2017-q2-update\\arm-none-eabi\\includ
 186              		.file 25 "c:\\program files (x86)\\gnu tools arm embedded\\6 2017-q2-update\\arm-none-eabi\\includ
 187              		.file 26 "../../libraries/AP_HAL_ChibiOS/hwdef/common/posix.h"
 188              		.file 27 "../../libraries/AP_HAL_ChibiOS/hwdef/common/stdio.h"
 189              		.file 28 "c:\\program files (x86)\\gnu tools arm embedded\\6 2017-q2-update\\arm-none-eabi\\includ
 190              		.file 29 "../../modules/ChibiOS/os/various/cpp_wrappers/syscalls_cpp.hpp"